
C:/Users/zhasanr/Desktop/your_project/build/your_app.elf:     file format elf32-littlearm

Sections:
Idx Name          Size      VMA       LMA       File off  Algn
  0 .text         000067c4  10000000  10000000  00001000  2**3
                  CONTENTS, ALLOC, LOAD, READONLY, CODE
  1 .rodata       000003b0  100067c4  100067c4  000077c4  2**2
                  CONTENTS, ALLOC, LOAD, READONLY, DATA
  2 .ARM.exidx    00000008  10006b74  10006b74  00007b74  2**2
                  CONTENTS, ALLOC, LOAD, READONLY, DATA
  3 .binary_info  00000020  10006b7c  10006b7c  00007b7c  2**2
                  CONTENTS, ALLOC, LOAD, READONLY, DATA
  4 .ram_vector_table 00000110  20000000  20000000  0000a000  2**2
                  ALLOC
  5 .uninitialized_data 00000000  20000110  20000110  00009d3c  2**0
                  CONTENTS
  6 .data         0000118c  20000110  10006b9c  00008110  2**3
                  CONTENTS, ALLOC, LOAD, READONLY, CODE
  7 .tdata        00000000  2000129c  2000129c  00009d3c  2**0
                  CONTENTS, ALLOC, LOAD, DATA, THREAD_LOCAL
  8 .tbss         00000000  2000129c  2000129c  00000000  2**0
                  ALLOC, THREAD_LOCAL
  9 .bss          00020ff4  200012a0  10007d28  0000a2a0  2**3
                  ALLOC
 10 .heap         00000800  20022294  10007d28  0000a294  2**2
                  ALLOC, READONLY
 11 .scratch_x    00000000  20080000  20080000  00009d3c  2**0
                  CONTENTS
 12 .scratch_y    00000000  20081000  20081000  00009d3c  2**0
                  CONTENTS
 13 .stack1_dummy 00000800  20080000  20080000  0000a000  2**2
                  ALLOC
 14 .stack_dummy  00000800  20081000  20081000  0000a000  2**5
                  ALLOC, READONLY
 15 .flash_end    00000014  10007d28  10007d28  00009d28  2**2
                  CONTENTS, ALLOC, LOAD, READONLY, DATA
 16 .ARM.attributes 00000034  00000000  00000000  00009d3c  2**0
                  CONTENTS, READONLY
 17 .comment      00000045  00000000  00000000  00009d70  2**0
                  CONTENTS, READONLY
 18 .debug_info   0003fb9b  00000000  00000000  00009db5  2**0
                  CONTENTS, READONLY, DEBUGGING, OCTETS
 19 .debug_abbrev 0000ac7b  00000000  00000000  00049950  2**0
                  CONTENTS, READONLY, DEBUGGING, OCTETS
 20 .debug_loclists 000205a6  00000000  00000000  000545cb  2**0
                  CONTENTS, READONLY, DEBUGGING, OCTETS
 21 .debug_aranges 00001818  00000000  00000000  00074b78  2**3
                  CONTENTS, READONLY, DEBUGGING, OCTETS
 22 .debug_rnglists 000054c8  00000000  00000000  00076390  2**0
                  CONTENTS, READONLY, DEBUGGING, OCTETS
 23 .debug_line   0002c6fd  00000000  00000000  0007b858  2**0
                  CONTENTS, READONLY, DEBUGGING, OCTETS
 24 .debug_str    0000bb5e  00000000  00000000  000a7f55  2**0
                  CONTENTS, READONLY, DEBUGGING, OCTETS
 25 .debug_frame  000046bc  00000000  00000000  000b3ab4  2**2
                  CONTENTS, READONLY, DEBUGGING, OCTETS
 26 .debug_line_str 0000023a  00000000  00000000  000b8170  2**0
                  CONTENTS, READONLY, DEBUGGING, OCTETS

C:/Users/zhasanr/Desktop/your_project/build/your_app.elf:     file format elf32-littlearm


Disassembly of section .text:

10000000 <__VECTOR_TABLE>:
10000000:	20082000 	.word	0x20082000
10000004:	1000015d 	.word	0x1000015d
10000008:	1000011b 	.word	0x1000011b
1000000c:	1000011d 	.word	0x1000011d
10000010:	10000111 	.word	0x10000111
10000014:	10000111 	.word	0x10000111
10000018:	10000111 	.word	0x10000111
1000001c:	10000111 	.word	0x10000111
10000020:	10000119 	.word	0x10000119
10000024:	10000119 	.word	0x10000119
10000028:	10000119 	.word	0x10000119
1000002c:	1000011f 	.word	0x1000011f
10000030:	10000111 	.word	0x10000111
10000034:	10000119 	.word	0x10000119
10000038:	10000121 	.word	0x10000121
1000003c:	10000123 	.word	0x10000123
10000040:	10000111 	.word	0x10000111
10000044:	10000111 	.word	0x10000111
10000048:	10000111 	.word	0x10000111
1000004c:	10000111 	.word	0x10000111
10000050:	10000111 	.word	0x10000111
10000054:	10000111 	.word	0x10000111
10000058:	10000111 	.word	0x10000111
1000005c:	10000111 	.word	0x10000111
10000060:	10000111 	.word	0x10000111
10000064:	10000111 	.word	0x10000111
10000068:	10000111 	.word	0x10000111
1000006c:	10000111 	.word	0x10000111
10000070:	10000111 	.word	0x10000111
10000074:	10000111 	.word	0x10000111
10000078:	10000111 	.word	0x10000111
1000007c:	10000111 	.word	0x10000111
10000080:	10000111 	.word	0x10000111
10000084:	10000111 	.word	0x10000111
10000088:	10000111 	.word	0x10000111
1000008c:	10000111 	.word	0x10000111
10000090:	10000111 	.word	0x10000111
10000094:	10000111 	.word	0x10000111
10000098:	10000111 	.word	0x10000111
1000009c:	10000111 	.word	0x10000111
100000a0:	10000111 	.word	0x10000111
100000a4:	10000111 	.word	0x10000111
100000a8:	10000111 	.word	0x10000111
100000ac:	10000111 	.word	0x10000111
100000b0:	10000111 	.word	0x10000111
100000b4:	10000111 	.word	0x10000111
100000b8:	10000111 	.word	0x10000111
100000bc:	10000111 	.word	0x10000111
100000c0:	10000111 	.word	0x10000111
100000c4:	10000111 	.word	0x10000111
100000c8:	10000111 	.word	0x10000111
100000cc:	10000111 	.word	0x10000111
100000d0:	10000111 	.word	0x10000111
100000d4:	10000111 	.word	0x10000111
100000d8:	10000111 	.word	0x10000111
100000dc:	10000111 	.word	0x10000111
100000e0:	10000111 	.word	0x10000111
100000e4:	10000111 	.word	0x10000111
100000e8:	10000111 	.word	0x10000111
100000ec:	10000111 	.word	0x10000111
100000f0:	10000111 	.word	0x10000111
100000f4:	10000111 	.word	0x10000111
100000f8:	10000111 	.word	0x10000111
100000fc:	10000111 	.word	0x10000111
10000100:	10000111 	.word	0x10000111
10000104:	10000111 	.word	0x10000111
10000108:	10000111 	.word	0x10000111
1000010c:	10000111 	.word	0x10000111

10000110 <__unhandled_user_irq>:
10000110:	f3ef 8005 	mrs	r0, IPSR
10000114:	3810      	subs	r0, #16

10000116 <unhandled_user_irq_num_in_r0>:
10000116:	be00      	bkpt	0x0000

10000118 <isr_invalid>:
10000118:	be00      	bkpt	0x0000

1000011a <isr_nmi>:
1000011a:	be00      	bkpt	0x0000

1000011c <isr_hardfault>:
1000011c:	be00      	bkpt	0x0000

1000011e <isr_svcall>:
1000011e:	be00      	bkpt	0x0000

10000120 <isr_pendsv>:
10000120:	be00      	bkpt	0x0000

10000122 <isr_systick>:
10000122:	be00      	bkpt	0x0000

10000124 <__default_isrs_end>:
10000124:	7188ebf2 	.word	0x7188ebf2
10000128:	10006b7c 	.word	0x10006b7c
1000012c:	10006b9c 	.word	0x10006b9c
10000130:	100001a0 	.word	0x100001a0
10000134:	e71aa390 	.word	0xe71aa390

10000138 <__binary_info_header_end>:
10000138:	ffffded3 	.word	0xffffded3
1000013c:	10210142 	.word	0x10210142
10000140:	000001ff 	.word	0x000001ff
10000144:	00007bf0 	.word	0x00007bf0
10000148:	ab123579 	.word	0xab123579

1000014c <_entry_point>:
1000014c:	f04f 0000 	mov.w	r0, #0

10000150 <_enter_vtable_in_r0>:
10000150:	491e      	ldr	r1, [pc, #120]	@ (100001cc <data_cpy_table+0x2c>)
10000152:	6008      	str	r0, [r1, #0]
10000154:	c806      	ldmia	r0!, {r1, r2}
10000156:	f381 8808 	msr	MSP, r1
1000015a:	4710      	bx	r2

1000015c <_reset_handler>:
1000015c:	f04f 4050 	mov.w	r0, #3489660928	@ 0xd0000000
10000160:	6800      	ldr	r0, [r0, #0]
10000162:	b110      	cbz	r0, 1000016a <hold_non_core0_in_bootrom+0x6>

10000164 <hold_non_core0_in_bootrom>:
10000164:	f04f 0000 	mov.w	r0, #0
10000168:	e7f2      	b.n	10000150 <_enter_vtable_in_r0>
1000016a:	a40d      	add	r4, pc, #52	@ (adr r4, 100001a0 <data_cpy_table>)
1000016c:	cc0e      	ldmia	r4!, {r1, r2, r3}
1000016e:	2900      	cmp	r1, #0
10000170:	d002      	beq.n	10000178 <hold_non_core0_in_bootrom+0x14>
10000172:	f000 f812 	bl	1000019a <data_cpy>
10000176:	e7f9      	b.n	1000016c <hold_non_core0_in_bootrom+0x8>
10000178:	4915      	ldr	r1, [pc, #84]	@ (100001d0 <data_cpy_table+0x30>)
1000017a:	4a16      	ldr	r2, [pc, #88]	@ (100001d4 <data_cpy_table+0x34>)
1000017c:	2000      	movs	r0, #0
1000017e:	e000      	b.n	10000182 <bss_fill_test>

10000180 <bss_fill_loop>:
10000180:	c101      	stmia	r1!, {r0}

10000182 <bss_fill_test>:
10000182:	4291      	cmp	r1, r2
10000184:	d1fc      	bne.n	10000180 <bss_fill_loop>

10000186 <platform_entry>:
10000186:	4914      	ldr	r1, [pc, #80]	@ (100001d8 <data_cpy_table+0x38>)
10000188:	4788      	blx	r1
1000018a:	4914      	ldr	r1, [pc, #80]	@ (100001dc <data_cpy_table+0x3c>)
1000018c:	4788      	blx	r1
1000018e:	4914      	ldr	r1, [pc, #80]	@ (100001e0 <data_cpy_table+0x40>)
10000190:	4788      	blx	r1
10000192:	be00      	bkpt	0x0000
10000194:	e7fd      	b.n	10000192 <platform_entry+0xc>

10000196 <data_cpy_loop>:
10000196:	c901      	ldmia	r1!, {r0}
10000198:	c201      	stmia	r2!, {r0}

1000019a <data_cpy>:
1000019a:	429a      	cmp	r2, r3
1000019c:	d3fb      	bcc.n	10000196 <data_cpy_loop>
1000019e:	4770      	bx	lr

100001a0 <data_cpy_table>:
100001a0:	10006b9c 	.word	0x10006b9c
100001a4:	20000110 	.word	0x20000110
100001a8:	2000129c 	.word	0x2000129c
100001ac:	10007d28 	.word	0x10007d28
100001b0:	20080000 	.word	0x20080000
100001b4:	20080000 	.word	0x20080000
100001b8:	10007d28 	.word	0x10007d28
100001bc:	20081000 	.word	0x20081000
100001c0:	20081000 	.word	0x20081000
100001c4:	00000000 	.word	0x00000000
100001c8:	4770      	bx	lr
100001ca:	0000      	.short	0x0000
100001cc:	e000ed08 	.word	0xe000ed08
100001d0:	2000129c 	.word	0x2000129c
100001d4:	20022294 	.word	0x20022294
100001d8:	10003c3d 	.word	0x10003c3d
100001dc:	10000265 	.word	0x10000265
100001e0:	10003c35 	.word	0x10003c35

100001e4 <_init>:
100001e4:	b5f8      	push	{r3, r4, r5, r6, r7, lr}
100001e6:	bf00      	nop

100001e8 <register_tm_clones>:
100001e8:	4b06      	ldr	r3, [pc, #24]	@ (10000204 <register_tm_clones+0x1c>)
100001ea:	4907      	ldr	r1, [pc, #28]	@ (10000208 <register_tm_clones+0x20>)
100001ec:	1ac9      	subs	r1, r1, r3
100001ee:	1089      	asrs	r1, r1, #2
100001f0:	bf48      	it	mi
100001f2:	3101      	addmi	r1, #1
100001f4:	1049      	asrs	r1, r1, #1
100001f6:	d003      	beq.n	10000200 <register_tm_clones+0x18>
100001f8:	4b04      	ldr	r3, [pc, #16]	@ (1000020c <register_tm_clones+0x24>)
100001fa:	b10b      	cbz	r3, 10000200 <register_tm_clones+0x18>
100001fc:	4801      	ldr	r0, [pc, #4]	@ (10000204 <register_tm_clones+0x1c>)
100001fe:	4718      	bx	r3
10000200:	4770      	bx	lr
10000202:	bf00      	nop
10000204:	2000129c 	.word	0x2000129c
10000208:	2000129c 	.word	0x2000129c
1000020c:	00000000 	.word	0x00000000

10000210 <frame_dummy>:
10000210:	b508      	push	{r3, lr}
10000212:	4b05      	ldr	r3, [pc, #20]	@ (10000228 <frame_dummy+0x18>)
10000214:	b11b      	cbz	r3, 1000021e <frame_dummy+0xe>
10000216:	4905      	ldr	r1, [pc, #20]	@ (1000022c <frame_dummy+0x1c>)
10000218:	4805      	ldr	r0, [pc, #20]	@ (10000230 <frame_dummy+0x20>)
1000021a:	f3af 8000 	nop.w
1000021e:	e8bd 4008 	ldmia.w	sp!, {r3, lr}
10000222:	f7ff bfe1 	b.w	100001e8 <register_tm_clones>
10000226:	bf00      	nop
10000228:	00000000 	.word	0x00000000
1000022c:	20001e9c 	.word	0x20001e9c
10000230:	100067c4 	.word	0x100067c4

10000234 <task2>:
10000234:	b508      	push	{r3, lr}
10000236:	4803      	ldr	r0, [pc, #12]	@ (10000244 <task2+0x10>)
10000238:	f003 fe44 	bl	10003ec4 <__wrap_puts>
1000023c:	4b02      	ldr	r3, [pc, #8]	@ (10000248 <task2+0x14>)
1000023e:	3b01      	subs	r3, #1
10000240:	d1fd      	bne.n	1000023e <task2+0xa>
10000242:	e7f8      	b.n	10000236 <task2+0x2>
10000244:	100067c4 	.word	0x100067c4
10000248:	00e4e1c0 	.word	0x00e4e1c0

1000024c <task1>:
1000024c:	b508      	push	{r3, lr}
1000024e:	4804      	ldr	r0, [pc, #16]	@ (10000260 <task1+0x14>)
10000250:	f003 fe38 	bl	10003ec4 <__wrap_puts>
10000254:	f44f 707a 	mov.w	r0, #1000	@ 0x3e8
10000258:	f001 fbfa 	bl	10001a50 <vTaskDelay>
1000025c:	e7f7      	b.n	1000024e <task1+0x2>
1000025e:	bf00      	nop
10000260:	100067cc 	.word	0x100067cc

10000264 <main>:
10000264:	b510      	push	{r4, lr}
10000266:	b082      	sub	sp, #8
10000268:	f003 fde8 	bl	10003e3c <stdio_init_all>
1000026c:	2400      	movs	r4, #0
1000026e:	f04f 0c01 	mov.w	ip, #1
10000272:	4623      	mov	r3, r4
10000274:	e9cd c400 	strd	ip, r4, [sp]
10000278:	f44f 7280 	mov.w	r2, #256	@ 0x100
1000027c:	4909      	ldr	r1, [pc, #36]	@ (100002a4 <main+0x40>)
1000027e:	480a      	ldr	r0, [pc, #40]	@ (100002a8 <main+0x44>)
10000280:	f001 fa18 	bl	100016b4 <xTaskCreate>
10000284:	f04f 0c02 	mov.w	ip, #2
10000288:	f44f 7280 	mov.w	r2, #256	@ 0x100
1000028c:	4623      	mov	r3, r4
1000028e:	e9cd c400 	strd	ip, r4, [sp]
10000292:	4906      	ldr	r1, [pc, #24]	@ (100002ac <main+0x48>)
10000294:	4806      	ldr	r0, [pc, #24]	@ (100002b0 <main+0x4c>)
10000296:	f001 fa0d 	bl	100016b4 <xTaskCreate>
1000029a:	f001 fa97 	bl	100017cc <vTaskStartScheduler>
1000029e:	4620      	mov	r0, r4
100002a0:	b002      	add	sp, #8
100002a2:	bd10      	pop	{r4, pc}
100002a4:	100067d4 	.word	0x100067d4
100002a8:	1000024d 	.word	0x1000024d
100002ac:	100067dc 	.word	0x100067dc
100002b0:	10000235 	.word	0x10000235

100002b4 <pvPortMalloc>:
100002b4:	b570      	push	{r4, r5, r6, lr}
100002b6:	1e42      	subs	r2, r0, #1
100002b8:	320a      	adds	r2, #10
100002ba:	b082      	sub	sp, #8
100002bc:	d84d      	bhi.n	1000035a <pvPortMalloc+0xa6>
100002be:	4603      	mov	r3, r0
100002c0:	f013 0207 	ands.w	r2, r3, #7
100002c4:	f100 0008 	add.w	r0, r0, #8
100002c8:	d152      	bne.n	10000370 <pvPortMalloc+0xbc>
100002ca:	9001      	str	r0, [sp, #4]
100002cc:	f001 faee 	bl	100018ac <vTaskSuspendAll>
100002d0:	4a43      	ldr	r2, [pc, #268]	@ (100003e0 <pvPortMalloc+0x12c>)
100002d2:	9801      	ldr	r0, [sp, #4]
100002d4:	f8d2 e000 	ldr.w	lr, [r2]
100002d8:	4684      	mov	ip, r0
100002da:	f1be 0f00 	cmp.w	lr, #0
100002de:	d05f      	beq.n	100003a0 <pvPortMalloc+0xec>
100002e0:	2800      	cmp	r0, #0
100002e2:	db3f      	blt.n	10000364 <pvPortMalloc+0xb0>
100002e4:	4b3f      	ldr	r3, [pc, #252]	@ (100003e4 <pvPortMalloc+0x130>)
100002e6:	681b      	ldr	r3, [r3, #0]
100002e8:	4283      	cmp	r3, r0
100002ea:	461e      	mov	r6, r3
100002ec:	d33a      	bcc.n	10000364 <pvPortMalloc+0xb0>
100002ee:	4b3e      	ldr	r3, [pc, #248]	@ (100003e8 <pvPortMalloc+0x134>)
100002f0:	469c      	mov	ip, r3
100002f2:	681b      	ldr	r3, [r3, #0]
100002f4:	e003      	b.n	100002fe <pvPortMalloc+0x4a>
100002f6:	681a      	ldr	r2, [r3, #0]
100002f8:	b122      	cbz	r2, 10000304 <pvPortMalloc+0x50>
100002fa:	469c      	mov	ip, r3
100002fc:	4613      	mov	r3, r2
100002fe:	6859      	ldr	r1, [r3, #4]
10000300:	4281      	cmp	r1, r0
10000302:	d3f8      	bcc.n	100002f6 <pvPortMalloc+0x42>
10000304:	4573      	cmp	r3, lr
10000306:	d02d      	beq.n	10000364 <pvPortMalloc+0xb0>
10000308:	461c      	mov	r4, r3
1000030a:	eba1 0e00 	sub.w	lr, r1, r0
1000030e:	f854 2b08 	ldr.w	r2, [r4], #8
10000312:	f1be 0f10 	cmp.w	lr, #16
10000316:	f8cc 2000 	str.w	r2, [ip]
1000031a:	d906      	bls.n	1000032a <pvPortMalloc+0x76>
1000031c:	4601      	mov	r1, r0
1000031e:	181d      	adds	r5, r3, r0
10000320:	f8c5 e004 	str.w	lr, [r5, #4]
10000324:	501a      	str	r2, [r3, r0]
10000326:	f8cc 5000 	str.w	r5, [ip]
1000032a:	f04f 0c00 	mov.w	ip, #0
1000032e:	482d      	ldr	r0, [pc, #180]	@ (100003e4 <pvPortMalloc+0x130>)
10000330:	1a72      	subs	r2, r6, r1
10000332:	6002      	str	r2, [r0, #0]
10000334:	482d      	ldr	r0, [pc, #180]	@ (100003ec <pvPortMalloc+0x138>)
10000336:	f041 4100 	orr.w	r1, r1, #2147483648	@ 0x80000000
1000033a:	6805      	ldr	r5, [r0, #0]
1000033c:	6059      	str	r1, [r3, #4]
1000033e:	42aa      	cmp	r2, r5
10000340:	bf38      	it	cc
10000342:	6002      	strcc	r2, [r0, #0]
10000344:	482a      	ldr	r0, [pc, #168]	@ (100003f0 <pvPortMalloc+0x13c>)
10000346:	f8c3 c000 	str.w	ip, [r3]
1000034a:	6802      	ldr	r2, [r0, #0]
1000034c:	3201      	adds	r2, #1
1000034e:	6002      	str	r2, [r0, #0]
10000350:	f001 fab4 	bl	100018bc <xTaskResumeAll>
10000354:	4620      	mov	r0, r4
10000356:	b002      	add	sp, #8
10000358:	bd70      	pop	{r4, r5, r6, pc}
1000035a:	f001 faa7 	bl	100018ac <vTaskSuspendAll>
1000035e:	4a20      	ldr	r2, [pc, #128]	@ (100003e0 <pvPortMalloc+0x12c>)
10000360:	6813      	ldr	r3, [r2, #0]
10000362:	b1d3      	cbz	r3, 1000039a <pvPortMalloc+0xe6>
10000364:	2400      	movs	r4, #0
10000366:	f001 faa9 	bl	100018bc <xTaskResumeAll>
1000036a:	4620      	mov	r0, r4
1000036c:	b002      	add	sp, #8
1000036e:	bd70      	pop	{r4, r5, r6, pc}
10000370:	f1a2 0109 	sub.w	r1, r2, #9
10000374:	4281      	cmp	r1, r0
10000376:	d3f0      	bcc.n	1000035a <pvPortMalloc+0xa6>
10000378:	3310      	adds	r3, #16
1000037a:	1a98      	subs	r0, r3, r2
1000037c:	9001      	str	r0, [sp, #4]
1000037e:	f001 fa95 	bl	100018ac <vTaskSuspendAll>
10000382:	4a17      	ldr	r2, [pc, #92]	@ (100003e0 <pvPortMalloc+0x12c>)
10000384:	9801      	ldr	r0, [sp, #4]
10000386:	f8d2 e000 	ldr.w	lr, [r2]
1000038a:	4684      	mov	ip, r0
1000038c:	f1be 0f00 	cmp.w	lr, #0
10000390:	d006      	beq.n	100003a0 <pvPortMalloc+0xec>
10000392:	f1bc 0f00 	cmp.w	ip, #0
10000396:	dca5      	bgt.n	100002e4 <pvPortMalloc+0x30>
10000398:	e7e4      	b.n	10000364 <pvPortMalloc+0xb0>
1000039a:	f04f 0c00 	mov.w	ip, #0
1000039e:	4660      	mov	r0, ip
100003a0:	4b14      	ldr	r3, [pc, #80]	@ (100003f4 <pvPortMalloc+0x140>)
100003a2:	f8df e054 	ldr.w	lr, [pc, #84]	@ 100003f8 <pvPortMalloc+0x144>
100003a6:	0759      	lsls	r1, r3, #29
100003a8:	bf1c      	itt	ne
100003aa:	3307      	addne	r3, #7
100003ac:	f023 0307 	bicne.w	r3, r3, #7
100003b0:	461c      	mov	r4, r3
100003b2:	2100      	movs	r1, #0
100003b4:	f02e 0e07 	bic.w	lr, lr, #7
100003b8:	f8c2 e000 	str.w	lr, [r2]
100003bc:	4a0a      	ldr	r2, [pc, #40]	@ (100003e8 <pvPortMalloc+0x134>)
100003be:	ebae 0303 	sub.w	r3, lr, r3
100003c2:	e9c2 4100 	strd	r4, r1, [r2]
100003c6:	4a09      	ldr	r2, [pc, #36]	@ (100003ec <pvPortMalloc+0x138>)
100003c8:	f1bc 0f00 	cmp.w	ip, #0
100003cc:	6013      	str	r3, [r2, #0]
100003ce:	4a05      	ldr	r2, [pc, #20]	@ (100003e4 <pvPortMalloc+0x130>)
100003d0:	e9ce 1100 	strd	r1, r1, [lr]
100003d4:	6013      	str	r3, [r2, #0]
100003d6:	e9c4 e300 	strd	lr, r3, [r4]
100003da:	dc83      	bgt.n	100002e4 <pvPortMalloc+0x30>
100003dc:	e7c2      	b.n	10000364 <pvPortMalloc+0xb0>
100003de:	bf00      	nop
100003e0:	20001eec 	.word	0x20001eec
100003e4:	20022210 	.word	0x20022210
100003e8:	2002224c 	.word	0x2002224c
100003ec:	2002221c 	.word	0x2002221c
100003f0:	20022228 	.word	0x20022228
100003f4:	2000218c 	.word	0x2000218c
100003f8:	20022184 	.word	0x20022184

100003fc <vPortFree>:
100003fc:	b118      	cbz	r0, 10000406 <vPortFree+0xa>
100003fe:	f850 3c04 	ldr.w	r3, [r0, #-4]
10000402:	2b00      	cmp	r3, #0
10000404:	db00      	blt.n	10000408 <vPortFree+0xc>
10000406:	4770      	bx	lr
10000408:	f850 2c08 	ldr.w	r2, [r0, #-8]
1000040c:	2a00      	cmp	r2, #0
1000040e:	d1fa      	bne.n	10000406 <vPortFree+0xa>
10000410:	b510      	push	{r4, lr}
10000412:	f023 4300 	bic.w	r3, r3, #2147483648	@ 0x80000000
10000416:	b082      	sub	sp, #8
10000418:	f1a0 0208 	sub.w	r2, r0, #8
1000041c:	f840 3c04 	str.w	r3, [r0, #-4]
10000420:	e9cd 2000 	strd	r2, r0, [sp]
10000424:	f001 fa42 	bl	100018ac <vTaskSuspendAll>
10000428:	f8df e08c 	ldr.w	lr, [pc, #140]	@ 100004b8 <vPortFree+0xbc>
1000042c:	9801      	ldr	r0, [sp, #4]
1000042e:	f8de 1000 	ldr.w	r1, [lr]
10000432:	f850 cc04 	ldr.w	ip, [r0, #-4]
10000436:	4b1d      	ldr	r3, [pc, #116]	@ (100004ac <vPortFree+0xb0>)
10000438:	4461      	add	r1, ip
1000043a:	9a00      	ldr	r2, [sp, #0]
1000043c:	f8ce 1000 	str.w	r1, [lr]
10000440:	4619      	mov	r1, r3
10000442:	681b      	ldr	r3, [r3, #0]
10000444:	429a      	cmp	r2, r3
10000446:	d8fb      	bhi.n	10000440 <vPortFree+0x44>
10000448:	f8d1 e004 	ldr.w	lr, [r1, #4]
1000044c:	eb01 040e 	add.w	r4, r1, lr
10000450:	42a2      	cmp	r2, r4
10000452:	d011      	beq.n	10000478 <vPortFree+0x7c>
10000454:	eb02 0e0c 	add.w	lr, r2, ip
10000458:	4573      	cmp	r3, lr
1000045a:	d01f      	beq.n	1000049c <vPortFree+0xa0>
1000045c:	f840 3c08 	str.w	r3, [r0, #-8]
10000460:	4291      	cmp	r1, r2
10000462:	bf18      	it	ne
10000464:	600a      	strne	r2, [r1, #0]
10000466:	4a12      	ldr	r2, [pc, #72]	@ (100004b0 <vPortFree+0xb4>)
10000468:	6813      	ldr	r3, [r2, #0]
1000046a:	3301      	adds	r3, #1
1000046c:	6013      	str	r3, [r2, #0]
1000046e:	b002      	add	sp, #8
10000470:	e8bd 4010 	ldmia.w	sp!, {r4, lr}
10000474:	f001 ba22 	b.w	100018bc <xTaskResumeAll>
10000478:	44f4      	add	ip, lr
1000047a:	eb01 020c 	add.w	r2, r1, ip
1000047e:	4293      	cmp	r3, r2
10000480:	f8c1 c004 	str.w	ip, [r1, #4]
10000484:	d1ef      	bne.n	10000466 <vPortFree+0x6a>
10000486:	4a0b      	ldr	r2, [pc, #44]	@ (100004b4 <vPortFree+0xb8>)
10000488:	6812      	ldr	r2, [r2, #0]
1000048a:	429a      	cmp	r2, r3
1000048c:	d0eb      	beq.n	10000466 <vPortFree+0x6a>
1000048e:	460a      	mov	r2, r1
10000490:	e9d3 3000 	ldrd	r3, r0, [r3]
10000494:	4460      	add	r0, ip
10000496:	6013      	str	r3, [r2, #0]
10000498:	6050      	str	r0, [r2, #4]
1000049a:	e7e1      	b.n	10000460 <vPortFree+0x64>
1000049c:	f8df e014 	ldr.w	lr, [pc, #20]	@ 100004b4 <vPortFree+0xb8>
100004a0:	f8de e000 	ldr.w	lr, [lr]
100004a4:	4573      	cmp	r3, lr
100004a6:	d1f3      	bne.n	10000490 <vPortFree+0x94>
100004a8:	e7d8      	b.n	1000045c <vPortFree+0x60>
100004aa:	bf00      	nop
100004ac:	2002224c 	.word	0x2002224c
100004b0:	2002222c 	.word	0x2002222c
100004b4:	20001eec 	.word	0x20001eec
100004b8:	20022210 	.word	0x20022210

100004bc <prvTaskExitError>:
100004bc:	2300      	movs	r3, #0
100004be:	b500      	push	{lr}
100004c0:	b083      	sub	sp, #12
100004c2:	9301      	str	r3, [sp, #4]
100004c4:	f000 fac2 	bl	10000a4c <ulSetInterruptMask>
100004c8:	9b01      	ldr	r3, [sp, #4]
100004ca:	2b00      	cmp	r3, #0
100004cc:	d0fc      	beq.n	100004c8 <prvTaskExitError+0xc>
100004ce:	b003      	add	sp, #12
100004d0:	bd00      	pop	{pc}
100004d2:	bf00      	nop

100004d4 <SysTick_Handler>:
100004d4:	b510      	push	{r4, lr}
100004d6:	f000 fab9 	bl	10000a4c <ulSetInterruptMask>
100004da:	4604      	mov	r4, r0
100004dc:	f001 fb20 	bl	10001b20 <xTaskIncrementTick>
100004e0:	b128      	cbz	r0, 100004ee <SysTick_Handler+0x1a>
100004e2:	f04f 23e0 	mov.w	r3, #3758153728	@ 0xe000e000
100004e6:	f04f 5280 	mov.w	r2, #268435456	@ 0x10000000
100004ea:	f8c3 2d04 	str.w	r2, [r3, #3332]	@ 0xd04
100004ee:	4620      	mov	r0, r4
100004f0:	e8bd 4010 	ldmia.w	sp!, {r4, lr}
100004f4:	f000 bab6 	b.w	10000a64 <vClearInterruptMask>

100004f8 <prvDoorbellInterruptHandler>:
100004f8:	4b1e      	ldr	r3, [pc, #120]	@ (10000574 <prvDoorbellInterruptHandler+0x7c>)
100004fa:	f993 3000 	ldrsb.w	r3, [r3]
100004fe:	2b00      	cmp	r3, #0
10000500:	db08      	blt.n	10000514 <prvDoorbellInterruptHandler+0x1c>
10000502:	f04f 4150 	mov.w	r1, #3489660928	@ 0xd0000000
10000506:	2201      	movs	r2, #1
10000508:	f8d1 0188 	ldr.w	r0, [r1, #392]	@ 0x188
1000050c:	fa02 f303 	lsl.w	r3, r2, r3
10000510:	4218      	tst	r0, r3
10000512:	d100      	bne.n	10000516 <prvDoorbellInterruptHandler+0x1e>
10000514:	4770      	bx	lr
10000516:	2200      	movs	r2, #0
10000518:	b500      	push	{lr}
1000051a:	4817      	ldr	r0, [pc, #92]	@ (10000578 <prvDoorbellInterruptHandler+0x80>)
1000051c:	b083      	sub	sp, #12
1000051e:	f8c1 318c 	str.w	r3, [r1, #396]	@ 0x18c
10000522:	6803      	ldr	r3, [r0, #0]
10000524:	9201      	str	r2, [sp, #4]
10000526:	f3ef 8c10 	mrs	ip, PRIMASK
1000052a:	b672      	cpsid	i
1000052c:	e8d3 efcf 	ldaexb	lr, [r3]
10000530:	2101      	movs	r1, #1
10000532:	f1be 0f00 	cmp.w	lr, #0
10000536:	d1f9      	bne.n	1000052c <prvDoorbellInterruptHandler+0x34>
10000538:	e8c3 1f4e 	strexb	lr, r1, [r3]
1000053c:	f1be 0f00 	cmp.w	lr, #0
10000540:	d1f4      	bne.n	1000052c <prvDoorbellInterruptHandler+0x34>
10000542:	f3bf 8f5f 	dmb	sy
10000546:	4b0d      	ldr	r3, [pc, #52]	@ (1000057c <prvDoorbellInterruptHandler+0x84>)
10000548:	6800      	ldr	r0, [r0, #0]
1000054a:	6819      	ldr	r1, [r3, #0]
1000054c:	601a      	str	r2, [r3, #0]
1000054e:	e8c0 2f8f 	stlb	r2, [r0]
10000552:	f38c 8810 	msr	PRIMASK, ip
10000556:	4b0a      	ldr	r3, [pc, #40]	@ (10000580 <prvDoorbellInterruptHandler+0x88>)
10000558:	aa01      	add	r2, sp, #4
1000055a:	6818      	ldr	r0, [r3, #0]
1000055c:	f000 fbaa 	bl	10000cb4 <xEventGroupSetBitsFromISR>
10000560:	9b01      	ldr	r3, [sp, #4]
10000562:	b12b      	cbz	r3, 10000570 <prvDoorbellInterruptHandler+0x78>
10000564:	f04f 23e0 	mov.w	r3, #3758153728	@ 0xe000e000
10000568:	f04f 5280 	mov.w	r2, #268435456	@ 0x10000000
1000056c:	f8c3 2d04 	str.w	r2, [r3, #3332]	@ 0xd04
10000570:	b003      	add	sp, #12
10000572:	bd00      	pop	{pc}
10000574:	200011e8 	.word	0x200011e8
10000578:	20001edc 	.word	0x20001edc
1000057c:	200221a4 	.word	0x200221a4
10000580:	2002220c 	.word	0x2002220c

10000584 <vPortSetupTimerInterrupt>:
10000584:	b510      	push	{r4, lr}
10000586:	2204      	movs	r2, #4
10000588:	f04f 24e0 	mov.w	r4, #3758153728	@ 0xe000e000
1000058c:	2300      	movs	r3, #0
1000058e:	6122      	str	r2, [r4, #16]
10000590:	2005      	movs	r0, #5
10000592:	61a3      	str	r3, [r4, #24]
10000594:	f002 f85e 	bl	10002654 <clock_get_hz>
10000598:	2207      	movs	r2, #7
1000059a:	4b04      	ldr	r3, [pc, #16]	@ (100005ac <vPortSetupTimerInterrupt+0x28>)
1000059c:	fba3 3000 	umull	r3, r0, r3, r0
100005a0:	0980      	lsrs	r0, r0, #6
100005a2:	3801      	subs	r0, #1
100005a4:	6160      	str	r0, [r4, #20]
100005a6:	6122      	str	r2, [r4, #16]
100005a8:	bd10      	pop	{r4, pc}
100005aa:	bf00      	nop
100005ac:	10624dd3 	.word	0x10624dd3

100005b0 <vPortYield>:
100005b0:	f04f 23e0 	mov.w	r3, #3758153728	@ 0xe000e000
100005b4:	f04f 5280 	mov.w	r2, #268435456	@ 0x10000000
100005b8:	f8c3 2d04 	str.w	r2, [r3, #3332]	@ 0xd04
100005bc:	f3bf 8f4f 	dsb	sy
100005c0:	f3bf 8f6f 	isb	sy
100005c4:	4770      	bx	lr
100005c6:	bf00      	nop

100005c8 <vPortEnterCritical>:
100005c8:	b508      	push	{r3, lr}
100005ca:	f000 fa3f 	bl	10000a4c <ulSetInterruptMask>
100005ce:	4a04      	ldr	r2, [pc, #16]	@ (100005e0 <vPortEnterCritical+0x18>)
100005d0:	6813      	ldr	r3, [r2, #0]
100005d2:	3301      	adds	r3, #1
100005d4:	6013      	str	r3, [r2, #0]
100005d6:	f3bf 8f4f 	dsb	sy
100005da:	f3bf 8f6f 	isb	sy
100005de:	bd08      	pop	{r3, pc}
100005e0:	200011ec 	.word	0x200011ec

100005e4 <vPortExitCritical>:
100005e4:	4b04      	ldr	r3, [pc, #16]	@ (100005f8 <vPortExitCritical+0x14>)
100005e6:	681a      	ldr	r2, [r3, #0]
100005e8:	3a01      	subs	r2, #1
100005ea:	601a      	str	r2, [r3, #0]
100005ec:	6818      	ldr	r0, [r3, #0]
100005ee:	b100      	cbz	r0, 100005f2 <vPortExitCritical+0xe>
100005f0:	4770      	bx	lr
100005f2:	f000 ba37 	b.w	10000a64 <vClearInterruptMask>
100005f6:	bf00      	nop
100005f8:	200011ec 	.word	0x200011ec

100005fc <vPortSVCHandler_C>:
100005fc:	6983      	ldr	r3, [r0, #24]
100005fe:	f813 3c02 	ldrb.w	r3, [r3, #-2]
10000602:	2b66      	cmp	r3, #102	@ 0x66
10000604:	d000      	beq.n	10000608 <vPortSVCHandler_C+0xc>
10000606:	4770      	bx	lr
10000608:	f04f 23e0 	mov.w	r3, #3758153728	@ 0xe000e000
1000060c:	f8d3 2d88 	ldr.w	r2, [r3, #3464]	@ 0xd88
10000610:	f442 0270 	orr.w	r2, r2, #15728640	@ 0xf00000
10000614:	f8c3 2d88 	str.w	r2, [r3, #3464]	@ 0xd88
10000618:	f8d3 2f34 	ldr.w	r2, [r3, #3892]	@ 0xf34
1000061c:	f042 4240 	orr.w	r2, r2, #3221225472	@ 0xc0000000
10000620:	f8c3 2f34 	str.w	r2, [r3, #3892]	@ 0xf34
10000624:	f000 b9f4 	b.w	10000a10 <vRestoreContextOfFirstTask>

10000628 <pxPortInitialiseStack>:
10000628:	b500      	push	{lr}
1000062a:	f04f 3c12 	mov.w	ip, #303174162	@ 0x12121212
1000062e:	f04f 7e80 	mov.w	lr, #16777216	@ 0x1000000
10000632:	f840 3c20 	str.w	r3, [r0, #-32]
10000636:	4b1a      	ldr	r3, [pc, #104]	@ (100006a0 <pxPortInitialiseStack+0x78>)
10000638:	f840 cc10 	str.w	ip, [r0, #-16]
1000063c:	e940 3203 	strd	r3, r2, [r0, #-12]
10000640:	f840 ec04 	str.w	lr, [r0, #-4]
10000644:	f04f 3c03 	mov.w	ip, #50529027	@ 0x3030303
10000648:	f04f 3202 	mov.w	r2, #33686018	@ 0x2020202
1000064c:	f04f 3e01 	mov.w	lr, #16843009	@ 0x1010101
10000650:	e940 2c06 	strd	r2, ip, [r0, #-24]
10000654:	f840 ec1c 	str.w	lr, [r0, #-28]
10000658:	f04f 3c11 	mov.w	ip, #286331153	@ 0x11111111
1000065c:	f04f 3210 	mov.w	r2, #269488144	@ 0x10101010
10000660:	f04f 3e09 	mov.w	lr, #151587081	@ 0x9090909
10000664:	e940 2c0a 	strd	r2, ip, [r0, #-40]	@ 0x28
10000668:	f840 ec2c 	str.w	lr, [r0, #-44]
1000066c:	f04f 3c08 	mov.w	ip, #134744072	@ 0x8080808
10000670:	f04f 3207 	mov.w	r2, #117901063	@ 0x7070707
10000674:	f04f 3e06 	mov.w	lr, #101058054	@ 0x6060606
10000678:	e940 2c0d 	strd	r2, ip, [r0, #-52]	@ 0x34
1000067c:	f840 ec38 	str.w	lr, [r0, #-56]
10000680:	4603      	mov	r3, r0
10000682:	f04f 3c05 	mov.w	ip, #84215045	@ 0x5050505
10000686:	f04f 3204 	mov.w	r2, #67372036	@ 0x4040404
1000068a:	f06f 0e02 	mvn.w	lr, #2
1000068e:	e940 2c10 	strd	r2, ip, [r0, #-64]	@ 0x40
10000692:	f840 ec44 	str.w	lr, [r0, #-68]
10000696:	f843 1d48 	str.w	r1, [r3, #-72]!
1000069a:	4618      	mov	r0, r3
1000069c:	bd00      	pop	{pc}
1000069e:	bf00      	nop
100006a0:	100004bd 	.word	0x100004bd

100006a4 <xPortStartScheduler>:
100006a4:	f04f 23e0 	mov.w	r3, #3758153728	@ 0xe000e000
100006a8:	f04f 427f 	mov.w	r2, #4278190080	@ 0xff000000
100006ac:	2100      	movs	r1, #0
100006ae:	b570      	push	{r4, r5, r6, lr}
100006b0:	b084      	sub	sp, #16
100006b2:	9102      	str	r1, [sp, #8]
100006b4:	f8c3 2d1c 	str.w	r2, [r3, #3356]	@ 0xd1c
100006b8:	f8d3 3d1c 	ldr.w	r3, [r3, #3356]	@ 0xd1c
100006bc:	0e1b      	lsrs	r3, r3, #24
100006be:	f88d 3007 	strb.w	r3, [sp, #7]
100006c2:	f89d 3007 	ldrb.w	r3, [sp, #7]
100006c6:	f89d 3007 	ldrb.w	r3, [sp, #7]
100006ca:	061a      	lsls	r2, r3, #24
100006cc:	d50b      	bpl.n	100006e6 <xPortStartScheduler+0x42>
100006ce:	9b02      	ldr	r3, [sp, #8]
100006d0:	3301      	adds	r3, #1
100006d2:	9302      	str	r3, [sp, #8]
100006d4:	f89d 3007 	ldrb.w	r3, [sp, #7]
100006d8:	005b      	lsls	r3, r3, #1
100006da:	f88d 3007 	strb.w	r3, [sp, #7]
100006de:	f89d 3007 	ldrb.w	r3, [sp, #7]
100006e2:	061b      	lsls	r3, r3, #24
100006e4:	d4f3      	bmi.n	100006ce <xPortStartScheduler+0x2a>
100006e6:	9b02      	ldr	r3, [sp, #8]
100006e8:	2b08      	cmp	r3, #8
100006ea:	d054      	beq.n	10000796 <xPortStartScheduler+0xf2>
100006ec:	9a02      	ldr	r2, [sp, #8]
100006ee:	f1c2 0207 	rsb	r2, r2, #7
100006f2:	0212      	lsls	r2, r2, #8
100006f4:	f402 62e0 	and.w	r2, r2, #1792	@ 0x700
100006f8:	f04f 23e0 	mov.w	r3, #3758153728	@ 0xe000e000
100006fc:	2400      	movs	r4, #0
100006fe:	f04f 4550 	mov.w	r5, #3489660928	@ 0xd0000000
10000702:	4926      	ldr	r1, [pc, #152]	@ (1000079c <xPortStartScheduler+0xf8>)
10000704:	200e      	movs	r0, #14
10000706:	600a      	str	r2, [r1, #0]
10000708:	f8d3 2d20 	ldr.w	r2, [r3, #3360]	@ 0xd20
1000070c:	4924      	ldr	r1, [pc, #144]	@ (100007a0 <xPortStartScheduler+0xfc>)
1000070e:	f442 027f 	orr.w	r2, r2, #16711680	@ 0xff0000
10000712:	f8c3 2d20 	str.w	r2, [r3, #3360]	@ 0xd20
10000716:	f8d3 2d20 	ldr.w	r2, [r3, #3360]	@ 0xd20
1000071a:	2601      	movs	r6, #1
1000071c:	f042 427f 	orr.w	r2, r2, #4278190080	@ 0xff000000
10000720:	f8c3 2d20 	str.w	r2, [r3, #3360]	@ 0xd20
10000724:	f8c3 4d1c 	str.w	r4, [r3, #3356]	@ 0xd1c
10000728:	f002 ffc6 	bl	100036b8 <exception_set_exclusive_handler>
1000072c:	491d      	ldr	r1, [pc, #116]	@ (100007a4 <xPortStartScheduler+0x100>)
1000072e:	200f      	movs	r0, #15
10000730:	f002 ffc2 	bl	100036b8 <exception_set_exclusive_handler>
10000734:	491c      	ldr	r1, [pc, #112]	@ (100007a8 <xPortStartScheduler+0x104>)
10000736:	200b      	movs	r0, #11
10000738:	f002 ffbe 	bl	100036b8 <exception_set_exclusive_handler>
1000073c:	f7ff ff22 	bl	10000584 <vPortSetupTimerInterrupt>
10000740:	4a1a      	ldr	r2, [pc, #104]	@ (100007ac <xPortStartScheduler+0x108>)
10000742:	4b1b      	ldr	r3, [pc, #108]	@ (100007b0 <xPortStartScheduler+0x10c>)
10000744:	6014      	str	r4, [r2, #0]
10000746:	682a      	ldr	r2, [r5, #0]
10000748:	2101      	movs	r1, #1
1000074a:	2003      	movs	r0, #3
1000074c:	701a      	strb	r2, [r3, #0]
1000074e:	f002 ffe5 	bl	1000371c <multicore_doorbell_claim_unused>
10000752:	4a18      	ldr	r2, [pc, #96]	@ (100007b4 <xPortStartScheduler+0x110>)
10000754:	b243      	sxtb	r3, r0
10000756:	7013      	strb	r3, [r2, #0]
10000758:	fa06 f303 	lsl.w	r3, r6, r3
1000075c:	f8c5 318c 	str.w	r3, [r5, #396]	@ 0x18c
10000760:	21ff      	movs	r1, #255	@ 0xff
10000762:	f8c5 3184 	str.w	r3, [r5, #388]	@ 0x184
10000766:	201a      	movs	r0, #26
10000768:	f002 f9e2 	bl	10002b30 <irq_set_priority>
1000076c:	201a      	movs	r0, #26
1000076e:	4912      	ldr	r1, [pc, #72]	@ (100007b8 <xPortStartScheduler+0x114>)
10000770:	f002 f8ac 	bl	100028cc <irq_set_exclusive_handler>
10000774:	4631      	mov	r1, r6
10000776:	201a      	movs	r0, #26
10000778:	f002 f866 	bl	10002848 <irq_set_enabled>
1000077c:	f000 f95e 	bl	10000a3c <vStartFirstTask>
10000780:	f001 f9de 	bl	10001b40 <vTaskSwitchContext>
10000784:	9403      	str	r4, [sp, #12]
10000786:	f000 f961 	bl	10000a4c <ulSetInterruptMask>
1000078a:	9b03      	ldr	r3, [sp, #12]
1000078c:	2b00      	cmp	r3, #0
1000078e:	d0fc      	beq.n	1000078a <xPortStartScheduler+0xe6>
10000790:	2000      	movs	r0, #0
10000792:	b004      	add	sp, #16
10000794:	bd70      	pop	{r4, r5, r6, pc}
10000796:	2200      	movs	r2, #0
10000798:	e7ae      	b.n	100006f8 <xPortStartScheduler+0x54>
1000079a:	bf00      	nop
1000079c:	2002218c 	.word	0x2002218c
100007a0:	10000a75 	.word	0x10000a75
100007a4:	100004d5 	.word	0x100004d5
100007a8:	10000af5 	.word	0x10000af5
100007ac:	200011ec 	.word	0x200011ec
100007b0:	200011e9 	.word	0x200011e9
100007b4:	200011e8 	.word	0x200011e8
100007b8:	100004f9 	.word	0x100004f9

100007bc <vPortValidateInterruptPriority>:
100007bc:	f3ef 8305 	mrs	r3, IPSR
100007c0:	2b0f      	cmp	r3, #15
100007c2:	bf84      	itt	hi
100007c4:	4a01      	ldrhi	r2, [pc, #4]	@ (100007cc <vPortValidateInterruptPriority+0x10>)
100007c6:	5c9b      	ldrbhi	r3, [r3, r2]
100007c8:	4770      	bx	lr
100007ca:	bf00      	nop
100007cc:	e000e3f0 	.word	0xe000e3f0

100007d0 <ulPortLockGetCurrentOwnerId>:
100007d0:	f04f 4250 	mov.w	r2, #3489660928	@ 0xd0000000
100007d4:	4b07      	ldr	r3, [pc, #28]	@ (100007f4 <ulPortLockGetCurrentOwnerId+0x24>)
100007d6:	6810      	ldr	r0, [r2, #0]
100007d8:	781b      	ldrb	r3, [r3, #0]
100007da:	4283      	cmp	r3, r0
100007dc:	d000      	beq.n	100007e0 <ulPortLockGetCurrentOwnerId+0x10>
100007de:	4770      	bx	lr
100007e0:	f3ef 8305 	mrs	r3, IPSR
100007e4:	b2db      	uxtb	r3, r3
100007e6:	b113      	cbz	r3, 100007ee <ulPortLockGetCurrentOwnerId+0x1e>
100007e8:	eb00 0043 	add.w	r0, r0, r3, lsl #1
100007ec:	4770      	bx	lr
100007ee:	f001 bc65 	b.w	100020bc <xTaskGetCurrentTaskHandle>
100007f2:	bf00      	nop
100007f4:	200011e9 	.word	0x200011e9

100007f8 <vPortLockInternalSpinUnlockWithNotify>:
100007f8:	f04f 4c50 	mov.w	ip, #3489660928	@ 0xd0000000
100007fc:	b530      	push	{r4, r5, lr}
100007fe:	2401      	movs	r4, #1
10000800:	4a34      	ldr	r2, [pc, #208]	@ (100008d4 <vPortLockInternalSpinUnlockWithNotify+0xdc>)
10000802:	4d35      	ldr	r5, [pc, #212]	@ (100008d8 <vPortLockInternalSpinUnlockWithNotify+0xe0>)
10000804:	f892 e000 	ldrb.w	lr, [r2]
10000808:	6802      	ldr	r2, [r0, #0]
1000080a:	4b34      	ldr	r3, [pc, #208]	@ (100008dc <vPortLockInternalSpinUnlockWithNotify+0xe4>)
1000080c:	1b52      	subs	r2, r2, r5
1000080e:	fba3 5302 	umull	r5, r3, r3, r2
10000812:	f8dc 5000 	ldr.w	r5, [ip]
10000816:	091b      	lsrs	r3, r3, #4
10000818:	eb03 0343 	add.w	r3, r3, r3, lsl #1
1000081c:	eba2 02c3 	sub.w	r2, r2, r3, lsl #3
10000820:	45ae      	cmp	lr, r5
10000822:	b083      	sub	sp, #12
10000824:	fa04 f202 	lsl.w	r2, r4, r2
10000828:	d02d      	beq.n	10000886 <vPortLockInternalSpinUnlockWithNotify+0x8e>
1000082a:	bf40      	sev
1000082c:	4c2c      	ldr	r4, [pc, #176]	@ (100008e0 <vPortLockInternalSpinUnlockWithNotify+0xe8>)
1000082e:	6803      	ldr	r3, [r0, #0]
10000830:	f8d4 c000 	ldr.w	ip, [r4]
10000834:	4563      	cmp	r3, ip
10000836:	d042      	beq.n	100008be <vPortLockInternalSpinUnlockWithNotify+0xc6>
10000838:	e8dc 5fcf 	ldaexb	r5, [ip]
1000083c:	2301      	movs	r3, #1
1000083e:	2d00      	cmp	r5, #0
10000840:	d1fa      	bne.n	10000838 <vPortLockInternalSpinUnlockWithNotify+0x40>
10000842:	e8cc 3f45 	strexb	r5, r3, [ip]
10000846:	2d00      	cmp	r5, #0
10000848:	d1f6      	bne.n	10000838 <vPortLockInternalSpinUnlockWithNotify+0x40>
1000084a:	f3bf 8f5f 	dmb	sy
1000084e:	4d25      	ldr	r5, [pc, #148]	@ (100008e4 <vPortLockInternalSpinUnlockWithNotify+0xec>)
10000850:	6824      	ldr	r4, [r4, #0]
10000852:	682b      	ldr	r3, [r5, #0]
10000854:	4313      	orrs	r3, r2
10000856:	602b      	str	r3, [r5, #0]
10000858:	2300      	movs	r3, #0
1000085a:	e8c4 3f8f 	stlb	r3, [r4]
1000085e:	6803      	ldr	r3, [r0, #0]
10000860:	4a21      	ldr	r2, [pc, #132]	@ (100008e8 <vPortLockInternalSpinUnlockWithNotify+0xf0>)
10000862:	f992 2000 	ldrsb.w	r2, [r2]
10000866:	2a00      	cmp	r2, #0
10000868:	db06      	blt.n	10000878 <vPortLockInternalSpinUnlockWithNotify+0x80>
1000086a:	2001      	movs	r0, #1
1000086c:	f04f 4450 	mov.w	r4, #3489660928	@ 0xd0000000
10000870:	fa00 f202 	lsl.w	r2, r0, r2
10000874:	f8c4 2180 	str.w	r2, [r4, #384]	@ 0x180
10000878:	2200      	movs	r2, #0
1000087a:	e8c3 2f8f 	stlb	r2, [r3]
1000087e:	f381 8810 	msr	PRIMASK, r1
10000882:	b003      	add	sp, #12
10000884:	bd30      	pop	{r4, r5, pc}
10000886:	bf40      	sev
10000888:	2400      	movs	r4, #0
1000088a:	6803      	ldr	r3, [r0, #0]
1000088c:	e8c3 4f8f 	stlb	r4, [r3]
10000890:	f381 8810 	msr	PRIMASK, r1
10000894:	f3ef 8305 	mrs	r3, IPSR
10000898:	4914      	ldr	r1, [pc, #80]	@ (100008ec <vPortLockInternalSpinUnlockWithNotify+0xf4>)
1000089a:	b2db      	uxtb	r3, r3
1000089c:	6808      	ldr	r0, [r1, #0]
1000089e:	4611      	mov	r1, r2
100008a0:	b193      	cbz	r3, 100008c8 <vPortLockInternalSpinUnlockWithNotify+0xd0>
100008a2:	aa01      	add	r2, sp, #4
100008a4:	9401      	str	r4, [sp, #4]
100008a6:	f000 fa05 	bl	10000cb4 <xEventGroupSetBitsFromISR>
100008aa:	9b01      	ldr	r3, [sp, #4]
100008ac:	2b00      	cmp	r3, #0
100008ae:	d0e8      	beq.n	10000882 <vPortLockInternalSpinUnlockWithNotify+0x8a>
100008b0:	f04f 23e0 	mov.w	r3, #3758153728	@ 0xe000e000
100008b4:	f04f 5280 	mov.w	r2, #268435456	@ 0x10000000
100008b8:	f8c3 2d04 	str.w	r2, [r3, #3332]	@ 0xd04
100008bc:	e7e1      	b.n	10000882 <vPortLockInternalSpinUnlockWithNotify+0x8a>
100008be:	4c09      	ldr	r4, [pc, #36]	@ (100008e4 <vPortLockInternalSpinUnlockWithNotify+0xec>)
100008c0:	6820      	ldr	r0, [r4, #0]
100008c2:	4310      	orrs	r0, r2
100008c4:	6020      	str	r0, [r4, #0]
100008c6:	e7cb      	b.n	10000860 <vPortLockInternalSpinUnlockWithNotify+0x68>
100008c8:	b003      	add	sp, #12
100008ca:	e8bd 4030 	ldmia.w	sp!, {r4, r5, lr}
100008ce:	f000 b9bb 	b.w	10000c48 <xEventGroupSetBits>
100008d2:	bf00      	nop
100008d4:	200011e9 	.word	0x200011e9
100008d8:	2000160c 	.word	0x2000160c
100008dc:	aaaaaaab 	.word	0xaaaaaaab
100008e0:	20001edc 	.word	0x20001edc
100008e4:	200221a4 	.word	0x200221a4
100008e8:	200011e8 	.word	0x200011e8
100008ec:	2002220c 	.word	0x2002220c

100008f0 <xPortLockInternalSpinUnlockWithBestEffortWaitOrTimeout>:
100008f0:	e92d 41f0 	stmdb	sp!, {r4, r5, r6, r7, r8, lr}
100008f4:	f8df c0f0 	ldr.w	ip, [pc, #240]	@ 100009e8 <xPortLockInternalSpinUnlockWithBestEffortWaitOrTimeout+0xf8>
100008f8:	b082      	sub	sp, #8
100008fa:	f89c e000 	ldrb.w	lr, [ip]
100008fe:	f04f 4c50 	mov.w	ip, #3489660928	@ 0xd0000000
10000902:	f8dc c000 	ldr.w	ip, [ip]
10000906:	45e6      	cmp	lr, ip
10000908:	d00d      	beq.n	10000926 <xPortLockInternalSpinUnlockWithBestEffortWaitOrTimeout+0x36>
1000090a:	f04f 0c00 	mov.w	ip, #0
1000090e:	6800      	ldr	r0, [r0, #0]
10000910:	e8c0 cf8f 	stlb	ip, [r0]
10000914:	f381 8810 	msr	PRIMASK, r1
10000918:	4610      	mov	r0, r2
1000091a:	4619      	mov	r1, r3
1000091c:	b002      	add	sp, #8
1000091e:	e8bd 41f0 	ldmia.w	sp!, {r4, r5, r6, r7, r8, lr}
10000922:	f002 bd1b 	b.w	1000335c <best_effort_wfe_or_timeout>
10000926:	461e      	mov	r6, r3
10000928:	4615      	mov	r5, r2
1000092a:	4604      	mov	r4, r0
1000092c:	460f      	mov	r7, r1
1000092e:	4680      	mov	r8, r0
10000930:	f002 fdaa 	bl	10003488 <time_us_64>
10000934:	f240 33e7 	movw	r3, #999	@ 0x3e7
10000938:	ebb5 0c00 	subs.w	ip, r5, r0
1000093c:	eb66 0101 	sbc.w	r1, r6, r1
10000940:	eb1c 0003 	adds.w	r0, ip, r3
10000944:	f141 0100 	adc.w	r1, r1, #0
10000948:	6822      	ldr	r2, [r4, #0]
1000094a:	f5b0 7f7a 	cmp.w	r0, #1000	@ 0x3e8
1000094e:	f171 0300 	sbcs.w	r3, r1, #0
10000952:	4614      	mov	r4, r2
10000954:	da1f      	bge.n	10000996 <xPortLockInternalSpinUnlockWithBestEffortWaitOrTimeout+0xa6>
10000956:	2300      	movs	r3, #0
10000958:	e8c4 3f8f 	stlb	r3, [r4]
1000095c:	f387 8810 	msr	PRIMASK, r7
10000960:	4b1d      	ldr	r3, [pc, #116]	@ (100009d8 <xPortLockInternalSpinUnlockWithBestEffortWaitOrTimeout+0xe8>)
10000962:	6a5a      	ldr	r2, [r3, #36]	@ 0x24
10000964:	4296      	cmp	r6, r2
10000966:	d808      	bhi.n	1000097a <xPortLockInternalSpinUnlockWithBestEffortWaitOrTimeout+0x8a>
10000968:	6a9b      	ldr	r3, [r3, #40]	@ 0x28
1000096a:	42ab      	cmp	r3, r5
1000096c:	d303      	bcc.n	10000976 <xPortLockInternalSpinUnlockWithBestEffortWaitOrTimeout+0x86>
1000096e:	2001      	movs	r0, #1
10000970:	b002      	add	sp, #8
10000972:	e8bd 81f0 	ldmia.w	sp!, {r4, r5, r6, r7, r8, pc}
10000976:	4296      	cmp	r6, r2
10000978:	d1f9      	bne.n	1000096e <xPortLockInternalSpinUnlockWithBestEffortWaitOrTimeout+0x7e>
1000097a:	f04f 23e0 	mov.w	r3, #3758153728	@ 0xe000e000
1000097e:	f04f 5280 	mov.w	r2, #268435456	@ 0x10000000
10000982:	f8c3 2d04 	str.w	r2, [r3, #3332]	@ 0xd04
10000986:	f3bf 8f4f 	dsb	sy
1000098a:	f3bf 8f6f 	isb	sy
1000098e:	2000      	movs	r0, #0
10000990:	b002      	add	sp, #8
10000992:	e8bd 81f0 	ldmia.w	sp!, {r4, r5, r6, r7, r8, pc}
10000996:	f44f 727a 	mov.w	r2, #1000	@ 0x3e8
1000099a:	2300      	movs	r3, #0
1000099c:	f005 fed8 	bl	10006750 <____aeabi_ldivmod_veneer>
100009a0:	2800      	cmp	r0, #0
100009a2:	d0d8      	beq.n	10000956 <xPortLockInternalSpinUnlockWithBestEffortWaitOrTimeout+0x66>
100009a4:	2300      	movs	r3, #0
100009a6:	e8c4 3f8f 	stlb	r3, [r4]
100009aa:	f387 8810 	msr	PRIMASK, r7
100009ae:	2201      	movs	r2, #1
100009b0:	9000      	str	r0, [sp, #0]
100009b2:	f8d8 1000 	ldr.w	r1, [r8]
100009b6:	4809      	ldr	r0, [pc, #36]	@ (100009dc <xPortLockInternalSpinUnlockWithBestEffortWaitOrTimeout+0xec>)
100009b8:	1a09      	subs	r1, r1, r0
100009ba:	4809      	ldr	r0, [pc, #36]	@ (100009e0 <xPortLockInternalSpinUnlockWithBestEffortWaitOrTimeout+0xf0>)
100009bc:	fba0 c001 	umull	ip, r0, r0, r1
100009c0:	0900      	lsrs	r0, r0, #4
100009c2:	eb00 0040 	add.w	r0, r0, r0, lsl #1
100009c6:	eba1 01c0 	sub.w	r1, r1, r0, lsl #3
100009ca:	4806      	ldr	r0, [pc, #24]	@ (100009e4 <xPortLockInternalSpinUnlockWithBestEffortWaitOrTimeout+0xf4>)
100009cc:	fa02 f101 	lsl.w	r1, r2, r1
100009d0:	6800      	ldr	r0, [r0, #0]
100009d2:	f000 f8e3 	bl	10000b9c <xEventGroupWaitBits>
100009d6:	e7c3      	b.n	10000960 <xPortLockInternalSpinUnlockWithBestEffortWaitOrTimeout+0x70>
100009d8:	400b0000 	.word	0x400b0000
100009dc:	2000160c 	.word	0x2000160c
100009e0:	aaaaaaab 	.word	0xaaaaaaab
100009e4:	2002220c 	.word	0x2002220c
100009e8:	200011e9 	.word	0x200011e9

100009ec <prvRuntimeInitializer>:
100009ec:	b508      	push	{r3, lr}
100009ee:	f001 fed9 	bl	100027a4 <next_striped_spin_lock_num>
100009f2:	4b04      	ldr	r3, [pc, #16]	@ (10000a04 <prvRuntimeInitializer+0x18>)
100009f4:	4a04      	ldr	r2, [pc, #16]	@ (10000a08 <prvRuntimeInitializer+0x1c>)
100009f6:	4403      	add	r3, r0
100009f8:	6013      	str	r3, [r2, #0]
100009fa:	f000 f8bd 	bl	10000b78 <xEventGroupCreate>
100009fe:	4b03      	ldr	r3, [pc, #12]	@ (10000a0c <prvRuntimeInitializer+0x20>)
10000a00:	6018      	str	r0, [r3, #0]
10000a02:	bd08      	pop	{r3, pc}
10000a04:	2000160c 	.word	0x2000160c
10000a08:	20001edc 	.word	0x20001edc
10000a0c:	2002220c 	.word	0x2002220c

10000a10 <vRestoreContextOfFirstTask>:
10000a10:	4a09      	ldr	r2, [pc, #36]	@ (10000a38 <vRestoreContextOfFirstTask+0x28>)
10000a12:	6811      	ldr	r1, [r2, #0]
10000a14:	6808      	ldr	r0, [r1, #0]
10000a16:	c806      	ldmia	r0!, {r1, r2}
10000a18:	f381 880b 	msr	PSPLIM, r1
10000a1c:	2102      	movs	r1, #2
10000a1e:	f381 8814 	msr	CONTROL, r1
10000a22:	3020      	adds	r0, #32
10000a24:	f380 8809 	msr	PSP, r0
10000a28:	f3bf 8f6f 	isb	sy
10000a2c:	f04f 0000 	mov.w	r0, #0
10000a30:	f380 8811 	msr	BASEPRI, r0
10000a34:	4710      	bx	r2
10000a36:	0000      	.short	0x0000
10000a38:	20001ee0 	.word	0x20001ee0

10000a3c <vStartFirstTask>:
10000a3c:	b662      	cpsie	i
10000a3e:	b661      	cpsie	f
10000a40:	f3bf 8f4f 	dsb	sy
10000a44:	f3bf 8f6f 	isb	sy
10000a48:	df66      	svc	102	@ 0x66
10000a4a:	bf00      	nop

10000a4c <ulSetInterruptMask>:
10000a4c:	f3ef 8011 	mrs	r0, BASEPRI
10000a50:	f04f 0110 	mov.w	r1, #16
10000a54:	f381 8811 	msr	BASEPRI, r1
10000a58:	f3bf 8f4f 	dsb	sy
10000a5c:	f3bf 8f6f 	isb	sy
10000a60:	4770      	bx	lr
10000a62:	bf00      	nop

10000a64 <vClearInterruptMask>:
10000a64:	f380 8811 	msr	BASEPRI, r0
10000a68:	f3bf 8f4f 	dsb	sy
10000a6c:	f3bf 8f6f 	isb	sy
10000a70:	4770      	bx	lr
10000a72:	bf00      	nop

10000a74 <PendSV_Handler>:
10000a74:	f3ef 8109 	mrs	r1, PSP
10000a78:	f01e 0f10 	tst.w	lr, #16
10000a7c:	bf08      	it	eq
10000a7e:	ed21 8a10 	vstmdbeq	r1!, {s16-s31}
10000a82:	f3ef 820b 	mrs	r2, PSPLIM
10000a86:	4673      	mov	r3, lr
10000a88:	e921 0ffc 	stmdb	r1!, {r2, r3, r4, r5, r6, r7, r8, r9, sl, fp}
10000a8c:	fc55 4408 	dcp_pxmd r4, r5
10000a90:	fc57 6409 	dcp_pymd r6, r7
10000a94:	fc59 840a 	dcp_pefd r8, r9
10000a98:	e901 03f0 	stmdb	r1, {r4, r5, r6, r7, r8, r9}
10000a9c:	4a14      	ldr	r2, [pc, #80]	@ (10000af0 <PendSV_Handler+0x7c>)
10000a9e:	6813      	ldr	r3, [r2, #0]
10000aa0:	6019      	str	r1, [r3, #0]
10000aa2:	f04f 0110 	mov.w	r1, #16
10000aa6:	f381 8811 	msr	BASEPRI, r1
10000aaa:	f3bf 8f4f 	dsb	sy
10000aae:	f3bf 8f6f 	isb	sy
10000ab2:	f001 f845 	bl	10001b40 <vTaskSwitchContext>
10000ab6:	f04f 0000 	mov.w	r0, #0
10000aba:	f380 8811 	msr	BASEPRI, r0
10000abe:	4a0c      	ldr	r2, [pc, #48]	@ (10000af0 <PendSV_Handler+0x7c>)
10000ac0:	6811      	ldr	r1, [r2, #0]
10000ac2:	6808      	ldr	r0, [r1, #0]
10000ac4:	3818      	subs	r0, #24
10000ac6:	e8b0 03f0 	ldmia.w	r0!, {r4, r5, r6, r7, r8, r9}
10000aca:	ec45 4400 	dcp_wxmd r4, r5
10000ace:	ec47 6401 	dcp_wymd r6, r7
10000ad2:	ec49 8402 	dcp_wefd r8, r9
10000ad6:	e8b0 0ffc 	ldmia.w	r0!, {r2, r3, r4, r5, r6, r7, r8, r9, sl, fp}
10000ada:	f013 0f10 	tst.w	r3, #16
10000ade:	bf08      	it	eq
10000ae0:	ecb0 8a10 	vldmiaeq	r0!, {s16-s31}
10000ae4:	f382 880b 	msr	PSPLIM, r2
10000ae8:	f380 8809 	msr	PSP, r0
10000aec:	4718      	bx	r3
10000aee:	0000      	.short	0x0000
10000af0:	20001ee0 	.word	0x20001ee0

10000af4 <SVC_Handler>:
10000af4:	f01e 0f04 	tst.w	lr, #4
10000af8:	bf0c      	ite	eq
10000afa:	f3ef 8008 	mrseq	r0, MSP
10000afe:	f3ef 8009 	mrsne	r0, PSP
10000b02:	4901      	ldr	r1, [pc, #4]	@ (10000b08 <SVC_Handler+0x14>)
10000b04:	4708      	bx	r1
10000b06:	0000      	.short	0x0000
10000b08:	100005fd 	.word	0x100005fd

10000b0c <vEventGroupSetBitsCallback>:
10000b0c:	b5f8      	push	{r3, r4, r5, r6, r7, lr}
10000b0e:	4607      	mov	r7, r0
10000b10:	460e      	mov	r6, r1
10000b12:	f100 050c 	add.w	r5, r0, #12
10000b16:	f000 fec9 	bl	100018ac <vTaskSuspendAll>
10000b1a:	f8d7 e000 	ldr.w	lr, [r7]
10000b1e:	693c      	ldr	r4, [r7, #16]
10000b20:	ea46 030e 	orr.w	r3, r6, lr
10000b24:	42a5      	cmp	r5, r4
10000b26:	603b      	str	r3, [r7, #0]
10000b28:	d021      	beq.n	10000b6e <vEventGroupSetBitsCallback+0x62>
10000b2a:	469e      	mov	lr, r3
10000b2c:	2600      	movs	r6, #0
10000b2e:	e00b      	b.n	10000b48 <vEventGroupSetBitsCallback+0x3c>
10000b30:	b13b      	cbz	r3, 10000b42 <vEventGroupSetBitsCallback+0x36>
10000b32:	01d3      	lsls	r3, r2, #7
10000b34:	bf48      	it	mi
10000b36:	ea46 060c 	orrmi.w	r6, r6, ip
10000b3a:	f001 fa15 	bl	10001f68 <vTaskRemoveFromUnorderedEventList>
10000b3e:	f8d7 e000 	ldr.w	lr, [r7]
10000b42:	42a5      	cmp	r5, r4
10000b44:	4673      	mov	r3, lr
10000b46:	d010      	beq.n	10000b6a <vEventGroupSetBitsCallback+0x5e>
10000b48:	4620      	mov	r0, r4
10000b4a:	6802      	ldr	r2, [r0, #0]
10000b4c:	f043 7100 	orr.w	r1, r3, #33554432	@ 0x2000000
10000b50:	f022 4c7f 	bic.w	ip, r2, #4278190080	@ 0xff000000
10000b54:	f012 6f80 	tst.w	r2, #67108864	@ 0x4000000
10000b58:	6864      	ldr	r4, [r4, #4]
10000b5a:	ea0c 0303 	and.w	r3, ip, r3
10000b5e:	d0e7      	beq.n	10000b30 <vEventGroupSetBitsCallback+0x24>
10000b60:	459c      	cmp	ip, r3
10000b62:	d0e6      	beq.n	10000b32 <vEventGroupSetBitsCallback+0x26>
10000b64:	42a5      	cmp	r5, r4
10000b66:	4673      	mov	r3, lr
10000b68:	d1ee      	bne.n	10000b48 <vEventGroupSetBitsCallback+0x3c>
10000b6a:	ea2e 0306 	bic.w	r3, lr, r6
10000b6e:	603b      	str	r3, [r7, #0]
10000b70:	e8bd 40f8 	ldmia.w	sp!, {r3, r4, r5, r6, r7, lr}
10000b74:	f000 bea2 	b.w	100018bc <xTaskResumeAll>

10000b78 <xEventGroupCreate>:
10000b78:	b500      	push	{lr}
10000b7a:	201c      	movs	r0, #28
10000b7c:	b083      	sub	sp, #12
10000b7e:	f7ff fb99 	bl	100002b4 <pvPortMalloc>
10000b82:	4603      	mov	r3, r0
10000b84:	b130      	cbz	r0, 10000b94 <xEventGroupCreate+0x1c>
10000b86:	2200      	movs	r2, #0
10000b88:	9001      	str	r0, [sp, #4]
10000b8a:	f840 2b04 	str.w	r2, [r0], #4
10000b8e:	f000 f89d 	bl	10000ccc <vListInitialise>
10000b92:	9b01      	ldr	r3, [sp, #4]
10000b94:	4618      	mov	r0, r3
10000b96:	b003      	add	sp, #12
10000b98:	bd00      	pop	{pc}
10000b9a:	bf00      	nop

10000b9c <xEventGroupWaitBits>:
10000b9c:	b5f0      	push	{r4, r5, r6, r7, lr}
10000b9e:	4605      	mov	r5, r0
10000ba0:	460c      	mov	r4, r1
10000ba2:	461e      	mov	r6, r3
10000ba4:	b083      	sub	sp, #12
10000ba6:	4617      	mov	r7, r2
10000ba8:	f000 fe80 	bl	100018ac <vTaskSuspendAll>
10000bac:	682b      	ldr	r3, [r5, #0]
10000bae:	ea03 0204 	and.w	r2, r3, r4
10000bb2:	b95e      	cbnz	r6, 10000bcc <xEventGroupWaitBits+0x30>
10000bb4:	b322      	cbz	r2, 10000c00 <xEventGroupWaitBits+0x64>
10000bb6:	b32f      	cbz	r7, 10000c04 <xEventGroupWaitBits+0x68>
10000bb8:	ea23 0404 	bic.w	r4, r3, r4
10000bbc:	602c      	str	r4, [r5, #0]
10000bbe:	9301      	str	r3, [sp, #4]
10000bc0:	f000 fe7c 	bl	100018bc <xTaskResumeAll>
10000bc4:	9b01      	ldr	r3, [sp, #4]
10000bc6:	4618      	mov	r0, r3
10000bc8:	b003      	add	sp, #12
10000bca:	bdf0      	pop	{r4, r5, r6, r7, pc}
10000bcc:	4294      	cmp	r4, r2
10000bce:	d0f2      	beq.n	10000bb6 <xEventGroupWaitBits+0x1a>
10000bd0:	9a08      	ldr	r2, [sp, #32]
10000bd2:	b1ba      	cbz	r2, 10000c04 <xEventGroupWaitBits+0x68>
10000bd4:	1e39      	subs	r1, r7, #0
10000bd6:	bf18      	it	ne
10000bd8:	2101      	movne	r1, #1
10000bda:	0609      	lsls	r1, r1, #24
10000bdc:	f041 6180 	orr.w	r1, r1, #67108864	@ 0x4000000
10000be0:	4321      	orrs	r1, r4
10000be2:	1d28      	adds	r0, r5, #4
10000be4:	f001 f83a 	bl	10001c5c <vTaskPlaceOnUnorderedEventList>
10000be8:	f000 fe68 	bl	100018bc <xTaskResumeAll>
10000bec:	b330      	cbz	r0, 10000c3c <xEventGroupWaitBits+0xa0>
10000bee:	f001 fab3 	bl	10002158 <uxTaskResetEventItemValue>
10000bf2:	0183      	lsls	r3, r0, #6
10000bf4:	d512      	bpl.n	10000c1c <xEventGroupWaitBits+0x80>
10000bf6:	f020 437f 	bic.w	r3, r0, #4278190080	@ 0xff000000
10000bfa:	4618      	mov	r0, r3
10000bfc:	b003      	add	sp, #12
10000bfe:	bdf0      	pop	{r4, r5, r6, r7, pc}
10000c00:	9a08      	ldr	r2, [sp, #32]
10000c02:	b932      	cbnz	r2, 10000c12 <xEventGroupWaitBits+0x76>
10000c04:	9301      	str	r3, [sp, #4]
10000c06:	f000 fe59 	bl	100018bc <xTaskResumeAll>
10000c0a:	9b01      	ldr	r3, [sp, #4]
10000c0c:	4618      	mov	r0, r3
10000c0e:	b003      	add	sp, #12
10000c10:	bdf0      	pop	{r4, r5, r6, r7, pc}
10000c12:	1e39      	subs	r1, r7, #0
10000c14:	bf18      	it	ne
10000c16:	2101      	movne	r1, #1
10000c18:	0609      	lsls	r1, r1, #24
10000c1a:	e7e1      	b.n	10000be0 <xEventGroupWaitBits+0x44>
10000c1c:	f7ff fcd4 	bl	100005c8 <vPortEnterCritical>
10000c20:	6828      	ldr	r0, [r5, #0]
10000c22:	ea04 0300 	and.w	r3, r4, r0
10000c26:	b966      	cbnz	r6, 10000c42 <xEventGroupWaitBits+0xa6>
10000c28:	b11b      	cbz	r3, 10000c32 <xEventGroupWaitBits+0x96>
10000c2a:	b117      	cbz	r7, 10000c32 <xEventGroupWaitBits+0x96>
10000c2c:	ea20 0404 	bic.w	r4, r0, r4
10000c30:	602c      	str	r4, [r5, #0]
10000c32:	9001      	str	r0, [sp, #4]
10000c34:	f7ff fcd6 	bl	100005e4 <vPortExitCritical>
10000c38:	9801      	ldr	r0, [sp, #4]
10000c3a:	e7dc      	b.n	10000bf6 <xEventGroupWaitBits+0x5a>
10000c3c:	f7ff fcb8 	bl	100005b0 <vPortYield>
10000c40:	e7d5      	b.n	10000bee <xEventGroupWaitBits+0x52>
10000c42:	429c      	cmp	r4, r3
10000c44:	d1f5      	bne.n	10000c32 <xEventGroupWaitBits+0x96>
10000c46:	e7f0      	b.n	10000c2a <xEventGroupWaitBits+0x8e>

10000c48 <xEventGroupSetBits>:
10000c48:	b5f8      	push	{r3, r4, r5, r6, r7, lr}
10000c4a:	4605      	mov	r5, r0
10000c4c:	460e      	mov	r6, r1
10000c4e:	f100 070c 	add.w	r7, r0, #12
10000c52:	f000 fe2b 	bl	100018ac <vTaskSuspendAll>
10000c56:	f8d5 e000 	ldr.w	lr, [r5]
10000c5a:	692c      	ldr	r4, [r5, #16]
10000c5c:	ea46 030e 	orr.w	r3, r6, lr
10000c60:	42a7      	cmp	r7, r4
10000c62:	602b      	str	r3, [r5, #0]
10000c64:	d021      	beq.n	10000caa <xEventGroupSetBits+0x62>
10000c66:	469e      	mov	lr, r3
10000c68:	2600      	movs	r6, #0
10000c6a:	e00b      	b.n	10000c84 <xEventGroupSetBits+0x3c>
10000c6c:	b13b      	cbz	r3, 10000c7e <xEventGroupSetBits+0x36>
10000c6e:	01d3      	lsls	r3, r2, #7
10000c70:	bf48      	it	mi
10000c72:	ea46 060c 	orrmi.w	r6, r6, ip
10000c76:	f001 f977 	bl	10001f68 <vTaskRemoveFromUnorderedEventList>
10000c7a:	f8d5 e000 	ldr.w	lr, [r5]
10000c7e:	42a7      	cmp	r7, r4
10000c80:	4673      	mov	r3, lr
10000c82:	d010      	beq.n	10000ca6 <xEventGroupSetBits+0x5e>
10000c84:	4620      	mov	r0, r4
10000c86:	6802      	ldr	r2, [r0, #0]
10000c88:	f043 7100 	orr.w	r1, r3, #33554432	@ 0x2000000
10000c8c:	f022 4c7f 	bic.w	ip, r2, #4278190080	@ 0xff000000
10000c90:	f012 6f80 	tst.w	r2, #67108864	@ 0x4000000
10000c94:	6864      	ldr	r4, [r4, #4]
10000c96:	ea0c 0303 	and.w	r3, ip, r3
10000c9a:	d0e7      	beq.n	10000c6c <xEventGroupSetBits+0x24>
10000c9c:	459c      	cmp	ip, r3
10000c9e:	d0e6      	beq.n	10000c6e <xEventGroupSetBits+0x26>
10000ca0:	42a7      	cmp	r7, r4
10000ca2:	4673      	mov	r3, lr
10000ca4:	d1ee      	bne.n	10000c84 <xEventGroupSetBits+0x3c>
10000ca6:	ea2e 0306 	bic.w	r3, lr, r6
10000caa:	602b      	str	r3, [r5, #0]
10000cac:	f000 fe06 	bl	100018bc <xTaskResumeAll>
10000cb0:	6828      	ldr	r0, [r5, #0]
10000cb2:	bdf8      	pop	{r3, r4, r5, r6, r7, pc}

10000cb4 <xEventGroupSetBitsFromISR>:
10000cb4:	b500      	push	{lr}
10000cb6:	4613      	mov	r3, r2
10000cb8:	f85d eb04 	ldr.w	lr, [sp], #4
10000cbc:	460a      	mov	r2, r1
10000cbe:	4601      	mov	r1, r0
10000cc0:	4801      	ldr	r0, [pc, #4]	@ (10000cc8 <xEventGroupSetBitsFromISR+0x14>)
10000cc2:	f001 bc41 	b.w	10002548 <xTimerPendFunctionCallFromISR>
10000cc6:	bf00      	nop
10000cc8:	10000b0d 	.word	0x10000b0d

10000ccc <vListInitialise>:
10000ccc:	f04f 31ff 	mov.w	r1, #4294967295
10000cd0:	2200      	movs	r2, #0
10000cd2:	f100 0308 	add.w	r3, r0, #8
10000cd6:	e9c0 3101 	strd	r3, r1, [r0, #4]
10000cda:	e9c0 3303 	strd	r3, r3, [r0, #12]
10000cde:	6002      	str	r2, [r0, #0]
10000ce0:	4770      	bx	lr
10000ce2:	bf00      	nop

10000ce4 <vListInitialiseItem>:
10000ce4:	2300      	movs	r3, #0
10000ce6:	6103      	str	r3, [r0, #16]
10000ce8:	4770      	bx	lr
10000cea:	bf00      	nop

10000cec <vListInsert>:
10000cec:	680a      	ldr	r2, [r1, #0]
10000cee:	b410      	push	{r4}
10000cf0:	1c53      	adds	r3, r2, #1
10000cf2:	d012      	beq.n	10000d1a <vListInsert+0x2e>
10000cf4:	f100 0308 	add.w	r3, r0, #8
10000cf8:	469c      	mov	ip, r3
10000cfa:	685b      	ldr	r3, [r3, #4]
10000cfc:	681c      	ldr	r4, [r3, #0]
10000cfe:	4294      	cmp	r4, r2
10000d00:	d9fa      	bls.n	10000cf8 <vListInsert+0xc>
10000d02:	bc10      	pop	{r4}
10000d04:	6802      	ldr	r2, [r0, #0]
10000d06:	604b      	str	r3, [r1, #4]
10000d08:	3201      	adds	r2, #1
10000d0a:	6099      	str	r1, [r3, #8]
10000d0c:	f8c1 c008 	str.w	ip, [r1, #8]
10000d10:	f8cc 1004 	str.w	r1, [ip, #4]
10000d14:	6108      	str	r0, [r1, #16]
10000d16:	6002      	str	r2, [r0, #0]
10000d18:	4770      	bx	lr
10000d1a:	f8d0 c010 	ldr.w	ip, [r0, #16]
10000d1e:	f8dc 3004 	ldr.w	r3, [ip, #4]
10000d22:	e7ee      	b.n	10000d02 <vListInsert+0x16>

10000d24 <uxListRemove>:
10000d24:	4603      	mov	r3, r0
10000d26:	6902      	ldr	r2, [r0, #16]
10000d28:	e9d0 0101 	ldrd	r0, r1, [r0, #4]
10000d2c:	f8d2 c004 	ldr.w	ip, [r2, #4]
10000d30:	6081      	str	r1, [r0, #8]
10000d32:	459c      	cmp	ip, r3
10000d34:	6048      	str	r0, [r1, #4]
10000d36:	bf08      	it	eq
10000d38:	6051      	streq	r1, [r2, #4]
10000d3a:	2100      	movs	r1, #0
10000d3c:	6810      	ldr	r0, [r2, #0]
10000d3e:	6119      	str	r1, [r3, #16]
10000d40:	3801      	subs	r0, #1
10000d42:	6010      	str	r0, [r2, #0]
10000d44:	4770      	bx	lr
10000d46:	bf00      	nop

10000d48 <prvCopyDataToQueue>:
10000d48:	b530      	push	{r4, r5, lr}
10000d4a:	4615      	mov	r5, r2
10000d4c:	6c02      	ldr	r2, [r0, #64]	@ 0x40
10000d4e:	4603      	mov	r3, r0
10000d50:	6b84      	ldr	r4, [r0, #56]	@ 0x38
10000d52:	b083      	sub	sp, #12
10000d54:	b93a      	cbnz	r2, 10000d66 <prvCopyDataToQueue+0x1e>
10000d56:	6802      	ldr	r2, [r0, #0]
10000d58:	2a00      	cmp	r2, #0
10000d5a:	d02a      	beq.n	10000db2 <prvCopyDataToQueue+0x6a>
10000d5c:	2000      	movs	r0, #0
10000d5e:	3401      	adds	r4, #1
10000d60:	639c      	str	r4, [r3, #56]	@ 0x38
10000d62:	b003      	add	sp, #12
10000d64:	bd30      	pop	{r4, r5, pc}
10000d66:	b975      	cbnz	r5, 10000d86 <prvCopyDataToQueue+0x3e>
10000d68:	6840      	ldr	r0, [r0, #4]
10000d6a:	9300      	str	r3, [sp, #0]
10000d6c:	f005 fc34 	bl	100065d8 <memcpy>
10000d70:	9b00      	ldr	r3, [sp, #0]
10000d72:	685a      	ldr	r2, [r3, #4]
10000d74:	6c18      	ldr	r0, [r3, #64]	@ 0x40
10000d76:	6899      	ldr	r1, [r3, #8]
10000d78:	4402      	add	r2, r0
10000d7a:	428a      	cmp	r2, r1
10000d7c:	605a      	str	r2, [r3, #4]
10000d7e:	d3ed      	bcc.n	10000d5c <prvCopyDataToQueue+0x14>
10000d80:	681a      	ldr	r2, [r3, #0]
10000d82:	605a      	str	r2, [r3, #4]
10000d84:	e7ea      	b.n	10000d5c <prvCopyDataToQueue+0x14>
10000d86:	68c0      	ldr	r0, [r0, #12]
10000d88:	9300      	str	r3, [sp, #0]
10000d8a:	f005 fc25 	bl	100065d8 <memcpy>
10000d8e:	9b00      	ldr	r3, [sp, #0]
10000d90:	68da      	ldr	r2, [r3, #12]
10000d92:	6c19      	ldr	r1, [r3, #64]	@ 0x40
10000d94:	6818      	ldr	r0, [r3, #0]
10000d96:	1a52      	subs	r2, r2, r1
10000d98:	4282      	cmp	r2, r0
10000d9a:	60da      	str	r2, [r3, #12]
10000d9c:	d202      	bcs.n	10000da4 <prvCopyDataToQueue+0x5c>
10000d9e:	689a      	ldr	r2, [r3, #8]
10000da0:	1a52      	subs	r2, r2, r1
10000da2:	60da      	str	r2, [r3, #12]
10000da4:	2d02      	cmp	r5, #2
10000da6:	d1d9      	bne.n	10000d5c <prvCopyDataToQueue+0x14>
10000da8:	2c00      	cmp	r4, #0
10000daa:	bf18      	it	ne
10000dac:	3c01      	subne	r4, #1
10000dae:	2000      	movs	r0, #0
10000db0:	e7d5      	b.n	10000d5e <prvCopyDataToQueue+0x16>
10000db2:	6880      	ldr	r0, [r0, #8]
10000db4:	9201      	str	r2, [sp, #4]
10000db6:	9300      	str	r3, [sp, #0]
10000db8:	f001 f986 	bl	100020c8 <xTaskPriorityDisinherit>
10000dbc:	e9dd 3200 	ldrd	r3, r2, [sp]
10000dc0:	609a      	str	r2, [r3, #8]
10000dc2:	e7cc      	b.n	10000d5e <prvCopyDataToQueue+0x16>

10000dc4 <prvUnlockQueue>:
10000dc4:	e92d 43f0 	stmdb	sp!, {r4, r5, r6, r7, r8, r9, lr}
10000dc8:	4606      	mov	r6, r0
10000dca:	b085      	sub	sp, #20
10000dcc:	f7ff fbfc 	bl	100005c8 <vPortEnterCritical>
10000dd0:	f896 4045 	ldrb.w	r4, [r6, #69]	@ 0x45
10000dd4:	b264      	sxtb	r4, r4
10000dd6:	2c00      	cmp	r4, #0
10000dd8:	dd1a      	ble.n	10000e10 <prvUnlockQueue+0x4c>
10000dda:	f106 0724 	add.w	r7, r6, #36	@ 0x24
10000dde:	e007      	b.n	10000df0 <prvUnlockQueue+0x2c>
10000de0:	6baa      	ldr	r2, [r5, #56]	@ 0x38
10000de2:	6beb      	ldr	r3, [r5, #60]	@ 0x3c
10000de4:	9603      	str	r6, [sp, #12]
10000de6:	429a      	cmp	r2, r3
10000de8:	d338      	bcc.n	10000e5c <prvUnlockQueue+0x98>
10000dea:	3c01      	subs	r4, #1
10000dec:	b2e4      	uxtb	r4, r4
10000dee:	b17c      	cbz	r4, 10000e10 <prvUnlockQueue+0x4c>
10000df0:	6cb5      	ldr	r5, [r6, #72]	@ 0x48
10000df2:	2d00      	cmp	r5, #0
10000df4:	d1f4      	bne.n	10000de0 <prvUnlockQueue+0x1c>
10000df6:	6a73      	ldr	r3, [r6, #36]	@ 0x24
10000df8:	b153      	cbz	r3, 10000e10 <prvUnlockQueue+0x4c>
10000dfa:	4638      	mov	r0, r7
10000dfc:	f001 f83e 	bl	10001e7c <xTaskRemoveFromEventList>
10000e00:	2800      	cmp	r0, #0
10000e02:	d0f2      	beq.n	10000dea <prvUnlockQueue+0x26>
10000e04:	f001 f954 	bl	100020b0 <vTaskMissedYield>
10000e08:	3c01      	subs	r4, #1
10000e0a:	b2e4      	uxtb	r4, r4
10000e0c:	2c00      	cmp	r4, #0
10000e0e:	d1ef      	bne.n	10000df0 <prvUnlockQueue+0x2c>
10000e10:	23ff      	movs	r3, #255	@ 0xff
10000e12:	f886 3045 	strb.w	r3, [r6, #69]	@ 0x45
10000e16:	f7ff fbe5 	bl	100005e4 <vPortExitCritical>
10000e1a:	f7ff fbd5 	bl	100005c8 <vPortEnterCritical>
10000e1e:	f896 4044 	ldrb.w	r4, [r6, #68]	@ 0x44
10000e22:	b264      	sxtb	r4, r4
10000e24:	2c00      	cmp	r4, #0
10000e26:	dc03      	bgt.n	10000e30 <prvUnlockQueue+0x6c>
10000e28:	e010      	b.n	10000e4c <prvUnlockQueue+0x88>
10000e2a:	3c01      	subs	r4, #1
10000e2c:	b2e4      	uxtb	r4, r4
10000e2e:	b16c      	cbz	r4, 10000e4c <prvUnlockQueue+0x88>
10000e30:	6933      	ldr	r3, [r6, #16]
10000e32:	b15b      	cbz	r3, 10000e4c <prvUnlockQueue+0x88>
10000e34:	f106 0010 	add.w	r0, r6, #16
10000e38:	f001 f820 	bl	10001e7c <xTaskRemoveFromEventList>
10000e3c:	2800      	cmp	r0, #0
10000e3e:	d0f4      	beq.n	10000e2a <prvUnlockQueue+0x66>
10000e40:	3c01      	subs	r4, #1
10000e42:	b2e4      	uxtb	r4, r4
10000e44:	f001 f934 	bl	100020b0 <vTaskMissedYield>
10000e48:	2c00      	cmp	r4, #0
10000e4a:	d1f1      	bne.n	10000e30 <prvUnlockQueue+0x6c>
10000e4c:	23ff      	movs	r3, #255	@ 0xff
10000e4e:	f886 3044 	strb.w	r3, [r6, #68]	@ 0x44
10000e52:	b005      	add	sp, #20
10000e54:	e8bd 43f0 	ldmia.w	sp!, {r4, r5, r6, r7, r8, r9, lr}
10000e58:	f7ff bbc4 	b.w	100005e4 <vPortExitCritical>
10000e5c:	f895 8045 	ldrb.w	r8, [r5, #69]	@ 0x45
10000e60:	6c2a      	ldr	r2, [r5, #64]	@ 0x40
10000e62:	6bab      	ldr	r3, [r5, #56]	@ 0x38
10000e64:	fa4f f888 	sxtb.w	r8, r8
10000e68:	f103 0901 	add.w	r9, r3, #1
10000e6c:	b99a      	cbnz	r2, 10000e96 <prvUnlockQueue+0xd2>
10000e6e:	682b      	ldr	r3, [r5, #0]
10000e70:	2b00      	cmp	r3, #0
10000e72:	d037      	beq.n	10000ee4 <prvUnlockQueue+0x120>
10000e74:	f1b8 3fff 	cmp.w	r8, #4294967295
10000e78:	f8c5 9038 	str.w	r9, [r5, #56]	@ 0x38
10000e7c:	d129      	bne.n	10000ed2 <prvUnlockQueue+0x10e>
10000e7e:	6a6b      	ldr	r3, [r5, #36]	@ 0x24
10000e80:	2b00      	cmp	r3, #0
10000e82:	d0b2      	beq.n	10000dea <prvUnlockQueue+0x26>
10000e84:	f105 0024 	add.w	r0, r5, #36	@ 0x24
10000e88:	f000 fff8 	bl	10001e7c <xTaskRemoveFromEventList>
10000e8c:	2800      	cmp	r0, #0
10000e8e:	d0ac      	beq.n	10000dea <prvUnlockQueue+0x26>
10000e90:	f001 f90e 	bl	100020b0 <vTaskMissedYield>
10000e94:	e7b8      	b.n	10000e08 <prvUnlockQueue+0x44>
10000e96:	6868      	ldr	r0, [r5, #4]
10000e98:	a903      	add	r1, sp, #12
10000e9a:	f005 fb9d 	bl	100065d8 <memcpy>
10000e9e:	686b      	ldr	r3, [r5, #4]
10000ea0:	6c2a      	ldr	r2, [r5, #64]	@ 0x40
10000ea2:	f8c5 9038 	str.w	r9, [r5, #56]	@ 0x38
10000ea6:	4413      	add	r3, r2
10000ea8:	68aa      	ldr	r2, [r5, #8]
10000eaa:	606b      	str	r3, [r5, #4]
10000eac:	4293      	cmp	r3, r2
10000eae:	d309      	bcc.n	10000ec4 <prvUnlockQueue+0x100>
10000eb0:	682b      	ldr	r3, [r5, #0]
10000eb2:	f1b8 3fff 	cmp.w	r8, #4294967295
10000eb6:	606b      	str	r3, [r5, #4]
10000eb8:	d0e1      	beq.n	10000e7e <prvUnlockQueue+0xba>
10000eba:	f000 fe2b 	bl	10001b14 <uxTaskGetNumberOfTasks>
10000ebe:	4540      	cmp	r0, r8
10000ec0:	d993      	bls.n	10000dea <prvUnlockQueue+0x26>
10000ec2:	e00a      	b.n	10000eda <prvUnlockQueue+0x116>
10000ec4:	f1b8 3fff 	cmp.w	r8, #4294967295
10000ec8:	d1f7      	bne.n	10000eba <prvUnlockQueue+0xf6>
10000eca:	6a6b      	ldr	r3, [r5, #36]	@ 0x24
10000ecc:	2b00      	cmp	r3, #0
10000ece:	d08c      	beq.n	10000dea <prvUnlockQueue+0x26>
10000ed0:	e7d8      	b.n	10000e84 <prvUnlockQueue+0xc0>
10000ed2:	f000 fe1f 	bl	10001b14 <uxTaskGetNumberOfTasks>
10000ed6:	4580      	cmp	r8, r0
10000ed8:	d287      	bcs.n	10000dea <prvUnlockQueue+0x26>
10000eda:	f108 0801 	add.w	r8, r8, #1
10000ede:	f885 8045 	strb.w	r8, [r5, #69]	@ 0x45
10000ee2:	e782      	b.n	10000dea <prvUnlockQueue+0x26>
10000ee4:	68a8      	ldr	r0, [r5, #8]
10000ee6:	9301      	str	r3, [sp, #4]
10000ee8:	f001 f8ee 	bl	100020c8 <xTaskPriorityDisinherit>
10000eec:	9b01      	ldr	r3, [sp, #4]
10000eee:	f1b8 3fff 	cmp.w	r8, #4294967295
10000ef2:	4602      	mov	r2, r0
10000ef4:	60ab      	str	r3, [r5, #8]
10000ef6:	f8c5 9038 	str.w	r9, [r5, #56]	@ 0x38
10000efa:	d107      	bne.n	10000f0c <prvUnlockQueue+0x148>
10000efc:	6a6b      	ldr	r3, [r5, #36]	@ 0x24
10000efe:	b993      	cbnz	r3, 10000f26 <prvUnlockQueue+0x162>
10000f00:	2a00      	cmp	r2, #0
10000f02:	f43f af72 	beq.w	10000dea <prvUnlockQueue+0x26>
10000f06:	f001 f8d3 	bl	100020b0 <vTaskMissedYield>
10000f0a:	e77d      	b.n	10000e08 <prvUnlockQueue+0x44>
10000f0c:	9001      	str	r0, [sp, #4]
10000f0e:	f000 fe01 	bl	10001b14 <uxTaskGetNumberOfTasks>
10000f12:	9a01      	ldr	r2, [sp, #4]
10000f14:	4540      	cmp	r0, r8
10000f16:	bf84      	itt	hi
10000f18:	f108 0801 	addhi.w	r8, r8, #1
10000f1c:	f885 8045 	strbhi.w	r8, [r5, #69]	@ 0x45
10000f20:	2a00      	cmp	r2, #0
10000f22:	d1f0      	bne.n	10000f06 <prvUnlockQueue+0x142>
10000f24:	e761      	b.n	10000dea <prvUnlockQueue+0x26>
10000f26:	9001      	str	r0, [sp, #4]
10000f28:	f105 0024 	add.w	r0, r5, #36	@ 0x24
10000f2c:	f000 ffa6 	bl	10001e7c <xTaskRemoveFromEventList>
10000f30:	2800      	cmp	r0, #0
10000f32:	f47f af67 	bne.w	10000e04 <prvUnlockQueue+0x40>
10000f36:	9a01      	ldr	r2, [sp, #4]
10000f38:	2a00      	cmp	r2, #0
10000f3a:	d1e4      	bne.n	10000f06 <prvUnlockQueue+0x142>
10000f3c:	e755      	b.n	10000dea <prvUnlockQueue+0x26>
10000f3e:	bf00      	nop

10000f40 <prvNotifyQueueSetContainer>:
10000f40:	b530      	push	{r4, r5, lr}
10000f42:	6c83      	ldr	r3, [r0, #72]	@ 0x48
10000f44:	b085      	sub	sp, #20
10000f46:	6b99      	ldr	r1, [r3, #56]	@ 0x38
10000f48:	6bda      	ldr	r2, [r3, #60]	@ 0x3c
10000f4a:	9003      	str	r0, [sp, #12]
10000f4c:	4291      	cmp	r1, r2
10000f4e:	d303      	bcc.n	10000f58 <prvNotifyQueueSetContainer+0x18>
10000f50:	2200      	movs	r2, #0
10000f52:	4610      	mov	r0, r2
10000f54:	b005      	add	sp, #20
10000f56:	bd30      	pop	{r4, r5, pc}
10000f58:	f893 1045 	ldrb.w	r1, [r3, #69]	@ 0x45
10000f5c:	6c1a      	ldr	r2, [r3, #64]	@ 0x40
10000f5e:	6b98      	ldr	r0, [r3, #56]	@ 0x38
10000f60:	b24c      	sxtb	r4, r1
10000f62:	4605      	mov	r5, r0
10000f64:	b302      	cbz	r2, 10000fa8 <prvNotifyQueueSetContainer+0x68>
10000f66:	6858      	ldr	r0, [r3, #4]
10000f68:	a903      	add	r1, sp, #12
10000f6a:	9301      	str	r3, [sp, #4]
10000f6c:	f005 fb34 	bl	100065d8 <memcpy>
10000f70:	9b01      	ldr	r3, [sp, #4]
10000f72:	685a      	ldr	r2, [r3, #4]
10000f74:	6c19      	ldr	r1, [r3, #64]	@ 0x40
10000f76:	440a      	add	r2, r1
10000f78:	6899      	ldr	r1, [r3, #8]
10000f7a:	605a      	str	r2, [r3, #4]
10000f7c:	428a      	cmp	r2, r1
10000f7e:	d301      	bcc.n	10000f84 <prvNotifyQueueSetContainer+0x44>
10000f80:	681a      	ldr	r2, [r3, #0]
10000f82:	605a      	str	r2, [r3, #4]
10000f84:	2200      	movs	r2, #0
10000f86:	1c69      	adds	r1, r5, #1
10000f88:	6399      	str	r1, [r3, #56]	@ 0x38
10000f8a:	1c61      	adds	r1, r4, #1
10000f8c:	d119      	bne.n	10000fc2 <prvNotifyQueueSetContainer+0x82>
10000f8e:	6a59      	ldr	r1, [r3, #36]	@ 0x24
10000f90:	2900      	cmp	r1, #0
10000f92:	d0de      	beq.n	10000f52 <prvNotifyQueueSetContainer+0x12>
10000f94:	f103 0024 	add.w	r0, r3, #36	@ 0x24
10000f98:	9201      	str	r2, [sp, #4]
10000f9a:	f000 ff6f 	bl	10001e7c <xTaskRemoveFromEventList>
10000f9e:	2800      	cmp	r0, #0
10000fa0:	9a01      	ldr	r2, [sp, #4]
10000fa2:	bf18      	it	ne
10000fa4:	2201      	movne	r2, #1
10000fa6:	e7d4      	b.n	10000f52 <prvNotifyQueueSetContainer+0x12>
10000fa8:	681a      	ldr	r2, [r3, #0]
10000faa:	2a00      	cmp	r2, #0
10000fac:	d1ea      	bne.n	10000f84 <prvNotifyQueueSetContainer+0x44>
10000fae:	6898      	ldr	r0, [r3, #8]
10000fb0:	9202      	str	r2, [sp, #8]
10000fb2:	9301      	str	r3, [sp, #4]
10000fb4:	f001 f888 	bl	100020c8 <xTaskPriorityDisinherit>
10000fb8:	e9dd 3201 	ldrd	r3, r2, [sp, #4]
10000fbc:	609a      	str	r2, [r3, #8]
10000fbe:	4602      	mov	r2, r0
10000fc0:	e7e1      	b.n	10000f86 <prvNotifyQueueSetContainer+0x46>
10000fc2:	e9cd 2301 	strd	r2, r3, [sp, #4]
10000fc6:	f000 fda5 	bl	10001b14 <uxTaskGetNumberOfTasks>
10000fca:	4284      	cmp	r4, r0
10000fcc:	9a01      	ldr	r2, [sp, #4]
10000fce:	d2c0      	bcs.n	10000f52 <prvNotifyQueueSetContainer+0x12>
10000fd0:	9b02      	ldr	r3, [sp, #8]
10000fd2:	1c61      	adds	r1, r4, #1
10000fd4:	f883 1045 	strb.w	r1, [r3, #69]	@ 0x45
10000fd8:	e7bb      	b.n	10000f52 <prvNotifyQueueSetContainer+0x12>
10000fda:	bf00      	nop

10000fdc <xQueueGenericCreate>:
10000fdc:	2800      	cmp	r0, #0
10000fde:	d044      	beq.n	1000106a <xQueueGenericCreate+0x8e>
10000fe0:	fba1 c300 	umull	ip, r3, r1, r0
10000fe4:	2b00      	cmp	r3, #0
10000fe6:	d140      	bne.n	1000106a <xQueueGenericCreate+0x8e>
10000fe8:	fb01 f300 	mul.w	r3, r1, r0
10000fec:	f113 0f55 	cmn.w	r3, #85	@ 0x55
10000ff0:	d83b      	bhi.n	1000106a <xQueueGenericCreate+0x8e>
10000ff2:	b530      	push	{r4, r5, lr}
10000ff4:	4604      	mov	r4, r0
10000ff6:	b083      	sub	sp, #12
10000ff8:	f103 0054 	add.w	r0, r3, #84	@ 0x54
10000ffc:	4615      	mov	r5, r2
10000ffe:	9101      	str	r1, [sp, #4]
10001000:	f7ff f958 	bl	100002b4 <pvPortMalloc>
10001004:	4603      	mov	r3, r0
10001006:	2800      	cmp	r0, #0
10001008:	d032      	beq.n	10001070 <xQueueGenericCreate+0x94>
1000100a:	9901      	ldr	r1, [sp, #4]
1000100c:	2900      	cmp	r1, #0
1000100e:	d033      	beq.n	10001078 <xQueueGenericCreate+0x9c>
10001010:	f100 0254 	add.w	r2, r0, #84	@ 0x54
10001014:	e9c3 410f 	strd	r4, r1, [r3, #60]	@ 0x3c
10001018:	601a      	str	r2, [r3, #0]
1000101a:	2400      	movs	r4, #0
1000101c:	9301      	str	r3, [sp, #4]
1000101e:	f7ff fad3 	bl	100005c8 <vPortEnterCritical>
10001022:	22ff      	movs	r2, #255	@ 0xff
10001024:	9b01      	ldr	r3, [sp, #4]
10001026:	639c      	str	r4, [r3, #56]	@ 0x38
10001028:	6c18      	ldr	r0, [r3, #64]	@ 0x40
1000102a:	f883 2044 	strb.w	r2, [r3, #68]	@ 0x44
1000102e:	f883 2045 	strb.w	r2, [r3, #69]	@ 0x45
10001032:	6bda      	ldr	r2, [r3, #60]	@ 0x3c
10001034:	6819      	ldr	r1, [r3, #0]
10001036:	fb00 f202 	mul.w	r2, r0, r2
1000103a:	1a10      	subs	r0, r2, r0
1000103c:	6059      	str	r1, [r3, #4]
1000103e:	440a      	add	r2, r1
10001040:	4401      	add	r1, r0
10001042:	e9c3 2102 	strd	r2, r1, [r3, #8]
10001046:	f103 0010 	add.w	r0, r3, #16
1000104a:	f7ff fe3f 	bl	10000ccc <vListInitialise>
1000104e:	9b01      	ldr	r3, [sp, #4]
10001050:	f103 0024 	add.w	r0, r3, #36	@ 0x24
10001054:	f7ff fe3a 	bl	10000ccc <vListInitialise>
10001058:	f7ff fac4 	bl	100005e4 <vPortExitCritical>
1000105c:	9b01      	ldr	r3, [sp, #4]
1000105e:	4618      	mov	r0, r3
10001060:	f883 5050 	strb.w	r5, [r3, #80]	@ 0x50
10001064:	649c      	str	r4, [r3, #72]	@ 0x48
10001066:	b003      	add	sp, #12
10001068:	bd30      	pop	{r4, r5, pc}
1000106a:	2300      	movs	r3, #0
1000106c:	4618      	mov	r0, r3
1000106e:	4770      	bx	lr
10001070:	2300      	movs	r3, #0
10001072:	4618      	mov	r0, r3
10001074:	b003      	add	sp, #12
10001076:	bd30      	pop	{r4, r5, pc}
10001078:	4602      	mov	r2, r0
1000107a:	e7cb      	b.n	10001014 <xQueueGenericCreate+0x38>

1000107c <xQueueGenericSendFromISR>:
1000107c:	e92d 43f8 	stmdb	sp!, {r3, r4, r5, r6, r7, r8, r9, lr}
10001080:	4604      	mov	r4, r0
10001082:	4691      	mov	r9, r2
10001084:	461d      	mov	r5, r3
10001086:	460e      	mov	r6, r1
10001088:	f7ff fb98 	bl	100007bc <vPortValidateInterruptPriority>
1000108c:	f7ff fcde 	bl	10000a4c <ulSetInterruptMask>
10001090:	6ba2      	ldr	r2, [r4, #56]	@ 0x38
10001092:	6be3      	ldr	r3, [r4, #60]	@ 0x3c
10001094:	4680      	mov	r8, r0
10001096:	429a      	cmp	r2, r3
10001098:	d308      	bcc.n	100010ac <xQueueGenericSendFromISR+0x30>
1000109a:	2d02      	cmp	r5, #2
1000109c:	d006      	beq.n	100010ac <xQueueGenericSendFromISR+0x30>
1000109e:	2400      	movs	r4, #0
100010a0:	4640      	mov	r0, r8
100010a2:	f7ff fcdf 	bl	10000a64 <vClearInterruptMask>
100010a6:	4620      	mov	r0, r4
100010a8:	e8bd 83f8 	ldmia.w	sp!, {r3, r4, r5, r6, r7, r8, r9, pc}
100010ac:	f894 3045 	ldrb.w	r3, [r4, #69]	@ 0x45
100010b0:	4631      	mov	r1, r6
100010b2:	462a      	mov	r2, r5
100010b4:	b25e      	sxtb	r6, r3
100010b6:	4620      	mov	r0, r4
100010b8:	6ba7      	ldr	r7, [r4, #56]	@ 0x38
100010ba:	f7ff fe45 	bl	10000d48 <prvCopyDataToQueue>
100010be:	1c73      	adds	r3, r6, #1
100010c0:	d115      	bne.n	100010ee <xQueueGenericSendFromISR+0x72>
100010c2:	6ca3      	ldr	r3, [r4, #72]	@ 0x48
100010c4:	b1e3      	cbz	r3, 10001100 <xQueueGenericSendFromISR+0x84>
100010c6:	2d02      	cmp	r5, #2
100010c8:	d100      	bne.n	100010cc <xQueueGenericSendFromISR+0x50>
100010ca:	b94f      	cbnz	r7, 100010e0 <xQueueGenericSendFromISR+0x64>
100010cc:	4620      	mov	r0, r4
100010ce:	f7ff ff37 	bl	10000f40 <prvNotifyQueueSetContainer>
100010d2:	b128      	cbz	r0, 100010e0 <xQueueGenericSendFromISR+0x64>
100010d4:	f1b9 0f00 	cmp.w	r9, #0
100010d8:	d002      	beq.n	100010e0 <xQueueGenericSendFromISR+0x64>
100010da:	2301      	movs	r3, #1
100010dc:	f8c9 3000 	str.w	r3, [r9]
100010e0:	2401      	movs	r4, #1
100010e2:	4640      	mov	r0, r8
100010e4:	f7ff fcbe 	bl	10000a64 <vClearInterruptMask>
100010e8:	4620      	mov	r0, r4
100010ea:	e8bd 83f8 	ldmia.w	sp!, {r3, r4, r5, r6, r7, r8, r9, pc}
100010ee:	f000 fd11 	bl	10001b14 <uxTaskGetNumberOfTasks>
100010f2:	4286      	cmp	r6, r0
100010f4:	d2f4      	bcs.n	100010e0 <xQueueGenericSendFromISR+0x64>
100010f6:	1c73      	adds	r3, r6, #1
100010f8:	f884 3045 	strb.w	r3, [r4, #69]	@ 0x45
100010fc:	2401      	movs	r4, #1
100010fe:	e7f0      	b.n	100010e2 <xQueueGenericSendFromISR+0x66>
10001100:	6a63      	ldr	r3, [r4, #36]	@ 0x24
10001102:	2b00      	cmp	r3, #0
10001104:	d0ec      	beq.n	100010e0 <xQueueGenericSendFromISR+0x64>
10001106:	f104 0024 	add.w	r0, r4, #36	@ 0x24
1000110a:	f000 feb7 	bl	10001e7c <xTaskRemoveFromEventList>
1000110e:	2800      	cmp	r0, #0
10001110:	d1e0      	bne.n	100010d4 <xQueueGenericSendFromISR+0x58>
10001112:	e7e5      	b.n	100010e0 <xQueueGenericSendFromISR+0x64>

10001114 <xQueueReceive>:
10001114:	b5f0      	push	{r4, r5, r6, r7, lr}
10001116:	4604      	mov	r4, r0
10001118:	b085      	sub	sp, #20
1000111a:	460f      	mov	r7, r1
1000111c:	9201      	str	r2, [sp, #4]
1000111e:	f7ff fa53 	bl	100005c8 <vPortEnterCritical>
10001122:	6ba5      	ldr	r5, [r4, #56]	@ 0x38
10001124:	2d00      	cmp	r5, #0
10001126:	d153      	bne.n	100011d0 <xQueueReceive+0xbc>
10001128:	9b01      	ldr	r3, [sp, #4]
1000112a:	b3a3      	cbz	r3, 10001196 <xQueueReceive+0x82>
1000112c:	a802      	add	r0, sp, #8
1000112e:	f000 ff77 	bl	10002020 <vTaskInternalSetTimeOutState>
10001132:	462e      	mov	r6, r5
10001134:	f7ff fa56 	bl	100005e4 <vPortExitCritical>
10001138:	f000 fbb8 	bl	100018ac <vTaskSuspendAll>
1000113c:	f7ff fa44 	bl	100005c8 <vPortEnterCritical>
10001140:	f894 3044 	ldrb.w	r3, [r4, #68]	@ 0x44
10001144:	2bff      	cmp	r3, #255	@ 0xff
10001146:	bf08      	it	eq
10001148:	f884 6044 	strbeq.w	r6, [r4, #68]	@ 0x44
1000114c:	f894 3045 	ldrb.w	r3, [r4, #69]	@ 0x45
10001150:	2bff      	cmp	r3, #255	@ 0xff
10001152:	bf08      	it	eq
10001154:	f884 6045 	strbeq.w	r6, [r4, #69]	@ 0x45
10001158:	f7ff fa44 	bl	100005e4 <vPortExitCritical>
1000115c:	a901      	add	r1, sp, #4
1000115e:	a802      	add	r0, sp, #8
10001160:	f000 ff6a 	bl	10002038 <xTaskCheckForTimeOut>
10001164:	b9e0      	cbnz	r0, 100011a0 <xQueueReceive+0x8c>
10001166:	f7ff fa2f 	bl	100005c8 <vPortEnterCritical>
1000116a:	6ba3      	ldr	r3, [r4, #56]	@ 0x38
1000116c:	bb2b      	cbnz	r3, 100011ba <xQueueReceive+0xa6>
1000116e:	f7ff fa39 	bl	100005e4 <vPortExitCritical>
10001172:	9901      	ldr	r1, [sp, #4]
10001174:	f104 0024 	add.w	r0, r4, #36	@ 0x24
10001178:	f000 fd10 	bl	10001b9c <vTaskPlaceOnEventList>
1000117c:	4620      	mov	r0, r4
1000117e:	f7ff fe21 	bl	10000dc4 <prvUnlockQueue>
10001182:	f000 fb9b 	bl	100018bc <xTaskResumeAll>
10001186:	b300      	cbz	r0, 100011ca <xQueueReceive+0xb6>
10001188:	f7ff fa1e 	bl	100005c8 <vPortEnterCritical>
1000118c:	6ba5      	ldr	r5, [r4, #56]	@ 0x38
1000118e:	b9fd      	cbnz	r5, 100011d0 <xQueueReceive+0xbc>
10001190:	9b01      	ldr	r3, [sp, #4]
10001192:	2b00      	cmp	r3, #0
10001194:	d1ce      	bne.n	10001134 <xQueueReceive+0x20>
10001196:	f7ff fa25 	bl	100005e4 <vPortExitCritical>
1000119a:	2000      	movs	r0, #0
1000119c:	b005      	add	sp, #20
1000119e:	bdf0      	pop	{r4, r5, r6, r7, pc}
100011a0:	4620      	mov	r0, r4
100011a2:	f7ff fe0f 	bl	10000dc4 <prvUnlockQueue>
100011a6:	f000 fb89 	bl	100018bc <xTaskResumeAll>
100011aa:	f7ff fa0d 	bl	100005c8 <vPortEnterCritical>
100011ae:	6ba3      	ldr	r3, [r4, #56]	@ 0x38
100011b0:	2b00      	cmp	r3, #0
100011b2:	d0f0      	beq.n	10001196 <xQueueReceive+0x82>
100011b4:	f7ff fa16 	bl	100005e4 <vPortExitCritical>
100011b8:	e7e6      	b.n	10001188 <xQueueReceive+0x74>
100011ba:	f7ff fa13 	bl	100005e4 <vPortExitCritical>
100011be:	4620      	mov	r0, r4
100011c0:	f7ff fe00 	bl	10000dc4 <prvUnlockQueue>
100011c4:	f000 fb7a 	bl	100018bc <xTaskResumeAll>
100011c8:	e7de      	b.n	10001188 <xQueueReceive+0x74>
100011ca:	f7ff f9f1 	bl	100005b0 <vPortYield>
100011ce:	e7db      	b.n	10001188 <xQueueReceive+0x74>
100011d0:	6c22      	ldr	r2, [r4, #64]	@ 0x40
100011d2:	b15a      	cbz	r2, 100011ec <xQueueReceive+0xd8>
100011d4:	68e1      	ldr	r1, [r4, #12]
100011d6:	68a3      	ldr	r3, [r4, #8]
100011d8:	4411      	add	r1, r2
100011da:	4299      	cmp	r1, r3
100011dc:	60e1      	str	r1, [r4, #12]
100011de:	bf28      	it	cs
100011e0:	6821      	ldrcs	r1, [r4, #0]
100011e2:	4638      	mov	r0, r7
100011e4:	bf28      	it	cs
100011e6:	60e1      	strcs	r1, [r4, #12]
100011e8:	f005 f9f6 	bl	100065d8 <memcpy>
100011ec:	6923      	ldr	r3, [r4, #16]
100011ee:	3d01      	subs	r5, #1
100011f0:	63a5      	str	r5, [r4, #56]	@ 0x38
100011f2:	b923      	cbnz	r3, 100011fe <xQueueReceive+0xea>
100011f4:	f7ff f9f6 	bl	100005e4 <vPortExitCritical>
100011f8:	2001      	movs	r0, #1
100011fa:	b005      	add	sp, #20
100011fc:	bdf0      	pop	{r4, r5, r6, r7, pc}
100011fe:	f104 0010 	add.w	r0, r4, #16
10001202:	f000 fe3b 	bl	10001e7c <xTaskRemoveFromEventList>
10001206:	2800      	cmp	r0, #0
10001208:	d0f4      	beq.n	100011f4 <xQueueReceive+0xe0>
1000120a:	f7ff f9d1 	bl	100005b0 <vPortYield>
1000120e:	e7f1      	b.n	100011f4 <xQueueReceive+0xe0>

10001210 <vQueueAddToRegistry>:
10001210:	2900      	cmp	r1, #0
10001212:	d053      	beq.n	100012bc <vQueueAddToRegistry+0xac>
10001214:	4b43      	ldr	r3, [pc, #268]	@ (10001324 <vQueueAddToRegistry+0x114>)
10001216:	685a      	ldr	r2, [r3, #4]
10001218:	4290      	cmp	r0, r2
1000121a:	d070      	beq.n	100012fe <vQueueAddToRegistry+0xee>
1000121c:	681a      	ldr	r2, [r3, #0]
1000121e:	b410      	push	{r4}
10001220:	2a00      	cmp	r2, #0
10001222:	d02b      	beq.n	1000127c <vQueueAddToRegistry+0x6c>
10001224:	68da      	ldr	r2, [r3, #12]
10001226:	4290      	cmp	r0, r2
10001228:	d079      	beq.n	1000131e <vQueueAddToRegistry+0x10e>
1000122a:	689a      	ldr	r2, [r3, #8]
1000122c:	2a00      	cmp	r2, #0
1000122e:	d03f      	beq.n	100012b0 <vQueueAddToRegistry+0xa0>
10001230:	695a      	ldr	r2, [r3, #20]
10001232:	4290      	cmp	r0, r2
10001234:	d071      	beq.n	1000131a <vQueueAddToRegistry+0x10a>
10001236:	691a      	ldr	r2, [r3, #16]
10001238:	2a00      	cmp	r2, #0
1000123a:	d040      	beq.n	100012be <vQueueAddToRegistry+0xae>
1000123c:	69da      	ldr	r2, [r3, #28]
1000123e:	4290      	cmp	r0, r2
10001240:	d063      	beq.n	1000130a <vQueueAddToRegistry+0xfa>
10001242:	699a      	ldr	r2, [r3, #24]
10001244:	2a00      	cmp	r2, #0
10001246:	d040      	beq.n	100012ca <vQueueAddToRegistry+0xba>
10001248:	6a5a      	ldr	r2, [r3, #36]	@ 0x24
1000124a:	4290      	cmp	r0, r2
1000124c:	d042      	beq.n	100012d4 <vQueueAddToRegistry+0xc4>
1000124e:	6a1a      	ldr	r2, [r3, #32]
10001250:	2a00      	cmp	r2, #0
10001252:	d043      	beq.n	100012dc <vQueueAddToRegistry+0xcc>
10001254:	6ada      	ldr	r2, [r3, #44]	@ 0x2c
10001256:	4290      	cmp	r0, r2
10001258:	d059      	beq.n	1000130e <vQueueAddToRegistry+0xfe>
1000125a:	6a9a      	ldr	r2, [r3, #40]	@ 0x28
1000125c:	2a00      	cmp	r2, #0
1000125e:	d042      	beq.n	100012e6 <vQueueAddToRegistry+0xd6>
10001260:	6b5a      	ldr	r2, [r3, #52]	@ 0x34
10001262:	4290      	cmp	r0, r2
10001264:	d055      	beq.n	10001312 <vQueueAddToRegistry+0x102>
10001266:	6b1a      	ldr	r2, [r3, #48]	@ 0x30
10001268:	2a00      	cmp	r2, #0
1000126a:	d041      	beq.n	100012f0 <vQueueAddToRegistry+0xe0>
1000126c:	6bda      	ldr	r2, [r3, #60]	@ 0x3c
1000126e:	4290      	cmp	r0, r2
10001270:	d051      	beq.n	10001316 <vQueueAddToRegistry+0x106>
10001272:	6b9b      	ldr	r3, [r3, #56]	@ 0x38
10001274:	2b00      	cmp	r3, #0
10001276:	d040      	beq.n	100012fa <vQueueAddToRegistry+0xea>
10001278:	bc10      	pop	{r4}
1000127a:	4770      	bx	lr
1000127c:	68da      	ldr	r2, [r3, #12]
1000127e:	4290      	cmp	r0, r2
10001280:	d04d      	beq.n	1000131e <vQueueAddToRegistry+0x10e>
10001282:	695a      	ldr	r2, [r3, #20]
10001284:	4290      	cmp	r0, r2
10001286:	d048      	beq.n	1000131a <vQueueAddToRegistry+0x10a>
10001288:	461a      	mov	r2, r3
1000128a:	69dc      	ldr	r4, [r3, #28]
1000128c:	42a0      	cmp	r0, r4
1000128e:	d03c      	beq.n	1000130a <vQueueAddToRegistry+0xfa>
10001290:	6a5c      	ldr	r4, [r3, #36]	@ 0x24
10001292:	42a0      	cmp	r0, r4
10001294:	d01e      	beq.n	100012d4 <vQueueAddToRegistry+0xc4>
10001296:	6adc      	ldr	r4, [r3, #44]	@ 0x2c
10001298:	42a0      	cmp	r0, r4
1000129a:	d038      	beq.n	1000130e <vQueueAddToRegistry+0xfe>
1000129c:	6b5c      	ldr	r4, [r3, #52]	@ 0x34
1000129e:	42a0      	cmp	r0, r4
100012a0:	d037      	beq.n	10001312 <vQueueAddToRegistry+0x102>
100012a2:	6bdc      	ldr	r4, [r3, #60]	@ 0x3c
100012a4:	42a0      	cmp	r0, r4
100012a6:	d036      	beq.n	10001316 <vQueueAddToRegistry+0x106>
100012a8:	bc10      	pop	{r4}
100012aa:	e9c2 1000 	strd	r1, r0, [r2]
100012ae:	4770      	bx	lr
100012b0:	695a      	ldr	r2, [r3, #20]
100012b2:	4290      	cmp	r0, r2
100012b4:	d031      	beq.n	1000131a <vQueueAddToRegistry+0x10a>
100012b6:	f103 0208 	add.w	r2, r3, #8
100012ba:	e7e6      	b.n	1000128a <vQueueAddToRegistry+0x7a>
100012bc:	4770      	bx	lr
100012be:	69da      	ldr	r2, [r3, #28]
100012c0:	4290      	cmp	r0, r2
100012c2:	d022      	beq.n	1000130a <vQueueAddToRegistry+0xfa>
100012c4:	f103 0210 	add.w	r2, r3, #16
100012c8:	e7e2      	b.n	10001290 <vQueueAddToRegistry+0x80>
100012ca:	6a5a      	ldr	r2, [r3, #36]	@ 0x24
100012cc:	4290      	cmp	r0, r2
100012ce:	d001      	beq.n	100012d4 <vQueueAddToRegistry+0xc4>
100012d0:	4a15      	ldr	r2, [pc, #84]	@ (10001328 <vQueueAddToRegistry+0x118>)
100012d2:	e7e0      	b.n	10001296 <vQueueAddToRegistry+0x86>
100012d4:	2204      	movs	r2, #4
100012d6:	eb03 02c2 	add.w	r2, r3, r2, lsl #3
100012da:	e7e5      	b.n	100012a8 <vQueueAddToRegistry+0x98>
100012dc:	6ada      	ldr	r2, [r3, #44]	@ 0x2c
100012de:	4290      	cmp	r0, r2
100012e0:	d015      	beq.n	1000130e <vQueueAddToRegistry+0xfe>
100012e2:	4a12      	ldr	r2, [pc, #72]	@ (1000132c <vQueueAddToRegistry+0x11c>)
100012e4:	e7da      	b.n	1000129c <vQueueAddToRegistry+0x8c>
100012e6:	6b5a      	ldr	r2, [r3, #52]	@ 0x34
100012e8:	4290      	cmp	r0, r2
100012ea:	d012      	beq.n	10001312 <vQueueAddToRegistry+0x102>
100012ec:	4a10      	ldr	r2, [pc, #64]	@ (10001330 <vQueueAddToRegistry+0x120>)
100012ee:	e7d8      	b.n	100012a2 <vQueueAddToRegistry+0x92>
100012f0:	6bda      	ldr	r2, [r3, #60]	@ 0x3c
100012f2:	4290      	cmp	r0, r2
100012f4:	d00f      	beq.n	10001316 <vQueueAddToRegistry+0x106>
100012f6:	4a0f      	ldr	r2, [pc, #60]	@ (10001334 <vQueueAddToRegistry+0x124>)
100012f8:	e7d6      	b.n	100012a8 <vQueueAddToRegistry+0x98>
100012fa:	4a0f      	ldr	r2, [pc, #60]	@ (10001338 <vQueueAddToRegistry+0x128>)
100012fc:	e7d4      	b.n	100012a8 <vQueueAddToRegistry+0x98>
100012fe:	2200      	movs	r2, #0
10001300:	eb03 02c2 	add.w	r2, r3, r2, lsl #3
10001304:	e9c2 1000 	strd	r1, r0, [r2]
10001308:	4770      	bx	lr
1000130a:	2203      	movs	r2, #3
1000130c:	e7e3      	b.n	100012d6 <vQueueAddToRegistry+0xc6>
1000130e:	2205      	movs	r2, #5
10001310:	e7e1      	b.n	100012d6 <vQueueAddToRegistry+0xc6>
10001312:	2206      	movs	r2, #6
10001314:	e7df      	b.n	100012d6 <vQueueAddToRegistry+0xc6>
10001316:	2207      	movs	r2, #7
10001318:	e7dd      	b.n	100012d6 <vQueueAddToRegistry+0xc6>
1000131a:	2202      	movs	r2, #2
1000131c:	e7db      	b.n	100012d6 <vQueueAddToRegistry+0xc6>
1000131e:	2201      	movs	r2, #1
10001320:	e7d9      	b.n	100012d6 <vQueueAddToRegistry+0xc6>
10001322:	bf00      	nop
10001324:	200014f0 	.word	0x200014f0
10001328:	20001508 	.word	0x20001508
1000132c:	20001510 	.word	0x20001510
10001330:	20001518 	.word	0x20001518
10001334:	20001520 	.word	0x20001520
10001338:	20001528 	.word	0x20001528

1000133c <vQueueWaitForMessageRestricted>:
1000133c:	b570      	push	{r4, r5, r6, lr}
1000133e:	4604      	mov	r4, r0
10001340:	460d      	mov	r5, r1
10001342:	4616      	mov	r6, r2
10001344:	f7ff f940 	bl	100005c8 <vPortEnterCritical>
10001348:	f894 3044 	ldrb.w	r3, [r4, #68]	@ 0x44
1000134c:	2bff      	cmp	r3, #255	@ 0xff
1000134e:	bf04      	itt	eq
10001350:	2300      	moveq	r3, #0
10001352:	f884 3044 	strbeq.w	r3, [r4, #68]	@ 0x44
10001356:	f894 3045 	ldrb.w	r3, [r4, #69]	@ 0x45
1000135a:	2bff      	cmp	r3, #255	@ 0xff
1000135c:	bf04      	itt	eq
1000135e:	2300      	moveq	r3, #0
10001360:	f884 3045 	strbeq.w	r3, [r4, #69]	@ 0x45
10001364:	f7ff f93e 	bl	100005e4 <vPortExitCritical>
10001368:	6ba3      	ldr	r3, [r4, #56]	@ 0x38
1000136a:	b123      	cbz	r3, 10001376 <vQueueWaitForMessageRestricted+0x3a>
1000136c:	4620      	mov	r0, r4
1000136e:	e8bd 4070 	ldmia.w	sp!, {r4, r5, r6, lr}
10001372:	f7ff bd27 	b.w	10000dc4 <prvUnlockQueue>
10001376:	f104 0024 	add.w	r0, r4, #36	@ 0x24
1000137a:	4632      	mov	r2, r6
1000137c:	4629      	mov	r1, r5
1000137e:	f000 fced 	bl	10001d5c <vTaskPlaceOnEventListRestricted>
10001382:	4620      	mov	r0, r4
10001384:	e8bd 4070 	ldmia.w	sp!, {r4, r5, r6, lr}
10001388:	f7ff bd1c 	b.w	10000dc4 <prvUnlockQueue>

1000138c <prvAddNewTaskToReadyList>:
1000138c:	e92d 41f0 	stmdb	sp!, {r4, r5, r6, r7, r8, lr}
10001390:	4604      	mov	r4, r0
10001392:	f7ff f919 	bl	100005c8 <vPortEnterCritical>
10001396:	4a3a      	ldr	r2, [pc, #232]	@ (10001480 <prvAddNewTaskToReadyList+0xf4>)
10001398:	4e3a      	ldr	r6, [pc, #232]	@ (10001484 <prvAddNewTaskToReadyList+0xf8>)
1000139a:	6813      	ldr	r3, [r2, #0]
1000139c:	3301      	adds	r3, #1
1000139e:	6013      	str	r3, [r2, #0]
100013a0:	6833      	ldr	r3, [r6, #0]
100013a2:	2b00      	cmp	r3, #0
100013a4:	d03b      	beq.n	1000141e <prvAddNewTaskToReadyList+0x92>
100013a6:	4d38      	ldr	r5, [pc, #224]	@ (10001488 <prvAddNewTaskToReadyList+0xfc>)
100013a8:	6ae2      	ldr	r2, [r4, #44]	@ 0x2c
100013aa:	682b      	ldr	r3, [r5, #0]
100013ac:	b383      	cbz	r3, 10001410 <prvAddNewTaskToReadyList+0x84>
100013ae:	4f37      	ldr	r7, [pc, #220]	@ (1000148c <prvAddNewTaskToReadyList+0x100>)
100013b0:	2301      	movs	r3, #1
100013b2:	4837      	ldr	r0, [pc, #220]	@ (10001490 <prvAddNewTaskToReadyList+0x104>)
100013b4:	eb02 0182 	add.w	r1, r2, r2, lsl #2
100013b8:	4093      	lsls	r3, r2
100013ba:	6802      	ldr	r2, [r0, #0]
100013bc:	f8df c0ec 	ldr.w	ip, [pc, #236]	@ 100014ac <prvAddNewTaskToReadyList+0x120>
100013c0:	3201      	adds	r2, #1
100013c2:	6002      	str	r2, [r0, #0]
100013c4:	eb07 0081 	add.w	r0, r7, r1, lsl #2
100013c8:	6462      	str	r2, [r4, #68]	@ 0x44
100013ca:	f8dc 8000 	ldr.w	r8, [ip]
100013ce:	6842      	ldr	r2, [r0, #4]
100013d0:	ea43 0308 	orr.w	r3, r3, r8
100013d4:	60a2      	str	r2, [r4, #8]
100013d6:	f8d2 e008 	ldr.w	lr, [r2, #8]
100013da:	f8cc 3000 	str.w	r3, [ip]
100013de:	f857 3021 	ldr.w	r3, [r7, r1, lsl #2]
100013e2:	f104 0c04 	add.w	ip, r4, #4
100013e6:	f8c4 e00c 	str.w	lr, [r4, #12]
100013ea:	3301      	adds	r3, #1
100013ec:	f8ce c004 	str.w	ip, [lr, #4]
100013f0:	f8c2 c008 	str.w	ip, [r2, #8]
100013f4:	6160      	str	r0, [r4, #20]
100013f6:	f847 3021 	str.w	r3, [r7, r1, lsl #2]
100013fa:	f7ff f8f3 	bl	100005e4 <vPortExitCritical>
100013fe:	682b      	ldr	r3, [r5, #0]
10001400:	b123      	cbz	r3, 1000140c <prvAddNewTaskToReadyList+0x80>
10001402:	6832      	ldr	r2, [r6, #0]
10001404:	6ae3      	ldr	r3, [r4, #44]	@ 0x2c
10001406:	6ad2      	ldr	r2, [r2, #44]	@ 0x2c
10001408:	429a      	cmp	r2, r3
1000140a:	d310      	bcc.n	1000142e <prvAddNewTaskToReadyList+0xa2>
1000140c:	e8bd 81f0 	ldmia.w	sp!, {r4, r5, r6, r7, r8, pc}
10001410:	6833      	ldr	r3, [r6, #0]
10001412:	4f1e      	ldr	r7, [pc, #120]	@ (1000148c <prvAddNewTaskToReadyList+0x100>)
10001414:	6adb      	ldr	r3, [r3, #44]	@ 0x2c
10001416:	4293      	cmp	r3, r2
10001418:	bf98      	it	ls
1000141a:	6034      	strls	r4, [r6, #0]
1000141c:	e7c8      	b.n	100013b0 <prvAddNewTaskToReadyList+0x24>
1000141e:	6034      	str	r4, [r6, #0]
10001420:	6813      	ldr	r3, [r2, #0]
10001422:	2b01      	cmp	r3, #1
10001424:	d007      	beq.n	10001436 <prvAddNewTaskToReadyList+0xaa>
10001426:	6ae2      	ldr	r2, [r4, #44]	@ 0x2c
10001428:	4f18      	ldr	r7, [pc, #96]	@ (1000148c <prvAddNewTaskToReadyList+0x100>)
1000142a:	4d17      	ldr	r5, [pc, #92]	@ (10001488 <prvAddNewTaskToReadyList+0xfc>)
1000142c:	e7c0      	b.n	100013b0 <prvAddNewTaskToReadyList+0x24>
1000142e:	e8bd 41f0 	ldmia.w	sp!, {r4, r5, r6, r7, r8, lr}
10001432:	f7ff b8bd 	b.w	100005b0 <vPortYield>
10001436:	4f15      	ldr	r7, [pc, #84]	@ (1000148c <prvAddNewTaskToReadyList+0x100>)
10001438:	463d      	mov	r5, r7
1000143a:	f507 7820 	add.w	r8, r7, #640	@ 0x280
1000143e:	4628      	mov	r0, r5
10001440:	3514      	adds	r5, #20
10001442:	f7ff fc43 	bl	10000ccc <vListInitialise>
10001446:	45a8      	cmp	r8, r5
10001448:	d1f9      	bne.n	1000143e <prvAddNewTaskToReadyList+0xb2>
1000144a:	f8df 8064 	ldr.w	r8, [pc, #100]	@ 100014b0 <prvAddNewTaskToReadyList+0x124>
1000144e:	4d11      	ldr	r5, [pc, #68]	@ (10001494 <prvAddNewTaskToReadyList+0x108>)
10001450:	4640      	mov	r0, r8
10001452:	f7ff fc3b 	bl	10000ccc <vListInitialise>
10001456:	4628      	mov	r0, r5
10001458:	f7ff fc38 	bl	10000ccc <vListInitialise>
1000145c:	480e      	ldr	r0, [pc, #56]	@ (10001498 <prvAddNewTaskToReadyList+0x10c>)
1000145e:	f7ff fc35 	bl	10000ccc <vListInitialise>
10001462:	480e      	ldr	r0, [pc, #56]	@ (1000149c <prvAddNewTaskToReadyList+0x110>)
10001464:	f7ff fc32 	bl	10000ccc <vListInitialise>
10001468:	480d      	ldr	r0, [pc, #52]	@ (100014a0 <prvAddNewTaskToReadyList+0x114>)
1000146a:	f7ff fc2f 	bl	10000ccc <vListInitialise>
1000146e:	4b0d      	ldr	r3, [pc, #52]	@ (100014a4 <prvAddNewTaskToReadyList+0x118>)
10001470:	6ae2      	ldr	r2, [r4, #44]	@ 0x2c
10001472:	f8c3 8000 	str.w	r8, [r3]
10001476:	4b0c      	ldr	r3, [pc, #48]	@ (100014a8 <prvAddNewTaskToReadyList+0x11c>)
10001478:	601d      	str	r5, [r3, #0]
1000147a:	4d03      	ldr	r5, [pc, #12]	@ (10001488 <prvAddNewTaskToReadyList+0xfc>)
1000147c:	e798      	b.n	100013b0 <prvAddNewTaskToReadyList+0x24>
1000147e:	bf00      	nop
10001480:	200221a8 	.word	0x200221a8
10001484:	20001ee0 	.word	0x20001ee0
10001488:	20022248 	.word	0x20022248
1000148c:	20001ef8 	.word	0x20001ef8
10001490:	200221b4 	.word	0x200221b4
10001494:	200221f8 	.word	0x200221f8
10001498:	20022234 	.word	0x20022234
1000149c:	20022268 	.word	0x20022268
100014a0:	20022254 	.word	0x20022254
100014a4:	20001ee8 	.word	0x20001ee8
100014a8:	20001ef0 	.word	0x20001ef0
100014ac:	200221b8 	.word	0x200221b8
100014b0:	200221e4 	.word	0x200221e4

100014b4 <prvIdleTask>:
100014b4:	b580      	push	{r7, lr}
100014b6:	4d12      	ldr	r5, [pc, #72]	@ (10001500 <prvIdleTask+0x4c>)
100014b8:	4f12      	ldr	r7, [pc, #72]	@ (10001504 <prvIdleTask+0x50>)
100014ba:	4e13      	ldr	r6, [pc, #76]	@ (10001508 <prvIdleTask+0x54>)
100014bc:	f8df 804c 	ldr.w	r8, [pc, #76]	@ 1000150c <prvIdleTask+0x58>
100014c0:	e014      	b.n	100014ec <prvIdleTask+0x38>
100014c2:	f7ff f881 	bl	100005c8 <vPortEnterCritical>
100014c6:	68fb      	ldr	r3, [r7, #12]
100014c8:	68dc      	ldr	r4, [r3, #12]
100014ca:	1d20      	adds	r0, r4, #4
100014cc:	f7ff fc2a 	bl	10000d24 <uxListRemove>
100014d0:	6833      	ldr	r3, [r6, #0]
100014d2:	3b01      	subs	r3, #1
100014d4:	6033      	str	r3, [r6, #0]
100014d6:	682b      	ldr	r3, [r5, #0]
100014d8:	3b01      	subs	r3, #1
100014da:	602b      	str	r3, [r5, #0]
100014dc:	f7ff f882 	bl	100005e4 <vPortExitCritical>
100014e0:	6b20      	ldr	r0, [r4, #48]	@ 0x30
100014e2:	f7fe ff8b 	bl	100003fc <vPortFree>
100014e6:	4620      	mov	r0, r4
100014e8:	f7fe ff88 	bl	100003fc <vPortFree>
100014ec:	682b      	ldr	r3, [r5, #0]
100014ee:	2b00      	cmp	r3, #0
100014f0:	d1e7      	bne.n	100014c2 <prvIdleTask+0xe>
100014f2:	f8d8 3000 	ldr.w	r3, [r8]
100014f6:	2b01      	cmp	r3, #1
100014f8:	d9f8      	bls.n	100014ec <prvIdleTask+0x38>
100014fa:	f7ff f859 	bl	100005b0 <vPortYield>
100014fe:	e7f5      	b.n	100014ec <prvIdleTask+0x38>
10001500:	200221ac 	.word	0x200221ac
10001504:	20022268 	.word	0x20022268
10001508:	200221a8 	.word	0x200221a8
1000150c:	20001ef8 	.word	0x20001ef8

10001510 <xTaskIncrementTick.part.0>:
10001510:	e92d 4ff0 	stmdb	sp!, {r4, r5, r6, r7, r8, r9, sl, fp, lr}
10001514:	4b5e      	ldr	r3, [pc, #376]	@ (10001690 <xTaskIncrementTick.part.0+0x180>)
10001516:	b083      	sub	sp, #12
10001518:	681a      	ldr	r2, [r3, #0]
1000151a:	f102 0e01 	add.w	lr, r2, #1
1000151e:	f8c3 e000 	str.w	lr, [r3]
10001522:	f1be 0f00 	cmp.w	lr, #0
10001526:	d077      	beq.n	10001618 <xTaskIncrementTick.part.0+0x108>
10001528:	4b5a      	ldr	r3, [pc, #360]	@ (10001694 <xTaskIncrementTick.part.0+0x184>)
1000152a:	681a      	ldr	r2, [r3, #0]
1000152c:	4596      	cmp	lr, r2
1000152e:	f0c0 8088 	bcc.w	10001642 <xTaskIncrementTick.part.0+0x132>
10001532:	4c59      	ldr	r4, [pc, #356]	@ (10001698 <xTaskIncrementTick.part.0+0x188>)
10001534:	6822      	ldr	r2, [r4, #0]
10001536:	6812      	ldr	r2, [r2, #0]
10001538:	2a00      	cmp	r2, #0
1000153a:	f000 80a5 	beq.w	10001688 <xTaskIncrementTick.part.0+0x178>
1000153e:	4e57      	ldr	r6, [pc, #348]	@ (1000169c <xTaskIncrementTick.part.0+0x18c>)
10001540:	f04f 0c00 	mov.w	ip, #0
10001544:	f04f 0801 	mov.w	r8, #1
10001548:	e9cd 6300 	strd	r6, r3, [sp]
1000154c:	4854      	ldr	r0, [pc, #336]	@ (100016a0 <xTaskIncrementTick.part.0+0x190>)
1000154e:	4d55      	ldr	r5, [pc, #340]	@ (100016a4 <xTaskIncrementTick.part.0+0x194>)
10001550:	e055      	b.n	100015fe <xTaskIncrementTick.part.0+0xee>
10001552:	f8d3 9014 	ldr.w	r9, [r3, #20]
10001556:	e9d3 6102 	ldrd	r6, r1, [r3, #8]
1000155a:	60b1      	str	r1, [r6, #8]
1000155c:	689e      	ldr	r6, [r3, #8]
1000155e:	604e      	str	r6, [r1, #4]
10001560:	f8d9 1004 	ldr.w	r1, [r9, #4]
10001564:	4291      	cmp	r1, r2
10001566:	bf04      	itt	eq
10001568:	68d9      	ldreq	r1, [r3, #12]
1000156a:	f8c9 1004 	streq.w	r1, [r9, #4]
1000156e:	f8d9 1000 	ldr.w	r1, [r9]
10001572:	3901      	subs	r1, #1
10001574:	f8c9 1000 	str.w	r1, [r9]
10001578:	f8d3 9028 	ldr.w	r9, [r3, #40]	@ 0x28
1000157c:	f1b9 0f00 	cmp.w	r9, #0
10001580:	d012      	beq.n	100015a8 <xTaskIncrementTick.part.0+0x98>
10001582:	e9d3 6107 	ldrd	r6, r1, [r3, #28]
10001586:	60b1      	str	r1, [r6, #8]
10001588:	69de      	ldr	r6, [r3, #28]
1000158a:	604e      	str	r6, [r1, #4]
1000158c:	2600      	movs	r6, #0
1000158e:	f8d9 1004 	ldr.w	r1, [r9, #4]
10001592:	42b9      	cmp	r1, r7
10001594:	bf04      	itt	eq
10001596:	6a19      	ldreq	r1, [r3, #32]
10001598:	f8c9 1004 	streq.w	r1, [r9, #4]
1000159c:	f8d9 1000 	ldr.w	r1, [r9]
100015a0:	629e      	str	r6, [r3, #40]	@ 0x28
100015a2:	3901      	subs	r1, #1
100015a4:	f8c9 1000 	str.w	r1, [r9]
100015a8:	6ad9      	ldr	r1, [r3, #44]	@ 0x2c
100015aa:	f8d5 9000 	ldr.w	r9, [r5]
100015ae:	eb01 0781 	add.w	r7, r1, r1, lsl #2
100015b2:	eb00 0a87 	add.w	sl, r0, r7, lsl #2
100015b6:	fa08 f101 	lsl.w	r1, r8, r1
100015ba:	ea41 0109 	orr.w	r1, r1, r9
100015be:	f8da 9004 	ldr.w	r9, [sl, #4]
100015c2:	6029      	str	r1, [r5, #0]
100015c4:	f8c3 9008 	str.w	r9, [r3, #8]
100015c8:	f8d9 b008 	ldr.w	fp, [r9, #8]
100015cc:	f850 1027 	ldr.w	r1, [r0, r7, lsl #2]
100015d0:	f8c3 b00c 	str.w	fp, [r3, #12]
100015d4:	f8cb 2004 	str.w	r2, [fp, #4]
100015d8:	f8c9 2008 	str.w	r2, [r9, #8]
100015dc:	9a00      	ldr	r2, [sp, #0]
100015de:	3101      	adds	r1, #1
100015e0:	6812      	ldr	r2, [r2, #0]
100015e2:	f8c3 a014 	str.w	sl, [r3, #20]
100015e6:	f840 1027 	str.w	r1, [r0, r7, lsl #2]
100015ea:	6827      	ldr	r7, [r4, #0]
100015ec:	6ad9      	ldr	r1, [r3, #44]	@ 0x2c
100015ee:	6ad2      	ldr	r2, [r2, #44]	@ 0x2c
100015f0:	683b      	ldr	r3, [r7, #0]
100015f2:	4291      	cmp	r1, r2
100015f4:	bf88      	it	hi
100015f6:	f04c 0c01 	orrhi.w	ip, ip, #1
100015fa:	2b00      	cmp	r3, #0
100015fc:	d03e      	beq.n	1000167c <xTaskIncrementTick.part.0+0x16c>
100015fe:	6823      	ldr	r3, [r4, #0]
10001600:	68db      	ldr	r3, [r3, #12]
10001602:	68db      	ldr	r3, [r3, #12]
10001604:	6859      	ldr	r1, [r3, #4]
10001606:	1d1a      	adds	r2, r3, #4
10001608:	458e      	cmp	lr, r1
1000160a:	f103 0718 	add.w	r7, r3, #24
1000160e:	d2a0      	bcs.n	10001552 <xTaskIncrementTick.part.0+0x42>
10001610:	e9dd 6300 	ldrd	r6, r3, [sp]
10001614:	6019      	str	r1, [r3, #0]
10001616:	e018      	b.n	1000164a <xTaskIncrementTick.part.0+0x13a>
10001618:	4b1f      	ldr	r3, [pc, #124]	@ (10001698 <xTaskIncrementTick.part.0+0x188>)
1000161a:	4a23      	ldr	r2, [pc, #140]	@ (100016a8 <xTaskIncrementTick.part.0+0x198>)
1000161c:	6818      	ldr	r0, [r3, #0]
1000161e:	6811      	ldr	r1, [r2, #0]
10001620:	6019      	str	r1, [r3, #0]
10001622:	4922      	ldr	r1, [pc, #136]	@ (100016ac <xTaskIncrementTick.part.0+0x19c>)
10001624:	6010      	str	r0, [r2, #0]
10001626:	680a      	ldr	r2, [r1, #0]
10001628:	3201      	adds	r2, #1
1000162a:	600a      	str	r2, [r1, #0]
1000162c:	681a      	ldr	r2, [r3, #0]
1000162e:	6812      	ldr	r2, [r2, #0]
10001630:	b9f2      	cbnz	r2, 10001670 <xTaskIncrementTick.part.0+0x160>
10001632:	f04f 32ff 	mov.w	r2, #4294967295
10001636:	4b17      	ldr	r3, [pc, #92]	@ (10001694 <xTaskIncrementTick.part.0+0x184>)
10001638:	601a      	str	r2, [r3, #0]
1000163a:	681a      	ldr	r2, [r3, #0]
1000163c:	4596      	cmp	lr, r2
1000163e:	f4bf af78 	bcs.w	10001532 <xTaskIncrementTick.part.0+0x22>
10001642:	f04f 0c00 	mov.w	ip, #0
10001646:	4816      	ldr	r0, [pc, #88]	@ (100016a0 <xTaskIncrementTick.part.0+0x190>)
10001648:	4e14      	ldr	r6, [pc, #80]	@ (1000169c <xTaskIncrementTick.part.0+0x18c>)
1000164a:	6833      	ldr	r3, [r6, #0]
1000164c:	4a18      	ldr	r2, [pc, #96]	@ (100016b0 <xTaskIncrementTick.part.0+0x1a0>)
1000164e:	6adb      	ldr	r3, [r3, #44]	@ 0x2c
10001650:	6812      	ldr	r2, [r2, #0]
10001652:	eb03 0383 	add.w	r3, r3, r3, lsl #2
10001656:	f850 0023 	ldr.w	r0, [r0, r3, lsl #2]
1000165a:	2801      	cmp	r0, #1
1000165c:	bf98      	it	ls
1000165e:	2a00      	cmpls	r2, #0
10001660:	bf14      	ite	ne
10001662:	2001      	movne	r0, #1
10001664:	2000      	moveq	r0, #0
10001666:	ea40 000c 	orr.w	r0, r0, ip
1000166a:	b003      	add	sp, #12
1000166c:	e8bd 8ff0 	ldmia.w	sp!, {r4, r5, r6, r7, r8, r9, sl, fp, pc}
10001670:	681a      	ldr	r2, [r3, #0]
10001672:	4b08      	ldr	r3, [pc, #32]	@ (10001694 <xTaskIncrementTick.part.0+0x184>)
10001674:	68d2      	ldr	r2, [r2, #12]
10001676:	6812      	ldr	r2, [r2, #0]
10001678:	601a      	str	r2, [r3, #0]
1000167a:	e756      	b.n	1000152a <xTaskIncrementTick.part.0+0x1a>
1000167c:	e9dd 6300 	ldrd	r6, r3, [sp]
10001680:	f04f 32ff 	mov.w	r2, #4294967295
10001684:	601a      	str	r2, [r3, #0]
10001686:	e7e0      	b.n	1000164a <xTaskIncrementTick.part.0+0x13a>
10001688:	4694      	mov	ip, r2
1000168a:	4805      	ldr	r0, [pc, #20]	@ (100016a0 <xTaskIncrementTick.part.0+0x190>)
1000168c:	4e03      	ldr	r6, [pc, #12]	@ (1000169c <xTaskIncrementTick.part.0+0x18c>)
1000168e:	e7f7      	b.n	10001680 <xTaskIncrementTick.part.0+0x170>
10001690:	2002227c 	.word	0x2002227c
10001694:	20022220 	.word	0x20022220
10001698:	20001ee8 	.word	0x20001ee8
1000169c:	20001ee0 	.word	0x20001ee0
100016a0:	20001ef8 	.word	0x20001ef8
100016a4:	200221b8 	.word	0x200221b8
100016a8:	20001ef0 	.word	0x20001ef0
100016ac:	20022224 	.word	0x20022224
100016b0:	20022288 	.word	0x20022288

100016b4 <xTaskCreate>:
100016b4:	e92d 43f8 	stmdb	sp!, {r3, r4, r5, r6, r7, r8, r9, lr}
100016b8:	0095      	lsls	r5, r2, #2
100016ba:	4680      	mov	r8, r0
100016bc:	4628      	mov	r0, r5
100016be:	460e      	mov	r6, r1
100016c0:	4699      	mov	r9, r3
100016c2:	f7fe fdf7 	bl	100002b4 <pvPortMalloc>
100016c6:	2800      	cmp	r0, #0
100016c8:	d07b      	beq.n	100017c2 <xTaskCreate+0x10e>
100016ca:	4607      	mov	r7, r0
100016cc:	2070      	movs	r0, #112	@ 0x70
100016ce:	f7fe fdf1 	bl	100002b4 <pvPortMalloc>
100016d2:	4604      	mov	r4, r0
100016d4:	2800      	cmp	r0, #0
100016d6:	d071      	beq.n	100017bc <xTaskCreate+0x108>
100016d8:	2270      	movs	r2, #112	@ 0x70
100016da:	2100      	movs	r1, #0
100016dc:	f004 ff38 	bl	10006550 <memset>
100016e0:	4638      	mov	r0, r7
100016e2:	462a      	mov	r2, r5
100016e4:	6327      	str	r7, [r4, #48]	@ 0x30
100016e6:	21a5      	movs	r1, #165	@ 0xa5
100016e8:	f004 ff32 	bl	10006550 <memset>
100016ec:	6b23      	ldr	r3, [r4, #48]	@ 0x30
100016ee:	3d04      	subs	r5, #4
100016f0:	442b      	add	r3, r5
100016f2:	f023 0707 	bic.w	r7, r3, #7
100016f6:	2e00      	cmp	r6, #0
100016f8:	d03e      	beq.n	10001778 <xTaskCreate+0xc4>
100016fa:	7833      	ldrb	r3, [r6, #0]
100016fc:	f884 3034 	strb.w	r3, [r4, #52]	@ 0x34
10001700:	2b00      	cmp	r3, #0
10001702:	d036      	beq.n	10001772 <xTaskCreate+0xbe>
10001704:	7873      	ldrb	r3, [r6, #1]
10001706:	f884 3035 	strb.w	r3, [r4, #53]	@ 0x35
1000170a:	b393      	cbz	r3, 10001772 <xTaskCreate+0xbe>
1000170c:	78b3      	ldrb	r3, [r6, #2]
1000170e:	f884 3036 	strb.w	r3, [r4, #54]	@ 0x36
10001712:	b373      	cbz	r3, 10001772 <xTaskCreate+0xbe>
10001714:	78f3      	ldrb	r3, [r6, #3]
10001716:	f884 3037 	strb.w	r3, [r4, #55]	@ 0x37
1000171a:	b353      	cbz	r3, 10001772 <xTaskCreate+0xbe>
1000171c:	7933      	ldrb	r3, [r6, #4]
1000171e:	f884 3038 	strb.w	r3, [r4, #56]	@ 0x38
10001722:	b333      	cbz	r3, 10001772 <xTaskCreate+0xbe>
10001724:	7973      	ldrb	r3, [r6, #5]
10001726:	f884 3039 	strb.w	r3, [r4, #57]	@ 0x39
1000172a:	b313      	cbz	r3, 10001772 <xTaskCreate+0xbe>
1000172c:	79b3      	ldrb	r3, [r6, #6]
1000172e:	f884 303a 	strb.w	r3, [r4, #58]	@ 0x3a
10001732:	b1f3      	cbz	r3, 10001772 <xTaskCreate+0xbe>
10001734:	79f3      	ldrb	r3, [r6, #7]
10001736:	f884 303b 	strb.w	r3, [r4, #59]	@ 0x3b
1000173a:	b1d3      	cbz	r3, 10001772 <xTaskCreate+0xbe>
1000173c:	7a33      	ldrb	r3, [r6, #8]
1000173e:	f884 303c 	strb.w	r3, [r4, #60]	@ 0x3c
10001742:	b1b3      	cbz	r3, 10001772 <xTaskCreate+0xbe>
10001744:	7a73      	ldrb	r3, [r6, #9]
10001746:	f884 303d 	strb.w	r3, [r4, #61]	@ 0x3d
1000174a:	b193      	cbz	r3, 10001772 <xTaskCreate+0xbe>
1000174c:	7ab3      	ldrb	r3, [r6, #10]
1000174e:	f884 303e 	strb.w	r3, [r4, #62]	@ 0x3e
10001752:	b173      	cbz	r3, 10001772 <xTaskCreate+0xbe>
10001754:	7af3      	ldrb	r3, [r6, #11]
10001756:	f884 303f 	strb.w	r3, [r4, #63]	@ 0x3f
1000175a:	b153      	cbz	r3, 10001772 <xTaskCreate+0xbe>
1000175c:	7b33      	ldrb	r3, [r6, #12]
1000175e:	f884 3040 	strb.w	r3, [r4, #64]	@ 0x40
10001762:	b133      	cbz	r3, 10001772 <xTaskCreate+0xbe>
10001764:	7b73      	ldrb	r3, [r6, #13]
10001766:	f884 3041 	strb.w	r3, [r4, #65]	@ 0x41
1000176a:	b113      	cbz	r3, 10001772 <xTaskCreate+0xbe>
1000176c:	7bb3      	ldrb	r3, [r6, #14]
1000176e:	f884 3042 	strb.w	r3, [r4, #66]	@ 0x42
10001772:	2300      	movs	r3, #0
10001774:	f884 3043 	strb.w	r3, [r4, #67]	@ 0x43
10001778:	9d08      	ldr	r5, [sp, #32]
1000177a:	1d20      	adds	r0, r4, #4
1000177c:	2d1f      	cmp	r5, #31
1000177e:	bf28      	it	cs
10001780:	251f      	movcs	r5, #31
10001782:	62e5      	str	r5, [r4, #44]	@ 0x2c
10001784:	64e5      	str	r5, [r4, #76]	@ 0x4c
10001786:	f7ff faad 	bl	10000ce4 <vListInitialiseItem>
1000178a:	f1c5 0520 	rsb	r5, r5, #32
1000178e:	f104 0018 	add.w	r0, r4, #24
10001792:	f7ff faa7 	bl	10000ce4 <vListInitialiseItem>
10001796:	464b      	mov	r3, r9
10001798:	4642      	mov	r2, r8
1000179a:	4638      	mov	r0, r7
1000179c:	6b21      	ldr	r1, [r4, #48]	@ 0x30
1000179e:	61a5      	str	r5, [r4, #24]
100017a0:	6124      	str	r4, [r4, #16]
100017a2:	6264      	str	r4, [r4, #36]	@ 0x24
100017a4:	f7fe ff40 	bl	10000628 <pxPortInitialiseStack>
100017a8:	9b09      	ldr	r3, [sp, #36]	@ 0x24
100017aa:	6020      	str	r0, [r4, #0]
100017ac:	b103      	cbz	r3, 100017b0 <xTaskCreate+0xfc>
100017ae:	601c      	str	r4, [r3, #0]
100017b0:	4620      	mov	r0, r4
100017b2:	f7ff fdeb 	bl	1000138c <prvAddNewTaskToReadyList>
100017b6:	2001      	movs	r0, #1
100017b8:	e8bd 83f8 	ldmia.w	sp!, {r3, r4, r5, r6, r7, r8, r9, pc}
100017bc:	4638      	mov	r0, r7
100017be:	f7fe fe1d 	bl	100003fc <vPortFree>
100017c2:	f04f 30ff 	mov.w	r0, #4294967295
100017c6:	e8bd 83f8 	ldmia.w	sp!, {r3, r4, r5, r6, r7, r8, r9, pc}
100017ca:	bf00      	nop

100017cc <vTaskStartScheduler>:
100017cc:	e92d 41f0 	stmdb	sp!, {r4, r5, r6, r7, r8, lr}
100017d0:	f44f 6000 	mov.w	r0, #2048	@ 0x800
100017d4:	f7fe fd6e 	bl	100002b4 <pvPortMalloc>
100017d8:	2800      	cmp	r0, #0
100017da:	d03f      	beq.n	1000185c <vTaskStartScheduler+0x90>
100017dc:	4606      	mov	r6, r0
100017de:	2070      	movs	r0, #112	@ 0x70
100017e0:	f7fe fd68 	bl	100002b4 <pvPortMalloc>
100017e4:	4604      	mov	r4, r0
100017e6:	2800      	cmp	r0, #0
100017e8:	d03c      	beq.n	10001864 <vTaskStartScheduler+0x98>
100017ea:	2500      	movs	r5, #0
100017ec:	2270      	movs	r2, #112	@ 0x70
100017ee:	4629      	mov	r1, r5
100017f0:	f8df 80b4 	ldr.w	r8, [pc, #180]	@ 100018a8 <vTaskStartScheduler+0xdc>
100017f4:	f004 feac 	bl	10006550 <memset>
100017f8:	f44f 6200 	mov.w	r2, #2048	@ 0x800
100017fc:	21a5      	movs	r1, #165	@ 0xa5
100017fe:	4630      	mov	r0, r6
10001800:	6326      	str	r6, [r4, #48]	@ 0x30
10001802:	f004 fea5 	bl	10006550 <memset>
10001806:	f884 5038 	strb.w	r5, [r4, #56]	@ 0x38
1000180a:	f884 5043 	strb.w	r5, [r4, #67]	@ 0x43
1000180e:	62e5      	str	r5, [r4, #44]	@ 0x2c
10001810:	64e5      	str	r5, [r4, #76]	@ 0x4c
10001812:	1d20      	adds	r0, r4, #4
10001814:	f8c4 8034 	str.w	r8, [r4, #52]	@ 0x34
10001818:	6b26      	ldr	r6, [r4, #48]	@ 0x30
1000181a:	f7ff fa63 	bl	10000ce4 <vListInitialiseItem>
1000181e:	f104 0018 	add.w	r0, r4, #24
10001822:	f7ff fa5f 	bl	10000ce4 <vListInitialiseItem>
10001826:	f04f 0c20 	mov.w	ip, #32
1000182a:	f206 76fc 	addw	r6, r6, #2044	@ 0x7fc
1000182e:	462b      	mov	r3, r5
10001830:	4a17      	ldr	r2, [pc, #92]	@ (10001890 <vTaskStartScheduler+0xc4>)
10001832:	6b21      	ldr	r1, [r4, #48]	@ 0x30
10001834:	f8c4 c018 	str.w	ip, [r4, #24]
10001838:	f026 0007 	bic.w	r0, r6, #7
1000183c:	6124      	str	r4, [r4, #16]
1000183e:	6264      	str	r4, [r4, #36]	@ 0x24
10001840:	f7fe fef2 	bl	10000628 <pxPortInitialiseStack>
10001844:	4603      	mov	r3, r0
10001846:	4f13      	ldr	r7, [pc, #76]	@ (10001894 <vTaskStartScheduler+0xc8>)
10001848:	6023      	str	r3, [r4, #0]
1000184a:	4620      	mov	r0, r4
1000184c:	2501      	movs	r5, #1
1000184e:	603c      	str	r4, [r7, #0]
10001850:	f7ff fd9c 	bl	1000138c <prvAddNewTaskToReadyList>
10001854:	f000 fe34 	bl	100024c0 <xTimerCreateTimerTask>
10001858:	42a8      	cmp	r0, r5
1000185a:	d00a      	beq.n	10001872 <vTaskStartScheduler+0xa6>
1000185c:	4b0e      	ldr	r3, [pc, #56]	@ (10001898 <vTaskStartScheduler+0xcc>)
1000185e:	681b      	ldr	r3, [r3, #0]
10001860:	e8bd 81f0 	ldmia.w	sp!, {r4, r5, r6, r7, r8, pc}
10001864:	4630      	mov	r0, r6
10001866:	f7fe fdc9 	bl	100003fc <vPortFree>
1000186a:	4b0b      	ldr	r3, [pc, #44]	@ (10001898 <vTaskStartScheduler+0xcc>)
1000186c:	681b      	ldr	r3, [r3, #0]
1000186e:	e8bd 81f0 	ldmia.w	sp!, {r4, r5, r6, r7, r8, pc}
10001872:	f7ff f8eb 	bl	10000a4c <ulSetInterruptMask>
10001876:	f04f 34ff 	mov.w	r4, #4294967295
1000187a:	2200      	movs	r2, #0
1000187c:	4907      	ldr	r1, [pc, #28]	@ (1000189c <vTaskStartScheduler+0xd0>)
1000187e:	4b08      	ldr	r3, [pc, #32]	@ (100018a0 <vTaskStartScheduler+0xd4>)
10001880:	4808      	ldr	r0, [pc, #32]	@ (100018a4 <vTaskStartScheduler+0xd8>)
10001882:	6004      	str	r4, [r0, #0]
10001884:	600d      	str	r5, [r1, #0]
10001886:	601a      	str	r2, [r3, #0]
10001888:	f7fe ff0c 	bl	100006a4 <xPortStartScheduler>
1000188c:	e7e6      	b.n	1000185c <vTaskStartScheduler+0x90>
1000188e:	bf00      	nop
10001890:	100014b5 	.word	0x100014b5
10001894:	20022214 	.word	0x20022214
10001898:	10006960 	.word	0x10006960
1000189c:	20022248 	.word	0x20022248
100018a0:	2002227c 	.word	0x2002227c
100018a4:	20022220 	.word	0x20022220
100018a8:	454c4449 	.word	0x454c4449

100018ac <vTaskSuspendAll>:
100018ac:	4a02      	ldr	r2, [pc, #8]	@ (100018b8 <vTaskSuspendAll+0xc>)
100018ae:	6813      	ldr	r3, [r2, #0]
100018b0:	3301      	adds	r3, #1
100018b2:	6013      	str	r3, [r2, #0]
100018b4:	4770      	bx	lr
100018b6:	bf00      	nop
100018b8:	200221b0 	.word	0x200221b0

100018bc <xTaskResumeAll>:
100018bc:	e92d 4ff0 	stmdb	sp!, {r4, r5, r6, r7, r8, r9, sl, fp, lr}
100018c0:	4c59      	ldr	r4, [pc, #356]	@ (10001a28 <xTaskResumeAll+0x16c>)
100018c2:	b083      	sub	sp, #12
100018c4:	f7fe fe80 	bl	100005c8 <vPortEnterCritical>
100018c8:	6823      	ldr	r3, [r4, #0]
100018ca:	3b01      	subs	r3, #1
100018cc:	6023      	str	r3, [r4, #0]
100018ce:	f8d4 e000 	ldr.w	lr, [r4]
100018d2:	f1be 0f00 	cmp.w	lr, #0
100018d6:	f040 808e 	bne.w	100019f6 <xTaskResumeAll+0x13a>
100018da:	4b54      	ldr	r3, [pc, #336]	@ (10001a2c <xTaskResumeAll+0x170>)
100018dc:	681b      	ldr	r3, [r3, #0]
100018de:	2b00      	cmp	r3, #0
100018e0:	f000 8089 	beq.w	100019f6 <xTaskResumeAll+0x13a>
100018e4:	4852      	ldr	r0, [pc, #328]	@ (10001a30 <xTaskResumeAll+0x174>)
100018e6:	6803      	ldr	r3, [r0, #0]
100018e8:	2b00      	cmp	r3, #0
100018ea:	f000 8099 	beq.w	10001a20 <xTaskResumeAll+0x164>
100018ee:	2501      	movs	r5, #1
100018f0:	4b50      	ldr	r3, [pc, #320]	@ (10001a34 <xTaskResumeAll+0x178>)
100018f2:	f8df c158 	ldr.w	ip, [pc, #344]	@ 10001a4c <xTaskResumeAll+0x190>
100018f6:	4950      	ldr	r1, [pc, #320]	@ (10001a38 <xTaskResumeAll+0x17c>)
100018f8:	9301      	str	r3, [sp, #4]
100018fa:	68c3      	ldr	r3, [r0, #12]
100018fc:	68db      	ldr	r3, [r3, #12]
100018fe:	6a1a      	ldr	r2, [r3, #32]
10001900:	69de      	ldr	r6, [r3, #28]
10001902:	6a9f      	ldr	r7, [r3, #40]	@ 0x28
10001904:	60b2      	str	r2, [r6, #8]
10001906:	69de      	ldr	r6, [r3, #28]
10001908:	f103 0818 	add.w	r8, r3, #24
1000190c:	6056      	str	r6, [r2, #4]
1000190e:	687a      	ldr	r2, [r7, #4]
10001910:	4542      	cmp	r2, r8
10001912:	bf04      	itt	eq
10001914:	6a1a      	ldreq	r2, [r3, #32]
10001916:	607a      	streq	r2, [r7, #4]
10001918:	683a      	ldr	r2, [r7, #0]
1000191a:	f8c3 e028 	str.w	lr, [r3, #40]	@ 0x28
1000191e:	3a01      	subs	r2, #1
10001920:	603a      	str	r2, [r7, #0]
10001922:	f8d3 9014 	ldr.w	r9, [r3, #20]
10001926:	e9d3 2702 	ldrd	r2, r7, [r3, #8]
1000192a:	6097      	str	r7, [r2, #8]
1000192c:	689a      	ldr	r2, [r3, #8]
1000192e:	f8dc 8000 	ldr.w	r8, [ip]
10001932:	607a      	str	r2, [r7, #4]
10001934:	f8d9 2004 	ldr.w	r2, [r9, #4]
10001938:	1d1f      	adds	r7, r3, #4
1000193a:	42ba      	cmp	r2, r7
1000193c:	bf04      	itt	eq
1000193e:	68da      	ldreq	r2, [r3, #12]
10001940:	f8c9 2004 	streq.w	r2, [r9, #4]
10001944:	f8d9 2000 	ldr.w	r2, [r9]
10001948:	3a01      	subs	r2, #1
1000194a:	f8c9 2000 	str.w	r2, [r9]
1000194e:	6ada      	ldr	r2, [r3, #44]	@ 0x2c
10001950:	eb02 0982 	add.w	r9, r2, r2, lsl #2
10001954:	eb01 0a89 	add.w	sl, r1, r9, lsl #2
10001958:	fa05 f202 	lsl.w	r2, r5, r2
1000195c:	ea42 0208 	orr.w	r2, r2, r8
10001960:	f8da 8004 	ldr.w	r8, [sl, #4]
10001964:	f8cc 2000 	str.w	r2, [ip]
10001968:	f8c3 8008 	str.w	r8, [r3, #8]
1000196c:	f851 2029 	ldr.w	r2, [r1, r9, lsl #2]
10001970:	f8d8 b008 	ldr.w	fp, [r8, #8]
10001974:	3201      	adds	r2, #1
10001976:	f8c3 b00c 	str.w	fp, [r3, #12]
1000197a:	f8cb 7004 	str.w	r7, [fp, #4]
1000197e:	f8c8 7008 	str.w	r7, [r8, #8]
10001982:	f8c3 a014 	str.w	sl, [r3, #20]
10001986:	f841 2029 	str.w	r2, [r1, r9, lsl #2]
1000198a:	4a2c      	ldr	r2, [pc, #176]	@ (10001a3c <xTaskResumeAll+0x180>)
1000198c:	6817      	ldr	r7, [r2, #0]
1000198e:	6ada      	ldr	r2, [r3, #44]	@ 0x2c
10001990:	6afb      	ldr	r3, [r7, #44]	@ 0x2c
10001992:	429a      	cmp	r2, r3
10001994:	d936      	bls.n	10001a04 <xTaskResumeAll+0x148>
10001996:	9b01      	ldr	r3, [sp, #4]
10001998:	601d      	str	r5, [r3, #0]
1000199a:	6803      	ldr	r3, [r0, #0]
1000199c:	2b00      	cmp	r3, #0
1000199e:	d1ac      	bne.n	100018fa <xTaskResumeAll+0x3e>
100019a0:	4b27      	ldr	r3, [pc, #156]	@ (10001a40 <xTaskResumeAll+0x184>)
100019a2:	681a      	ldr	r2, [r3, #0]
100019a4:	6812      	ldr	r2, [r2, #0]
100019a6:	2a00      	cmp	r2, #0
100019a8:	d035      	beq.n	10001a16 <xTaskResumeAll+0x15a>
100019aa:	681a      	ldr	r2, [r3, #0]
100019ac:	4b25      	ldr	r3, [pc, #148]	@ (10001a44 <xTaskResumeAll+0x188>)
100019ae:	68d2      	ldr	r2, [r2, #12]
100019b0:	6812      	ldr	r2, [r2, #0]
100019b2:	601a      	str	r2, [r3, #0]
100019b4:	4e24      	ldr	r6, [pc, #144]	@ (10001a48 <xTaskResumeAll+0x18c>)
100019b6:	6835      	ldr	r5, [r6, #0]
100019b8:	b1a5      	cbz	r5, 100019e4 <xTaskResumeAll+0x128>
100019ba:	2701      	movs	r7, #1
100019bc:	f8dd 8004 	ldr.w	r8, [sp, #4]
100019c0:	e006      	b.n	100019d0 <xTaskResumeAll+0x114>
100019c2:	f7ff fda5 	bl	10001510 <xTaskIncrementTick.part.0>
100019c6:	b108      	cbz	r0, 100019cc <xTaskResumeAll+0x110>
100019c8:	f8c8 7000 	str.w	r7, [r8]
100019cc:	3d01      	subs	r5, #1
100019ce:	d008      	beq.n	100019e2 <xTaskResumeAll+0x126>
100019d0:	6823      	ldr	r3, [r4, #0]
100019d2:	2b00      	cmp	r3, #0
100019d4:	d0f5      	beq.n	100019c2 <xTaskResumeAll+0x106>
100019d6:	6833      	ldr	r3, [r6, #0]
100019d8:	3d01      	subs	r5, #1
100019da:	f103 0301 	add.w	r3, r3, #1
100019de:	6033      	str	r3, [r6, #0]
100019e0:	d1f6      	bne.n	100019d0 <xTaskResumeAll+0x114>
100019e2:	6035      	str	r5, [r6, #0]
100019e4:	9b01      	ldr	r3, [sp, #4]
100019e6:	681b      	ldr	r3, [r3, #0]
100019e8:	b12b      	cbz	r3, 100019f6 <xTaskResumeAll+0x13a>
100019ea:	4b14      	ldr	r3, [pc, #80]	@ (10001a3c <xTaskResumeAll+0x180>)
100019ec:	2401      	movs	r4, #1
100019ee:	681b      	ldr	r3, [r3, #0]
100019f0:	f7fe fdde 	bl	100005b0 <vPortYield>
100019f4:	e000      	b.n	100019f8 <xTaskResumeAll+0x13c>
100019f6:	2400      	movs	r4, #0
100019f8:	f7fe fdf4 	bl	100005e4 <vPortExitCritical>
100019fc:	4620      	mov	r0, r4
100019fe:	b003      	add	sp, #12
10001a00:	e8bd 8ff0 	ldmia.w	sp!, {r4, r5, r6, r7, r8, r9, sl, fp, pc}
10001a04:	6803      	ldr	r3, [r0, #0]
10001a06:	2b00      	cmp	r3, #0
10001a08:	f47f af77 	bne.w	100018fa <xTaskResumeAll+0x3e>
10001a0c:	4b0c      	ldr	r3, [pc, #48]	@ (10001a40 <xTaskResumeAll+0x184>)
10001a0e:	681a      	ldr	r2, [r3, #0]
10001a10:	6812      	ldr	r2, [r2, #0]
10001a12:	2a00      	cmp	r2, #0
10001a14:	d1c9      	bne.n	100019aa <xTaskResumeAll+0xee>
10001a16:	f04f 32ff 	mov.w	r2, #4294967295
10001a1a:	4b0a      	ldr	r3, [pc, #40]	@ (10001a44 <xTaskResumeAll+0x188>)
10001a1c:	601a      	str	r2, [r3, #0]
10001a1e:	e7c9      	b.n	100019b4 <xTaskResumeAll+0xf8>
10001a20:	4b04      	ldr	r3, [pc, #16]	@ (10001a34 <xTaskResumeAll+0x178>)
10001a22:	9301      	str	r3, [sp, #4]
10001a24:	e7c6      	b.n	100019b4 <xTaskResumeAll+0xf8>
10001a26:	bf00      	nop
10001a28:	200221b0 	.word	0x200221b0
10001a2c:	200221a8 	.word	0x200221a8
10001a30:	20022234 	.word	0x20022234
10001a34:	20022288 	.word	0x20022288
10001a38:	20001ef8 	.word	0x20001ef8
10001a3c:	20001ee0 	.word	0x20001ee0
10001a40:	20001ee8 	.word	0x20001ee8
10001a44:	20022220 	.word	0x20022220
10001a48:	20022230 	.word	0x20022230
10001a4c:	200221b8 	.word	0x200221b8

10001a50 <vTaskDelay>:
10001a50:	b908      	cbnz	r0, 10001a56 <vTaskDelay+0x6>
10001a52:	f7fe bdad 	b.w	100005b0 <vPortYield>
10001a56:	b570      	push	{r4, r5, r6, lr}
10001a58:	4924      	ldr	r1, [pc, #144]	@ (10001aec <vTaskDelay+0x9c>)
10001a5a:	b082      	sub	sp, #8
10001a5c:	680a      	ldr	r2, [r1, #0]
10001a5e:	9001      	str	r0, [sp, #4]
10001a60:	3201      	adds	r2, #1
10001a62:	600a      	str	r2, [r1, #0]
10001a64:	f04f 0c00 	mov.w	ip, #0
10001a68:	4921      	ldr	r1, [pc, #132]	@ (10001af0 <vTaskDelay+0xa0>)
10001a6a:	4822      	ldr	r0, [pc, #136]	@ (10001af4 <vTaskDelay+0xa4>)
10001a6c:	680b      	ldr	r3, [r1, #0]
10001a6e:	4a22      	ldr	r2, [pc, #136]	@ (10001af8 <vTaskDelay+0xa8>)
10001a70:	461c      	mov	r4, r3
10001a72:	6803      	ldr	r3, [r0, #0]
10001a74:	4821      	ldr	r0, [pc, #132]	@ (10001afc <vTaskDelay+0xac>)
10001a76:	461d      	mov	r5, r3
10001a78:	6803      	ldr	r3, [r0, #0]
10001a7a:	6810      	ldr	r0, [r2, #0]
10001a7c:	461e      	mov	r6, r3
10001a7e:	f880 c06d 	strb.w	ip, [r0, #109]	@ 0x6d
10001a82:	6810      	ldr	r0, [r2, #0]
10001a84:	3004      	adds	r0, #4
10001a86:	f7ff f94d 	bl	10000d24 <uxListRemove>
10001a8a:	4a1b      	ldr	r2, [pc, #108]	@ (10001af8 <vTaskDelay+0xa8>)
10001a8c:	9b01      	ldr	r3, [sp, #4]
10001a8e:	b950      	cbnz	r0, 10001aa6 <vTaskDelay+0x56>
10001a90:	f04f 0c01 	mov.w	ip, #1
10001a94:	6810      	ldr	r0, [r2, #0]
10001a96:	491a      	ldr	r1, [pc, #104]	@ (10001b00 <vTaskDelay+0xb0>)
10001a98:	6ac0      	ldr	r0, [r0, #44]	@ 0x2c
10001a9a:	fa0c fc00 	lsl.w	ip, ip, r0
10001a9e:	6808      	ldr	r0, [r1, #0]
10001aa0:	ea20 000c 	bic.w	r0, r0, ip
10001aa4:	6008      	str	r0, [r1, #0]
10001aa6:	6811      	ldr	r1, [r2, #0]
10001aa8:	191b      	adds	r3, r3, r4
10001aaa:	604b      	str	r3, [r1, #4]
10001aac:	d210      	bcs.n	10001ad0 <vTaskDelay+0x80>
10001aae:	6811      	ldr	r1, [r2, #0]
10001ab0:	4628      	mov	r0, r5
10001ab2:	3104      	adds	r1, #4
10001ab4:	9301      	str	r3, [sp, #4]
10001ab6:	f7ff f919 	bl	10000cec <vListInsert>
10001aba:	4a12      	ldr	r2, [pc, #72]	@ (10001b04 <vTaskDelay+0xb4>)
10001abc:	9b01      	ldr	r3, [sp, #4]
10001abe:	6811      	ldr	r1, [r2, #0]
10001ac0:	428b      	cmp	r3, r1
10001ac2:	bf38      	it	cc
10001ac4:	6013      	strcc	r3, [r2, #0]
10001ac6:	f7ff fef9 	bl	100018bc <xTaskResumeAll>
10001aca:	b150      	cbz	r0, 10001ae2 <vTaskDelay+0x92>
10001acc:	b002      	add	sp, #8
10001ace:	bd70      	pop	{r4, r5, r6, pc}
10001ad0:	6811      	ldr	r1, [r2, #0]
10001ad2:	4630      	mov	r0, r6
10001ad4:	3104      	adds	r1, #4
10001ad6:	f7ff f909 	bl	10000cec <vListInsert>
10001ada:	f7ff feef 	bl	100018bc <xTaskResumeAll>
10001ade:	2800      	cmp	r0, #0
10001ae0:	d1f4      	bne.n	10001acc <vTaskDelay+0x7c>
10001ae2:	b002      	add	sp, #8
10001ae4:	e8bd 4070 	ldmia.w	sp!, {r4, r5, r6, lr}
10001ae8:	f7fe bd62 	b.w	100005b0 <vPortYield>
10001aec:	200221b0 	.word	0x200221b0
10001af0:	2002227c 	.word	0x2002227c
10001af4:	20001ee8 	.word	0x20001ee8
10001af8:	20001ee0 	.word	0x20001ee0
10001afc:	20001ef0 	.word	0x20001ef0
10001b00:	200221b8 	.word	0x200221b8
10001b04:	20022220 	.word	0x20022220

10001b08 <xTaskGetTickCount>:
10001b08:	4b01      	ldr	r3, [pc, #4]	@ (10001b10 <xTaskGetTickCount+0x8>)
10001b0a:	6818      	ldr	r0, [r3, #0]
10001b0c:	4770      	bx	lr
10001b0e:	bf00      	nop
10001b10:	2002227c 	.word	0x2002227c

10001b14 <uxTaskGetNumberOfTasks>:
10001b14:	4b01      	ldr	r3, [pc, #4]	@ (10001b1c <uxTaskGetNumberOfTasks+0x8>)
10001b16:	6818      	ldr	r0, [r3, #0]
10001b18:	4770      	bx	lr
10001b1a:	bf00      	nop
10001b1c:	200221a8 	.word	0x200221a8

10001b20 <xTaskIncrementTick>:
10001b20:	4b05      	ldr	r3, [pc, #20]	@ (10001b38 <xTaskIncrementTick+0x18>)
10001b22:	681b      	ldr	r3, [r3, #0]
10001b24:	b90b      	cbnz	r3, 10001b2a <xTaskIncrementTick+0xa>
10001b26:	f7ff bcf3 	b.w	10001510 <xTaskIncrementTick.part.0>
10001b2a:	4a04      	ldr	r2, [pc, #16]	@ (10001b3c <xTaskIncrementTick+0x1c>)
10001b2c:	2000      	movs	r0, #0
10001b2e:	6813      	ldr	r3, [r2, #0]
10001b30:	3301      	adds	r3, #1
10001b32:	6013      	str	r3, [r2, #0]
10001b34:	4770      	bx	lr
10001b36:	bf00      	nop
10001b38:	200221b0 	.word	0x200221b0
10001b3c:	20022230 	.word	0x20022230

10001b40 <vTaskSwitchContext>:
10001b40:	4b11      	ldr	r3, [pc, #68]	@ (10001b88 <vTaskSwitchContext+0x48>)
10001b42:	681b      	ldr	r3, [r3, #0]
10001b44:	b11b      	cbz	r3, 10001b4e <vTaskSwitchContext+0xe>
10001b46:	2201      	movs	r2, #1
10001b48:	4b10      	ldr	r3, [pc, #64]	@ (10001b8c <vTaskSwitchContext+0x4c>)
10001b4a:	601a      	str	r2, [r3, #0]
10001b4c:	4770      	bx	lr
10001b4e:	490f      	ldr	r1, [pc, #60]	@ (10001b8c <vTaskSwitchContext+0x4c>)
10001b50:	4a0f      	ldr	r2, [pc, #60]	@ (10001b90 <vTaskSwitchContext+0x50>)
10001b52:	600b      	str	r3, [r1, #0]
10001b54:	6813      	ldr	r3, [r2, #0]
10001b56:	fab3 f383 	clz	r3, r3
10001b5a:	4a0e      	ldr	r2, [pc, #56]	@ (10001b94 <vTaskSwitchContext+0x54>)
10001b5c:	f1c3 031f 	rsb	r3, r3, #31
10001b60:	eb03 0383 	add.w	r3, r3, r3, lsl #2
10001b64:	eb02 0183 	add.w	r1, r2, r3, lsl #2
10001b68:	6848      	ldr	r0, [r1, #4]
10001b6a:	f101 0208 	add.w	r2, r1, #8
10001b6e:	6843      	ldr	r3, [r0, #4]
10001b70:	4293      	cmp	r3, r2
10001b72:	604b      	str	r3, [r1, #4]
10001b74:	bf08      	it	eq
10001b76:	68cb      	ldreq	r3, [r1, #12]
10001b78:	4a07      	ldr	r2, [pc, #28]	@ (10001b98 <vTaskSwitchContext+0x58>)
10001b7a:	bf08      	it	eq
10001b7c:	604b      	streq	r3, [r1, #4]
10001b7e:	68db      	ldr	r3, [r3, #12]
10001b80:	6013      	str	r3, [r2, #0]
10001b82:	6813      	ldr	r3, [r2, #0]
10001b84:	4770      	bx	lr
10001b86:	bf00      	nop
10001b88:	200221b0 	.word	0x200221b0
10001b8c:	20022288 	.word	0x20022288
10001b90:	200221b8 	.word	0x200221b8
10001b94:	20001ef8 	.word	0x20001ef8
10001b98:	20001ee0 	.word	0x20001ee0

10001b9c <vTaskPlaceOnEventList>:
10001b9c:	e92d 41f0 	stmdb	sp!, {r4, r5, r6, r7, r8, lr}
10001ba0:	4c27      	ldr	r4, [pc, #156]	@ (10001c40 <vTaskPlaceOnEventList+0xa4>)
10001ba2:	460d      	mov	r5, r1
10001ba4:	6821      	ldr	r1, [r4, #0]
10001ba6:	3118      	adds	r1, #24
10001ba8:	f7ff f8a0 	bl	10000cec <vListInsert>
10001bac:	4925      	ldr	r1, [pc, #148]	@ (10001c44 <vTaskPlaceOnEventList+0xa8>)
10001bae:	4a26      	ldr	r2, [pc, #152]	@ (10001c48 <vTaskPlaceOnEventList+0xac>)
10001bb0:	6809      	ldr	r1, [r1, #0]
10001bb2:	6812      	ldr	r2, [r2, #0]
10001bb4:	4b25      	ldr	r3, [pc, #148]	@ (10001c4c <vTaskPlaceOnEventList+0xb0>)
10001bb6:	4617      	mov	r7, r2
10001bb8:	2200      	movs	r2, #0
10001bba:	681b      	ldr	r3, [r3, #0]
10001bbc:	460e      	mov	r6, r1
10001bbe:	4698      	mov	r8, r3
10001bc0:	6823      	ldr	r3, [r4, #0]
10001bc2:	6820      	ldr	r0, [r4, #0]
10001bc4:	f883 206d 	strb.w	r2, [r3, #109]	@ 0x6d
10001bc8:	3004      	adds	r0, #4
10001bca:	f7ff f8ab 	bl	10000d24 <uxListRemove>
10001bce:	b940      	cbnz	r0, 10001be2 <vTaskPlaceOnEventList+0x46>
10001bd0:	2201      	movs	r2, #1
10001bd2:	6823      	ldr	r3, [r4, #0]
10001bd4:	491e      	ldr	r1, [pc, #120]	@ (10001c50 <vTaskPlaceOnEventList+0xb4>)
10001bd6:	6adb      	ldr	r3, [r3, #44]	@ 0x2c
10001bd8:	409a      	lsls	r2, r3
10001bda:	680b      	ldr	r3, [r1, #0]
10001bdc:	ea23 0302 	bic.w	r3, r3, r2
10001be0:	600b      	str	r3, [r1, #0]
10001be2:	1c6b      	adds	r3, r5, #1
10001be4:	d015      	beq.n	10001c12 <vTaskPlaceOnEventList+0x76>
10001be6:	6823      	ldr	r3, [r4, #0]
10001be8:	19ad      	adds	r5, r5, r6
10001bea:	6821      	ldr	r1, [r4, #0]
10001bec:	605d      	str	r5, [r3, #4]
10001bee:	d20a      	bcs.n	10001c06 <vTaskPlaceOnEventList+0x6a>
10001bf0:	4638      	mov	r0, r7
10001bf2:	3104      	adds	r1, #4
10001bf4:	f7ff f87a 	bl	10000cec <vListInsert>
10001bf8:	4b16      	ldr	r3, [pc, #88]	@ (10001c54 <vTaskPlaceOnEventList+0xb8>)
10001bfa:	681a      	ldr	r2, [r3, #0]
10001bfc:	4295      	cmp	r5, r2
10001bfe:	bf38      	it	cc
10001c00:	601d      	strcc	r5, [r3, #0]
10001c02:	e8bd 81f0 	ldmia.w	sp!, {r4, r5, r6, r7, r8, pc}
10001c06:	4640      	mov	r0, r8
10001c08:	e8bd 41f0 	ldmia.w	sp!, {r4, r5, r6, r7, r8, lr}
10001c0c:	3104      	adds	r1, #4
10001c0e:	f7ff b86d 	b.w	10000cec <vListInsert>
10001c12:	4b11      	ldr	r3, [pc, #68]	@ (10001c58 <vTaskPlaceOnEventList+0xbc>)
10001c14:	6821      	ldr	r1, [r4, #0]
10001c16:	685a      	ldr	r2, [r3, #4]
10001c18:	f8d4 c000 	ldr.w	ip, [r4]
10001c1c:	608a      	str	r2, [r1, #8]
10001c1e:	6820      	ldr	r0, [r4, #0]
10001c20:	6821      	ldr	r1, [r4, #0]
10001c22:	6825      	ldr	r5, [r4, #0]
10001c24:	681c      	ldr	r4, [r3, #0]
10001c26:	3004      	adds	r0, #4
10001c28:	3401      	adds	r4, #1
10001c2a:	601c      	str	r4, [r3, #0]
10001c2c:	6894      	ldr	r4, [r2, #8]
10001c2e:	3104      	adds	r1, #4
10001c30:	f8cc 400c 	str.w	r4, [ip, #12]
10001c34:	6060      	str	r0, [r4, #4]
10001c36:	6091      	str	r1, [r2, #8]
10001c38:	616b      	str	r3, [r5, #20]
10001c3a:	e8bd 81f0 	ldmia.w	sp!, {r4, r5, r6, r7, r8, pc}
10001c3e:	bf00      	nop
10001c40:	20001ee0 	.word	0x20001ee0
10001c44:	2002227c 	.word	0x2002227c
10001c48:	20001ee8 	.word	0x20001ee8
10001c4c:	20001ef0 	.word	0x20001ef0
10001c50:	200221b8 	.word	0x200221b8
10001c54:	20022220 	.word	0x20022220
10001c58:	20022254 	.word	0x20022254

10001c5c <vTaskPlaceOnUnorderedEventList>:
10001c5c:	e92d 4ff0 	stmdb	sp!, {r4, r5, r6, r7, r8, r9, sl, fp, lr}
10001c60:	2500      	movs	r5, #0
10001c62:	4c37      	ldr	r4, [pc, #220]	@ (10001d40 <vTaskPlaceOnUnorderedEventList+0xe4>)
10001c64:	f041 4100 	orr.w	r1, r1, #2147483648	@ 0x80000000
10001c68:	6826      	ldr	r6, [r4, #0]
10001c6a:	b083      	sub	sp, #12
10001c6c:	6823      	ldr	r3, [r4, #0]
10001c6e:	61b1      	str	r1, [r6, #24]
10001c70:	4691      	mov	r9, r2
10001c72:	6841      	ldr	r1, [r0, #4]
10001c74:	4a33      	ldr	r2, [pc, #204]	@ (10001d44 <vTaskPlaceOnUnorderedEventList+0xe8>)
10001c76:	6827      	ldr	r7, [r4, #0]
10001c78:	61d9      	str	r1, [r3, #28]
10001c7a:	f8d4 e000 	ldr.w	lr, [r4]
10001c7e:	f8df a0d4 	ldr.w	sl, [pc, #212]	@ 10001d54 <vTaskPlaceOnUnorderedEventList+0xf8>
10001c82:	6823      	ldr	r3, [r4, #0]
10001c84:	6826      	ldr	r6, [r4, #0]
10001c86:	6812      	ldr	r2, [r2, #0]
10001c88:	f8df 80cc 	ldr.w	r8, [pc, #204]	@ 10001d58 <vTaskPlaceOnUnorderedEventList+0xfc>
10001c8c:	4693      	mov	fp, r2
10001c8e:	f8da 2000 	ldr.w	r2, [sl]
10001c92:	f103 0c18 	add.w	ip, r3, #24
10001c96:	6803      	ldr	r3, [r0, #0]
10001c98:	4692      	mov	sl, r2
10001c9a:	f8d8 2000 	ldr.w	r2, [r8]
10001c9e:	f8d1 8008 	ldr.w	r8, [r1, #8]
10001ca2:	3301      	adds	r3, #1
10001ca4:	f10e 0e18 	add.w	lr, lr, #24
10001ca8:	f8c7 8020 	str.w	r8, [r7, #32]
10001cac:	f8c8 e004 	str.w	lr, [r8, #4]
10001cb0:	f8c1 c008 	str.w	ip, [r1, #8]
10001cb4:	62b0      	str	r0, [r6, #40]	@ 0x28
10001cb6:	6003      	str	r3, [r0, #0]
10001cb8:	6823      	ldr	r3, [r4, #0]
10001cba:	6820      	ldr	r0, [r4, #0]
10001cbc:	f883 506d 	strb.w	r5, [r3, #109]	@ 0x6d
10001cc0:	3004      	adds	r0, #4
10001cc2:	9201      	str	r2, [sp, #4]
10001cc4:	f7ff f82e 	bl	10000d24 <uxListRemove>
10001cc8:	b940      	cbnz	r0, 10001cdc <vTaskPlaceOnUnorderedEventList+0x80>
10001cca:	2101      	movs	r1, #1
10001ccc:	6823      	ldr	r3, [r4, #0]
10001cce:	481e      	ldr	r0, [pc, #120]	@ (10001d48 <vTaskPlaceOnUnorderedEventList+0xec>)
10001cd0:	6adb      	ldr	r3, [r3, #44]	@ 0x2c
10001cd2:	4099      	lsls	r1, r3
10001cd4:	6803      	ldr	r3, [r0, #0]
10001cd6:	ea23 0301 	bic.w	r3, r3, r1
10001cda:	6003      	str	r3, [r0, #0]
10001cdc:	f1b9 3fff 	cmp.w	r9, #4294967295
10001ce0:	d018      	beq.n	10001d14 <vTaskPlaceOnUnorderedEventList+0xb8>
10001ce2:	6823      	ldr	r3, [r4, #0]
10001ce4:	eb19 050b 	adds.w	r5, r9, fp
10001ce8:	6821      	ldr	r1, [r4, #0]
10001cea:	605d      	str	r5, [r3, #4]
10001cec:	d20b      	bcs.n	10001d06 <vTaskPlaceOnUnorderedEventList+0xaa>
10001cee:	4650      	mov	r0, sl
10001cf0:	3104      	adds	r1, #4
10001cf2:	f7fe fffb 	bl	10000cec <vListInsert>
10001cf6:	4b15      	ldr	r3, [pc, #84]	@ (10001d4c <vTaskPlaceOnUnorderedEventList+0xf0>)
10001cf8:	6819      	ldr	r1, [r3, #0]
10001cfa:	428d      	cmp	r5, r1
10001cfc:	bf38      	it	cc
10001cfe:	601d      	strcc	r5, [r3, #0]
10001d00:	b003      	add	sp, #12
10001d02:	e8bd 8ff0 	ldmia.w	sp!, {r4, r5, r6, r7, r8, r9, sl, fp, pc}
10001d06:	9801      	ldr	r0, [sp, #4]
10001d08:	3104      	adds	r1, #4
10001d0a:	b003      	add	sp, #12
10001d0c:	e8bd 4ff0 	ldmia.w	sp!, {r4, r5, r6, r7, r8, r9, sl, fp, lr}
10001d10:	f7fe bfec 	b.w	10000cec <vListInsert>
10001d14:	4b0e      	ldr	r3, [pc, #56]	@ (10001d50 <vTaskPlaceOnUnorderedEventList+0xf4>)
10001d16:	6821      	ldr	r1, [r4, #0]
10001d18:	685a      	ldr	r2, [r3, #4]
10001d1a:	6826      	ldr	r6, [r4, #0]
10001d1c:	608a      	str	r2, [r1, #8]
10001d1e:	6820      	ldr	r0, [r4, #0]
10001d20:	6821      	ldr	r1, [r4, #0]
10001d22:	6825      	ldr	r5, [r4, #0]
10001d24:	681c      	ldr	r4, [r3, #0]
10001d26:	3004      	adds	r0, #4
10001d28:	3401      	adds	r4, #1
10001d2a:	601c      	str	r4, [r3, #0]
10001d2c:	6894      	ldr	r4, [r2, #8]
10001d2e:	3104      	adds	r1, #4
10001d30:	60f4      	str	r4, [r6, #12]
10001d32:	6060      	str	r0, [r4, #4]
10001d34:	6091      	str	r1, [r2, #8]
10001d36:	616b      	str	r3, [r5, #20]
10001d38:	b003      	add	sp, #12
10001d3a:	e8bd 8ff0 	ldmia.w	sp!, {r4, r5, r6, r7, r8, r9, sl, fp, pc}
10001d3e:	bf00      	nop
10001d40:	20001ee0 	.word	0x20001ee0
10001d44:	2002227c 	.word	0x2002227c
10001d48:	200221b8 	.word	0x200221b8
10001d4c:	20022220 	.word	0x20022220
10001d50:	20022254 	.word	0x20022254
10001d54:	20001ee8 	.word	0x20001ee8
10001d58:	20001ef0 	.word	0x20001ef0

10001d5c <vTaskPlaceOnEventListRestricted>:
10001d5c:	e92d 4ff0 	stmdb	sp!, {r4, r5, r6, r7, r8, r9, sl, fp, lr}
10001d60:	f04f 0e00 	mov.w	lr, #0
10001d64:	4c3e      	ldr	r4, [pc, #248]	@ (10001e60 <vTaskPlaceOnEventListRestricted+0x104>)
10001d66:	1e13      	subs	r3, r2, #0
10001d68:	6825      	ldr	r5, [r4, #0]
10001d6a:	6827      	ldr	r7, [r4, #0]
10001d6c:	6822      	ldr	r2, [r4, #0]
10001d6e:	b083      	sub	sp, #12
10001d70:	f102 0c18 	add.w	ip, r2, #24
10001d74:	9301      	str	r3, [sp, #4]
10001d76:	6842      	ldr	r2, [r0, #4]
10001d78:	6803      	ldr	r3, [r0, #0]
10001d7a:	61ea      	str	r2, [r5, #28]
10001d7c:	f103 0901 	add.w	r9, r3, #1
10001d80:	bf08      	it	eq
10001d82:	460d      	moveq	r5, r1
10001d84:	6821      	ldr	r1, [r4, #0]
10001d86:	6823      	ldr	r3, [r4, #0]
10001d88:	4e36      	ldr	r6, [pc, #216]	@ (10001e64 <vTaskPlaceOnEventListRestricted+0x108>)
10001d8a:	9300      	str	r3, [sp, #0]
10001d8c:	4b36      	ldr	r3, [pc, #216]	@ (10001e68 <vTaskPlaceOnEventListRestricted+0x10c>)
10001d8e:	6836      	ldr	r6, [r6, #0]
10001d90:	f8df 80e4 	ldr.w	r8, [pc, #228]	@ 10001e78 <vTaskPlaceOnEventListRestricted+0x11c>
10001d94:	681b      	ldr	r3, [r3, #0]
10001d96:	f101 0118 	add.w	r1, r1, #24
10001d9a:	469a      	mov	sl, r3
10001d9c:	f8d8 3000 	ldr.w	r3, [r8]
10001da0:	f8d2 8008 	ldr.w	r8, [r2, #8]
10001da4:	469b      	mov	fp, r3
10001da6:	9b00      	ldr	r3, [sp, #0]
10001da8:	f8c7 8020 	str.w	r8, [r7, #32]
10001dac:	f8c8 c004 	str.w	ip, [r8, #4]
10001db0:	6091      	str	r1, [r2, #8]
10001db2:	6298      	str	r0, [r3, #40]	@ 0x28
10001db4:	6823      	ldr	r3, [r4, #0]
10001db6:	f8c0 9000 	str.w	r9, [r0]
10001dba:	6820      	ldr	r0, [r4, #0]
10001dbc:	f883 e06d 	strb.w	lr, [r3, #109]	@ 0x6d
10001dc0:	f100 0004 	add.w	r0, r0, #4
10001dc4:	bf18      	it	ne
10001dc6:	f04f 35ff 	movne.w	r5, #4294967295
10001dca:	f7fe ffab 	bl	10000d24 <uxListRemove>
10001dce:	b940      	cbnz	r0, 10001de2 <vTaskPlaceOnEventListRestricted+0x86>
10001dd0:	2201      	movs	r2, #1
10001dd2:	6823      	ldr	r3, [r4, #0]
10001dd4:	4925      	ldr	r1, [pc, #148]	@ (10001e6c <vTaskPlaceOnEventListRestricted+0x110>)
10001dd6:	6adb      	ldr	r3, [r3, #44]	@ 0x2c
10001dd8:	409a      	lsls	r2, r3
10001dda:	680b      	ldr	r3, [r1, #0]
10001ddc:	ea23 0302 	bic.w	r3, r3, r2
10001de0:	600b      	str	r3, [r1, #0]
10001de2:	1c6b      	adds	r3, r5, #1
10001de4:	d018      	beq.n	10001e18 <vTaskPlaceOnEventListRestricted+0xbc>
10001de6:	6823      	ldr	r3, [r4, #0]
10001de8:	19ad      	adds	r5, r5, r6
10001dea:	605d      	str	r5, [r3, #4]
10001dec:	d20c      	bcs.n	10001e08 <vTaskPlaceOnEventListRestricted+0xac>
10001dee:	6821      	ldr	r1, [r4, #0]
10001df0:	4650      	mov	r0, sl
10001df2:	3104      	adds	r1, #4
10001df4:	f7fe ff7a 	bl	10000cec <vListInsert>
10001df8:	4b1d      	ldr	r3, [pc, #116]	@ (10001e70 <vTaskPlaceOnEventListRestricted+0x114>)
10001dfa:	681a      	ldr	r2, [r3, #0]
10001dfc:	4295      	cmp	r5, r2
10001dfe:	d200      	bcs.n	10001e02 <vTaskPlaceOnEventListRestricted+0xa6>
10001e00:	601d      	str	r5, [r3, #0]
10001e02:	b003      	add	sp, #12
10001e04:	e8bd 8ff0 	ldmia.w	sp!, {r4, r5, r6, r7, r8, r9, sl, fp, pc}
10001e08:	4658      	mov	r0, fp
10001e0a:	6821      	ldr	r1, [r4, #0]
10001e0c:	3104      	adds	r1, #4
10001e0e:	b003      	add	sp, #12
10001e10:	e8bd 4ff0 	ldmia.w	sp!, {r4, r5, r6, r7, r8, r9, sl, fp, lr}
10001e14:	f7fe bf6a 	b.w	10000cec <vListInsert>
10001e18:	9b01      	ldr	r3, [sp, #4]
10001e1a:	b963      	cbnz	r3, 10001e36 <vTaskPlaceOnEventListRestricted+0xda>
10001e1c:	6823      	ldr	r3, [r4, #0]
10001e1e:	1e72      	subs	r2, r6, #1
10001e20:	605a      	str	r2, [r3, #4]
10001e22:	2e00      	cmp	r6, #0
10001e24:	d1f0      	bne.n	10001e08 <vTaskPlaceOnEventListRestricted+0xac>
10001e26:	6821      	ldr	r1, [r4, #0]
10001e28:	4650      	mov	r0, sl
10001e2a:	3104      	adds	r1, #4
10001e2c:	f7fe ff5e 	bl	10000cec <vListInsert>
10001e30:	4b0f      	ldr	r3, [pc, #60]	@ (10001e70 <vTaskPlaceOnEventListRestricted+0x114>)
10001e32:	681b      	ldr	r3, [r3, #0]
10001e34:	e7e5      	b.n	10001e02 <vTaskPlaceOnEventListRestricted+0xa6>
10001e36:	4b0f      	ldr	r3, [pc, #60]	@ (10001e74 <vTaskPlaceOnEventListRestricted+0x118>)
10001e38:	6821      	ldr	r1, [r4, #0]
10001e3a:	685a      	ldr	r2, [r3, #4]
10001e3c:	6826      	ldr	r6, [r4, #0]
10001e3e:	608a      	str	r2, [r1, #8]
10001e40:	6820      	ldr	r0, [r4, #0]
10001e42:	6821      	ldr	r1, [r4, #0]
10001e44:	6825      	ldr	r5, [r4, #0]
10001e46:	681c      	ldr	r4, [r3, #0]
10001e48:	3004      	adds	r0, #4
10001e4a:	3401      	adds	r4, #1
10001e4c:	601c      	str	r4, [r3, #0]
10001e4e:	6894      	ldr	r4, [r2, #8]
10001e50:	3104      	adds	r1, #4
10001e52:	60f4      	str	r4, [r6, #12]
10001e54:	6060      	str	r0, [r4, #4]
10001e56:	6091      	str	r1, [r2, #8]
10001e58:	616b      	str	r3, [r5, #20]
10001e5a:	b003      	add	sp, #12
10001e5c:	e8bd 8ff0 	ldmia.w	sp!, {r4, r5, r6, r7, r8, r9, sl, fp, pc}
10001e60:	20001ee0 	.word	0x20001ee0
10001e64:	2002227c 	.word	0x2002227c
10001e68:	20001ee8 	.word	0x20001ee8
10001e6c:	200221b8 	.word	0x200221b8
10001e70:	20022220 	.word	0x20022220
10001e74:	20022254 	.word	0x20022254
10001e78:	20001ef0 	.word	0x20001ef0

10001e7c <xTaskRemoveFromEventList>:
10001e7c:	b5f0      	push	{r4, r5, r6, r7, lr}
10001e7e:	f04f 0e00 	mov.w	lr, #0
10001e82:	68c3      	ldr	r3, [r0, #12]
10001e84:	68db      	ldr	r3, [r3, #12]
10001e86:	6a9a      	ldr	r2, [r3, #40]	@ 0x28
10001e88:	e9d3 0107 	ldrd	r0, r1, [r3, #28]
10001e8c:	6081      	str	r1, [r0, #8]
10001e8e:	f8d2 c004 	ldr.w	ip, [r2, #4]
10001e92:	69dc      	ldr	r4, [r3, #28]
10001e94:	f103 0018 	add.w	r0, r3, #24
10001e98:	604c      	str	r4, [r1, #4]
10001e9a:	4584      	cmp	ip, r0
10001e9c:	bf04      	itt	eq
10001e9e:	6a19      	ldreq	r1, [r3, #32]
10001ea0:	6051      	streq	r1, [r2, #4]
10001ea2:	492b      	ldr	r1, [pc, #172]	@ (10001f50 <xTaskRemoveFromEventList+0xd4>)
10001ea4:	f8d1 c000 	ldr.w	ip, [r1]
10001ea8:	6811      	ldr	r1, [r2, #0]
10001eaa:	f8c3 e028 	str.w	lr, [r3, #40]	@ 0x28
10001eae:	3901      	subs	r1, #1
10001eb0:	6011      	str	r1, [r2, #0]
10001eb2:	f1bc 0f00 	cmp.w	ip, #0
10001eb6:	d13b      	bne.n	10001f30 <xTaskRemoveFromEventList+0xb4>
10001eb8:	e9d3 0102 	ldrd	r0, r1, [r3, #8]
10001ebc:	695a      	ldr	r2, [r3, #20]
10001ebe:	6081      	str	r1, [r0, #8]
10001ec0:	689c      	ldr	r4, [r3, #8]
10001ec2:	6850      	ldr	r0, [r2, #4]
10001ec4:	f103 0e04 	add.w	lr, r3, #4
10001ec8:	604c      	str	r4, [r1, #4]
10001eca:	4570      	cmp	r0, lr
10001ecc:	bf08      	it	eq
10001ece:	68d9      	ldreq	r1, [r3, #12]
10001ed0:	4d20      	ldr	r5, [pc, #128]	@ (10001f54 <xTaskRemoveFromEventList+0xd8>)
10001ed2:	bf08      	it	eq
10001ed4:	6051      	streq	r1, [r2, #4]
10001ed6:	6811      	ldr	r1, [r2, #0]
10001ed8:	682e      	ldr	r6, [r5, #0]
10001eda:	3901      	subs	r1, #1
10001edc:	6011      	str	r1, [r2, #0]
10001ede:	2201      	movs	r2, #1
10001ee0:	6ad8      	ldr	r0, [r3, #44]	@ 0x2c
10001ee2:	6adf      	ldr	r7, [r3, #44]	@ 0x2c
10001ee4:	491c      	ldr	r1, [pc, #112]	@ (10001f58 <xTaskRemoveFromEventList+0xdc>)
10001ee6:	eb00 0080 	add.w	r0, r0, r0, lsl #2
10001eea:	eb01 0480 	add.w	r4, r1, r0, lsl #2
10001eee:	40ba      	lsls	r2, r7
10001ef0:	f8d4 c004 	ldr.w	ip, [r4, #4]
10001ef4:	4332      	orrs	r2, r6
10001ef6:	602a      	str	r2, [r5, #0]
10001ef8:	f851 2020 	ldr.w	r2, [r1, r0, lsl #2]
10001efc:	f8c3 c008 	str.w	ip, [r3, #8]
10001f00:	1c55      	adds	r5, r2, #1
10001f02:	f8dc 2008 	ldr.w	r2, [ip, #8]
10001f06:	60da      	str	r2, [r3, #12]
10001f08:	f8c2 e004 	str.w	lr, [r2, #4]
10001f0c:	f8cc e008 	str.w	lr, [ip, #8]
10001f10:	615c      	str	r4, [r3, #20]
10001f12:	f841 5020 	str.w	r5, [r1, r0, lsl #2]
10001f16:	4911      	ldr	r1, [pc, #68]	@ (10001f5c <xTaskRemoveFromEventList+0xe0>)
10001f18:	6ada      	ldr	r2, [r3, #44]	@ 0x2c
10001f1a:	680b      	ldr	r3, [r1, #0]
10001f1c:	6adb      	ldr	r3, [r3, #44]	@ 0x2c
10001f1e:	429a      	cmp	r2, r3
10001f20:	d904      	bls.n	10001f2c <xTaskRemoveFromEventList+0xb0>
10001f22:	2301      	movs	r3, #1
10001f24:	4a0e      	ldr	r2, [pc, #56]	@ (10001f60 <xTaskRemoveFromEventList+0xe4>)
10001f26:	4618      	mov	r0, r3
10001f28:	6013      	str	r3, [r2, #0]
10001f2a:	bdf0      	pop	{r4, r5, r6, r7, pc}
10001f2c:	2000      	movs	r0, #0
10001f2e:	bdf0      	pop	{r4, r5, r6, r7, pc}
10001f30:	4a0c      	ldr	r2, [pc, #48]	@ (10001f64 <xTaskRemoveFromEventList+0xe8>)
10001f32:	f8d2 c004 	ldr.w	ip, [r2, #4]
10001f36:	f8c3 c01c 	str.w	ip, [r3, #28]
10001f3a:	f8dc 1008 	ldr.w	r1, [ip, #8]
10001f3e:	6219      	str	r1, [r3, #32]
10001f40:	6048      	str	r0, [r1, #4]
10001f42:	6811      	ldr	r1, [r2, #0]
10001f44:	f8cc 0008 	str.w	r0, [ip, #8]
10001f48:	3101      	adds	r1, #1
10001f4a:	629a      	str	r2, [r3, #40]	@ 0x28
10001f4c:	6011      	str	r1, [r2, #0]
10001f4e:	e7e2      	b.n	10001f16 <xTaskRemoveFromEventList+0x9a>
10001f50:	200221b0 	.word	0x200221b0
10001f54:	200221b8 	.word	0x200221b8
10001f58:	20001ef8 	.word	0x20001ef8
10001f5c:	20001ee0 	.word	0x20001ee0
10001f60:	20022288 	.word	0x20022288
10001f64:	20022234 	.word	0x20022234

10001f68 <vTaskRemoveFromUnorderedEventList>:
10001f68:	e92d 43f0 	stmdb	sp!, {r4, r5, r6, r7, r8, r9, lr}
10001f6c:	e9d0 5401 	ldrd	r5, r4, [r0, #4]
10001f70:	2700      	movs	r7, #0
10001f72:	f04f 0901 	mov.w	r9, #1
10001f76:	6902      	ldr	r2, [r0, #16]
10001f78:	f041 4100 	orr.w	r1, r1, #2147483648	@ 0x80000000
10001f7c:	b083      	sub	sp, #12
10001f7e:	6001      	str	r1, [r0, #0]
10001f80:	6851      	ldr	r1, [r2, #4]
10001f82:	68c3      	ldr	r3, [r0, #12]
10001f84:	4281      	cmp	r1, r0
10001f86:	6811      	ldr	r1, [r2, #0]
10001f88:	60ac      	str	r4, [r5, #8]
10001f8a:	6065      	str	r5, [r4, #4]
10001f8c:	bf08      	it	eq
10001f8e:	6054      	streq	r4, [r2, #4]
10001f90:	e9d3 6502 	ldrd	r6, r5, [r3, #8]
10001f94:	3901      	subs	r1, #1
10001f96:	6107      	str	r7, [r0, #16]
10001f98:	6011      	str	r1, [r2, #0]
10001f9a:	695a      	ldr	r2, [r3, #20]
10001f9c:	60b5      	str	r5, [r6, #8]
10001f9e:	6899      	ldr	r1, [r3, #8]
10001fa0:	1d1c      	adds	r4, r3, #4
10001fa2:	6069      	str	r1, [r5, #4]
10001fa4:	6851      	ldr	r1, [r2, #4]
10001fa6:	4d1a      	ldr	r5, [pc, #104]	@ (10002010 <vTaskRemoveFromUnorderedEventList+0xa8>)
10001fa8:	42a1      	cmp	r1, r4
10001faa:	bf08      	it	eq
10001fac:	68d9      	ldreq	r1, [r3, #12]
10001fae:	682f      	ldr	r7, [r5, #0]
10001fb0:	bf08      	it	eq
10001fb2:	6051      	streq	r1, [r2, #4]
10001fb4:	6811      	ldr	r1, [r2, #0]
10001fb6:	9701      	str	r7, [sp, #4]
10001fb8:	3901      	subs	r1, #1
10001fba:	6011      	str	r1, [r2, #0]
10001fbc:	6ada      	ldr	r2, [r3, #44]	@ 0x2c
10001fbe:	4915      	ldr	r1, [pc, #84]	@ (10002014 <vTaskRemoveFromUnorderedEventList+0xac>)
10001fc0:	eb02 0082 	add.w	r0, r2, r2, lsl #2
10001fc4:	eb01 0680 	add.w	r6, r1, r0, lsl #2
10001fc8:	f8d6 e004 	ldr.w	lr, [r6, #4]
10001fcc:	f851 7020 	ldr.w	r7, [r1, r0, lsl #2]
10001fd0:	f8c3 e008 	str.w	lr, [r3, #8]
10001fd4:	f8de 8008 	ldr.w	r8, [lr, #8]
10001fd8:	eb07 0c09 	add.w	ip, r7, r9
10001fdc:	9f01      	ldr	r7, [sp, #4]
10001fde:	f8c3 800c 	str.w	r8, [r3, #12]
10001fe2:	fa09 f202 	lsl.w	r2, r9, r2
10001fe6:	f8c8 4004 	str.w	r4, [r8, #4]
10001fea:	f8ce 4008 	str.w	r4, [lr, #8]
10001fee:	615e      	str	r6, [r3, #20]
10001ff0:	f841 c020 	str.w	ip, [r1, r0, lsl #2]
10001ff4:	6ad9      	ldr	r1, [r3, #44]	@ 0x2c
10001ff6:	433a      	orrs	r2, r7
10001ff8:	4b07      	ldr	r3, [pc, #28]	@ (10002018 <vTaskRemoveFromUnorderedEventList+0xb0>)
10001ffa:	602a      	str	r2, [r5, #0]
10001ffc:	681b      	ldr	r3, [r3, #0]
10001ffe:	6adb      	ldr	r3, [r3, #44]	@ 0x2c
10002000:	4299      	cmp	r1, r3
10002002:	bf84      	itt	hi
10002004:	4b05      	ldrhi	r3, [pc, #20]	@ (1000201c <vTaskRemoveFromUnorderedEventList+0xb4>)
10002006:	f8c3 9000 	strhi.w	r9, [r3]
1000200a:	b003      	add	sp, #12
1000200c:	e8bd 83f0 	ldmia.w	sp!, {r4, r5, r6, r7, r8, r9, pc}
10002010:	200221b8 	.word	0x200221b8
10002014:	20001ef8 	.word	0x20001ef8
10002018:	20001ee0 	.word	0x20001ee0
1000201c:	20022288 	.word	0x20022288

10002020 <vTaskInternalSetTimeOutState>:
10002020:	4a03      	ldr	r2, [pc, #12]	@ (10002030 <vTaskInternalSetTimeOutState+0x10>)
10002022:	4b04      	ldr	r3, [pc, #16]	@ (10002034 <vTaskInternalSetTimeOutState+0x14>)
10002024:	6812      	ldr	r2, [r2, #0]
10002026:	681b      	ldr	r3, [r3, #0]
10002028:	e9c0 2300 	strd	r2, r3, [r0]
1000202c:	4770      	bx	lr
1000202e:	bf00      	nop
10002030:	20022224 	.word	0x20022224
10002034:	2002227c 	.word	0x2002227c

10002038 <xTaskCheckForTimeOut>:
10002038:	b570      	push	{r4, r5, r6, lr}
1000203a:	460e      	mov	r6, r1
1000203c:	4604      	mov	r4, r0
1000203e:	f7fe fac3 	bl	100005c8 <vPortEnterCritical>
10002042:	4a18      	ldr	r2, [pc, #96]	@ (100020a4 <xTaskCheckForTimeOut+0x6c>)
10002044:	4b18      	ldr	r3, [pc, #96]	@ (100020a8 <xTaskCheckForTimeOut+0x70>)
10002046:	f8d2 e000 	ldr.w	lr, [r2]
1000204a:	6819      	ldr	r1, [r3, #0]
1000204c:	f891 106d 	ldrb.w	r1, [r1, #109]	@ 0x6d
10002050:	b141      	cbz	r1, 10002064 <xTaskCheckForTimeOut+0x2c>
10002052:	2200      	movs	r2, #0
10002054:	681b      	ldr	r3, [r3, #0]
10002056:	f883 206d 	strb.w	r2, [r3, #109]	@ 0x6d
1000205a:	2401      	movs	r4, #1
1000205c:	f7fe fac2 	bl	100005e4 <vPortExitCritical>
10002060:	4620      	mov	r0, r4
10002062:	bd70      	pop	{r4, r5, r6, pc}
10002064:	6833      	ldr	r3, [r6, #0]
10002066:	1c59      	adds	r1, r3, #1
10002068:	d016      	beq.n	10002098 <xTaskCheckForTimeOut+0x60>
1000206a:	e9d4 5c00 	ldrd	r5, ip, [r4]
1000206e:	490f      	ldr	r1, [pc, #60]	@ (100020ac <xTaskCheckForTimeOut+0x74>)
10002070:	6808      	ldr	r0, [r1, #0]
10002072:	4285      	cmp	r5, r0
10002074:	d004      	beq.n	10002080 <xTaskCheckForTimeOut+0x48>
10002076:	45f4      	cmp	ip, lr
10002078:	d802      	bhi.n	10002080 <xTaskCheckForTimeOut+0x48>
1000207a:	2300      	movs	r3, #0
1000207c:	6033      	str	r3, [r6, #0]
1000207e:	e7ec      	b.n	1000205a <xTaskCheckForTimeOut+0x22>
10002080:	ebae 000c 	sub.w	r0, lr, ip
10002084:	4283      	cmp	r3, r0
10002086:	d9f8      	bls.n	1000207a <xTaskCheckForTimeOut+0x42>
10002088:	6809      	ldr	r1, [r1, #0]
1000208a:	eba3 030e 	sub.w	r3, r3, lr
1000208e:	6812      	ldr	r2, [r2, #0]
10002090:	4463      	add	r3, ip
10002092:	6033      	str	r3, [r6, #0]
10002094:	e9c4 1200 	strd	r1, r2, [r4]
10002098:	2400      	movs	r4, #0
1000209a:	f7fe faa3 	bl	100005e4 <vPortExitCritical>
1000209e:	4620      	mov	r0, r4
100020a0:	bd70      	pop	{r4, r5, r6, pc}
100020a2:	bf00      	nop
100020a4:	2002227c 	.word	0x2002227c
100020a8:	20001ee0 	.word	0x20001ee0
100020ac:	20022224 	.word	0x20022224

100020b0 <vTaskMissedYield>:
100020b0:	2201      	movs	r2, #1
100020b2:	4b01      	ldr	r3, [pc, #4]	@ (100020b8 <vTaskMissedYield+0x8>)
100020b4:	601a      	str	r2, [r3, #0]
100020b6:	4770      	bx	lr
100020b8:	20022288 	.word	0x20022288

100020bc <xTaskGetCurrentTaskHandle>:
100020bc:	4b01      	ldr	r3, [pc, #4]	@ (100020c4 <xTaskGetCurrentTaskHandle+0x8>)
100020be:	6818      	ldr	r0, [r3, #0]
100020c0:	4770      	bx	lr
100020c2:	bf00      	nop
100020c4:	20001ee0 	.word	0x20001ee0

100020c8 <xTaskPriorityDisinherit>:
100020c8:	b138      	cbz	r0, 100020da <xTaskPriorityDisinherit+0x12>
100020ca:	6d03      	ldr	r3, [r0, #80]	@ 0x50
100020cc:	6ac1      	ldr	r1, [r0, #44]	@ 0x2c
100020ce:	6cc2      	ldr	r2, [r0, #76]	@ 0x4c
100020d0:	3b01      	subs	r3, #1
100020d2:	4291      	cmp	r1, r2
100020d4:	6503      	str	r3, [r0, #80]	@ 0x50
100020d6:	d000      	beq.n	100020da <xTaskPriorityDisinherit+0x12>
100020d8:	b10b      	cbz	r3, 100020de <xTaskPriorityDisinherit+0x16>
100020da:	2000      	movs	r0, #0
100020dc:	4770      	bx	lr
100020de:	b5f0      	push	{r4, r5, r6, r7, lr}
100020e0:	b083      	sub	sp, #12
100020e2:	9001      	str	r0, [sp, #4]
100020e4:	1d06      	adds	r6, r0, #4
100020e6:	3004      	adds	r0, #4
100020e8:	f7fe fe1c 	bl	10000d24 <uxListRemove>
100020ec:	9b01      	ldr	r3, [sp, #4]
100020ee:	b318      	cbz	r0, 10002138 <xTaskPriorityDisinherit+0x70>
100020f0:	f8df c060 	ldr.w	ip, [pc, #96]	@ 10002154 <xTaskPriorityDisinherit+0x8c>
100020f4:	6cd9      	ldr	r1, [r3, #76]	@ 0x4c
100020f6:	4816      	ldr	r0, [pc, #88]	@ (10002150 <xTaskPriorityDisinherit+0x88>)
100020f8:	eb01 0e81 	add.w	lr, r1, r1, lsl #2
100020fc:	f1c1 0220 	rsb	r2, r1, #32
10002100:	619a      	str	r2, [r3, #24]
10002102:	62d9      	str	r1, [r3, #44]	@ 0x2c
10002104:	eb00 048e 	add.w	r4, r0, lr, lsl #2
10002108:	6862      	ldr	r2, [r4, #4]
1000210a:	f850 502e 	ldr.w	r5, [r0, lr, lsl #2]
1000210e:	609a      	str	r2, [r3, #8]
10002110:	3501      	adds	r5, #1
10002112:	9501      	str	r5, [sp, #4]
10002114:	6895      	ldr	r5, [r2, #8]
10002116:	f8dc 7000 	ldr.w	r7, [ip]
1000211a:	60dd      	str	r5, [r3, #12]
1000211c:	606e      	str	r6, [r5, #4]
1000211e:	9d01      	ldr	r5, [sp, #4]
10002120:	6096      	str	r6, [r2, #8]
10002122:	615c      	str	r4, [r3, #20]
10002124:	f840 502e 	str.w	r5, [r0, lr, lsl #2]
10002128:	2001      	movs	r0, #1
1000212a:	fa00 f201 	lsl.w	r2, r0, r1
1000212e:	433a      	orrs	r2, r7
10002130:	f8cc 2000 	str.w	r2, [ip]
10002134:	b003      	add	sp, #12
10002136:	bdf0      	pop	{r4, r5, r6, r7, pc}
10002138:	2101      	movs	r1, #1
1000213a:	f8df c018 	ldr.w	ip, [pc, #24]	@ 10002154 <xTaskPriorityDisinherit+0x8c>
1000213e:	6ad8      	ldr	r0, [r3, #44]	@ 0x2c
10002140:	f8dc 2000 	ldr.w	r2, [ip]
10002144:	4081      	lsls	r1, r0
10002146:	ea22 0201 	bic.w	r2, r2, r1
1000214a:	f8cc 2000 	str.w	r2, [ip]
1000214e:	e7d1      	b.n	100020f4 <xTaskPriorityDisinherit+0x2c>
10002150:	20001ef8 	.word	0x20001ef8
10002154:	200221b8 	.word	0x200221b8

10002158 <uxTaskResetEventItemValue>:
10002158:	4a04      	ldr	r2, [pc, #16]	@ (1000216c <uxTaskResetEventItemValue+0x14>)
1000215a:	6811      	ldr	r1, [r2, #0]
1000215c:	6813      	ldr	r3, [r2, #0]
1000215e:	6812      	ldr	r2, [r2, #0]
10002160:	6adb      	ldr	r3, [r3, #44]	@ 0x2c
10002162:	6988      	ldr	r0, [r1, #24]
10002164:	f1c3 0320 	rsb	r3, r3, #32
10002168:	6193      	str	r3, [r2, #24]
1000216a:	4770      	bx	lr
1000216c:	20001ee0 	.word	0x20001ee0

10002170 <prvTimerTask>:
10002170:	e92d 4ff0 	stmdb	sp!, {r4, r5, r6, r7, r8, r9, sl, fp, lr}
10002174:	4fac      	ldr	r7, [pc, #688]	@ (10002428 <prvTimerTask+0x2b8>)
10002176:	f8df b2b8 	ldr.w	fp, [pc, #696]	@ 10002430 <prvTimerTask+0x2c0>
1000217a:	f8df 82b8 	ldr.w	r8, [pc, #696]	@ 10002434 <prvTimerTask+0x2c4>
1000217e:	4dab      	ldr	r5, [pc, #684]	@ (1000242c <prvTimerTask+0x2bc>)
10002180:	b087      	sub	sp, #28
10002182:	683b      	ldr	r3, [r7, #0]
10002184:	681c      	ldr	r4, [r3, #0]
10002186:	2c00      	cmp	r4, #0
10002188:	f040 811d 	bne.w	100023c6 <prvTimerTask+0x256>
1000218c:	f7ff fb8e 	bl	100018ac <vTaskSuspendAll>
10002190:	f7ff fcba 	bl	10001b08 <xTaskGetTickCount>
10002194:	f8db 3000 	ldr.w	r3, [fp]
10002198:	4681      	mov	r9, r0
1000219a:	4283      	cmp	r3, r0
1000219c:	d847      	bhi.n	1000222e <prvTimerTask+0xbe>
1000219e:	f8d8 3000 	ldr.w	r3, [r8]
100021a2:	f8cb 0000 	str.w	r0, [fp]
100021a6:	681a      	ldr	r2, [r3, #0]
100021a8:	fab2 f282 	clz	r2, r2
100021ac:	0952      	lsrs	r2, r2, #5
100021ae:	6828      	ldr	r0, [r5, #0]
100021b0:	eba4 0109 	sub.w	r1, r4, r9
100021b4:	f7ff f8c2 	bl	1000133c <vQueueWaitForMessageRestricted>
100021b8:	f7ff fb80 	bl	100018bc <xTaskResumeAll>
100021bc:	2800      	cmp	r0, #0
100021be:	f000 8124 	beq.w	1000240a <prvTimerTask+0x29a>
100021c2:	2300      	movs	r3, #0
100021c4:	e9cd 3302 	strd	r3, r3, [sp, #8]
100021c8:	e9cd 3304 	strd	r3, r3, [sp, #16]
100021cc:	2200      	movs	r2, #0
100021ce:	6828      	ldr	r0, [r5, #0]
100021d0:	a902      	add	r1, sp, #8
100021d2:	f7fe ff9f 	bl	10001114 <xQueueReceive>
100021d6:	2800      	cmp	r0, #0
100021d8:	d0d3      	beq.n	10002182 <prvTimerTask+0x12>
100021da:	9b02      	ldr	r3, [sp, #8]
100021dc:	2b00      	cmp	r3, #0
100021de:	f2c0 80e9 	blt.w	100023b4 <prvTimerTask+0x244>
100021e2:	f8dd a010 	ldr.w	sl, [sp, #16]
100021e6:	f8da 3014 	ldr.w	r3, [sl, #20]
100021ea:	b11b      	cbz	r3, 100021f4 <prvTimerTask+0x84>
100021ec:	f10a 0004 	add.w	r0, sl, #4
100021f0:	f7fe fd98 	bl	10000d24 <uxListRemove>
100021f4:	f7ff fc88 	bl	10001b08 <xTaskGetTickCount>
100021f8:	f8db 3000 	ldr.w	r3, [fp]
100021fc:	9001      	str	r0, [sp, #4]
100021fe:	4298      	cmp	r0, r3
10002200:	d343      	bcc.n	1000228a <prvTimerTask+0x11a>
10002202:	e9dd 2301 	ldrd	r2, r3, [sp, #4]
10002206:	3b01      	subs	r3, #1
10002208:	f8cb 2000 	str.w	r2, [fp]
1000220c:	2b08      	cmp	r3, #8
1000220e:	d8dd      	bhi.n	100021cc <prvTimerTask+0x5c>
10002210:	e8df f003 	tbb	[pc, r3]
10002214:	a5c06161 	.word	0xa5c06161
10002218:	c06161c7 	.word	0xc06161c7
1000221c:	a5          	.byte	0xa5
1000221d:	00          	.byte	0x00
1000221e:	f022 0201 	bic.w	r2, r2, #1
10002222:	f88a 2028 	strb.w	r2, [sl, #40]	@ 0x28
10002226:	4650      	mov	r0, sl
10002228:	f8da 3020 	ldr.w	r3, [sl, #32]
1000222c:	4798      	blx	r3
1000222e:	683b      	ldr	r3, [r7, #0]
10002230:	681a      	ldr	r2, [r3, #0]
10002232:	2a00      	cmp	r2, #0
10002234:	f000 80d9 	beq.w	100023ea <prvTimerTask+0x27a>
10002238:	68da      	ldr	r2, [r3, #12]
1000223a:	f8d2 a00c 	ldr.w	sl, [r2, #12]
1000223e:	6814      	ldr	r4, [r2, #0]
10002240:	f10a 0604 	add.w	r6, sl, #4
10002244:	4630      	mov	r0, r6
10002246:	f7fe fd6d 	bl	10000d24 <uxListRemove>
1000224a:	f89a 2028 	ldrb.w	r2, [sl, #40]	@ 0x28
1000224e:	0751      	lsls	r1, r2, #29
10002250:	d5e5      	bpl.n	1000221e <prvTimerTask+0xae>
10002252:	e003      	b.n	1000225c <prvTimerTask+0xec>
10002254:	4650      	mov	r0, sl
10002256:	f8da 2020 	ldr.w	r2, [sl, #32]
1000225a:	4790      	blx	r2
1000225c:	f8da 2018 	ldr.w	r2, [sl, #24]
10002260:	f8ca a010 	str.w	sl, [sl, #16]
10002264:	1911      	adds	r1, r2, r4
10002266:	18a4      	adds	r4, r4, r2
10002268:	f8ca 1004 	str.w	r1, [sl, #4]
1000226c:	d3f2      	bcc.n	10002254 <prvTimerTask+0xe4>
1000226e:	4631      	mov	r1, r6
10002270:	f8d8 0000 	ldr.w	r0, [r8]
10002274:	f7fe fd3a 	bl	10000cec <vListInsert>
10002278:	e7d5      	b.n	10002226 <prvTimerTask+0xb6>
1000227a:	f021 0101 	bic.w	r1, r1, #1
1000227e:	f889 1028 	strb.w	r1, [r9, #40]	@ 0x28
10002282:	4648      	mov	r0, r9
10002284:	f8d9 3020 	ldr.w	r3, [r9, #32]
10002288:	4798      	blx	r3
1000228a:	683b      	ldr	r3, [r7, #0]
1000228c:	6819      	ldr	r1, [r3, #0]
1000228e:	2900      	cmp	r1, #0
10002290:	f000 80b5 	beq.w	100023fe <prvTimerTask+0x28e>
10002294:	68d9      	ldr	r1, [r3, #12]
10002296:	f8d1 900c 	ldr.w	r9, [r1, #12]
1000229a:	680c      	ldr	r4, [r1, #0]
1000229c:	f109 0604 	add.w	r6, r9, #4
100022a0:	4630      	mov	r0, r6
100022a2:	f7fe fd3f 	bl	10000d24 <uxListRemove>
100022a6:	f899 1028 	ldrb.w	r1, [r9, #40]	@ 0x28
100022aa:	0748      	lsls	r0, r1, #29
100022ac:	d5e5      	bpl.n	1000227a <prvTimerTask+0x10a>
100022ae:	e003      	b.n	100022b8 <prvTimerTask+0x148>
100022b0:	4648      	mov	r0, r9
100022b2:	f8d9 1020 	ldr.w	r1, [r9, #32]
100022b6:	4788      	blx	r1
100022b8:	f8d9 1018 	ldr.w	r1, [r9, #24]
100022bc:	f8c9 9010 	str.w	r9, [r9, #16]
100022c0:	1908      	adds	r0, r1, r4
100022c2:	1864      	adds	r4, r4, r1
100022c4:	f8c9 0004 	str.w	r0, [r9, #4]
100022c8:	d3f2      	bcc.n	100022b0 <prvTimerTask+0x140>
100022ca:	4631      	mov	r1, r6
100022cc:	f8d8 0000 	ldr.w	r0, [r8]
100022d0:	f7fe fd0c 	bl	10000cec <vListInsert>
100022d4:	e7d5      	b.n	10002282 <prvTimerTask+0x112>
100022d6:	f89a 0028 	ldrb.w	r0, [sl, #40]	@ 0x28
100022da:	9903      	ldr	r1, [sp, #12]
100022dc:	f8da 4018 	ldr.w	r4, [sl, #24]
100022e0:	9a01      	ldr	r2, [sp, #4]
100022e2:	190b      	adds	r3, r1, r4
100022e4:	f040 0601 	orr.w	r6, r0, #1
100022e8:	f88a 6028 	strb.w	r6, [sl, #40]	@ 0x28
100022ec:	bf2c      	ite	cs
100022ee:	2601      	movcs	r6, #1
100022f0:	2600      	movcc	r6, #0
100022f2:	4293      	cmp	r3, r2
100022f4:	f8ca 3004 	str.w	r3, [sl, #4]
100022f8:	f8ca a010 	str.w	sl, [sl, #16]
100022fc:	f200 8088 	bhi.w	10002410 <prvTimerTask+0x2a0>
10002300:	1a51      	subs	r1, r2, r1
10002302:	428c      	cmp	r4, r1
10002304:	d83f      	bhi.n	10002386 <prvTimerTask+0x216>
10002306:	0741      	lsls	r1, r0, #29
10002308:	d412      	bmi.n	10002330 <prvTimerTask+0x1c0>
1000230a:	f020 0001 	bic.w	r0, r0, #1
1000230e:	f88a 0028 	strb.w	r0, [sl, #40]	@ 0x28
10002312:	4650      	mov	r0, sl
10002314:	f8da 3020 	ldr.w	r3, [sl, #32]
10002318:	4798      	blx	r3
1000231a:	e757      	b.n	100021cc <prvTimerTask+0x5c>
1000231c:	428c      	cmp	r4, r1
1000231e:	f200 80c7 	bhi.w	100024b0 <prvTimerTask+0x340>
10002322:	f8da 3020 	ldr.w	r3, [sl, #32]
10002326:	4650      	mov	r0, sl
10002328:	4798      	blx	r3
1000232a:	4633      	mov	r3, r6
1000232c:	f8da 4018 	ldr.w	r4, [sl, #24]
10002330:	9a01      	ldr	r2, [sp, #4]
10002332:	18e6      	adds	r6, r4, r3
10002334:	bf2c      	ite	cs
10002336:	2001      	movcs	r0, #1
10002338:	2000      	movcc	r0, #0
1000233a:	42b2      	cmp	r2, r6
1000233c:	eba2 0103 	sub.w	r1, r2, r3
10002340:	f8ca 6004 	str.w	r6, [sl, #4]
10002344:	f8ca a010 	str.w	sl, [sl, #16]
10002348:	d2e8      	bcs.n	1000231c <prvTimerTask+0x1ac>
1000234a:	429a      	cmp	r2, r3
1000234c:	d201      	bcs.n	10002352 <prvTimerTask+0x1e2>
1000234e:	2800      	cmp	r0, #0
10002350:	d0e7      	beq.n	10002322 <prvTimerTask+0x1b2>
10002352:	6838      	ldr	r0, [r7, #0]
10002354:	f10a 0104 	add.w	r1, sl, #4
10002358:	f7fe fcc8 	bl	10000cec <vListInsert>
1000235c:	e7d9      	b.n	10002312 <prvTimerTask+0x1a2>
1000235e:	9903      	ldr	r1, [sp, #12]
10002360:	9a01      	ldr	r2, [sp, #4]
10002362:	f89a 3028 	ldrb.w	r3, [sl, #40]	@ 0x28
10002366:	1888      	adds	r0, r1, r2
10002368:	f043 0301 	orr.w	r3, r3, #1
1000236c:	4290      	cmp	r0, r2
1000236e:	f88a 3028 	strb.w	r3, [sl, #40]	@ 0x28
10002372:	f8ca 1018 	str.w	r1, [sl, #24]
10002376:	f8ca 0004 	str.w	r0, [sl, #4]
1000237a:	f8ca a010 	str.w	sl, [sl, #16]
1000237e:	d84c      	bhi.n	1000241a <prvTimerTask+0x2aa>
10002380:	2900      	cmp	r1, #0
10002382:	f43f af23 	beq.w	100021cc <prvTimerTask+0x5c>
10002386:	f8d8 0000 	ldr.w	r0, [r8]
1000238a:	f10a 0104 	add.w	r1, sl, #4
1000238e:	f7fe fcad 	bl	10000cec <vListInsert>
10002392:	e71b      	b.n	100021cc <prvTimerTask+0x5c>
10002394:	f89a 3028 	ldrb.w	r3, [sl, #40]	@ 0x28
10002398:	f023 0301 	bic.w	r3, r3, #1
1000239c:	f88a 3028 	strb.w	r3, [sl, #40]	@ 0x28
100023a0:	e714      	b.n	100021cc <prvTimerTask+0x5c>
100023a2:	f89a 3028 	ldrb.w	r3, [sl, #40]	@ 0x28
100023a6:	079a      	lsls	r2, r3, #30
100023a8:	d578      	bpl.n	1000249c <prvTimerTask+0x32c>
100023aa:	f023 0301 	bic.w	r3, r3, #1
100023ae:	f88a 3028 	strb.w	r3, [sl, #40]	@ 0x28
100023b2:	e70b      	b.n	100021cc <prvTimerTask+0x5c>
100023b4:	9b03      	ldr	r3, [sp, #12]
100023b6:	e9dd 0104 	ldrd	r0, r1, [sp, #16]
100023ba:	4798      	blx	r3
100023bc:	9b02      	ldr	r3, [sp, #8]
100023be:	2b00      	cmp	r3, #0
100023c0:	f6ff af04 	blt.w	100021cc <prvTimerTask+0x5c>
100023c4:	e70d      	b.n	100021e2 <prvTimerTask+0x72>
100023c6:	68db      	ldr	r3, [r3, #12]
100023c8:	681c      	ldr	r4, [r3, #0]
100023ca:	f7ff fa6f 	bl	100018ac <vTaskSuspendAll>
100023ce:	f7ff fb9b 	bl	10001b08 <xTaskGetTickCount>
100023d2:	f8db 3000 	ldr.w	r3, [fp]
100023d6:	4681      	mov	r9, r0
100023d8:	4283      	cmp	r3, r0
100023da:	f63f af28 	bhi.w	1000222e <prvTimerTask+0xbe>
100023de:	4284      	cmp	r4, r0
100023e0:	f8cb 0000 	str.w	r0, [fp]
100023e4:	d928      	bls.n	10002438 <prvTimerTask+0x2c8>
100023e6:	2200      	movs	r2, #0
100023e8:	e6e1      	b.n	100021ae <prvTimerTask+0x3e>
100023ea:	f8d8 2000 	ldr.w	r2, [r8]
100023ee:	f8cb 9000 	str.w	r9, [fp]
100023f2:	603a      	str	r2, [r7, #0]
100023f4:	f8c8 3000 	str.w	r3, [r8]
100023f8:	f7ff fa60 	bl	100018bc <xTaskResumeAll>
100023fc:	e6e1      	b.n	100021c2 <prvTimerTask+0x52>
100023fe:	f8d8 1000 	ldr.w	r1, [r8]
10002402:	f8c8 3000 	str.w	r3, [r8]
10002406:	6039      	str	r1, [r7, #0]
10002408:	e6fb      	b.n	10002202 <prvTimerTask+0x92>
1000240a:	f7fe f8d1 	bl	100005b0 <vPortYield>
1000240e:	e6d8      	b.n	100021c2 <prvTimerTask+0x52>
10002410:	4291      	cmp	r1, r2
10002412:	d902      	bls.n	1000241a <prvTimerTask+0x2aa>
10002414:	2e00      	cmp	r6, #0
10002416:	f43f af76 	beq.w	10002306 <prvTimerTask+0x196>
1000241a:	6838      	ldr	r0, [r7, #0]
1000241c:	f10a 0104 	add.w	r1, sl, #4
10002420:	f7fe fc64 	bl	10000cec <vListInsert>
10002424:	e6d2      	b.n	100021cc <prvTimerTask+0x5c>
10002426:	bf00      	nop
10002428:	20001ee4 	.word	0x20001ee4
1000242c:	20022280 	.word	0x20022280
10002430:	20022218 	.word	0x20022218
10002434:	20001ef4 	.word	0x20001ef4
10002438:	f7ff fa40 	bl	100018bc <xTaskResumeAll>
1000243c:	683b      	ldr	r3, [r7, #0]
1000243e:	68db      	ldr	r3, [r3, #12]
10002440:	68de      	ldr	r6, [r3, #12]
10002442:	1d33      	adds	r3, r6, #4
10002444:	4618      	mov	r0, r3
10002446:	9301      	str	r3, [sp, #4]
10002448:	f7fe fc6c 	bl	10000d24 <uxListRemove>
1000244c:	f896 2028 	ldrb.w	r2, [r6, #40]	@ 0x28
10002450:	0753      	lsls	r3, r2, #29
10002452:	d40d      	bmi.n	10002470 <prvTimerTask+0x300>
10002454:	f022 0201 	bic.w	r2, r2, #1
10002458:	f886 2028 	strb.w	r2, [r6, #40]	@ 0x28
1000245c:	4630      	mov	r0, r6
1000245e:	6a33      	ldr	r3, [r6, #32]
10002460:	4798      	blx	r3
10002462:	e6ae      	b.n	100021c2 <prvTimerTask+0x52>
10002464:	4281      	cmp	r1, r0
10002466:	d81d      	bhi.n	100024a4 <prvTimerTask+0x334>
10002468:	4630      	mov	r0, r6
1000246a:	6a31      	ldr	r1, [r6, #32]
1000246c:	4788      	blx	r1
1000246e:	4654      	mov	r4, sl
10002470:	69b1      	ldr	r1, [r6, #24]
10002472:	eba9 0004 	sub.w	r0, r9, r4
10002476:	eb14 0a01 	adds.w	sl, r4, r1
1000247a:	bf2c      	ite	cs
1000247c:	2301      	movcs	r3, #1
1000247e:	2300      	movcc	r3, #0
10002480:	45ca      	cmp	sl, r9
10002482:	f8c6 a004 	str.w	sl, [r6, #4]
10002486:	6136      	str	r6, [r6, #16]
10002488:	d9ec      	bls.n	10002464 <prvTimerTask+0x2f4>
1000248a:	454c      	cmp	r4, r9
1000248c:	d901      	bls.n	10002492 <prvTimerTask+0x322>
1000248e:	2b00      	cmp	r3, #0
10002490:	d0ea      	beq.n	10002468 <prvTimerTask+0x2f8>
10002492:	9901      	ldr	r1, [sp, #4]
10002494:	6838      	ldr	r0, [r7, #0]
10002496:	f7fe fc29 	bl	10000cec <vListInsert>
1000249a:	e7df      	b.n	1000245c <prvTimerTask+0x2ec>
1000249c:	4650      	mov	r0, sl
1000249e:	f7fd ffad 	bl	100003fc <vPortFree>
100024a2:	e693      	b.n	100021cc <prvTimerTask+0x5c>
100024a4:	9901      	ldr	r1, [sp, #4]
100024a6:	f8d8 0000 	ldr.w	r0, [r8]
100024aa:	f7fe fc1f 	bl	10000cec <vListInsert>
100024ae:	e7d5      	b.n	1000245c <prvTimerTask+0x2ec>
100024b0:	f8d8 0000 	ldr.w	r0, [r8]
100024b4:	f10a 0104 	add.w	r1, sl, #4
100024b8:	f7fe fc18 	bl	10000cec <vListInsert>
100024bc:	e729      	b.n	10002312 <prvTimerTask+0x1a2>
100024be:	bf00      	nop

100024c0 <xTimerCreateTimerTask>:
100024c0:	b510      	push	{r4, lr}
100024c2:	4c18      	ldr	r4, [pc, #96]	@ (10002524 <xTimerCreateTimerTask+0x64>)
100024c4:	b084      	sub	sp, #16
100024c6:	f7fe f87f 	bl	100005c8 <vPortEnterCritical>
100024ca:	6822      	ldr	r2, [r4, #0]
100024cc:	b182      	cbz	r2, 100024f0 <xTimerCreateTimerTask+0x30>
100024ce:	f7fe f889 	bl	100005e4 <vPortExitCritical>
100024d2:	6820      	ldr	r0, [r4, #0]
100024d4:	b150      	cbz	r0, 100024ec <xTimerCreateTimerTask+0x2c>
100024d6:	241f      	movs	r4, #31
100024d8:	4813      	ldr	r0, [pc, #76]	@ (10002528 <xTimerCreateTimerTask+0x68>)
100024da:	2300      	movs	r3, #0
100024dc:	9001      	str	r0, [sp, #4]
100024de:	f44f 6280 	mov.w	r2, #1024	@ 0x400
100024e2:	4912      	ldr	r1, [pc, #72]	@ (1000252c <xTimerCreateTimerTask+0x6c>)
100024e4:	4812      	ldr	r0, [pc, #72]	@ (10002530 <xTimerCreateTimerTask+0x70>)
100024e6:	9400      	str	r4, [sp, #0]
100024e8:	f7ff f8e4 	bl	100016b4 <xTaskCreate>
100024ec:	b004      	add	sp, #16
100024ee:	bd10      	pop	{r4, pc}
100024f0:	4810      	ldr	r0, [pc, #64]	@ (10002534 <xTimerCreateTimerTask+0x74>)
100024f2:	9203      	str	r2, [sp, #12]
100024f4:	f7fe fbea 	bl	10000ccc <vListInitialise>
100024f8:	480f      	ldr	r0, [pc, #60]	@ (10002538 <xTimerCreateTimerTask+0x78>)
100024fa:	f7fe fbe7 	bl	10000ccc <vListInitialise>
100024fe:	490f      	ldr	r1, [pc, #60]	@ (1000253c <xTimerCreateTimerTask+0x7c>)
10002500:	480d      	ldr	r0, [pc, #52]	@ (10002538 <xTimerCreateTimerTask+0x78>)
10002502:	4b0f      	ldr	r3, [pc, #60]	@ (10002540 <xTimerCreateTimerTask+0x80>)
10002504:	6008      	str	r0, [r1, #0]
10002506:	480b      	ldr	r0, [pc, #44]	@ (10002534 <xTimerCreateTimerTask+0x74>)
10002508:	2110      	movs	r1, #16
1000250a:	6018      	str	r0, [r3, #0]
1000250c:	9a03      	ldr	r2, [sp, #12]
1000250e:	200a      	movs	r0, #10
10002510:	f7fe fd64 	bl	10000fdc <xQueueGenericCreate>
10002514:	6020      	str	r0, [r4, #0]
10002516:	2800      	cmp	r0, #0
10002518:	d0d9      	beq.n	100024ce <xTimerCreateTimerTask+0xe>
1000251a:	490a      	ldr	r1, [pc, #40]	@ (10002544 <xTimerCreateTimerTask+0x84>)
1000251c:	f7fe fe78 	bl	10001210 <vQueueAddToRegistry>
10002520:	e7d5      	b.n	100024ce <xTimerCreateTimerTask+0xe>
10002522:	bf00      	nop
10002524:	20022280 	.word	0x20022280
10002528:	20022284 	.word	0x20022284
1000252c:	100067ec 	.word	0x100067ec
10002530:	10002171 	.word	0x10002171
10002534:	200221bc 	.word	0x200221bc
10002538:	200221d0 	.word	0x200221d0
1000253c:	20001ef4 	.word	0x20001ef4
10002540:	20001ee4 	.word	0x20001ee4
10002544:	100067e4 	.word	0x100067e4

10002548 <xTimerPendFunctionCallFromISR>:
10002548:	b570      	push	{r4, r5, r6, lr}
1000254a:	f06f 0c01 	mvn.w	ip, #1
1000254e:	4696      	mov	lr, r2
10002550:	4604      	mov	r4, r0
10002552:	460d      	mov	r5, r1
10002554:	461a      	mov	r2, r3
10002556:	4b07      	ldr	r3, [pc, #28]	@ (10002574 <xTimerPendFunctionCallFromISR+0x2c>)
10002558:	b084      	sub	sp, #16
1000255a:	4669      	mov	r1, sp
1000255c:	6818      	ldr	r0, [r3, #0]
1000255e:	2300      	movs	r3, #0
10002560:	e9cd 4501 	strd	r4, r5, [sp, #4]
10002564:	f8cd e00c 	str.w	lr, [sp, #12]
10002568:	f8cd c000 	str.w	ip, [sp]
1000256c:	f7fe fd86 	bl	1000107c <xQueueGenericSendFromISR>
10002570:	b004      	add	sp, #16
10002572:	bd70      	pop	{r4, r5, r6, pc}
10002574:	20022280 	.word	0x20022280

10002578 <clock_configure_undivided>:
10002578:	eb00 0c40 	add.w	ip, r0, r0, lsl #1
1000257c:	ea4f 0c8c 	mov.w	ip, ip, lsl #2
10002580:	f10c 4c80 	add.w	ip, ip, #1073741824	@ 0x40000000
10002584:	f50c 3c80 	add.w	ip, ip, #65536	@ 0x10000
10002588:	b570      	push	{r4, r5, r6, lr}
1000258a:	461e      	mov	r6, r3
1000258c:	f8dc 3004 	ldr.w	r3, [ip, #4]
10002590:	1f04      	subs	r4, r0, #4
10002592:	f5b3 3f80 	cmp.w	r3, #65536	@ 0x10000
10002596:	bf38      	it	cc
10002598:	f44f 3380 	movcc.w	r3, #65536	@ 0x10000
1000259c:	b2e4      	uxtb	r4, r4
1000259e:	bf38      	it	cc
100025a0:	f8cc 3004 	strcc.w	r3, [ip, #4]
100025a4:	2c01      	cmp	r4, #1
100025a6:	d92e      	bls.n	10002606 <clock_configure_undivided+0x8e>
100025a8:	f44f 6500 	mov.w	r5, #2048	@ 0x800
100025ac:	4b28      	ldr	r3, [pc, #160]	@ (10002650 <clock_configure_undivided+0xd8>)
100025ae:	f50c 5e40 	add.w	lr, ip, #12288	@ 0x3000
100025b2:	f8ce 5000 	str.w	r5, [lr]
100025b6:	f853 e020 	ldr.w	lr, [r3, r0, lsl #2]
100025ba:	f1be 0f00 	cmp.w	lr, #0
100025be:	d117      	bne.n	100025f0 <clock_configure_undivided+0x78>
100025c0:	f8dc e000 	ldr.w	lr, [ip]
100025c4:	2c01      	cmp	r4, #1
100025c6:	ea8e 1242 	eor.w	r2, lr, r2, lsl #5
100025ca:	f002 02e0 	and.w	r2, r2, #224	@ 0xe0
100025ce:	f50c 5e80 	add.w	lr, ip, #4096	@ 0x1000
100025d2:	f8ce 2000 	str.w	r2, [lr]
100025d6:	d92b      	bls.n	10002630 <clock_configure_undivided+0xb8>
100025d8:	f44f 6100 	mov.w	r1, #2048	@ 0x800
100025dc:	f843 6020 	str.w	r6, [r3, r0, lsl #2]
100025e0:	f44f 3380 	mov.w	r3, #65536	@ 0x10000
100025e4:	f50c 5200 	add.w	r2, ip, #8192	@ 0x2000
100025e8:	6011      	str	r1, [r2, #0]
100025ea:	f8cc 3004 	str.w	r3, [ip, #4]
100025ee:	bd70      	pop	{r4, r5, r6, pc}
100025f0:	695d      	ldr	r5, [r3, #20]
100025f2:	fbb5 fefe 	udiv	lr, r5, lr
100025f6:	f10e 0e01 	add.w	lr, lr, #1
100025fa:	eb0e 0e4e 	add.w	lr, lr, lr, lsl #1
100025fe:	f1be 0e03 	subs.w	lr, lr, #3
10002602:	d2fc      	bcs.n	100025fe <clock_configure_undivided+0x86>
10002604:	e7dc      	b.n	100025c0 <clock_configure_undivided+0x48>
10002606:	2901      	cmp	r1, #1
10002608:	d1ce      	bne.n	100025a8 <clock_configure_undivided+0x30>
1000260a:	2403      	movs	r4, #3
1000260c:	f50c 5340 	add.w	r3, ip, #12288	@ 0x3000
10002610:	601c      	str	r4, [r3, #0]
10002612:	f8dc 3008 	ldr.w	r3, [ip, #8]
10002616:	07db      	lsls	r3, r3, #31
10002618:	d5fb      	bpl.n	10002612 <clock_configure_undivided+0x9a>
1000261a:	f8dc 3000 	ldr.w	r3, [ip]
1000261e:	f50c 5e80 	add.w	lr, ip, #4096	@ 0x1000
10002622:	ea83 1342 	eor.w	r3, r3, r2, lsl #5
10002626:	f003 03e0 	and.w	r3, r3, #224	@ 0xe0
1000262a:	f8ce 3000 	str.w	r3, [lr]
1000262e:	4b08      	ldr	r3, [pc, #32]	@ (10002650 <clock_configure_undivided+0xd8>)
10002630:	2201      	movs	r2, #1
10002632:	f8dc 4000 	ldr.w	r4, [ip]
10002636:	404c      	eors	r4, r1
10002638:	f004 0403 	and.w	r4, r4, #3
1000263c:	f8ce 4000 	str.w	r4, [lr]
10002640:	fa02 f101 	lsl.w	r1, r2, r1
10002644:	f8dc 2008 	ldr.w	r2, [ip, #8]
10002648:	420a      	tst	r2, r1
1000264a:	d0fb      	beq.n	10002644 <clock_configure_undivided+0xcc>
1000264c:	e7c4      	b.n	100025d8 <clock_configure_undivided+0x60>
1000264e:	bf00      	nop
10002650:	20001a30 	.word	0x20001a30

10002654 <clock_get_hz>:
10002654:	4b01      	ldr	r3, [pc, #4]	@ (1000265c <clock_get_hz+0x8>)
10002656:	f853 0020 	ldr.w	r0, [r3, r0, lsl #2]
1000265a:	4770      	bx	lr
1000265c:	20001a30 	.word	0x20001a30

10002660 <panic>:
10002660:	b40f      	push	{r0, r1, r2, r3}
10002662:	b500      	push	{lr}
10002664:	4808      	ldr	r0, [pc, #32]	@ (10002688 <panic+0x28>)
10002666:	b083      	sub	sp, #12
10002668:	f001 fc2c 	bl	10003ec4 <__wrap_puts>
1000266c:	9b04      	ldr	r3, [sp, #16]
1000266e:	b13b      	cbz	r3, 10002680 <panic+0x20>
10002670:	a905      	add	r1, sp, #20
10002672:	4618      	mov	r0, r3
10002674:	9101      	str	r1, [sp, #4]
10002676:	f001 fac3 	bl	10003c00 <weak_raw_vprintf>
1000267a:	4804      	ldr	r0, [pc, #16]	@ (1000268c <panic+0x2c>)
1000267c:	f001 fc22 	bl	10003ec4 <__wrap_puts>
10002680:	2001      	movs	r0, #1
10002682:	f001 fad5 	bl	10003c30 <_exit>
10002686:	bf00      	nop
10002688:	100067f4 	.word	0x100067f4
1000268c:	10006804 	.word	0x10006804

10002690 <hw_claim_lock>:
10002690:	f3ef 8010 	mrs	r0, PRIMASK
10002694:	b672      	cpsid	i
10002696:	4b06      	ldr	r3, [pc, #24]	@ (100026b0 <hw_claim_lock+0x20>)
10002698:	e8d3 1fcf 	ldaexb	r1, [r3]
1000269c:	2201      	movs	r2, #1
1000269e:	2900      	cmp	r1, #0
100026a0:	d1fa      	bne.n	10002698 <hw_claim_lock+0x8>
100026a2:	e8c3 2f41 	strexb	r1, r2, [r3]
100026a6:	2900      	cmp	r1, #0
100026a8:	d1f6      	bne.n	10002698 <hw_claim_lock+0x8>
100026aa:	f3bf 8f5f 	dmb	sy
100026ae:	4770      	bx	lr
100026b0:	20001617 	.word	0x20001617

100026b4 <hw_claim_unlock>:
100026b4:	2300      	movs	r3, #0
100026b6:	4a03      	ldr	r2, [pc, #12]	@ (100026c4 <hw_claim_unlock+0x10>)
100026b8:	e8c2 3f8f 	stlb	r3, [r2]
100026bc:	f380 8810 	msr	PRIMASK, r0
100026c0:	4770      	bx	lr
100026c2:	bf00      	nop
100026c4:	20001617 	.word	0x20001617

100026c8 <hw_claim_or_assert>:
100026c8:	b570      	push	{r4, r5, r6, lr}
100026ca:	4616      	mov	r6, r2
100026cc:	f3ef 8410 	mrs	r4, PRIMASK
100026d0:	b672      	cpsid	i
100026d2:	f8df e048 	ldr.w	lr, [pc, #72]	@ 1000271c <hw_claim_or_assert+0x54>
100026d6:	e8de 2fcf 	ldaexb	r2, [lr]
100026da:	2301      	movs	r3, #1
100026dc:	2a00      	cmp	r2, #0
100026de:	d1fa      	bne.n	100026d6 <hw_claim_or_assert+0xe>
100026e0:	e8ce 3f42 	strexb	r2, r3, [lr]
100026e4:	2a00      	cmp	r2, #0
100026e6:	d1f6      	bne.n	100026d6 <hw_claim_or_assert+0xe>
100026e8:	f3bf 8f5f 	dmb	sy
100026ec:	2301      	movs	r3, #1
100026ee:	f001 0c07 	and.w	ip, r1, #7
100026f2:	08ca      	lsrs	r2, r1, #3
100026f4:	fa03 f30c 	lsl.w	r3, r3, ip
100026f8:	f810 c002 	ldrb.w	ip, [r0, r2]
100026fc:	ea1c 0503 	ands.w	r5, ip, r3
10002700:	d108      	bne.n	10002714 <hw_claim_or_assert+0x4c>
10002702:	ea4c 0c03 	orr.w	ip, ip, r3
10002706:	f800 c002 	strb.w	ip, [r0, r2]
1000270a:	e8ce 5f8f 	stlb	r5, [lr]
1000270e:	f384 8810 	msr	PRIMASK, r4
10002712:	bd70      	pop	{r4, r5, r6, pc}
10002714:	4630      	mov	r0, r6
10002716:	f7ff ffa3 	bl	10002660 <panic>
1000271a:	bf00      	nop
1000271c:	20001617 	.word	0x20001617

10002720 <hw_claim_unused_from_range>:
10002720:	b5f8      	push	{r3, r4, r5, r6, r7, lr}
10002722:	460f      	mov	r7, r1
10002724:	4619      	mov	r1, r3
10002726:	f3ef 8610 	mrs	r6, PRIMASK
1000272a:	b672      	cpsid	i
1000272c:	4d1c      	ldr	r5, [pc, #112]	@ (100027a0 <hw_claim_unused_from_range+0x80>)
1000272e:	e8d5 4fcf 	ldaexb	r4, [r5]
10002732:	2301      	movs	r3, #1
10002734:	2c00      	cmp	r4, #0
10002736:	d1fa      	bne.n	1000272e <hw_claim_unused_from_range+0xe>
10002738:	e8c5 3f44 	strexb	r4, r3, [r5]
1000273c:	2c00      	cmp	r4, #0
1000273e:	d1f6      	bne.n	1000272e <hw_claim_unused_from_range+0xe>
10002740:	f3bf 8f5f 	dmb	sy
10002744:	428a      	cmp	r2, r1
10002746:	d81b      	bhi.n	10002780 <hw_claim_unused_from_range+0x60>
10002748:	2401      	movs	r4, #1
1000274a:	e002      	b.n	10002752 <hw_claim_unused_from_range+0x32>
1000274c:	3201      	adds	r2, #1
1000274e:	4291      	cmp	r1, r2
10002750:	d322      	bcc.n	10002798 <hw_claim_unused_from_range+0x78>
10002752:	08d3      	lsrs	r3, r2, #3
10002754:	f810 e003 	ldrb.w	lr, [r0, r3]
10002758:	f002 0c07 	and.w	ip, r2, #7
1000275c:	fa04 fc0c 	lsl.w	ip, r4, ip
10002760:	ea1e 0f0c 	tst.w	lr, ip
10002764:	d1f2      	bne.n	1000274c <hw_claim_unused_from_range+0x2c>
10002766:	ea4e 0e0c 	orr.w	lr, lr, ip
1000276a:	f800 e003 	strb.w	lr, [r0, r3]
1000276e:	4610      	mov	r0, r2
10002770:	2300      	movs	r3, #0
10002772:	e8c5 3f8f 	stlb	r3, [r5]
10002776:	f386 8810 	msr	PRIMASK, r6
1000277a:	4298      	cmp	r0, r3
1000277c:	db07      	blt.n	1000278e <hw_claim_unused_from_range+0x6e>
1000277e:	bdf8      	pop	{r3, r4, r5, r6, r7, pc}
10002780:	2300      	movs	r3, #0
10002782:	e8c5 3f8f 	stlb	r3, [r5]
10002786:	f386 8810 	msr	PRIMASK, r6
1000278a:	f04f 30ff 	mov.w	r0, #4294967295
1000278e:	2f00      	cmp	r7, #0
10002790:	d0f5      	beq.n	1000277e <hw_claim_unused_from_range+0x5e>
10002792:	9806      	ldr	r0, [sp, #24]
10002794:	f7ff ff64 	bl	10002660 <panic>
10002798:	f04f 30ff 	mov.w	r0, #4294967295
1000279c:	e7e8      	b.n	10002770 <hw_claim_unused_from_range+0x50>
1000279e:	bf00      	nop
100027a0:	20001617 	.word	0x20001617

100027a4 <next_striped_spin_lock_num>:
100027a4:	4a04      	ldr	r2, [pc, #16]	@ (100027b8 <next_striped_spin_lock_num+0x14>)
100027a6:	7810      	ldrb	r0, [r2, #0]
100027a8:	1c43      	adds	r3, r0, #1
100027aa:	b2db      	uxtb	r3, r3
100027ac:	2b18      	cmp	r3, #24
100027ae:	bf28      	it	cs
100027b0:	2310      	movcs	r3, #16
100027b2:	7013      	strb	r3, [r2, #0]
100027b4:	4770      	bx	lr
100027b6:	bf00      	nop
100027b8:	200011f0 	.word	0x200011f0

100027bc <spin_lock_claim_unused>:
100027bc:	b500      	push	{lr}
100027be:	f8df c01c 	ldr.w	ip, [pc, #28]	@ 100027dc <spin_lock_claim_unused+0x20>
100027c2:	b083      	sub	sp, #12
100027c4:	4601      	mov	r1, r0
100027c6:	231f      	movs	r3, #31
100027c8:	2218      	movs	r2, #24
100027ca:	f8cd c000 	str.w	ip, [sp]
100027ce:	4802      	ldr	r0, [pc, #8]	@ (100027d8 <spin_lock_claim_unused+0x1c>)
100027d0:	f7ff ffa6 	bl	10002720 <hw_claim_unused_from_range>
100027d4:	b003      	add	sp, #12
100027d6:	bd00      	pop	{pc}
100027d8:	20001a28 	.word	0x20001a28
100027dc:	10006808 	.word	0x10006808

100027e0 <spinlock_set_extexclall>:
100027e0:	f04f 22e0 	mov.w	r2, #3758153728	@ 0xe000e000
100027e4:	6893      	ldr	r3, [r2, #8]
100027e6:	f043 5300 	orr.w	r3, r3, #536870912	@ 0x20000000
100027ea:	6093      	str	r3, [r2, #8]
100027ec:	4770      	bx	lr
100027ee:	bf00      	nop

100027f0 <spin_locks_reset>:
100027f0:	2100      	movs	r1, #0
100027f2:	4b04      	ldr	r3, [pc, #16]	@ (10002804 <spin_locks_reset+0x14>)
100027f4:	f103 0220 	add.w	r2, r3, #32
100027f8:	e8c3 1f8f 	stlb	r1, [r3]
100027fc:	3301      	adds	r3, #1
100027fe:	4293      	cmp	r3, r2
10002800:	d1fa      	bne.n	100027f8 <spin_locks_reset+0x8>
10002802:	4770      	bx	lr
10002804:	2000160c 	.word	0x2000160c

10002808 <runtime_init_per_core_irq_priorities>:
10002808:	f04f 23e0 	mov.w	r3, #3758153728	@ 0xe000e000
1000280c:	f04f 3280 	mov.w	r2, #2155905152	@ 0x80808080
10002810:	f8c3 2400 	str.w	r2, [r3, #1024]	@ 0x400
10002814:	f8c3 2404 	str.w	r2, [r3, #1028]	@ 0x404
10002818:	f8c3 2408 	str.w	r2, [r3, #1032]	@ 0x408
1000281c:	f8c3 240c 	str.w	r2, [r3, #1036]	@ 0x40c
10002820:	f8c3 2410 	str.w	r2, [r3, #1040]	@ 0x410
10002824:	f8c3 2414 	str.w	r2, [r3, #1044]	@ 0x414
10002828:	f8c3 2418 	str.w	r2, [r3, #1048]	@ 0x418
1000282c:	f8c3 241c 	str.w	r2, [r3, #1052]	@ 0x41c
10002830:	f8c3 2420 	str.w	r2, [r3, #1056]	@ 0x420
10002834:	f8c3 2424 	str.w	r2, [r3, #1060]	@ 0x424
10002838:	f8c3 2428 	str.w	r2, [r3, #1064]	@ 0x428
1000283c:	f8c3 242c 	str.w	r2, [r3, #1068]	@ 0x42c
10002840:	f8c3 2430 	str.w	r2, [r3, #1072]	@ 0x430
10002844:	b662      	cpsie	i
10002846:	4770      	bx	lr

10002848 <irq_set_enabled>:
10002848:	2301      	movs	r3, #1
1000284a:	f000 021f 	and.w	r2, r0, #31
1000284e:	4093      	lsls	r3, r2
10002850:	0940      	lsrs	r0, r0, #5
10002852:	b141      	cbz	r1, 10002866 <irq_set_enabled+0x1e>
10002854:	0080      	lsls	r0, r0, #2
10002856:	f100 4060 	add.w	r0, r0, #3758096384	@ 0xe0000000
1000285a:	f500 4061 	add.w	r0, r0, #57600	@ 0xe100
1000285e:	f8c0 3180 	str.w	r3, [r0, #384]	@ 0x180
10002862:	6003      	str	r3, [r0, #0]
10002864:	4770      	bx	lr
10002866:	4a02      	ldr	r2, [pc, #8]	@ (10002870 <irq_set_enabled+0x28>)
10002868:	3020      	adds	r0, #32
1000286a:	f842 3020 	str.w	r3, [r2, r0, lsl #2]
1000286e:	4770      	bx	lr
10002870:	e000e100 	.word	0xe000e100

10002874 <irq_is_enabled>:
10002874:	2301      	movs	r3, #1
10002876:	4a06      	ldr	r2, [pc, #24]	@ (10002890 <irq_is_enabled+0x1c>)
10002878:	0941      	lsrs	r1, r0, #5
1000287a:	f852 2021 	ldr.w	r2, [r2, r1, lsl #2]
1000287e:	f000 001f 	and.w	r0, r0, #31
10002882:	4083      	lsls	r3, r0
10002884:	4213      	tst	r3, r2
10002886:	bf14      	ite	ne
10002888:	2001      	movne	r0, #1
1000288a:	2000      	moveq	r0, #0
1000288c:	4770      	bx	lr
1000288e:	bf00      	nop
10002890:	e000e100 	.word	0xe000e100

10002894 <irq_set_pending>:
10002894:	2201      	movs	r2, #1
10002896:	0943      	lsrs	r3, r0, #5
10002898:	4903      	ldr	r1, [pc, #12]	@ (100028a8 <irq_set_pending+0x14>)
1000289a:	f000 001f 	and.w	r0, r0, #31
1000289e:	4082      	lsls	r2, r0
100028a0:	3340      	adds	r3, #64	@ 0x40
100028a2:	f841 2023 	str.w	r2, [r1, r3, lsl #2]
100028a6:	4770      	bx	lr
100028a8:	e000e100 	.word	0xe000e100

100028ac <irq_has_shared_handler>:
100028ac:	4a05      	ldr	r2, [pc, #20]	@ (100028c4 <irq_has_shared_handler+0x18>)
100028ae:	3010      	adds	r0, #16
100028b0:	6892      	ldr	r2, [r2, #8]
100028b2:	4b05      	ldr	r3, [pc, #20]	@ (100028c8 <irq_has_shared_handler+0x1c>)
100028b4:	f852 0020 	ldr.w	r0, [r2, r0, lsl #2]
100028b8:	1ac0      	subs	r0, r0, r3
100028ba:	282f      	cmp	r0, #47	@ 0x2f
100028bc:	bf8c      	ite	hi
100028be:	2000      	movhi	r0, #0
100028c0:	2001      	movls	r0, #1
100028c2:	4770      	bx	lr
100028c4:	e000ed00 	.word	0xe000ed00
100028c8:	200011f4 	.word	0x200011f4

100028cc <irq_set_exclusive_handler>:
100028cc:	b510      	push	{r4, lr}
100028ce:	b082      	sub	sp, #8
100028d0:	f3ef 8410 	mrs	r4, PRIMASK
100028d4:	b672      	cpsid	i
100028d6:	4b16      	ldr	r3, [pc, #88]	@ (10002930 <irq_set_exclusive_handler+0x64>)
100028d8:	e8d3 cfcf 	ldaexb	ip, [r3]
100028dc:	2201      	movs	r2, #1
100028de:	f1bc 0f00 	cmp.w	ip, #0
100028e2:	d1f9      	bne.n	100028d8 <irq_set_exclusive_handler+0xc>
100028e4:	e8c3 2f4c 	strexb	ip, r2, [r3]
100028e8:	f1bc 0f00 	cmp.w	ip, #0
100028ec:	d1f4      	bne.n	100028d8 <irq_set_exclusive_handler+0xc>
100028ee:	f3bf 8f5f 	dmb	sy
100028f2:	4a10      	ldr	r2, [pc, #64]	@ (10002934 <irq_set_exclusive_handler+0x68>)
100028f4:	3010      	adds	r0, #16
100028f6:	6892      	ldr	r2, [r2, #8]
100028f8:	f8df c03c 	ldr.w	ip, [pc, #60]	@ 10002938 <irq_set_exclusive_handler+0x6c>
100028fc:	f852 2020 	ldr.w	r2, [r2, r0, lsl #2]
10002900:	4562      	cmp	r2, ip
10002902:	d008      	beq.n	10002916 <irq_set_exclusive_handler+0x4a>
10002904:	4291      	cmp	r1, r2
10002906:	d006      	beq.n	10002916 <irq_set_exclusive_handler+0x4a>
10002908:	e9cd 0100 	strd	r0, r1, [sp]
1000290c:	f001 f862 	bl	100039d4 <hard_assertion_failure>
10002910:	9901      	ldr	r1, [sp, #4]
10002912:	4b07      	ldr	r3, [pc, #28]	@ (10002930 <irq_set_exclusive_handler+0x64>)
10002914:	9800      	ldr	r0, [sp, #0]
10002916:	4a07      	ldr	r2, [pc, #28]	@ (10002934 <irq_set_exclusive_handler+0x68>)
10002918:	6892      	ldr	r2, [r2, #8]
1000291a:	f842 1020 	str.w	r1, [r2, r0, lsl #2]
1000291e:	f3bf 8f5f 	dmb	sy
10002922:	2200      	movs	r2, #0
10002924:	e8c3 2f8f 	stlb	r2, [r3]
10002928:	f384 8810 	msr	PRIMASK, r4
1000292c:	b002      	add	sp, #8
1000292e:	bd10      	pop	{r4, pc}
10002930:	20001615 	.word	0x20001615
10002934:	e000ed00 	.word	0xe000ed00
10002938:	10000111 	.word	0x10000111

1000293c <irq_add_shared_handler>:
1000293c:	e92d 4ff0 	stmdb	sp!, {r4, r5, r6, r7, r8, r9, sl, fp, lr}
10002940:	4606      	mov	r6, r0
10002942:	468a      	mov	sl, r1
10002944:	4615      	mov	r5, r2
10002946:	b083      	sub	sp, #12
10002948:	f3ef 8810 	mrs	r8, PRIMASK
1000294c:	b672      	cpsid	i
1000294e:	4f71      	ldr	r7, [pc, #452]	@ (10002b14 <irq_add_shared_handler+0x1d8>)
10002950:	e8d7 2fcf 	ldaexb	r2, [r7]
10002954:	2301      	movs	r3, #1
10002956:	2a00      	cmp	r2, #0
10002958:	d1fa      	bne.n	10002950 <irq_add_shared_handler+0x14>
1000295a:	e8c7 3f42 	strexb	r2, r3, [r7]
1000295e:	2a00      	cmp	r2, #0
10002960:	d1f6      	bne.n	10002950 <irq_add_shared_handler+0x14>
10002962:	f3bf 8f5f 	dmb	sy
10002966:	496c      	ldr	r1, [pc, #432]	@ (10002b18 <irq_add_shared_handler+0x1dc>)
10002968:	f991 2000 	ldrsb.w	r2, [r1]
1000296c:	2a00      	cmp	r2, #0
1000296e:	db7b      	blt.n	10002a68 <irq_add_shared_handler+0x12c>
10002970:	486a      	ldr	r0, [pc, #424]	@ (10002b1c <irq_add_shared_handler+0x1e0>)
10002972:	eb02 0442 	add.w	r4, r2, r2, lsl #1
10002976:	eb00 0384 	add.w	r3, r0, r4, lsl #2
1000297a:	f893 c006 	ldrb.w	ip, [r3, #6]
1000297e:	3610      	adds	r6, #16
10002980:	f881 c000 	strb.w	ip, [r1]
10002984:	4966      	ldr	r1, [pc, #408]	@ (10002b20 <irq_add_shared_handler+0x1e4>)
10002986:	00a4      	lsls	r4, r4, #2
10002988:	6889      	ldr	r1, [r1, #8]
1000298a:	ea4f 0b42 	mov.w	fp, r2, lsl #1
1000298e:	f851 e026 	ldr.w	lr, [r1, r6, lsl #2]
10002992:	ebae 0100 	sub.w	r1, lr, r0
10002996:	292f      	cmp	r1, #47	@ 0x2f
10002998:	d92e      	bls.n	100029f8 <irq_add_shared_handler+0xbc>
1000299a:	4962      	ldr	r1, [pc, #392]	@ (10002b24 <irq_add_shared_handler+0x1e8>)
1000299c:	458e      	cmp	lr, r1
1000299e:	f040 8084 	bne.w	10002aaa <irq_add_shared_handler+0x16e>
100029a2:	f043 0e01 	orr.w	lr, r3, #1
100029a6:	4b60      	ldr	r3, [pc, #384]	@ (10002b28 <irq_add_shared_handler+0x1ec>)
100029a8:	3402      	adds	r4, #2
100029aa:	4404      	add	r4, r0
100029ac:	3b04      	subs	r3, #4
100029ae:	1b1b      	subs	r3, r3, r4
100029b0:	f3c3 034a 	ubfx	r3, r3, #1, #11
100029b4:	ea6f 43c3 	mvn.w	r3, r3, lsl #19
100029b8:	f44f 4121 	mov.w	r1, #41216	@ 0xa100
100029bc:	ea6f 43d3 	mvn.w	r3, r3, lsr #19
100029c0:	445a      	add	r2, fp
100029c2:	f820 1022 	strh.w	r1, [r0, r2, lsl #2]
100029c6:	eb00 0282 	add.w	r2, r0, r2, lsl #2
100029ca:	8053      	strh	r3, [r2, #2]
100029cc:	f64b 5301 	movw	r3, #48385	@ 0xbd01
100029d0:	8093      	strh	r3, [r2, #4]
100029d2:	23ff      	movs	r3, #255	@ 0xff
100029d4:	71d5      	strb	r5, [r2, #7]
100029d6:	f8c2 a008 	str.w	sl, [r2, #8]
100029da:	7193      	strb	r3, [r2, #6]
100029dc:	4b50      	ldr	r3, [pc, #320]	@ (10002b20 <irq_add_shared_handler+0x1e4>)
100029de:	689b      	ldr	r3, [r3, #8]
100029e0:	f843 e026 	str.w	lr, [r3, r6, lsl #2]
100029e4:	f3bf 8f5f 	dmb	sy
100029e8:	2300      	movs	r3, #0
100029ea:	e8c7 3f8f 	stlb	r3, [r7]
100029ee:	f388 8810 	msr	PRIMASK, r8
100029f2:	b003      	add	sp, #12
100029f4:	e8bd 8ff0 	ldmia.w	sp!, {r4, r5, r6, r7, r8, r9, sl, fp, pc}
100029f8:	f02e 0c01 	bic.w	ip, lr, #1
100029fc:	f89c 1007 	ldrb.w	r1, [ip, #7]
10002a00:	42a9      	cmp	r1, r5
10002a02:	d95a      	bls.n	10002aba <irq_add_shared_handler+0x17e>
10002a04:	46b1      	mov	r9, r6
10002a06:	9401      	str	r4, [sp, #4]
10002a08:	461e      	mov	r6, r3
10002a0a:	e003      	b.n	10002a14 <irq_add_shared_handler+0xd8>
10002a0c:	79cb      	ldrb	r3, [r1, #7]
10002a0e:	42ab      	cmp	r3, r5
10002a10:	d930      	bls.n	10002a74 <irq_add_shared_handler+0x138>
10002a12:	468c      	mov	ip, r1
10002a14:	f99c 4006 	ldrsb.w	r4, [ip, #6]
10002a18:	eb04 0144 	add.w	r1, r4, r4, lsl #1
10002a1c:	2c00      	cmp	r4, #0
10002a1e:	eb00 0181 	add.w	r1, r0, r1, lsl #2
10002a22:	daf3      	bge.n	10002a0c <irq_add_shared_handler+0xd0>
10002a24:	9400      	str	r4, [sp, #0]
10002a26:	f64b 5401 	movw	r4, #48385	@ 0xbd01
10002a2a:	4633      	mov	r3, r6
10002a2c:	464e      	mov	r6, r9
10002a2e:	f10c 0904 	add.w	r9, ip, #4
10002a32:	3b04      	subs	r3, #4
10002a34:	eba3 0309 	sub.w	r3, r3, r9
10002a38:	f3c3 034a 	ubfx	r3, r3, #1, #11
10002a3c:	ea6f 43c3 	mvn.w	r3, r3, lsl #19
10002a40:	ea6f 43d3 	mvn.w	r3, r3, lsr #19
10002a44:	f8ac 3004 	strh.w	r3, [ip, #4]
10002a48:	4b38      	ldr	r3, [pc, #224]	@ (10002b2c <irq_add_shared_handler+0x1f0>)
10002a4a:	eb0b 0102 	add.w	r1, fp, r2
10002a4e:	f88c 2006 	strb.w	r2, [ip, #6]
10002a52:	f840 3021 	str.w	r3, [r0, r1, lsl #2]
10002a56:	9b00      	ldr	r3, [sp, #0]
10002a58:	eb00 0281 	add.w	r2, r0, r1, lsl #2
10002a5c:	8094      	strh	r4, [r2, #4]
10002a5e:	7193      	strb	r3, [r2, #6]
10002a60:	71d5      	strb	r5, [r2, #7]
10002a62:	f8c2 a008 	str.w	sl, [r2, #8]
10002a66:	e7b9      	b.n	100029dc <irq_add_shared_handler+0xa0>
10002a68:	f000 ffb4 	bl	100039d4 <hard_assertion_failure>
10002a6c:	492a      	ldr	r1, [pc, #168]	@ (10002b18 <irq_add_shared_handler+0x1dc>)
10002a6e:	f991 2000 	ldrsb.w	r2, [r1]
10002a72:	e77d      	b.n	10002970 <irq_add_shared_handler+0x34>
10002a74:	f06f 0107 	mvn.w	r1, #7
10002a78:	9400      	str	r4, [sp, #0]
10002a7a:	9c01      	ldr	r4, [sp, #4]
10002a7c:	4633      	mov	r3, r6
10002a7e:	1b0c      	subs	r4, r1, r4
10002a80:	4661      	mov	r1, ip
10002a82:	1a24      	subs	r4, r4, r0
10002a84:	9401      	str	r4, [sp, #4]
10002a86:	f831 4f04 	ldrh.w	r4, [r1, #4]!
10002a8a:	464e      	mov	r6, r9
10002a8c:	f344 040a 	sbfx	r4, r4, #0, #11
10002a90:	3402      	adds	r4, #2
10002a92:	eb01 0444 	add.w	r4, r1, r4, lsl #1
10002a96:	4689      	mov	r9, r1
10002a98:	9901      	ldr	r1, [sp, #4]
10002a9a:	440c      	add	r4, r1
10002a9c:	f3c4 044a 	ubfx	r4, r4, #1, #11
10002aa0:	ea6f 44c4 	mvn.w	r4, r4, lsl #19
10002aa4:	ea6f 44d4 	mvn.w	r4, r4, lsr #19
10002aa8:	e7c3      	b.n	10002a32 <irq_add_shared_handler+0xf6>
10002aaa:	e9cd 2300 	strd	r2, r3, [sp]
10002aae:	f000 ff91 	bl	100039d4 <hard_assertion_failure>
10002ab2:	e9dd 2300 	ldrd	r2, r3, [sp]
10002ab6:	4819      	ldr	r0, [pc, #100]	@ (10002b1c <irq_add_shared_handler+0x1e0>)
10002ab8:	e773      	b.n	100029a2 <irq_add_shared_handler+0x66>
10002aba:	4a1b      	ldr	r2, [pc, #108]	@ (10002b28 <irq_add_shared_handler+0x1ec>)
10002abc:	1ca1      	adds	r1, r4, #2
10002abe:	71dd      	strb	r5, [r3, #7]
10002ac0:	4401      	add	r1, r0
10002ac2:	3a04      	subs	r2, #4
10002ac4:	1d25      	adds	r5, r4, #4
10002ac6:	1a52      	subs	r2, r2, r1
10002ac8:	4405      	add	r5, r0
10002aca:	f1ac 0104 	sub.w	r1, ip, #4
10002ace:	1b49      	subs	r1, r1, r5
10002ad0:	f3c1 014a 	ubfx	r1, r1, #1, #11
10002ad4:	ea6f 41c1 	mvn.w	r1, r1, lsl #19
10002ad8:	f3c2 024a 	ubfx	r2, r2, #1, #11
10002adc:	ea6f 42c2 	mvn.w	r2, r2, lsl #19
10002ae0:	ea6f 41d1 	mvn.w	r1, r1, lsr #19
10002ae4:	f44f 4e21 	mov.w	lr, #41216	@ 0xa100
10002ae8:	ea6f 42d2 	mvn.w	r2, r2, lsr #19
10002aec:	8099      	strh	r1, [r3, #4]
10002aee:	490f      	ldr	r1, [pc, #60]	@ (10002b2c <irq_add_shared_handler+0x1f0>)
10002af0:	f820 e004 	strh.w	lr, [r0, r4]
10002af4:	805a      	strh	r2, [r3, #2]
10002af6:	f64a 25aa 	movw	r5, #43690	@ 0xaaaa
10002afa:	4662      	mov	r2, ip
10002afc:	1a12      	subs	r2, r2, r0
10002afe:	4152      	adcs	r2, r2
10002b00:	4355      	muls	r5, r2
10002b02:	0d2d      	lsrs	r5, r5, #20
10002b04:	f8c3 a008 	str.w	sl, [r3, #8]
10002b08:	719d      	strb	r5, [r3, #6]
10002b0a:	f043 0e01 	orr.w	lr, r3, #1
10002b0e:	f8cc 1000 	str.w	r1, [ip]
10002b12:	e763      	b.n	100029dc <irq_add_shared_handler+0xa0>
10002b14:	20001615 	.word	0x20001615
10002b18:	2002228f 	.word	0x2002228f
10002b1c:	200011f4 	.word	0x200011f4
10002b20:	e000ed00 	.word	0xe000ed00
10002b24:	10000111 	.word	0x10000111
10002b28:	20001224 	.word	0x20001224
10002b2c:	47804801 	.word	0x47804801

10002b30 <irq_set_priority>:
10002b30:	f04f 0cff 	mov.w	ip, #255	@ 0xff
10002b34:	f020 0303 	bic.w	r3, r0, #3
10002b38:	f103 4360 	add.w	r3, r3, #3758096384	@ 0xe0000000
10002b3c:	f503 4364 	add.w	r3, r3, #58368	@ 0xe400
10002b40:	f000 0003 	and.w	r0, r0, #3
10002b44:	681a      	ldr	r2, [r3, #0]
10002b46:	00c0      	lsls	r0, r0, #3
10002b48:	fa0c fc00 	lsl.w	ip, ip, r0
10002b4c:	ea22 020c 	bic.w	r2, r2, ip
10002b50:	4081      	lsls	r1, r0
10002b52:	430a      	orrs	r2, r1
10002b54:	601a      	str	r2, [r3, #0]
10002b56:	4770      	bx	lr

10002b58 <irq_add_tail_to_free_list>:
10002b58:	e92d 41f0 	stmdb	sp!, {r4, r5, r6, r7, r8, lr}
10002b5c:	f3ef 8305 	mrs	r3, IPSR
10002b60:	b2db      	uxtb	r3, r3
10002b62:	469e      	mov	lr, r3
10002b64:	f3ef 8510 	mrs	r5, PRIMASK
10002b68:	b672      	cpsid	i
10002b6a:	4929      	ldr	r1, [pc, #164]	@ (10002c10 <irq_add_tail_to_free_list+0xb8>)
10002b6c:	e8d1 2fcf 	ldaexb	r2, [r1]
10002b70:	2301      	movs	r3, #1
10002b72:	2a00      	cmp	r2, #0
10002b74:	d1fa      	bne.n	10002b6c <irq_add_tail_to_free_list+0x14>
10002b76:	e8c1 3f42 	strexb	r2, r3, [r1]
10002b7a:	2a00      	cmp	r2, #0
10002b7c:	d1f6      	bne.n	10002b6c <irq_add_tail_to_free_list+0x14>
10002b7e:	f3bf 8f5f 	dmb	sy
10002b82:	f8df 809c 	ldr.w	r8, [pc, #156]	@ 10002c20 <irq_add_tail_to_free_list+0xc8>
10002b86:	f040 0601 	orr.w	r6, r0, #1
10002b8a:	f8d8 7008 	ldr.w	r7, [r8, #8]
10002b8e:	f64a 23aa 	movw	r3, #43690	@ 0xaaaa
10002b92:	f857 702e 	ldr.w	r7, [r7, lr, lsl #2]
10002b96:	4604      	mov	r4, r0
10002b98:	4a1e      	ldr	r2, [pc, #120]	@ (10002c14 <irq_add_tail_to_free_list+0xbc>)
10002b9a:	1aa4      	subs	r4, r4, r2
10002b9c:	4164      	adcs	r4, r4
10002b9e:	4363      	muls	r3, r4
10002ba0:	0d1b      	lsrs	r3, r3, #20
10002ba2:	42b7      	cmp	r7, r6
10002ba4:	b25b      	sxtb	r3, r3
10002ba6:	d01e      	beq.n	10002be6 <irq_add_tail_to_free_list+0x8e>
10002ba8:	f992 4006 	ldrsb.w	r4, [r2, #6]
10002bac:	429c      	cmp	r4, r3
10002bae:	d020      	beq.n	10002bf2 <irq_add_tail_to_free_list+0x9a>
10002bb0:	f992 4012 	ldrsb.w	r4, [r2, #18]
10002bb4:	429c      	cmp	r4, r3
10002bb6:	d027      	beq.n	10002c08 <irq_add_tail_to_free_list+0xb0>
10002bb8:	f992 401e 	ldrsb.w	r4, [r2, #30]
10002bbc:	429c      	cmp	r4, r3
10002bbe:	d025      	beq.n	10002c0c <irq_add_tail_to_free_list+0xb4>
10002bc0:	f992 402a 	ldrsb.w	r4, [r2, #42]	@ 0x2a
10002bc4:	429c      	cmp	r4, r3
10002bc6:	bf08      	it	eq
10002bc8:	2403      	moveq	r4, #3
10002bca:	d013      	beq.n	10002bf4 <irq_add_tail_to_free_list+0x9c>
10002bcc:	4a12      	ldr	r2, [pc, #72]	@ (10002c18 <irq_add_tail_to_free_list+0xc0>)
10002bce:	2400      	movs	r4, #0
10002bd0:	f892 c000 	ldrb.w	ip, [r2]
10002bd4:	7013      	strb	r3, [r2, #0]
10002bd6:	f880 c006 	strb.w	ip, [r0, #6]
10002bda:	e8c1 4f8f 	stlb	r4, [r1]
10002bde:	f385 8810 	msr	PRIMASK, r5
10002be2:	e8bd 81f0 	ldmia.w	sp!, {r4, r5, r6, r7, r8, pc}
10002be6:	f8d8 2008 	ldr.w	r2, [r8, #8]
10002bea:	4c0c      	ldr	r4, [pc, #48]	@ (10002c1c <irq_add_tail_to_free_list+0xc4>)
10002bec:	f842 402e 	str.w	r4, [r2, lr, lsl #2]
10002bf0:	e7ec      	b.n	10002bcc <irq_add_tail_to_free_list+0x74>
10002bf2:	2400      	movs	r4, #0
10002bf4:	eb04 0444 	add.w	r4, r4, r4, lsl #1
10002bf8:	eb02 0284 	add.w	r2, r2, r4, lsl #2
10002bfc:	24ff      	movs	r4, #255	@ 0xff
10002bfe:	7194      	strb	r4, [r2, #6]
10002c00:	f64b 5401 	movw	r4, #48385	@ 0xbd01
10002c04:	8094      	strh	r4, [r2, #4]
10002c06:	e7e1      	b.n	10002bcc <irq_add_tail_to_free_list+0x74>
10002c08:	2401      	movs	r4, #1
10002c0a:	e7f3      	b.n	10002bf4 <irq_add_tail_to_free_list+0x9c>
10002c0c:	2402      	movs	r4, #2
10002c0e:	e7f1      	b.n	10002bf4 <irq_add_tail_to_free_list+0x9c>
10002c10:	20001615 	.word	0x20001615
10002c14:	200011f4 	.word	0x200011f4
10002c18:	2002228f 	.word	0x2002228f
10002c1c:	10000111 	.word	0x10000111
10002c20:	e000ed00 	.word	0xe000ed00

10002c24 <user_irq_claim_unused>:
10002c24:	b500      	push	{lr}
10002c26:	f8df c024 	ldr.w	ip, [pc, #36]	@ 10002c4c <user_irq_claim_unused+0x28>
10002c2a:	b083      	sub	sp, #12
10002c2c:	4601      	mov	r1, r0
10002c2e:	2305      	movs	r3, #5
10002c30:	2200      	movs	r2, #0
10002c32:	f8cd c000 	str.w	ip, [sp]
10002c36:	4804      	ldr	r0, [pc, #16]	@ (10002c48 <user_irq_claim_unused+0x24>)
10002c38:	f7ff fd72 	bl	10002720 <hw_claim_unused_from_range>
10002c3c:	2800      	cmp	r0, #0
10002c3e:	bfa8      	it	ge
10002c40:	f1c0 0033 	rsbge	r0, r0, #51	@ 0x33
10002c44:	b003      	add	sp, #12
10002c46:	bd00      	pop	{pc}
10002c48:	20022293 	.word	0x20022293
10002c4c:	10006824 	.word	0x10006824

10002c50 <lock_init>:
10002c50:	4b01      	ldr	r3, [pc, #4]	@ (10002c58 <lock_init+0x8>)
10002c52:	440b      	add	r3, r1
10002c54:	6003      	str	r3, [r0, #0]
10002c56:	4770      	bx	lr
10002c58:	2000160c 	.word	0x2000160c

10002c5c <runtime_init_mutex>:
10002c5c:	b5f8      	push	{r3, r4, r5, r6, r7, lr}
10002c5e:	4c12      	ldr	r4, [pc, #72]	@ (10002ca8 <runtime_init_mutex+0x4c>)
10002c60:	4d12      	ldr	r5, [pc, #72]	@ (10002cac <runtime_init_mutex+0x50>)
10002c62:	42ac      	cmp	r4, r5
10002c64:	d211      	bcs.n	10002c8a <runtime_init_mutex+0x2e>
10002c66:	f04f 36ff 	mov.w	r6, #4294967295
10002c6a:	2700      	movs	r7, #0
10002c6c:	6823      	ldr	r3, [r4, #0]
10002c6e:	b16b      	cbz	r3, 10002c8c <runtime_init_mutex+0x30>
10002c70:	f7ff fd98 	bl	100027a4 <next_striped_spin_lock_num>
10002c74:	4601      	mov	r1, r0
10002c76:	4620      	mov	r0, r4
10002c78:	f7ff ffea 	bl	10002c50 <lock_init>
10002c7c:	6066      	str	r6, [r4, #4]
10002c7e:	7227      	strb	r7, [r4, #8]
10002c80:	f3bf 8f5f 	dmb	sy
10002c84:	340c      	adds	r4, #12
10002c86:	42ac      	cmp	r4, r5
10002c88:	d3f0      	bcc.n	10002c6c <runtime_init_mutex+0x10>
10002c8a:	bdf8      	pop	{r3, r4, r5, r6, r7, pc}
10002c8c:	f7ff fd8a 	bl	100027a4 <next_striped_spin_lock_num>
10002c90:	4601      	mov	r1, r0
10002c92:	4620      	mov	r0, r4
10002c94:	f7ff ffdc 	bl	10002c50 <lock_init>
10002c98:	6066      	str	r6, [r4, #4]
10002c9a:	f3bf 8f5f 	dmb	sy
10002c9e:	3408      	adds	r4, #8
10002ca0:	42ac      	cmp	r4, r5
10002ca2:	d3e3      	bcc.n	10002c6c <runtime_init_mutex+0x10>
10002ca4:	bdf8      	pop	{r3, r4, r5, r6, r7, pc}
10002ca6:	bf00      	nop
10002ca8:	2000128c 	.word	0x2000128c
10002cac:	2000129c 	.word	0x2000129c

10002cb0 <mutex_init>:
10002cb0:	b510      	push	{r4, lr}
10002cb2:	4604      	mov	r4, r0
10002cb4:	f7ff fd76 	bl	100027a4 <next_striped_spin_lock_num>
10002cb8:	4601      	mov	r1, r0
10002cba:	4620      	mov	r0, r4
10002cbc:	f7ff ffc8 	bl	10002c50 <lock_init>
10002cc0:	f04f 33ff 	mov.w	r3, #4294967295
10002cc4:	6063      	str	r3, [r4, #4]
10002cc6:	f3bf 8f5f 	dmb	sy
10002cca:	bd10      	pop	{r4, pc}

10002ccc <critical_section_init>:
10002ccc:	b510      	push	{r4, lr}
10002cce:	4604      	mov	r4, r0
10002cd0:	2001      	movs	r0, #1
10002cd2:	f7ff fd73 	bl	100027bc <spin_lock_claim_unused>
10002cd6:	4b03      	ldr	r3, [pc, #12]	@ (10002ce4 <critical_section_init+0x18>)
10002cd8:	4403      	add	r3, r0
10002cda:	6023      	str	r3, [r4, #0]
10002cdc:	f3bf 8f5f 	dmb	sy
10002ce0:	bd10      	pop	{r4, pc}
10002ce2:	bf00      	nop
10002ce4:	2000160c 	.word	0x2000160c

10002ce8 <critical_section_init_with_lock_num>:
10002ce8:	4b02      	ldr	r3, [pc, #8]	@ (10002cf4 <critical_section_init_with_lock_num+0xc>)
10002cea:	440b      	add	r3, r1
10002cec:	6003      	str	r3, [r0, #0]
10002cee:	f3bf 8f5f 	dmb	sy
10002cf2:	4770      	bx	lr
10002cf4:	2000160c 	.word	0x2000160c

10002cf8 <alarm_pool_irq_handler>:
10002cf8:	e92d 4ff0 	stmdb	sp!, {r4, r5, r6, r7, r8, r9, sl, fp, lr}
10002cfc:	ed2d 8b02 	vpush	{d8}
10002d00:	b085      	sub	sp, #20
10002d02:	f3ef 8305 	mrs	r3, IPSR
10002d06:	b2db      	uxtb	r3, r3
10002d08:	3b10      	subs	r3, #16
10002d0a:	089a      	lsrs	r2, r3, #2
10002d0c:	bf18      	it	ne
10002d0e:	2201      	movne	r2, #1
10002d10:	f04f 0101 	mov.w	r1, #1
10002d14:	f003 0b03 	and.w	fp, r3, #3
10002d18:	bf18      	it	ne
10002d1a:	4ca9      	ldrne	r4, [pc, #676]	@ (10002fc0 <alarm_pool_irq_handler+0x2c8>)
10002d1c:	4ba9      	ldr	r3, [pc, #676]	@ (10002fc4 <alarm_pool_irq_handler+0x2cc>)
10002d1e:	bf08      	it	eq
10002d20:	4ca9      	ldreq	r4, [pc, #676]	@ (10002fc8 <alarm_pool_irq_handler+0x2d0>)
10002d22:	eb0b 0282 	add.w	r2, fp, r2, lsl #2
10002d26:	f853 5022 	ldr.w	r5, [r3, r2, lsl #2]
10002d2a:	fa01 f20b 	lsl.w	r2, r1, fp
10002d2e:	f504 5341 	add.w	r3, r4, #12352	@ 0x3040
10002d32:	ed9f 8ba1 	vldr	d8, [pc, #644]	@ 10002fb8 <alarm_pool_irq_handler+0x2c0>
10002d36:	9202      	str	r2, [sp, #8]
10002d38:	605a      	str	r2, [r3, #4]
10002d3a:	e02f      	b.n	10002d9c <alarm_pool_irq_handler+0xa4>
10002d3c:	88ab      	ldrh	r3, [r5, #4]
10002d3e:	0419      	lsls	r1, r3, #16
10002d40:	f140 8094 	bpl.w	10002e6c <alarm_pool_irq_handler+0x174>
10002d44:	79ab      	ldrb	r3, [r5, #6]
10002d46:	2b00      	cmp	r3, #0
10002d48:	f040 80de 	bne.w	10002f08 <alarm_pool_irq_handler+0x210>
10002d4c:	f9b5 6008 	ldrsh.w	r6, [r5, #8]
10002d50:	2e00      	cmp	r6, #0
10002d52:	f2c0 811c 	blt.w	10002f8e <alarm_pool_irq_handler+0x296>
10002d56:	696b      	ldr	r3, [r5, #20]
10002d58:	eb06 0646 	add.w	r6, r6, r6, lsl #1
10002d5c:	eb03 03c6 	add.w	r3, r3, r6, lsl #3
10002d60:	e9d3 6702 	ldrd	r6, r7, [r3, #8]
10002d64:	f1b7 3fff 	cmp.w	r7, #4294967295
10002d68:	bf08      	it	eq
10002d6a:	f1b6 3fff 	cmpeq.w	r6, #4294967295
10002d6e:	d00e      	beq.n	10002d8e <alarm_pool_irq_handler+0x96>
10002d70:	eb04 018b 	add.w	r1, r4, fp, lsl #2
10002d74:	6aa3      	ldr	r3, [r4, #40]	@ 0x28
10002d76:	690a      	ldr	r2, [r1, #16]
10002d78:	1ad2      	subs	r2, r2, r3
10002d7a:	1af3      	subs	r3, r6, r3
10002d7c:	4293      	cmp	r3, r2
10002d7e:	d305      	bcc.n	10002d8c <alarm_pool_irq_handler+0x94>
10002d80:	2301      	movs	r3, #1
10002d82:	6a22      	ldr	r2, [r4, #32]
10002d84:	fa03 f30b 	lsl.w	r3, r3, fp
10002d88:	4213      	tst	r3, r2
10002d8a:	d100      	bne.n	10002d8e <alarm_pool_irq_handler+0x96>
10002d8c:	610e      	str	r6, [r1, #16]
10002d8e:	4620      	mov	r0, r4
10002d90:	f000 fb72 	bl	10003478 <timer_time_us_64>
10002d94:	42b0      	cmp	r0, r6
10002d96:	41b9      	sbcs	r1, r7
10002d98:	f2c0 80f9 	blt.w	10002f8e <alarm_pool_irq_handler+0x296>
10002d9c:	f9b5 6008 	ldrsh.w	r6, [r5, #8]
10002da0:	9b02      	ldr	r3, [sp, #8]
10002da2:	2e00      	cmp	r6, #0
10002da4:	63e3      	str	r3, [r4, #60]	@ 0x3c
10002da6:	dbc9      	blt.n	10002d3c <alarm_pool_irq_handler+0x44>
10002da8:	f8d5 9014 	ldr.w	r9, [r5, #20]
10002dac:	eb06 0a46 	add.w	sl, r6, r6, lsl #1
10002db0:	eb09 07ca 	add.w	r7, r9, sl, lsl #3
10002db4:	68bb      	ldr	r3, [r7, #8]
10002db6:	4620      	mov	r0, r4
10002db8:	f8d7 800c 	ldr.w	r8, [r7, #12]
10002dbc:	9301      	str	r3, [sp, #4]
10002dbe:	f000 fb5b 	bl	10003478 <timer_time_us_64>
10002dc2:	9b01      	ldr	r3, [sp, #4]
10002dc4:	4298      	cmp	r0, r3
10002dc6:	eb71 0108 	sbcs.w	r1, r1, r8
10002dca:	dbb7      	blt.n	10002d3c <alarm_pool_irq_handler+0x44>
10002dcc:	f1b8 0f00 	cmp.w	r8, #0
10002dd0:	f2c0 80c0 	blt.w	10002f54 <alarm_pool_irq_handler+0x25c>
10002dd4:	e9d7 3104 	ldrd	r3, r1, [r7, #16]
10002dd8:	4a7c      	ldr	r2, [pc, #496]	@ (10002fcc <alarm_pool_irq_handler+0x2d4>)
10002dda:	4293      	cmp	r3, r2
10002ddc:	f000 80f8 	beq.w	10002fd0 <alarm_pool_irq_handler+0x2d8>
10002de0:	887a      	ldrh	r2, [r7, #2]
10002de2:	f9b5 0008 	ldrsh.w	r0, [r5, #8]
10002de6:	b292      	uxth	r2, r2
10002de8:	ea42 4000 	orr.w	r0, r2, r0, lsl #16
10002dec:	4798      	blx	r3
10002dee:	4602      	mov	r2, r0
10002df0:	460b      	mov	r3, r1
10002df2:	ea52 0103 	orrs.w	r1, r2, r3
10002df6:	f000 80ad 	beq.w	10002f54 <alarm_pool_irq_handler+0x25c>
10002dfa:	2b00      	cmp	r3, #0
10002dfc:	f280 80cd 	bge.w	10002f9a <alarm_pool_irq_handler+0x2a2>
10002e00:	9901      	ldr	r1, [sp, #4]
10002e02:	ebb1 0e02 	subs.w	lr, r1, r2
10002e06:	eb68 0803 	sbc.w	r8, r8, r3
10002e0a:	f939 303a 	ldrsh.w	r3, [r9, sl, lsl #3]
10002e0e:	e9c7 e802 	strd	lr, r8, [r7, #8]
10002e12:	2b00      	cmp	r3, #0
10002e14:	db92      	blt.n	10002d3c <alarm_pool_irq_handler+0x44>
10002e16:	6968      	ldr	r0, [r5, #20]
10002e18:	eb03 0243 	add.w	r2, r3, r3, lsl #1
10002e1c:	eb00 02c2 	add.w	r2, r0, r2, lsl #3
10002e20:	e9d2 7102 	ldrd	r7, r1, [r2, #8]
10002e24:	45be      	cmp	lr, r7
10002e26:	eb78 0c01 	sbcs.w	ip, r8, r1
10002e2a:	ea4f 0243 	mov.w	r2, r3, lsl #1
10002e2e:	db85      	blt.n	10002d3c <alarm_pool_irq_handler+0x44>
10002e30:	46ac      	mov	ip, r5
10002e32:	f82c 3f08 	strh.w	r3, [ip, #8]!
10002e36:	e006      	b.n	10002e46 <alarm_pool_irq_handler+0x14e>
10002e38:	eb03 0143 	add.w	r1, r3, r3, lsl #1
10002e3c:	eb00 01c1 	add.w	r1, r0, r1, lsl #3
10002e40:	005a      	lsls	r2, r3, #1
10002e42:	e9d1 7102 	ldrd	r7, r1, [r1, #8]
10002e46:	45be      	cmp	lr, r7
10002e48:	eb78 0101 	sbcs.w	r1, r8, r1
10002e4c:	441a      	add	r2, r3
10002e4e:	db05      	blt.n	10002e5c <alarm_pool_irq_handler+0x164>
10002e50:	f930 3032 	ldrsh.w	r3, [r0, r2, lsl #3]
10002e54:	eb00 0cc2 	add.w	ip, r0, r2, lsl #3
10002e58:	2b00      	cmp	r3, #0
10002e5a:	daed      	bge.n	10002e38 <alarm_pool_irq_handler+0x140>
10002e5c:	f829 303a 	strh.w	r3, [r9, sl, lsl #3]
10002e60:	f8ac 6000 	strh.w	r6, [ip]
10002e64:	88ab      	ldrh	r3, [r5, #4]
10002e66:	0419      	lsls	r1, r3, #16
10002e68:	f53f af6c 	bmi.w	10002d44 <alarm_pool_irq_handler+0x4c>
10002e6c:	692b      	ldr	r3, [r5, #16]
10002e6e:	f3ef 8210 	mrs	r2, PRIMASK
10002e72:	b672      	cpsid	i
10002e74:	e8d3 0fcf 	ldaexb	r0, [r3]
10002e78:	2101      	movs	r1, #1
10002e7a:	2800      	cmp	r0, #0
10002e7c:	d1fa      	bne.n	10002e74 <alarm_pool_irq_handler+0x17c>
10002e7e:	e8c3 1f40 	strexb	r0, r1, [r3]
10002e82:	2800      	cmp	r0, #0
10002e84:	d1f6      	bne.n	10002e74 <alarm_pool_irq_handler+0x17c>
10002e86:	f3bf 8f5f 	dmb	sy
10002e8a:	f64f 76ff 	movw	r6, #65535	@ 0xffff
10002e8e:	88a8      	ldrh	r0, [r5, #4]
10002e90:	2300      	movs	r3, #0
10002e92:	6929      	ldr	r1, [r5, #16]
10002e94:	b200      	sxth	r0, r0
10002e96:	80ae      	strh	r6, [r5, #4]
10002e98:	e8c1 3f8f 	stlb	r3, [r1]
10002e9c:	f382 8810 	msr	PRIMASK, r2
10002ea0:	4298      	cmp	r0, r3
10002ea2:	f6ff af4f 	blt.w	10002d44 <alarm_pool_irq_handler+0x4c>
10002ea6:	4607      	mov	r7, r0
10002ea8:	46a1      	mov	r9, r4
10002eaa:	696e      	ldr	r6, [r5, #20]
10002eac:	f105 0808 	add.w	r8, r5, #8
10002eb0:	f9b5 3008 	ldrsh.w	r3, [r5, #8]
10002eb4:	eb07 0e47 	add.w	lr, r7, r7, lsl #1
10002eb8:	2b00      	cmp	r3, #0
10002eba:	46c4      	mov	ip, r8
10002ebc:	eb06 02ce 	add.w	r2, r6, lr, lsl #3
10002ec0:	db15      	blt.n	10002eee <alarm_pool_irq_handler+0x1f6>
10002ec2:	e9d2 4002 	ldrd	r4, r0, [r2, #8]
10002ec6:	46aa      	mov	sl, r5
10002ec8:	9701      	str	r7, [sp, #4]
10002eca:	e004      	b.n	10002ed6 <alarm_pool_irq_handler+0x1de>
10002ecc:	f936 3035 	ldrsh.w	r3, [r6, r5, lsl #3]
10002ed0:	4694      	mov	ip, r2
10002ed2:	2b00      	cmp	r3, #0
10002ed4:	db09      	blt.n	10002eea <alarm_pool_irq_handler+0x1f2>
10002ed6:	eb03 0543 	add.w	r5, r3, r3, lsl #1
10002eda:	eb06 02c5 	add.w	r2, r6, r5, lsl #3
10002ede:	e9d2 7102 	ldrd	r7, r1, [r2, #8]
10002ee2:	42bc      	cmp	r4, r7
10002ee4:	eb70 0101 	sbcs.w	r1, r0, r1
10002ee8:	daf0      	bge.n	10002ecc <alarm_pool_irq_handler+0x1d4>
10002eea:	4655      	mov	r5, sl
10002eec:	9f01      	ldr	r7, [sp, #4]
10002eee:	f8ac 7000 	strh.w	r7, [ip]
10002ef2:	f936 703e 	ldrsh.w	r7, [r6, lr, lsl #3]
10002ef6:	f826 303e 	strh.w	r3, [r6, lr, lsl #3]
10002efa:	2f00      	cmp	r7, #0
10002efc:	dad8      	bge.n	10002eb0 <alarm_pool_irq_handler+0x1b8>
10002efe:	79ab      	ldrb	r3, [r5, #6]
10002f00:	464c      	mov	r4, r9
10002f02:	2b00      	cmp	r3, #0
10002f04:	f43f af22 	beq.w	10002d4c <alarm_pool_irq_handler+0x54>
10002f08:	2300      	movs	r3, #0
10002f0a:	71ab      	strb	r3, [r5, #6]
10002f0c:	f9b5 6008 	ldrsh.w	r6, [r5, #8]
10002f10:	1c72      	adds	r2, r6, #1
10002f12:	4633      	mov	r3, r6
10002f14:	d03b      	beq.n	10002f8e <alarm_pool_irq_handler+0x296>
10002f16:	6968      	ldr	r0, [r5, #20]
10002f18:	f105 0e08 	add.w	lr, r5, #8
10002f1c:	e003      	b.n	10002f26 <alarm_pool_irq_handler+0x22e>
10002f1e:	468e      	mov	lr, r1
10002f20:	1c5a      	adds	r2, r3, #1
10002f22:	f43f af15 	beq.w	10002d50 <alarm_pool_irq_handler+0x58>
10002f26:	eb03 0243 	add.w	r2, r3, r3, lsl #1
10002f2a:	eb00 01c2 	add.w	r1, r0, r2, lsl #3
10002f2e:	884f      	ldrh	r7, [r1, #2]
10002f30:	469c      	mov	ip, r3
10002f32:	043f      	lsls	r7, r7, #16
10002f34:	f930 3032 	ldrsh.w	r3, [r0, r2, lsl #3]
10002f38:	d5f1      	bpl.n	10002f1e <alarm_pool_irq_handler+0x226>
10002f3a:	4566      	cmp	r6, ip
10002f3c:	ed81 8b02 	vstr	d8, [r1, #8]
10002f40:	d0ee      	beq.n	10002f20 <alarm_pool_irq_handler+0x228>
10002f42:	f8ae 3000 	strh.w	r3, [lr]
10002f46:	8929      	ldrh	r1, [r5, #8]
10002f48:	4666      	mov	r6, ip
10002f4a:	f820 1032 	strh.w	r1, [r0, r2, lsl #3]
10002f4e:	f8a5 c008 	strh.w	ip, [r5, #8]
10002f52:	e7e5      	b.n	10002f20 <alarm_pool_irq_handler+0x228>
10002f54:	f839 303a 	ldrh.w	r3, [r9, sl, lsl #3]
10002f58:	812b      	strh	r3, [r5, #8]
10002f5a:	692b      	ldr	r3, [r5, #16]
10002f5c:	f3ef 8210 	mrs	r2, PRIMASK
10002f60:	b672      	cpsid	i
10002f62:	e8d3 0fcf 	ldaexb	r0, [r3]
10002f66:	2101      	movs	r1, #1
10002f68:	2800      	cmp	r0, #0
10002f6a:	d1fa      	bne.n	10002f62 <alarm_pool_irq_handler+0x26a>
10002f6c:	e8c3 1f40 	strexb	r0, r1, [r3]
10002f70:	2800      	cmp	r0, #0
10002f72:	d1f6      	bne.n	10002f62 <alarm_pool_irq_handler+0x26a>
10002f74:	f3bf 8f5f 	dmb	sy
10002f78:	886b      	ldrh	r3, [r5, #2]
10002f7a:	6929      	ldr	r1, [r5, #16]
10002f7c:	f829 303a 	strh.w	r3, [r9, sl, lsl #3]
10002f80:	2300      	movs	r3, #0
10002f82:	806e      	strh	r6, [r5, #2]
10002f84:	e8c1 3f8f 	stlb	r3, [r1]
10002f88:	f382 8810 	msr	PRIMASK, r2
10002f8c:	e6d6      	b.n	10002d3c <alarm_pool_irq_handler+0x44>
10002f8e:	bf40      	sev
10002f90:	b005      	add	sp, #20
10002f92:	ecbd 8b02 	vpop	{d8}
10002f96:	e8bd 8ff0 	ldmia.w	sp!, {r4, r5, r6, r7, r8, r9, sl, fp, pc}
10002f9a:	4620      	mov	r0, r4
10002f9c:	9303      	str	r3, [sp, #12]
10002f9e:	9201      	str	r2, [sp, #4]
10002fa0:	f000 fa6a 	bl	10003478 <timer_time_us_64>
10002fa4:	9a01      	ldr	r2, [sp, #4]
10002fa6:	9b03      	ldr	r3, [sp, #12]
10002fa8:	eb10 0e02 	adds.w	lr, r0, r2
10002fac:	eb43 0801 	adc.w	r8, r3, r1
10002fb0:	e72b      	b.n	10002e0a <alarm_pool_irq_handler+0x112>
10002fb2:	bf00      	nop
10002fb4:	f3af 8000 	nop.w
10002fb8:	ffffffff 	.word	0xffffffff
10002fbc:	ffffffff 	.word	0xffffffff
10002fc0:	400b8000 	.word	0x400b8000
10002fc4:	20001ebc 	.word	0x20001ebc
10002fc8:	400b0000 	.word	0x400b0000
10002fcc:	10002cf9 	.word	0x10002cf9
10002fd0:	4608      	mov	r0, r1
10002fd2:	690b      	ldr	r3, [r1, #16]
10002fd4:	9103      	str	r1, [sp, #12]
10002fd6:	4798      	blx	r3
10002fd8:	2800      	cmp	r0, #0
10002fda:	d0bb      	beq.n	10002f54 <alarm_pool_irq_handler+0x25c>
10002fdc:	9903      	ldr	r1, [sp, #12]
10002fde:	e9d1 2300 	ldrd	r2, r3, [r1]
10002fe2:	e706      	b.n	10002df2 <alarm_pool_irq_handler+0xfa>

10002fe4 <sleep_until_callback>:
10002fe4:	480b      	ldr	r0, [pc, #44]	@ (10003014 <sleep_until_callback+0x30>)
10002fe6:	b508      	push	{r3, lr}
10002fe8:	6803      	ldr	r3, [r0, #0]
10002fea:	f3ef 8110 	mrs	r1, PRIMASK
10002fee:	b672      	cpsid	i
10002ff0:	e8d3 cfcf 	ldaexb	ip, [r3]
10002ff4:	2201      	movs	r2, #1
10002ff6:	f1bc 0f00 	cmp.w	ip, #0
10002ffa:	d1f9      	bne.n	10002ff0 <sleep_until_callback+0xc>
10002ffc:	e8c3 2f4c 	strexb	ip, r2, [r3]
10003000:	f1bc 0f00 	cmp.w	ip, #0
10003004:	d1f4      	bne.n	10002ff0 <sleep_until_callback+0xc>
10003006:	f3bf 8f5f 	dmb	sy
1000300a:	f7fd fbf5 	bl	100007f8 <vPortLockInternalSpinUnlockWithNotify>
1000300e:	2000      	movs	r0, #0
10003010:	2100      	movs	r1, #0
10003012:	bd08      	pop	{r3, pc}
10003014:	20002180 	.word	0x20002180

10003018 <runtime_init_default_alarm_pool>:
10003018:	b538      	push	{r3, r4, r5, lr}
1000301a:	4b38      	ldr	r3, [pc, #224]	@ (100030fc <runtime_init_default_alarm_pool+0xe4>)
1000301c:	691c      	ldr	r4, [r3, #16]
1000301e:	b12c      	cbz	r4, 1000302c <runtime_init_default_alarm_pool+0x14>
10003020:	e8bd 4038 	ldmia.w	sp!, {r3, r4, r5, lr}
10003024:	210a      	movs	r1, #10
10003026:	4836      	ldr	r0, [pc, #216]	@ (10003100 <runtime_init_default_alarm_pool+0xe8>)
10003028:	f7ff be12 	b.w	10002c50 <lock_init>
1000302c:	2103      	movs	r1, #3
1000302e:	4835      	ldr	r0, [pc, #212]	@ (10003104 <runtime_init_default_alarm_pool+0xec>)
10003030:	f000 fa10 	bl	10003454 <timer_hardware_alarm_claim>
10003034:	4d33      	ldr	r5, [pc, #204]	@ (10003104 <runtime_init_default_alarm_pool+0xec>)
10003036:	4b31      	ldr	r3, [pc, #196]	@ (100030fc <runtime_init_default_alarm_pool+0xe4>)
10003038:	60dd      	str	r5, [r3, #12]
1000303a:	f7ff fbb3 	bl	100027a4 <next_striped_spin_lock_num>
1000303e:	4a32      	ldr	r2, [pc, #200]	@ (10003108 <runtime_init_default_alarm_pool+0xf0>)
10003040:	f04f 4e50 	mov.w	lr, #3489660928	@ 0xd0000000
10003044:	4402      	add	r2, r0
10003046:	2003      	movs	r0, #3
10003048:	4b2c      	ldr	r3, [pc, #176]	@ (100030fc <runtime_init_default_alarm_pool+0xe4>)
1000304a:	f04f 0c0f 	mov.w	ip, #15
1000304e:	7018      	strb	r0, [r3, #0]
10003050:	611a      	str	r2, [r3, #16]
10003052:	f8de 2000 	ldr.w	r2, [lr]
10003056:	f64f 71ff 	movw	r1, #65535	@ 0xffff
1000305a:	705a      	strb	r2, [r3, #1]
1000305c:	695a      	ldr	r2, [r3, #20]
1000305e:	f8a3 c002 	strh.w	ip, [r3, #2]
10003062:	8314      	strh	r4, [r2, #24]
10003064:	f04f 0402 	mov.w	r4, #2
10003068:	f8a2 4048 	strh.w	r4, [r2, #72]	@ 0x48
1000306c:	f04f 0404 	mov.w	r4, #4
10003070:	f8a2 4078 	strh.w	r4, [r2, #120]	@ 0x78
10003074:	f04f 0405 	mov.w	r4, #5
10003078:	f8a2 4090 	strh.w	r4, [r2, #144]	@ 0x90
1000307c:	f04f 0406 	mov.w	r4, #6
10003080:	f8a2 40a8 	strh.w	r4, [r2, #168]	@ 0xa8
10003084:	f04f 0407 	mov.w	r4, #7
10003088:	f8a2 40c0 	strh.w	r4, [r2, #192]	@ 0xc0
1000308c:	f04f 0409 	mov.w	r4, #9
10003090:	f8a2 40f0 	strh.w	r4, [r2, #240]	@ 0xf0
10003094:	f04f 040a 	mov.w	r4, #10
10003098:	f8a2 4108 	strh.w	r4, [r2, #264]	@ 0x108
1000309c:	f04f 040b 	mov.w	r4, #11
100030a0:	f8a2 4120 	strh.w	r4, [r2, #288]	@ 0x120
100030a4:	f04f 040c 	mov.w	r4, #12
100030a8:	f8a2 4138 	strh.w	r4, [r2, #312]	@ 0x138
100030ac:	f04f 0401 	mov.w	r4, #1
100030b0:	8614      	strh	r4, [r2, #48]	@ 0x30
100030b2:	f04f 0408 	mov.w	r4, #8
100030b6:	f8a2 40d8 	strh.w	r4, [r2, #216]	@ 0xd8
100030ba:	4c14      	ldr	r4, [pc, #80]	@ (1000310c <runtime_init_default_alarm_pool+0xf4>)
100030bc:	f04f 0e0d 	mov.w	lr, #13
100030c0:	f04f 0c0e 	mov.w	ip, #14
100030c4:	609c      	str	r4, [r3, #8]
100030c6:	2408      	movs	r4, #8
100030c8:	8099      	strh	r1, [r3, #4]
100030ca:	f8a2 e150 	strh.w	lr, [r2, #336]	@ 0x150
100030ce:	f8a2 c168 	strh.w	ip, [r2, #360]	@ 0x168
100030d2:	f8a2 0060 	strh.w	r0, [r2, #96]	@ 0x60
100030d6:	8011      	strh	r1, [r2, #0]
100030d8:	4a0d      	ldr	r2, [pc, #52]	@ (10003110 <runtime_init_default_alarm_pool+0xf8>)
100030da:	622c      	str	r4, [r5, #32]
100030dc:	490d      	ldr	r1, [pc, #52]	@ (10003114 <runtime_init_default_alarm_pool+0xfc>)
100030de:	60d3      	str	r3, [r2, #12]
100030e0:	f7ff fbf4 	bl	100028cc <irq_set_exclusive_handler>
100030e4:	2101      	movs	r1, #1
100030e6:	2003      	movs	r0, #3
100030e8:	f7ff fbae 	bl	10002848 <irq_set_enabled>
100030ec:	4b0a      	ldr	r3, [pc, #40]	@ (10003118 <runtime_init_default_alarm_pool+0x100>)
100030ee:	210a      	movs	r1, #10
100030f0:	641c      	str	r4, [r3, #64]	@ 0x40
100030f2:	4803      	ldr	r0, [pc, #12]	@ (10003100 <runtime_init_default_alarm_pool+0xe8>)
100030f4:	e8bd 4038 	ldmia.w	sp!, {r3, r4, r5, lr}
100030f8:	f7ff bdaa 	b.w	10002c50 <lock_init>
100030fc:	2000123c 	.word	0x2000123c
10003100:	20002180 	.word	0x20002180
10003104:	400b0000 	.word	0x400b0000
10003108:	2000160c 	.word	0x2000160c
1000310c:	0010ffff 	.word	0x0010ffff
10003110:	20001ebc 	.word	0x20001ebc
10003114:	10002cf9 	.word	0x10002cf9
10003118:	400b2000 	.word	0x400b2000

1000311c <alarm_pool_get_default>:
1000311c:	4800      	ldr	r0, [pc, #0]	@ (10003120 <alarm_pool_get_default+0x4>)
1000311e:	4770      	bx	lr
10003120:	2000123c 	.word	0x2000123c

10003124 <alarm_pool_add_alarm_at>:
10003124:	b5f0      	push	{r4, r5, r6, r7, lr}
10003126:	b083      	sub	sp, #12
10003128:	f89d 4028 	ldrb.w	r4, [sp, #40]	@ 0x28
1000312c:	461d      	mov	r5, r3
1000312e:	4603      	mov	r3, r0
10003130:	b954      	cbnz	r4, 10003148 <alarm_pool_add_alarm_at+0x24>
10003132:	e9cd 0200 	strd	r0, r2, [sp]
10003136:	f000 f9a7 	bl	10003488 <time_us_64>
1000313a:	9a01      	ldr	r2, [sp, #4]
1000313c:	9b00      	ldr	r3, [sp, #0]
1000313e:	4282      	cmp	r2, r0
10003140:	eb65 0101 	sbc.w	r1, r5, r1
10003144:	42a1      	cmp	r1, r4
10003146:	db5b      	blt.n	10003200 <alarm_pool_add_alarm_at+0xdc>
10003148:	6919      	ldr	r1, [r3, #16]
1000314a:	f3ef 8010 	mrs	r0, PRIMASK
1000314e:	b672      	cpsid	i
10003150:	e8d1 6fcf 	ldaexb	r6, [r1]
10003154:	2401      	movs	r4, #1
10003156:	2e00      	cmp	r6, #0
10003158:	d1fa      	bne.n	10003150 <alarm_pool_add_alarm_at+0x2c>
1000315a:	e8c1 4f46 	strexb	r6, r4, [r1]
1000315e:	2e00      	cmp	r6, #0
10003160:	d1f6      	bne.n	10003150 <alarm_pool_add_alarm_at+0x2c>
10003162:	f3bf 8f5f 	dmb	sy
10003166:	f9b3 4002 	ldrsh.w	r4, [r3, #2]
1000316a:	691f      	ldr	r7, [r3, #16]
1000316c:	2c00      	cmp	r4, #0
1000316e:	db3e      	blt.n	100031ee <alarm_pool_add_alarm_at+0xca>
10003170:	f8d3 c014 	ldr.w	ip, [r3, #20]
10003174:	eb04 0e44 	add.w	lr, r4, r4, lsl #1
10003178:	f83c 103e 	ldrh.w	r1, [ip, lr, lsl #3]
1000317c:	2600      	movs	r6, #0
1000317e:	8059      	strh	r1, [r3, #2]
10003180:	eb0c 01ce 	add.w	r1, ip, lr, lsl #3
10003184:	e8c7 6f8f 	stlb	r6, [r7]
10003188:	f380 8810 	msr	PRIMASK, r0
1000318c:	8848      	ldrh	r0, [r1, #2]
1000318e:	e9c1 2502 	strd	r2, r5, [r1, #8]
10003192:	3001      	adds	r0, #1
10003194:	f3c0 000e 	ubfx	r0, r0, #0, #15
10003198:	2801      	cmp	r0, #1
1000319a:	bf38      	it	cc
1000319c:	2001      	movcc	r0, #1
1000319e:	9a08      	ldr	r2, [sp, #32]
100031a0:	8048      	strh	r0, [r1, #2]
100031a2:	610a      	str	r2, [r1, #16]
100031a4:	9a09      	ldr	r2, [sp, #36]	@ 0x24
100031a6:	ea40 4004 	orr.w	r0, r0, r4, lsl #16
100031aa:	614a      	str	r2, [r1, #20]
100031ac:	691a      	ldr	r2, [r3, #16]
100031ae:	f3ef 8110 	mrs	r1, PRIMASK
100031b2:	b672      	cpsid	i
100031b4:	e8d2 7fcf 	ldaexb	r7, [r2]
100031b8:	2501      	movs	r5, #1
100031ba:	2f00      	cmp	r7, #0
100031bc:	d1fa      	bne.n	100031b4 <alarm_pool_add_alarm_at+0x90>
100031be:	e8c2 5f47 	strexb	r7, r5, [r2]
100031c2:	2f00      	cmp	r7, #0
100031c4:	d1f6      	bne.n	100031b4 <alarm_pool_add_alarm_at+0x90>
100031c6:	f3bf 8f5f 	dmb	sy
100031ca:	889a      	ldrh	r2, [r3, #4]
100031cc:	f82c 203e 	strh.w	r2, [ip, lr, lsl #3]
100031d0:	691a      	ldr	r2, [r3, #16]
100031d2:	809c      	strh	r4, [r3, #4]
100031d4:	e8c2 6f8f 	stlb	r6, [r2]
100031d8:	f381 8810 	msr	PRIMASK, r1
100031dc:	2101      	movs	r1, #1
100031de:	781c      	ldrb	r4, [r3, #0]
100031e0:	68da      	ldr	r2, [r3, #12]
100031e2:	40a1      	lsls	r1, r4
100031e4:	f502 5301 	add.w	r3, r2, #8256	@ 0x2040
100031e8:	6059      	str	r1, [r3, #4]
100031ea:	b003      	add	sp, #12
100031ec:	bdf0      	pop	{r4, r5, r6, r7, pc}
100031ee:	2300      	movs	r3, #0
100031f0:	e8c7 3f8f 	stlb	r3, [r7]
100031f4:	f380 8810 	msr	PRIMASK, r0
100031f8:	f04f 30ff 	mov.w	r0, #4294967295
100031fc:	b003      	add	sp, #12
100031fe:	bdf0      	pop	{r4, r5, r6, r7, pc}
10003200:	4620      	mov	r0, r4
10003202:	b003      	add	sp, #12
10003204:	bdf0      	pop	{r4, r5, r6, r7, pc}
10003206:	bf00      	nop

10003208 <alarm_pool_add_alarm_at_force_in_context>:
10003208:	b5f0      	push	{r4, r5, r6, r7, lr}
1000320a:	4616      	mov	r6, r2
1000320c:	461f      	mov	r7, r3
1000320e:	6902      	ldr	r2, [r0, #16]
10003210:	4603      	mov	r3, r0
10003212:	f3ef 8010 	mrs	r0, PRIMASK
10003216:	b672      	cpsid	i
10003218:	e8d2 4fcf 	ldaexb	r4, [r2]
1000321c:	2101      	movs	r1, #1
1000321e:	2c00      	cmp	r4, #0
10003220:	d1fa      	bne.n	10003218 <alarm_pool_add_alarm_at_force_in_context+0x10>
10003222:	e8c2 1f44 	strexb	r4, r1, [r2]
10003226:	2c00      	cmp	r4, #0
10003228:	d1f6      	bne.n	10003218 <alarm_pool_add_alarm_at_force_in_context+0x10>
1000322a:	f3bf 8f5f 	dmb	sy
1000322e:	f9b3 1002 	ldrsh.w	r1, [r3, #2]
10003232:	691d      	ldr	r5, [r3, #16]
10003234:	2900      	cmp	r1, #0
10003236:	db45      	blt.n	100032c4 <alarm_pool_add_alarm_at_force_in_context+0xbc>
10003238:	f8d3 e014 	ldr.w	lr, [r3, #20]
1000323c:	eb01 0241 	add.w	r2, r1, r1, lsl #1
10003240:	f83e 4032 	ldrh.w	r4, [lr, r2, lsl #3]
10003244:	eb0e 0cc2 	add.w	ip, lr, r2, lsl #3
10003248:	805c      	strh	r4, [r3, #2]
1000324a:	2400      	movs	r4, #0
1000324c:	e8c5 4f8f 	stlb	r4, [r5]
10003250:	f380 8810 	msr	PRIMASK, r0
10003254:	9805      	ldr	r0, [sp, #20]
10003256:	4635      	mov	r5, r6
10003258:	f8cc 0010 	str.w	r0, [ip, #16]
1000325c:	9806      	ldr	r0, [sp, #24]
1000325e:	463e      	mov	r6, r7
10003260:	f8cc 0014 	str.w	r0, [ip, #20]
10003264:	f8bc 0002 	ldrh.w	r0, [ip, #2]
10003268:	e9cc 5602 	strd	r5, r6, [ip, #8]
1000326c:	3001      	adds	r0, #1
1000326e:	f3c0 000e 	ubfx	r0, r0, #0, #15
10003272:	2801      	cmp	r0, #1
10003274:	bf38      	it	cc
10003276:	2001      	movcc	r0, #1
10003278:	f8ac 0002 	strh.w	r0, [ip, #2]
1000327c:	ea40 4001 	orr.w	r0, r0, r1, lsl #16
10003280:	f8d3 c010 	ldr.w	ip, [r3, #16]
10003284:	f3ef 8510 	mrs	r5, PRIMASK
10003288:	b672      	cpsid	i
1000328a:	e8dc 7fcf 	ldaexb	r7, [ip]
1000328e:	2601      	movs	r6, #1
10003290:	2f00      	cmp	r7, #0
10003292:	d1fa      	bne.n	1000328a <alarm_pool_add_alarm_at_force_in_context+0x82>
10003294:	e8cc 6f47 	strexb	r7, r6, [ip]
10003298:	2f00      	cmp	r7, #0
1000329a:	d1f6      	bne.n	1000328a <alarm_pool_add_alarm_at_force_in_context+0x82>
1000329c:	f3bf 8f5f 	dmb	sy
100032a0:	f8b3 c004 	ldrh.w	ip, [r3, #4]
100032a4:	f82e c032 	strh.w	ip, [lr, r2, lsl #3]
100032a8:	8099      	strh	r1, [r3, #4]
100032aa:	691a      	ldr	r2, [r3, #16]
100032ac:	e8c2 4f8f 	stlb	r4, [r2]
100032b0:	f385 8810 	msr	PRIMASK, r5
100032b4:	2101      	movs	r1, #1
100032b6:	781c      	ldrb	r4, [r3, #0]
100032b8:	68da      	ldr	r2, [r3, #12]
100032ba:	40a1      	lsls	r1, r4
100032bc:	f502 5301 	add.w	r3, r2, #8256	@ 0x2040
100032c0:	6059      	str	r1, [r3, #4]
100032c2:	bdf0      	pop	{r4, r5, r6, r7, pc}
100032c4:	2300      	movs	r3, #0
100032c6:	e8c5 3f8f 	stlb	r3, [r5]
100032ca:	f380 8810 	msr	PRIMASK, r0
100032ce:	f04f 30ff 	mov.w	r0, #4294967295
100032d2:	bdf0      	pop	{r4, r5, r6, r7, pc}

100032d4 <alarm_pool_cancel_alarm>:
100032d4:	4603      	mov	r3, r0
100032d6:	8940      	ldrh	r0, [r0, #10]
100032d8:	ebb0 4f21 	cmp.w	r0, r1, asr #16
100032dc:	dd3a      	ble.n	10003354 <alarm_pool_cancel_alarm+0x80>
100032de:	6958      	ldr	r0, [r3, #20]
100032e0:	140a      	asrs	r2, r1, #16
100032e2:	eb02 0242 	add.w	r2, r2, r2, lsl #1
100032e6:	b510      	push	{r4, lr}
100032e8:	f8d3 c010 	ldr.w	ip, [r3, #16]
100032ec:	eb00 00c2 	add.w	r0, r0, r2, lsl #3
100032f0:	f3ef 8e10 	mrs	lr, PRIMASK
100032f4:	b672      	cpsid	i
100032f6:	e8dc 4fcf 	ldaexb	r4, [ip]
100032fa:	2201      	movs	r2, #1
100032fc:	2c00      	cmp	r4, #0
100032fe:	d1fa      	bne.n	100032f6 <alarm_pool_cancel_alarm+0x22>
10003300:	e8cc 2f44 	strexb	r4, r2, [ip]
10003304:	2c00      	cmp	r4, #0
10003306:	d1f6      	bne.n	100032f6 <alarm_pool_cancel_alarm+0x22>
10003308:	f3bf 8f5f 	dmb	sy
1000330c:	8842      	ldrh	r2, [r0, #2]
1000330e:	b289      	uxth	r1, r1
10003310:	b292      	uxth	r2, r2
10003312:	428a      	cmp	r2, r1
10003314:	d007      	beq.n	10003326 <alarm_pool_cancel_alarm+0x52>
10003316:	2200      	movs	r2, #0
10003318:	691b      	ldr	r3, [r3, #16]
1000331a:	e8c3 2f8f 	stlb	r2, [r3]
1000331e:	f38e 8810 	msr	PRIMASK, lr
10003322:	2000      	movs	r0, #0
10003324:	bd10      	pop	{r4, pc}
10003326:	ea6f 4242 	mvn.w	r2, r2, lsl #17
1000332a:	ea6f 4252 	mvn.w	r2, r2, lsr #17
1000332e:	8042      	strh	r2, [r0, #2]
10003330:	2101      	movs	r1, #1
10003332:	2200      	movs	r2, #0
10003334:	6918      	ldr	r0, [r3, #16]
10003336:	7199      	strb	r1, [r3, #6]
10003338:	e8c0 2f8f 	stlb	r2, [r0]
1000333c:	f38e 8810 	msr	PRIMASK, lr
10003340:	f893 c000 	ldrb.w	ip, [r3]
10003344:	68da      	ldr	r2, [r3, #12]
10003346:	4608      	mov	r0, r1
10003348:	f502 5301 	add.w	r3, r2, #8256	@ 0x2040
1000334c:	fa01 f10c 	lsl.w	r1, r1, ip
10003350:	6059      	str	r1, [r3, #4]
10003352:	bd10      	pop	{r4, pc}
10003354:	2000      	movs	r0, #0
10003356:	4770      	bx	lr

10003358 <alarm_pool_core_num>:
10003358:	7840      	ldrb	r0, [r0, #1]
1000335a:	4770      	bx	lr

1000335c <best_effort_wfe_or_timeout>:
1000335c:	f3ef 8205 	mrs	r2, IPSR
10003360:	b2d2      	uxtb	r2, r2
10003362:	b182      	cbz	r2, 10003386 <best_effort_wfe_or_timeout+0x2a>
10003364:	4b38      	ldr	r3, [pc, #224]	@ (10003448 <best_effort_wfe_or_timeout+0xec>)
10003366:	6a5a      	ldr	r2, [r3, #36]	@ 0x24
10003368:	428a      	cmp	r2, r1
1000336a:	d202      	bcs.n	10003372 <best_effort_wfe_or_timeout+0x16>
1000336c:	2200      	movs	r2, #0
1000336e:	4610      	mov	r0, r2
10003370:	4770      	bx	lr
10003372:	bf14      	ite	ne
10003374:	2201      	movne	r2, #1
10003376:	2200      	moveq	r2, #0
10003378:	6a9b      	ldr	r3, [r3, #40]	@ 0x28
1000337a:	4283      	cmp	r3, r0
1000337c:	bf28      	it	cs
1000337e:	f042 0201 	orrcs.w	r2, r2, #1
10003382:	4610      	mov	r0, r2
10003384:	4770      	bx	lr
10003386:	b570      	push	{r4, r5, r6, lr}
10003388:	b084      	sub	sp, #16
1000338a:	9203      	str	r2, [sp, #12]
1000338c:	4a2f      	ldr	r2, [pc, #188]	@ (1000344c <best_effort_wfe_or_timeout+0xf0>)
1000338e:	4606      	mov	r6, r0
10003390:	68d3      	ldr	r3, [r2, #12]
10003392:	7815      	ldrb	r5, [r2, #0]
10003394:	4618      	mov	r0, r3
10003396:	460c      	mov	r4, r1
10003398:	9302      	str	r3, [sp, #8]
1000339a:	f000 f86d 	bl	10003478 <timer_time_us_64>
1000339e:	9b02      	ldr	r3, [sp, #8]
100033a0:	f105 0c04 	add.w	ip, r5, #4
100033a4:	f853 c02c 	ldr.w	ip, [r3, ip, lsl #2]
100033a8:	9a03      	ldr	r2, [sp, #12]
100033aa:	ebac 0c00 	sub.w	ip, ip, r0
100033ae:	1a30      	subs	r0, r6, r0
100033b0:	eb64 0101 	sbc.w	r1, r4, r1
100033b4:	4560      	cmp	r0, ip
100033b6:	f171 0100 	sbcs.w	r1, r1, #0
100033ba:	db0f      	blt.n	100033dc <best_effort_wfe_or_timeout+0x80>
100033bc:	bf20      	wfe
100033be:	4b22      	ldr	r3, [pc, #136]	@ (10003448 <best_effort_wfe_or_timeout+0xec>)
100033c0:	6a59      	ldr	r1, [r3, #36]	@ 0x24
100033c2:	42a1      	cmp	r1, r4
100033c4:	d307      	bcc.n	100033d6 <best_effort_wfe_or_timeout+0x7a>
100033c6:	bf14      	ite	ne
100033c8:	2201      	movne	r2, #1
100033ca:	2200      	moveq	r2, #0
100033cc:	6a9b      	ldr	r3, [r3, #40]	@ 0x28
100033ce:	42b3      	cmp	r3, r6
100033d0:	bf28      	it	cs
100033d2:	f042 0201 	orrcs.w	r2, r2, #1
100033d6:	4610      	mov	r0, r2
100033d8:	b004      	add	sp, #16
100033da:	bd70      	pop	{r4, r5, r6, pc}
100033dc:	9202      	str	r2, [sp, #8]
100033de:	f000 f853 	bl	10003488 <time_us_64>
100033e2:	4286      	cmp	r6, r0
100033e4:	eb64 0101 	sbc.w	r1, r4, r1
100033e8:	2900      	cmp	r1, #0
100033ea:	9a02      	ldr	r2, [sp, #8]
100033ec:	db1b      	blt.n	10003426 <best_effort_wfe_or_timeout+0xca>
100033ee:	4918      	ldr	r1, [pc, #96]	@ (10003450 <best_effort_wfe_or_timeout+0xf4>)
100033f0:	4623      	mov	r3, r4
100033f2:	e9cd 1200 	strd	r1, r2, [sp]
100033f6:	4815      	ldr	r0, [pc, #84]	@ (1000344c <best_effort_wfe_or_timeout+0xf0>)
100033f8:	4632      	mov	r2, r6
100033fa:	f7ff ff05 	bl	10003208 <alarm_pool_add_alarm_at_force_in_context>
100033fe:	1e01      	subs	r1, r0, #0
10003400:	dd11      	ble.n	10003426 <best_effort_wfe_or_timeout+0xca>
10003402:	4b11      	ldr	r3, [pc, #68]	@ (10003448 <best_effort_wfe_or_timeout+0xec>)
10003404:	6a5a      	ldr	r2, [r3, #36]	@ 0x24
10003406:	42a2      	cmp	r2, r4
10003408:	d31c      	bcc.n	10003444 <best_effort_wfe_or_timeout+0xe8>
1000340a:	6a9b      	ldr	r3, [r3, #40]	@ 0x28
1000340c:	42b3      	cmp	r3, r6
1000340e:	d317      	bcc.n	10003440 <best_effort_wfe_or_timeout+0xe4>
10003410:	480e      	ldr	r0, [pc, #56]	@ (1000344c <best_effort_wfe_or_timeout+0xf0>)
10003412:	f7ff ff5f 	bl	100032d4 <alarm_pool_cancel_alarm>
10003416:	4b0c      	ldr	r3, [pc, #48]	@ (10003448 <best_effort_wfe_or_timeout+0xec>)
10003418:	6a5a      	ldr	r2, [r3, #36]	@ 0x24
1000341a:	42a2      	cmp	r2, r4
1000341c:	d2d3      	bcs.n	100033c6 <best_effort_wfe_or_timeout+0x6a>
1000341e:	2200      	movs	r2, #0
10003420:	4610      	mov	r0, r2
10003422:	b004      	add	sp, #16
10003424:	bd70      	pop	{r4, r5, r6, pc}
10003426:	4b08      	ldr	r3, [pc, #32]	@ (10003448 <best_effort_wfe_or_timeout+0xec>)
10003428:	6a5a      	ldr	r2, [r3, #36]	@ 0x24
1000342a:	42a2      	cmp	r2, r4
1000342c:	d3f7      	bcc.n	1000341e <best_effort_wfe_or_timeout+0xc2>
1000342e:	1b12      	subs	r2, r2, r4
10003430:	bf18      	it	ne
10003432:	2201      	movne	r2, #1
10003434:	6a9b      	ldr	r3, [r3, #40]	@ 0x28
10003436:	42b3      	cmp	r3, r6
10003438:	bf28      	it	cs
1000343a:	f042 0201 	orrcs.w	r2, r2, #1
1000343e:	e7ca      	b.n	100033d6 <best_effort_wfe_or_timeout+0x7a>
10003440:	42a2      	cmp	r2, r4
10003442:	d1e5      	bne.n	10003410 <best_effort_wfe_or_timeout+0xb4>
10003444:	bf20      	wfe
10003446:	e7e3      	b.n	10003410 <best_effort_wfe_or_timeout+0xb4>
10003448:	400b0000 	.word	0x400b0000
1000344c:	2000123c 	.word	0x2000123c
10003450:	10002fe5 	.word	0x10002fe5

10003454 <timer_hardware_alarm_claim>:
10003454:	b410      	push	{r4}
10003456:	4b05      	ldr	r3, [pc, #20]	@ (1000346c <timer_hardware_alarm_claim+0x18>)
10003458:	4c05      	ldr	r4, [pc, #20]	@ (10003470 <timer_hardware_alarm_claim+0x1c>)
1000345a:	4a06      	ldr	r2, [pc, #24]	@ (10003474 <timer_hardware_alarm_claim+0x20>)
1000345c:	42a0      	cmp	r0, r4
1000345e:	bf14      	ite	ne
10003460:	4618      	movne	r0, r3
10003462:	1c58      	addeq	r0, r3, #1
10003464:	bc10      	pop	{r4}
10003466:	f7ff b92f 	b.w	100026c8 <hw_claim_or_assert>
1000346a:	bf00      	nop
1000346c:	20001a2c 	.word	0x20001a2c
10003470:	400b8000 	.word	0x400b8000
10003474:	10006840 	.word	0x10006840

10003478 <timer_time_us_64>:
10003478:	4603      	mov	r3, r0
1000347a:	6a41      	ldr	r1, [r0, #36]	@ 0x24
1000347c:	460a      	mov	r2, r1
1000347e:	6a98      	ldr	r0, [r3, #40]	@ 0x28
10003480:	6a59      	ldr	r1, [r3, #36]	@ 0x24
10003482:	428a      	cmp	r2, r1
10003484:	d1fa      	bne.n	1000347c <timer_time_us_64+0x4>
10003486:	4770      	bx	lr

10003488 <time_us_64>:
10003488:	4b03      	ldr	r3, [pc, #12]	@ (10003498 <time_us_64+0x10>)
1000348a:	6a59      	ldr	r1, [r3, #36]	@ 0x24
1000348c:	460a      	mov	r2, r1
1000348e:	6a98      	ldr	r0, [r3, #40]	@ 0x28
10003490:	6a59      	ldr	r1, [r3, #36]	@ 0x24
10003492:	4291      	cmp	r1, r2
10003494:	d1fa      	bne.n	1000348c <time_us_64+0x4>
10003496:	4770      	bx	lr
10003498:	400b0000 	.word	0x400b0000

1000349c <pll_init>:
1000349c:	b510      	push	{r4, lr}
1000349e:	9c02      	ldr	r4, [sp, #8]
100034a0:	468e      	mov	lr, r1
100034a2:	ea4f 3c04 	mov.w	ip, r4, lsl #12
100034a6:	ea4c 4c03 	orr.w	ip, ip, r3, lsl #16
100034aa:	4b1c      	ldr	r3, [pc, #112]	@ (1000351c <pll_init+0x80>)
100034ac:	fbb3 f3f1 	udiv	r3, r3, r1
100034b0:	6801      	ldr	r1, [r0, #0]
100034b2:	fbb2 f4f3 	udiv	r4, r2, r3
100034b6:	2900      	cmp	r1, #0
100034b8:	db20      	blt.n	100034fc <pll_init+0x60>
100034ba:	4a19      	ldr	r2, [pc, #100]	@ (10003520 <pll_init+0x84>)
100034bc:	4b19      	ldr	r3, [pc, #100]	@ (10003524 <pll_init+0x88>)
100034be:	4290      	cmp	r0, r2
100034c0:	bf14      	ite	ne
100034c2:	f44f 4280 	movne.w	r2, #16384	@ 0x4000
100034c6:	f44f 4200 	moveq.w	r2, #32768	@ 0x8000
100034ca:	4917      	ldr	r1, [pc, #92]	@ (10003528 <pll_init+0x8c>)
100034cc:	601a      	str	r2, [r3, #0]
100034ce:	f503 5380 	add.w	r3, r3, #4096	@ 0x1000
100034d2:	601a      	str	r2, [r3, #0]
100034d4:	688b      	ldr	r3, [r1, #8]
100034d6:	ea32 0303 	bics.w	r3, r2, r3
100034da:	d1fb      	bne.n	100034d4 <pll_init+0x38>
100034dc:	2221      	movs	r2, #33	@ 0x21
100034de:	f500 5340 	add.w	r3, r0, #12288	@ 0x3000
100034e2:	3304      	adds	r3, #4
100034e4:	f8c0 e000 	str.w	lr, [r0]
100034e8:	6084      	str	r4, [r0, #8]
100034ea:	601a      	str	r2, [r3, #0]
100034ec:	6802      	ldr	r2, [r0, #0]
100034ee:	2a00      	cmp	r2, #0
100034f0:	dafc      	bge.n	100034ec <pll_init+0x50>
100034f2:	2208      	movs	r2, #8
100034f4:	f8c0 c00c 	str.w	ip, [r0, #12]
100034f8:	601a      	str	r2, [r3, #0]
100034fa:	bd10      	pop	{r4, pc}
100034fc:	6803      	ldr	r3, [r0, #0]
100034fe:	f003 033f 	and.w	r3, r3, #63	@ 0x3f
10003502:	4573      	cmp	r3, lr
10003504:	d1d9      	bne.n	100034ba <pll_init+0x1e>
10003506:	6883      	ldr	r3, [r0, #8]
10003508:	f3c3 030b 	ubfx	r3, r3, #0, #12
1000350c:	42a3      	cmp	r3, r4
1000350e:	d1d4      	bne.n	100034ba <pll_init+0x1e>
10003510:	68c3      	ldr	r3, [r0, #12]
10003512:	f403 23ee 	and.w	r3, r3, #487424	@ 0x77000
10003516:	4563      	cmp	r3, ip
10003518:	d1cf      	bne.n	100034ba <pll_init+0x1e>
1000351a:	bd10      	pop	{r4, pc}
1000351c:	00b71b00 	.word	0x00b71b00
10003520:	40058000 	.word	0x40058000
10003524:	40022000 	.word	0x40022000
10003528:	40020000 	.word	0x40020000

1000352c <watchdog_reboot>:
1000352c:	f04f 4c80 	mov.w	ip, #1073741824	@ 0x40000000
10003530:	4b21      	ldr	r3, [pc, #132]	@ (100035b8 <watchdog_reboot+0x8c>)
10003532:	b500      	push	{lr}
10003534:	f8c3 c000 	str.w	ip, [r3]
10003538:	2800      	cmp	r0, #0
1000353a:	d039      	beq.n	100035b0 <watchdog_reboot+0x84>
1000353c:	f8df c088 	ldr.w	ip, [pc, #136]	@ 100035c8 <watchdog_reboot+0x9c>
10003540:	f5a3 5340 	sub.w	r3, r3, #12288	@ 0x3000
10003544:	f8c3 c01c 	str.w	ip, [r3, #28]
10003548:	f8df c080 	ldr.w	ip, [pc, #128]	@ 100035cc <watchdog_reboot+0xa0>
1000354c:	f040 0001 	orr.w	r0, r0, #1
10003550:	ea80 0c0c 	eor.w	ip, r0, ip
10003554:	f8c3 c020 	str.w	ip, [r3, #32]
10003558:	6259      	str	r1, [r3, #36]	@ 0x24
1000355a:	6298      	str	r0, [r3, #40]	@ 0x28
1000355c:	f04f 4e80 	mov.w	lr, #1073741824	@ 0x40000000
10003560:	f04f 61e0 	mov.w	r1, #117440512	@ 0x7000000
10003564:	4b14      	ldr	r3, [pc, #80]	@ (100035b8 <watchdog_reboot+0x8c>)
10003566:	4815      	ldr	r0, [pc, #84]	@ (100035bc <watchdog_reboot+0x90>)
10003568:	f8df c064 	ldr.w	ip, [pc, #100]	@ 100035d0 <watchdog_reboot+0xa4>
1000356c:	f8c3 e000 	str.w	lr, [r3]
10003570:	f8c0 c008 	str.w	ip, [r0, #8]
10003574:	6019      	str	r1, [r3, #0]
10003576:	b92a      	cbnz	r2, 10003584 <watchdog_reboot+0x58>
10003578:	f04f 4200 	mov.w	r2, #2147483648	@ 0x80000000
1000357c:	f5a3 5380 	sub.w	r3, r3, #4096	@ 0x1000
10003580:	601a      	str	r2, [r3, #0]
10003582:	bd00      	pop	{pc}
10003584:	f44f 737a 	mov.w	r3, #1000	@ 0x3e8
10003588:	fb03 f202 	mul.w	r2, r3, r2
1000358c:	f1b2 7f80 	cmp.w	r2, #16777216	@ 0x1000000
10003590:	bf2a      	itet	cs
10003592:	f06f 437f 	mvncs.w	r3, #4278190080	@ 0xff000000
10003596:	4613      	movcc	r3, r2
10003598:	461a      	movcs	r2, r3
1000359a:	f04f 4180 	mov.w	r1, #1073741824	@ 0x40000000
1000359e:	f8df c034 	ldr.w	ip, [pc, #52]	@ 100035d4 <watchdog_reboot+0xa8>
100035a2:	4807      	ldr	r0, [pc, #28]	@ (100035c0 <watchdog_reboot+0x94>)
100035a4:	f8cc 3000 	str.w	r3, [ip]
100035a8:	4b06      	ldr	r3, [pc, #24]	@ (100035c4 <watchdog_reboot+0x98>)
100035aa:	6042      	str	r2, [r0, #4]
100035ac:	6019      	str	r1, [r3, #0]
100035ae:	bd00      	pop	{pc}
100035b0:	4b03      	ldr	r3, [pc, #12]	@ (100035c0 <watchdog_reboot+0x94>)
100035b2:	61d8      	str	r0, [r3, #28]
100035b4:	e7d2      	b.n	1000355c <watchdog_reboot+0x30>
100035b6:	bf00      	nop
100035b8:	400db000 	.word	0x400db000
100035bc:	4001a000 	.word	0x4001a000
100035c0:	400d8000 	.word	0x400d8000
100035c4:	400da000 	.word	0x400da000
100035c8:	b007c0d3 	.word	0xb007c0d3
100035cc:	4ff83f2d 	.word	0x4ff83f2d
100035d0:	01fffff3 	.word	0x01fffff3
100035d4:	20001e94 	.word	0x20001e94

100035d8 <tick_start>:
100035d8:	2301      	movs	r3, #1
100035da:	eb00 0040 	add.w	r0, r0, r0, lsl #1
100035de:	0080      	lsls	r0, r0, #2
100035e0:	f100 4080 	add.w	r0, r0, #1073741824	@ 0x40000000
100035e4:	f500 1084 	add.w	r0, r0, #1081344	@ 0x108000
100035e8:	6041      	str	r1, [r0, #4]
100035ea:	6003      	str	r3, [r0, #0]
100035ec:	4770      	bx	lr
100035ee:	bf00      	nop

100035f0 <rom_reboot.constprop.0.isra.0>:
100035f0:	b510      	push	{r4, lr}
100035f2:	2400      	movs	r4, #0
100035f4:	b082      	sub	sp, #8
100035f6:	460b      	mov	r3, r1
100035f8:	8ae4      	ldrh	r4, [r4, #22]
100035fa:	2100      	movs	r1, #0
100035fc:	e841 f100 	tt	r1, r1
10003600:	e9cd 0300 	strd	r0, r3, [sp]
10003604:	024b      	lsls	r3, r1, #9
10003606:	bf54      	ite	pl
10003608:	2110      	movpl	r1, #16
1000360a:	2104      	movmi	r1, #4
1000360c:	f244 2052 	movw	r0, #16978	@ 0x4252
10003610:	47a0      	blx	r4
10003612:	e9dd 2300 	ldrd	r2, r3, [sp]
10003616:	4686      	mov	lr, r0
10003618:	210a      	movs	r1, #10
1000361a:	f44f 7081 	mov.w	r0, #258	@ 0x102
1000361e:	46f4      	mov	ip, lr
10003620:	b002      	add	sp, #8
10003622:	e8bd 4010 	ldmia.w	sp!, {r4, lr}
10003626:	4760      	bx	ip

10003628 <rom_func_lookup>:
10003628:	2300      	movs	r3, #0
1000362a:	8adb      	ldrh	r3, [r3, #22]
1000362c:	2200      	movs	r2, #0
1000362e:	e842 f200 	tt	r2, r2
10003632:	0252      	lsls	r2, r2, #9
10003634:	d401      	bmi.n	1000363a <rom_func_lookup+0x12>
10003636:	2110      	movs	r1, #16
10003638:	4718      	bx	r3
1000363a:	2104      	movs	r1, #4
1000363c:	4718      	bx	r3
1000363e:	bf00      	nop

10003640 <rom_reset_usb_boot_extra>:
10003640:	b508      	push	{r3, lr}
10003642:	4603      	mov	r3, r0
10003644:	4608      	mov	r0, r1
10003646:	1e19      	subs	r1, r3, #0
10003648:	db02      	blt.n	10003650 <rom_reset_usb_boot_extra+0x10>
1000364a:	b11a      	cbz	r2, 10003654 <rom_reset_usb_boot_extra+0x14>
1000364c:	f040 0030 	orr.w	r0, r0, #48	@ 0x30
10003650:	f7ff ffce 	bl	100035f0 <rom_reboot.constprop.0.isra.0>
10003654:	f040 0020 	orr.w	r0, r0, #32
10003658:	e7fa      	b.n	10003650 <rom_reset_usb_boot_extra+0x10>
1000365a:	bf00      	nop

1000365c <runtime_init_bootrom_locking_enable>:
1000365c:	4a03      	ldr	r2, [pc, #12]	@ (1000366c <runtime_init_bootrom_locking_enable+0x10>)
1000365e:	f8d2 3828 	ldr.w	r3, [r2, #2088]	@ 0x828
10003662:	2b00      	cmp	r3, #0
10003664:	d0fb      	beq.n	1000365e <runtime_init_bootrom_locking_enable+0x2>
10003666:	f3bf 8f5f 	dmb	sy
1000366a:	4770      	bx	lr
1000366c:	400e0000 	.word	0x400e0000

10003670 <runtime_init_boot_locks_reset>:
10003670:	2100      	movs	r1, #0
10003672:	4b04      	ldr	r3, [pc, #16]	@ (10003684 <runtime_init_boot_locks_reset+0x14>)
10003674:	4a04      	ldr	r2, [pc, #16]	@ (10003688 <runtime_init_boot_locks_reset+0x18>)
10003676:	f3bf 8f5f 	dmb	sy
1000367a:	f843 1b04 	str.w	r1, [r3], #4
1000367e:	4293      	cmp	r3, r2
10003680:	d1f9      	bne.n	10003676 <runtime_init_boot_locks_reset+0x6>
10003682:	4770      	bx	lr
10003684:	400e080c 	.word	0x400e080c
10003688:	400e082c 	.word	0x400e082c

1000368c <xosc_init>:
1000368c:	f44f 6c2a 	mov.w	ip, #2720	@ 0xaa0
10003690:	f44f 708d 	mov.w	r0, #282	@ 0x11a
10003694:	4a05      	ldr	r2, [pc, #20]	@ (100036ac <xosc_init+0x20>)
10003696:	4b06      	ldr	r3, [pc, #24]	@ (100036b0 <xosc_init+0x24>)
10003698:	4906      	ldr	r1, [pc, #24]	@ (100036b4 <xosc_init+0x28>)
1000369a:	f8c2 c000 	str.w	ip, [r2]
1000369e:	60d0      	str	r0, [r2, #12]
100036a0:	6019      	str	r1, [r3, #0]
100036a2:	6853      	ldr	r3, [r2, #4]
100036a4:	2b00      	cmp	r3, #0
100036a6:	dafc      	bge.n	100036a2 <xosc_init+0x16>
100036a8:	4770      	bx	lr
100036aa:	bf00      	nop
100036ac:	40048000 	.word	0x40048000
100036b0:	4004a000 	.word	0x4004a000
100036b4:	00fab000 	.word	0x00fab000

100036b8 <exception_set_exclusive_handler>:
100036b8:	b500      	push	{lr}
100036ba:	b085      	sub	sp, #20
100036bc:	f3ef 8210 	mrs	r2, PRIMASK
100036c0:	b672      	cpsid	i
100036c2:	4b13      	ldr	r3, [pc, #76]	@ (10003710 <exception_set_exclusive_handler+0x58>)
100036c4:	689b      	ldr	r3, [r3, #8]
100036c6:	f853 3020 	ldr.w	r3, [r3, r0, lsl #2]
100036ca:	4299      	cmp	r1, r3
100036cc:	d00d      	beq.n	100036ea <exception_set_exclusive_handler+0x32>
100036ce:	f8df c044 	ldr.w	ip, [pc, #68]	@ 10003714 <exception_set_exclusive_handler+0x5c>
100036d2:	4563      	cmp	r3, ip
100036d4:	d216      	bcs.n	10003704 <exception_set_exclusive_handler+0x4c>
100036d6:	e9cd 0102 	strd	r0, r1, [sp, #8]
100036da:	e9cd 3200 	strd	r3, r2, [sp]
100036de:	f000 f979 	bl	100039d4 <hard_assertion_failure>
100036e2:	e9dd 0102 	ldrd	r0, r1, [sp, #8]
100036e6:	e9dd 3200 	ldrd	r3, r2, [sp]
100036ea:	f8df c024 	ldr.w	ip, [pc, #36]	@ 10003710 <exception_set_exclusive_handler+0x58>
100036ee:	f8dc c008 	ldr.w	ip, [ip, #8]
100036f2:	f84c 1020 	str.w	r1, [ip, r0, lsl #2]
100036f6:	f3bf 8f5f 	dmb	sy
100036fa:	f382 8810 	msr	PRIMASK, r2
100036fe:	4618      	mov	r0, r3
10003700:	b005      	add	sp, #20
10003702:	bd00      	pop	{pc}
10003704:	f8df c010 	ldr.w	ip, [pc, #16]	@ 10003718 <exception_set_exclusive_handler+0x60>
10003708:	4563      	cmp	r3, ip
1000370a:	d3ee      	bcc.n	100036ea <exception_set_exclusive_handler+0x32>
1000370c:	e7e3      	b.n	100036d6 <exception_set_exclusive_handler+0x1e>
1000370e:	bf00      	nop
10003710:	e000ed00 	.word	0xe000ed00
10003714:	10000110 	.word	0x10000110
10003718:	10000124 	.word	0x10000124

1000371c <multicore_doorbell_claim_unused>:
1000371c:	b570      	push	{r4, r5, r6, lr}
1000371e:	4605      	mov	r5, r0
10003720:	460e      	mov	r6, r1
10003722:	f7fe ffb5 	bl	10002690 <hw_claim_lock>
10003726:	4939      	ldr	r1, [pc, #228]	@ (1000380c <multicore_doorbell_claim_unused+0xf0>)
10003728:	788c      	ldrb	r4, [r1, #2]
1000372a:	f991 3000 	ldrsb.w	r3, [r1]
1000372e:	f004 0401 	and.w	r4, r4, #1
10003732:	0fdb      	lsrs	r3, r3, #31
10003734:	ea43 0344 	orr.w	r3, r3, r4, lsl #1
10003738:	422b      	tst	r3, r5
1000373a:	780a      	ldrb	r2, [r1, #0]
1000373c:	d056      	beq.n	100037ec <multicore_doorbell_claim_unused+0xd0>
1000373e:	f991 3001 	ldrsb.w	r3, [r1, #1]
10003742:	f3c2 1480 	ubfx	r4, r2, #6, #1
10003746:	0fdb      	lsrs	r3, r3, #31
10003748:	ea44 0443 	orr.w	r4, r4, r3, lsl #1
1000374c:	422c      	tst	r4, r5
1000374e:	784b      	ldrb	r3, [r1, #1]
10003750:	d04f      	beq.n	100037f2 <multicore_doorbell_claim_unused+0xd6>
10003752:	f3c3 1c80 	ubfx	ip, r3, #6, #1
10003756:	f3c2 1440 	ubfx	r4, r2, #5, #1
1000375a:	ea44 044c 	orr.w	r4, r4, ip, lsl #1
1000375e:	422c      	tst	r4, r5
10003760:	d04a      	beq.n	100037f8 <multicore_doorbell_claim_unused+0xdc>
10003762:	f3c3 1c40 	ubfx	ip, r3, #5, #1
10003766:	f3c2 1400 	ubfx	r4, r2, #4, #1
1000376a:	ea44 044c 	orr.w	r4, r4, ip, lsl #1
1000376e:	422c      	tst	r4, r5
10003770:	d045      	beq.n	100037fe <multicore_doorbell_claim_unused+0xe2>
10003772:	f3c3 1c00 	ubfx	ip, r3, #4, #1
10003776:	f3c2 04c0 	ubfx	r4, r2, #3, #1
1000377a:	ea44 044c 	orr.w	r4, r4, ip, lsl #1
1000377e:	422c      	tst	r4, r5
10003780:	d040      	beq.n	10003804 <multicore_doorbell_claim_unused+0xe8>
10003782:	f3c3 0cc0 	ubfx	ip, r3, #3, #1
10003786:	f3c2 0480 	ubfx	r4, r2, #2, #1
1000378a:	ea44 044c 	orr.w	r4, r4, ip, lsl #1
1000378e:	422c      	tst	r4, r5
10003790:	d012      	beq.n	100037b8 <multicore_doorbell_claim_unused+0x9c>
10003792:	f3c3 0c80 	ubfx	ip, r3, #2, #1
10003796:	f3c2 0440 	ubfx	r4, r2, #1, #1
1000379a:	ea44 044c 	orr.w	r4, r4, ip, lsl #1
1000379e:	422c      	tst	r4, r5
100037a0:	d019      	beq.n	100037d6 <multicore_doorbell_claim_unused+0xba>
100037a2:	f003 0402 	and.w	r4, r3, #2
100037a6:	f002 0301 	and.w	r3, r2, #1
100037aa:	431c      	orrs	r4, r3
100037ac:	402c      	ands	r4, r5
100037ae:	d015      	beq.n	100037dc <multicore_doorbell_claim_unused+0xc0>
100037b0:	b1b6      	cbz	r6, 100037e0 <multicore_doorbell_claim_unused+0xc4>
100037b2:	4817      	ldr	r0, [pc, #92]	@ (10003810 <multicore_doorbell_claim_unused+0xf4>)
100037b4:	f7fe ff54 	bl	10002660 <panic>
100037b8:	2402      	movs	r4, #2
100037ba:	2304      	movs	r3, #4
100037bc:	07ee      	lsls	r6, r5, #31
100037be:	bf44      	itt	mi
100037c0:	431a      	orrmi	r2, r3
100037c2:	700a      	strbmi	r2, [r1, #0]
100037c4:	07aa      	lsls	r2, r5, #30
100037c6:	d502      	bpl.n	100037ce <multicore_doorbell_claim_unused+0xb2>
100037c8:	784a      	ldrb	r2, [r1, #1]
100037ca:	4313      	orrs	r3, r2
100037cc:	704b      	strb	r3, [r1, #1]
100037ce:	f7fe ff71 	bl	100026b4 <hw_claim_unlock>
100037d2:	4620      	mov	r0, r4
100037d4:	bd70      	pop	{r4, r5, r6, pc}
100037d6:	2401      	movs	r4, #1
100037d8:	2302      	movs	r3, #2
100037da:	e7ef      	b.n	100037bc <multicore_doorbell_claim_unused+0xa0>
100037dc:	2301      	movs	r3, #1
100037de:	e7ed      	b.n	100037bc <multicore_doorbell_claim_unused+0xa0>
100037e0:	f06f 0408 	mvn.w	r4, #8
100037e4:	f7fe ff66 	bl	100026b4 <hw_claim_unlock>
100037e8:	4620      	mov	r0, r4
100037ea:	bd70      	pop	{r4, r5, r6, pc}
100037ec:	2407      	movs	r4, #7
100037ee:	2380      	movs	r3, #128	@ 0x80
100037f0:	e7e4      	b.n	100037bc <multicore_doorbell_claim_unused+0xa0>
100037f2:	2406      	movs	r4, #6
100037f4:	2340      	movs	r3, #64	@ 0x40
100037f6:	e7e1      	b.n	100037bc <multicore_doorbell_claim_unused+0xa0>
100037f8:	2405      	movs	r4, #5
100037fa:	2320      	movs	r3, #32
100037fc:	e7de      	b.n	100037bc <multicore_doorbell_claim_unused+0xa0>
100037fe:	2404      	movs	r4, #4
10003800:	2310      	movs	r3, #16
10003802:	e7db      	b.n	100037bc <multicore_doorbell_claim_unused+0xa0>
10003804:	2403      	movs	r4, #3
10003806:	2308      	movs	r3, #8
10003808:	e7d8      	b.n	100037bc <multicore_doorbell_claim_unused+0xa0>
1000380a:	bf00      	nop
1000380c:	20001a80 	.word	0x20001a80
10003810:	10006864 	.word	0x10006864

10003814 <_retrieve_unique_id_on_boot>:
10003814:	b500      	push	{lr}
10003816:	f245 3047 	movw	r0, #21319	@ 0x5347
1000381a:	b08b      	sub	sp, #44	@ 0x2c
1000381c:	f7ff ff04 	bl	10003628 <rom_func_lookup>
10003820:	2201      	movs	r2, #1
10003822:	4603      	mov	r3, r0
10003824:	2109      	movs	r1, #9
10003826:	a801      	add	r0, sp, #4
10003828:	4798      	blx	r3
1000382a:	e9dd 3203 	ldrd	r3, r2, [sp, #12]
1000382e:	4903      	ldr	r1, [pc, #12]	@ (1000383c <_retrieve_unique_id_on_boot+0x28>)
10003830:	ba12      	rev	r2, r2
10003832:	ba1b      	rev	r3, r3
10003834:	e9c1 2300 	strd	r2, r3, [r1]
10003838:	b00b      	add	sp, #44	@ 0x2c
1000383a:	bd00      	pop	{pc}
1000383c:	20002178 	.word	0x20002178

10003840 <pico_get_unique_board_id_string>:
10003840:	2901      	cmp	r1, #1
10003842:	f000 80bb 	beq.w	100039bc <pico_get_unique_board_id_string+0x17c>
10003846:	4a61      	ldr	r2, [pc, #388]	@ (100039cc <pico_get_unique_board_id_string+0x18c>)
10003848:	3901      	subs	r1, #1
1000384a:	7813      	ldrb	r3, [r2, #0]
1000384c:	ea4f 1c23 	mov.w	ip, r3, asr #4
10003850:	f1bc 0f09 	cmp.w	ip, #9
10003854:	bfcc      	ite	gt
10003856:	f10c 0c37 	addgt.w	ip, ip, #55	@ 0x37
1000385a:	f10c 0c30 	addle.w	ip, ip, #48	@ 0x30
1000385e:	2901      	cmp	r1, #1
10003860:	f880 c000 	strb.w	ip, [r0]
10003864:	f000 80ad 	beq.w	100039c2 <pico_get_unique_board_id_string+0x182>
10003868:	f003 030f 	and.w	r3, r3, #15
1000386c:	2b09      	cmp	r3, #9
1000386e:	bf8c      	ite	hi
10003870:	3337      	addhi	r3, #55	@ 0x37
10003872:	3330      	addls	r3, #48	@ 0x30
10003874:	2902      	cmp	r1, #2
10003876:	7043      	strb	r3, [r0, #1]
10003878:	f000 80a3 	beq.w	100039c2 <pico_get_unique_board_id_string+0x182>
1000387c:	7853      	ldrb	r3, [r2, #1]
1000387e:	ea4f 1c23 	mov.w	ip, r3, asr #4
10003882:	f1bc 0f09 	cmp.w	ip, #9
10003886:	bfcc      	ite	gt
10003888:	f10c 0c37 	addgt.w	ip, ip, #55	@ 0x37
1000388c:	f10c 0c30 	addle.w	ip, ip, #48	@ 0x30
10003890:	2903      	cmp	r1, #3
10003892:	f880 c002 	strb.w	ip, [r0, #2]
10003896:	f000 8094 	beq.w	100039c2 <pico_get_unique_board_id_string+0x182>
1000389a:	f003 030f 	and.w	r3, r3, #15
1000389e:	2b09      	cmp	r3, #9
100038a0:	bf8c      	ite	hi
100038a2:	3337      	addhi	r3, #55	@ 0x37
100038a4:	3330      	addls	r3, #48	@ 0x30
100038a6:	2904      	cmp	r1, #4
100038a8:	70c3      	strb	r3, [r0, #3]
100038aa:	f000 808a 	beq.w	100039c2 <pico_get_unique_board_id_string+0x182>
100038ae:	7893      	ldrb	r3, [r2, #2]
100038b0:	ea4f 1c23 	mov.w	ip, r3, asr #4
100038b4:	f1bc 0f09 	cmp.w	ip, #9
100038b8:	bfcc      	ite	gt
100038ba:	f10c 0c37 	addgt.w	ip, ip, #55	@ 0x37
100038be:	f10c 0c30 	addle.w	ip, ip, #48	@ 0x30
100038c2:	2905      	cmp	r1, #5
100038c4:	f880 c004 	strb.w	ip, [r0, #4]
100038c8:	d07b      	beq.n	100039c2 <pico_get_unique_board_id_string+0x182>
100038ca:	f003 030f 	and.w	r3, r3, #15
100038ce:	2b09      	cmp	r3, #9
100038d0:	bf8c      	ite	hi
100038d2:	3337      	addhi	r3, #55	@ 0x37
100038d4:	3330      	addls	r3, #48	@ 0x30
100038d6:	2906      	cmp	r1, #6
100038d8:	7143      	strb	r3, [r0, #5]
100038da:	d072      	beq.n	100039c2 <pico_get_unique_board_id_string+0x182>
100038dc:	78d3      	ldrb	r3, [r2, #3]
100038de:	ea4f 1c23 	mov.w	ip, r3, asr #4
100038e2:	f1bc 0f09 	cmp.w	ip, #9
100038e6:	bfcc      	ite	gt
100038e8:	f10c 0c37 	addgt.w	ip, ip, #55	@ 0x37
100038ec:	f10c 0c30 	addle.w	ip, ip, #48	@ 0x30
100038f0:	2907      	cmp	r1, #7
100038f2:	f880 c006 	strb.w	ip, [r0, #6]
100038f6:	d064      	beq.n	100039c2 <pico_get_unique_board_id_string+0x182>
100038f8:	f003 030f 	and.w	r3, r3, #15
100038fc:	2b09      	cmp	r3, #9
100038fe:	bf8c      	ite	hi
10003900:	3337      	addhi	r3, #55	@ 0x37
10003902:	3330      	addls	r3, #48	@ 0x30
10003904:	2908      	cmp	r1, #8
10003906:	71c3      	strb	r3, [r0, #7]
10003908:	d05b      	beq.n	100039c2 <pico_get_unique_board_id_string+0x182>
1000390a:	7913      	ldrb	r3, [r2, #4]
1000390c:	ea4f 1c23 	mov.w	ip, r3, asr #4
10003910:	f1bc 0f09 	cmp.w	ip, #9
10003914:	bfcc      	ite	gt
10003916:	f10c 0c37 	addgt.w	ip, ip, #55	@ 0x37
1000391a:	f10c 0c30 	addle.w	ip, ip, #48	@ 0x30
1000391e:	2909      	cmp	r1, #9
10003920:	f880 c008 	strb.w	ip, [r0, #8]
10003924:	d04d      	beq.n	100039c2 <pico_get_unique_board_id_string+0x182>
10003926:	f003 030f 	and.w	r3, r3, #15
1000392a:	2b09      	cmp	r3, #9
1000392c:	bf8c      	ite	hi
1000392e:	3337      	addhi	r3, #55	@ 0x37
10003930:	3330      	addls	r3, #48	@ 0x30
10003932:	290a      	cmp	r1, #10
10003934:	7243      	strb	r3, [r0, #9]
10003936:	d044      	beq.n	100039c2 <pico_get_unique_board_id_string+0x182>
10003938:	7953      	ldrb	r3, [r2, #5]
1000393a:	ea4f 1c23 	mov.w	ip, r3, asr #4
1000393e:	f1bc 0f09 	cmp.w	ip, #9
10003942:	bfcc      	ite	gt
10003944:	f10c 0c37 	addgt.w	ip, ip, #55	@ 0x37
10003948:	f10c 0c30 	addle.w	ip, ip, #48	@ 0x30
1000394c:	290b      	cmp	r1, #11
1000394e:	f880 c00a 	strb.w	ip, [r0, #10]
10003952:	d036      	beq.n	100039c2 <pico_get_unique_board_id_string+0x182>
10003954:	f003 030f 	and.w	r3, r3, #15
10003958:	2b09      	cmp	r3, #9
1000395a:	bf8c      	ite	hi
1000395c:	3337      	addhi	r3, #55	@ 0x37
1000395e:	3330      	addls	r3, #48	@ 0x30
10003960:	290c      	cmp	r1, #12
10003962:	72c3      	strb	r3, [r0, #11]
10003964:	d02d      	beq.n	100039c2 <pico_get_unique_board_id_string+0x182>
10003966:	7993      	ldrb	r3, [r2, #6]
10003968:	ea4f 1c23 	mov.w	ip, r3, asr #4
1000396c:	f1bc 0f09 	cmp.w	ip, #9
10003970:	bfcc      	ite	gt
10003972:	f10c 0c37 	addgt.w	ip, ip, #55	@ 0x37
10003976:	f10c 0c30 	addle.w	ip, ip, #48	@ 0x30
1000397a:	290d      	cmp	r1, #13
1000397c:	f880 c00c 	strb.w	ip, [r0, #12]
10003980:	d01f      	beq.n	100039c2 <pico_get_unique_board_id_string+0x182>
10003982:	f003 030f 	and.w	r3, r3, #15
10003986:	2b09      	cmp	r3, #9
10003988:	bf8c      	ite	hi
1000398a:	3337      	addhi	r3, #55	@ 0x37
1000398c:	3330      	addls	r3, #48	@ 0x30
1000398e:	290e      	cmp	r1, #14
10003990:	7343      	strb	r3, [r0, #13]
10003992:	d016      	beq.n	100039c2 <pico_get_unique_board_id_string+0x182>
10003994:	79d3      	ldrb	r3, [r2, #7]
10003996:	111a      	asrs	r2, r3, #4
10003998:	2a09      	cmp	r2, #9
1000399a:	bfcc      	ite	gt
1000399c:	3237      	addgt	r2, #55	@ 0x37
1000399e:	3230      	addle	r2, #48	@ 0x30
100039a0:	290f      	cmp	r1, #15
100039a2:	7382      	strb	r2, [r0, #14]
100039a4:	d00d      	beq.n	100039c2 <pico_get_unique_board_id_string+0x182>
100039a6:	f003 030f 	and.w	r3, r3, #15
100039aa:	2b09      	cmp	r3, #9
100039ac:	bf94      	ite	ls
100039ae:	3330      	addls	r3, #48	@ 0x30
100039b0:	3337      	addhi	r3, #55	@ 0x37
100039b2:	2910      	cmp	r1, #16
100039b4:	73c3      	strb	r3, [r0, #15]
100039b6:	bf18      	it	ne
100039b8:	3010      	addne	r0, #16
100039ba:	d002      	beq.n	100039c2 <pico_get_unique_board_id_string+0x182>
100039bc:	2300      	movs	r3, #0
100039be:	7003      	strb	r3, [r0, #0]
100039c0:	4770      	bx	lr
100039c2:	2300      	movs	r3, #0
100039c4:	4408      	add	r0, r1
100039c6:	7003      	strb	r3, [r0, #0]
100039c8:	4770      	bx	lr
100039ca:	bf00      	nop
100039cc:	20002178 	.word	0x20002178

100039d0 <first_per_core_initializer>:
100039d0:	4770      	bx	lr
100039d2:	bf00      	nop

100039d4 <hard_assertion_failure>:
100039d4:	b508      	push	{r3, lr}
100039d6:	4801      	ldr	r0, [pc, #4]	@ (100039dc <hard_assertion_failure+0x8>)
100039d8:	f7fe fe42 	bl	10002660 <panic>
100039dc:	10006878 	.word	0x10006878

100039e0 <runtime_run_initializers>:
100039e0:	b538      	push	{r3, r4, r5, lr}
100039e2:	4c05      	ldr	r4, [pc, #20]	@ (100039f8 <runtime_run_initializers+0x18>)
100039e4:	4d05      	ldr	r5, [pc, #20]	@ (100039fc <runtime_run_initializers+0x1c>)
100039e6:	42ac      	cmp	r4, r5
100039e8:	d204      	bcs.n	100039f4 <runtime_run_initializers+0x14>
100039ea:	f854 3b04 	ldr.w	r3, [r4], #4
100039ee:	4798      	blx	r3
100039f0:	42ac      	cmp	r4, r5
100039f2:	d3fa      	bcc.n	100039ea <runtime_run_initializers+0xa>
100039f4:	bd38      	pop	{r3, r4, r5, pc}
100039f6:	bf00      	nop
100039f8:	10006778 	.word	0x10006778
100039fc:	100067b8 	.word	0x100067b8

10003a00 <runtime_init_early_resets>:
10003a00:	4806      	ldr	r0, [pc, #24]	@ (10003a1c <runtime_init_early_resets+0x1c>)
10003a02:	f8df c028 	ldr.w	ip, [pc, #40]	@ 10003a2c <runtime_init_early_resets+0x2c>
10003a06:	4b06      	ldr	r3, [pc, #24]	@ (10003a20 <runtime_init_early_resets+0x20>)
10003a08:	4a06      	ldr	r2, [pc, #24]	@ (10003a24 <runtime_init_early_resets+0x24>)
10003a0a:	4907      	ldr	r1, [pc, #28]	@ (10003a28 <runtime_init_early_resets+0x28>)
10003a0c:	f8c0 c000 	str.w	ip, [r0]
10003a10:	601a      	str	r2, [r3, #0]
10003a12:	688b      	ldr	r3, [r1, #8]
10003a14:	ea32 0303 	bics.w	r3, r2, r3
10003a18:	d1fb      	bne.n	10003a12 <runtime_init_early_resets+0x12>
10003a1a:	4770      	bx	lr
10003a1c:	40022000 	.word	0x40022000
10003a20:	40023000 	.word	0x40023000
10003a24:	03f3fff6 	.word	0x03f3fff6
10003a28:	40020000 	.word	0x40020000
10003a2c:	efef3b7f 	.word	0xefef3b7f

10003a30 <runtime_init_usb_power_down>:
10003a30:	4b04      	ldr	r3, [pc, #16]	@ (10003a44 <runtime_init_usb_power_down+0x14>)
10003a32:	6cdb      	ldr	r3, [r3, #76]	@ 0x4c
10003a34:	f5b3 4f00 	cmp.w	r3, #32768	@ 0x8000
10003a38:	d103      	bne.n	10003a42 <runtime_init_usb_power_down+0x12>
10003a3a:	f44f 2280 	mov.w	r2, #262144	@ 0x40000
10003a3e:	4b02      	ldr	r3, [pc, #8]	@ (10003a48 <runtime_init_usb_power_down+0x18>)
10003a40:	64da      	str	r2, [r3, #76]	@ 0x4c
10003a42:	4770      	bx	lr
10003a44:	50110000 	.word	0x50110000
10003a48:	50112000 	.word	0x50112000

10003a4c <runtime_init_per_core_enable_coprocessors>:
10003a4c:	f04f 22e0 	mov.w	r2, #3758153728	@ 0xe000e000
10003a50:	4b04      	ldr	r3, [pc, #16]	@ (10003a64 <runtime_init_per_core_enable_coprocessors+0x18>)
10003a52:	f8d2 1d88 	ldr.w	r1, [r2, #3464]	@ 0xd88
10003a56:	430b      	orrs	r3, r1
10003a58:	f8c2 3d88 	str.w	r3, [r2, #3464]	@ 0xd88
10003a5c:	ee10 0430 			dcp_rcmp r0
10003a60:	4770      	bx	lr
10003a62:	bf00      	nop
10003a64:	00300303 	.word	0x00300303

10003a68 <runtime_init_post_clock_resets>:
10003a68:	f06f 4160 	mvn.w	r1, #3758096384	@ 0xe0000000
10003a6c:	4b04      	ldr	r3, [pc, #16]	@ (10003a80 <runtime_init_post_clock_resets+0x18>)
10003a6e:	4a05      	ldr	r2, [pc, #20]	@ (10003a84 <runtime_init_post_clock_resets+0x1c>)
10003a70:	6019      	str	r1, [r3, #0]
10003a72:	6893      	ldr	r3, [r2, #8]
10003a74:	43db      	mvns	r3, r3
10003a76:	f033 4360 	bics.w	r3, r3, #3758096384	@ 0xe0000000
10003a7a:	d1fa      	bne.n	10003a72 <runtime_init_post_clock_resets+0xa>
10003a7c:	4770      	bx	lr
10003a7e:	bf00      	nop
10003a80:	40023000 	.word	0x40023000
10003a84:	40020000 	.word	0x40020000

10003a88 <runtime_init_bootrom_reset>:
10003a88:	b510      	push	{r4, lr}
10003a8a:	f245 2053 	movw	r0, #21075	@ 0x5253
10003a8e:	f7ff fdcb 	bl	10003628 <rom_func_lookup>
10003a92:	e8bd 4010 	ldmia.w	sp!, {r4, lr}
10003a96:	4603      	mov	r3, r0
10003a98:	2004      	movs	r0, #4
10003a9a:	4718      	bx	r3

10003a9c <runtime_init_per_core_bootrom_reset>:
10003a9c:	b510      	push	{r4, lr}
10003a9e:	f245 2053 	movw	r0, #21075	@ 0x5253
10003aa2:	f7ff fdc1 	bl	10003628 <rom_func_lookup>
10003aa6:	e8bd 4010 	ldmia.w	sp!, {r4, lr}
10003aaa:	4603      	mov	r3, r0
10003aac:	2001      	movs	r0, #1
10003aae:	4718      	bx	r3

10003ab0 <runtime_init_spin_locks_reset>:
10003ab0:	f7fe be9e 	b.w	100027f0 <spin_locks_reset>

10003ab4 <runtime_init_install_ram_vector_table>:
10003ab4:	4914      	ldr	r1, [pc, #80]	@ (10003b08 <runtime_init_install_ram_vector_table+0x54>)
10003ab6:	4b15      	ldr	r3, [pc, #84]	@ (10003b0c <runtime_init_install_ram_vector_table+0x58>)
10003ab8:	b570      	push	{r4, r5, r6, lr}
10003aba:	1a5c      	subs	r4, r3, r1
10003abc:	10a6      	asrs	r6, r4, #2
10003abe:	2e44      	cmp	r6, #68	@ 0x44
10003ac0:	4632      	mov	r2, r6
10003ac2:	bf28      	it	cs
10003ac4:	2244      	movcs	r2, #68	@ 0x44
10003ac6:	4d12      	ldr	r5, [pc, #72]	@ (10003b10 <runtime_init_install_ram_vector_table+0x5c>)
10003ac8:	0092      	lsls	r2, r2, #2
10003aca:	4628      	mov	r0, r5
10003acc:	f002 fd84 	bl	100065d8 <memcpy>
10003ad0:	f5b4 7f86 	cmp.w	r4, #268	@ 0x10c
10003ad4:	d813      	bhi.n	10003afe <runtime_init_install_ram_vector_table+0x4a>
10003ad6:	4a0f      	ldr	r2, [pc, #60]	@ (10003b14 <runtime_init_install_ram_vector_table+0x60>)
10003ad8:	d014      	beq.n	10003b04 <runtime_init_install_ram_vector_table+0x50>
10003ada:	f1c6 0044 	rsb	r0, r6, #68	@ 0x44
10003ade:	192b      	adds	r3, r5, r4
10003ae0:	0841      	lsrs	r1, r0, #1
10003ae2:	eb03 01c1 	add.w	r1, r3, r1, lsl #3
10003ae6:	e9c3 2200 	strd	r2, r2, [r3]
10003aea:	3308      	adds	r3, #8
10003aec:	4299      	cmp	r1, r3
10003aee:	d1fa      	bne.n	10003ae6 <runtime_init_install_ram_vector_table+0x32>
10003af0:	07c3      	lsls	r3, r0, #31
10003af2:	d504      	bpl.n	10003afe <runtime_init_install_ram_vector_table+0x4a>
10003af4:	f020 0001 	bic.w	r0, r0, #1
10003af8:	4430      	add	r0, r6
10003afa:	f845 2020 	str.w	r2, [r5, r0, lsl #2]
10003afe:	4b06      	ldr	r3, [pc, #24]	@ (10003b18 <runtime_init_install_ram_vector_table+0x64>)
10003b00:	609d      	str	r5, [r3, #8]
10003b02:	bd70      	pop	{r4, r5, r6, pc}
10003b04:	2043      	movs	r0, #67	@ 0x43
10003b06:	e7f8      	b.n	10003afa <runtime_init_install_ram_vector_table+0x46>
10003b08:	10000000 	.word	0x10000000
10003b0c:	10000110 	.word	0x10000110
10003b10:	20000000 	.word	0x20000000
10003b14:	10000111 	.word	0x10000111
10003b18:	e000ed00 	.word	0xe000ed00

10003b1c <runtime_init_clocks>:
10003b1c:	2300      	movs	r3, #0
10003b1e:	b570      	push	{r4, r5, r6, lr}
10003b20:	4c2b      	ldr	r4, [pc, #172]	@ (10003bd0 <runtime_init_clocks+0xb4>)
10003b22:	b082      	sub	sp, #8
10003b24:	f8c4 3084 	str.w	r3, [r4, #132]	@ 0x84
10003b28:	f7ff fdb0 	bl	1000368c <xosc_init>
10003b2c:	2201      	movs	r2, #1
10003b2e:	4b29      	ldr	r3, [pc, #164]	@ (10003bd4 <runtime_init_clocks+0xb8>)
10003b30:	63da      	str	r2, [r3, #60]	@ 0x3c
10003b32:	6c63      	ldr	r3, [r4, #68]	@ 0x44
10003b34:	2b01      	cmp	r3, #1
10003b36:	d1fc      	bne.n	10003b32 <runtime_init_clocks+0x16>
10003b38:	2103      	movs	r1, #3
10003b3a:	4a26      	ldr	r2, [pc, #152]	@ (10003bd4 <runtime_init_clocks+0xb8>)
10003b3c:	4b24      	ldr	r3, [pc, #144]	@ (10003bd0 <runtime_init_clocks+0xb4>)
10003b3e:	6311      	str	r1, [r2, #48]	@ 0x30
10003b40:	6b9c      	ldr	r4, [r3, #56]	@ 0x38
10003b42:	2c01      	cmp	r4, #1
10003b44:	d1fc      	bne.n	10003b40 <runtime_init_clocks+0x24>
10003b46:	2602      	movs	r6, #2
10003b48:	2505      	movs	r5, #5
10003b4a:	4621      	mov	r1, r4
10003b4c:	2305      	movs	r3, #5
10003b4e:	4a22      	ldr	r2, [pc, #136]	@ (10003bd8 <runtime_init_clocks+0xbc>)
10003b50:	4822      	ldr	r0, [pc, #136]	@ (10003bdc <runtime_init_clocks+0xc0>)
10003b52:	9600      	str	r6, [sp, #0]
10003b54:	f7ff fca2 	bl	1000349c <pll_init>
10003b58:	4621      	mov	r1, r4
10003b5a:	462b      	mov	r3, r5
10003b5c:	4a20      	ldr	r2, [pc, #128]	@ (10003be0 <runtime_init_clocks+0xc4>)
10003b5e:	4821      	ldr	r0, [pc, #132]	@ (10003be4 <runtime_init_clocks+0xc8>)
10003b60:	9500      	str	r5, [sp, #0]
10003b62:	f7ff fc9b 	bl	1000349c <pll_init>
10003b66:	2200      	movs	r2, #0
10003b68:	2004      	movs	r0, #4
10003b6a:	4631      	mov	r1, r6
10003b6c:	4b1e      	ldr	r3, [pc, #120]	@ (10003be8 <runtime_init_clocks+0xcc>)
10003b6e:	f7fe fd03 	bl	10002578 <clock_configure_undivided>
10003b72:	4621      	mov	r1, r4
10003b74:	4628      	mov	r0, r5
10003b76:	2200      	movs	r2, #0
10003b78:	4b1c      	ldr	r3, [pc, #112]	@ (10003bec <runtime_init_clocks+0xd0>)
10003b7a:	f7fe fcfd 	bl	10002578 <clock_configure_undivided>
10003b7e:	2200      	movs	r2, #0
10003b80:	2008      	movs	r0, #8
10003b82:	4611      	mov	r1, r2
10003b84:	4b1a      	ldr	r3, [pc, #104]	@ (10003bf0 <runtime_init_clocks+0xd4>)
10003b86:	f7fe fcf7 	bl	10002578 <clock_configure_undivided>
10003b8a:	2200      	movs	r2, #0
10003b8c:	2009      	movs	r0, #9
10003b8e:	4611      	mov	r1, r2
10003b90:	4b17      	ldr	r3, [pc, #92]	@ (10003bf0 <runtime_init_clocks+0xd4>)
10003b92:	f7fe fcf1 	bl	10002578 <clock_configure_undivided>
10003b96:	2200      	movs	r2, #0
10003b98:	2006      	movs	r0, #6
10003b9a:	4611      	mov	r1, r2
10003b9c:	4b13      	ldr	r3, [pc, #76]	@ (10003bec <runtime_init_clocks+0xd0>)
10003b9e:	f7fe fceb 	bl	10002578 <clock_configure_undivided>
10003ba2:	2200      	movs	r2, #0
10003ba4:	4b11      	ldr	r3, [pc, #68]	@ (10003bec <runtime_init_clocks+0xd0>)
10003ba6:	2007      	movs	r0, #7
10003ba8:	4611      	mov	r1, r2
10003baa:	f7fe fce5 	bl	10002578 <clock_configure_undivided>
10003bae:	2004      	movs	r0, #4
10003bb0:	f7fe fd50 	bl	10002654 <clock_get_hz>
10003bb4:	2400      	movs	r4, #0
10003bb6:	4b0f      	ldr	r3, [pc, #60]	@ (10003bf4 <runtime_init_clocks+0xd8>)
10003bb8:	fba3 3500 	umull	r3, r5, r3, r0
10003bbc:	0cad      	lsrs	r5, r5, #18
10003bbe:	b2e0      	uxtb	r0, r4
10003bc0:	4629      	mov	r1, r5
10003bc2:	3401      	adds	r4, #1
10003bc4:	f7ff fd08 	bl	100035d8 <tick_start>
10003bc8:	2c06      	cmp	r4, #6
10003bca:	d1f8      	bne.n	10003bbe <runtime_init_clocks+0xa2>
10003bcc:	b002      	add	sp, #8
10003bce:	bd70      	pop	{r4, r5, r6, pc}
10003bd0:	40010000 	.word	0x40010000
10003bd4:	40013000 	.word	0x40013000
10003bd8:	59682f00 	.word	0x59682f00
10003bdc:	40050000 	.word	0x40050000
10003be0:	47868c00 	.word	0x47868c00
10003be4:	40058000 	.word	0x40058000
10003be8:	00b71b00 	.word	0x00b71b00
10003bec:	08f0d180 	.word	0x08f0d180
10003bf0:	02dc6c00 	.word	0x02dc6c00
10003bf4:	431bde83 	.word	0x431bde83

10003bf8 <_out_char>:
10003bf8:	b900      	cbnz	r0, 10003bfc <_out_char+0x4>
10003bfa:	4770      	bx	lr
10003bfc:	f000 b920 	b.w	10003e40 <__wrap_putchar>

10003c00 <weak_raw_vprintf>:
10003c00:	b510      	push	{r4, lr}
10003c02:	4a09      	ldr	r2, [pc, #36]	@ (10003c28 <weak_raw_vprintf+0x28>)
10003c04:	b084      	sub	sp, #16
10003c06:	6814      	ldr	r4, [r2, #0]
10003c08:	b14c      	cbz	r4, 10003c1e <weak_raw_vprintf+0x1e>
10003c0a:	4603      	mov	r3, r0
10003c0c:	9100      	str	r1, [sp, #0]
10003c0e:	f04f 32ff 	mov.w	r2, #4294967295
10003c12:	a903      	add	r1, sp, #12
10003c14:	4805      	ldr	r0, [pc, #20]	@ (10003c2c <weak_raw_vprintf+0x2c>)
10003c16:	47a0      	blx	r4
10003c18:	2001      	movs	r0, #1
10003c1a:	b004      	add	sp, #16
10003c1c:	bd10      	pop	{r4, pc}
10003c1e:	f000 f951 	bl	10003ec4 <__wrap_puts>
10003c22:	4620      	mov	r0, r4
10003c24:	b004      	add	sp, #16
10003c26:	bd10      	pop	{r4, pc}
10003c28:	20001e90 	.word	0x20001e90
10003c2c:	10003bf9 	.word	0x10003bf9

10003c30 <_exit>:
10003c30:	be00      	bkpt	0x0000
10003c32:	e7fd      	b.n	10003c30 <_exit>

10003c34 <exit>:
10003c34:	b508      	push	{r3, lr}
10003c36:	f7ff fffb 	bl	10003c30 <_exit>
10003c3a:	bf00      	nop

10003c3c <runtime_init>:
10003c3c:	b538      	push	{r3, r4, r5, lr}
10003c3e:	4c06      	ldr	r4, [pc, #24]	@ (10003c58 <runtime_init+0x1c>)
10003c40:	4d06      	ldr	r5, [pc, #24]	@ (10003c5c <runtime_init+0x20>)
10003c42:	f7ff fecd 	bl	100039e0 <runtime_run_initializers>
10003c46:	42ac      	cmp	r4, r5
10003c48:	d204      	bcs.n	10003c54 <runtime_init+0x18>
10003c4a:	f854 3b04 	ldr.w	r3, [r4], #4
10003c4e:	4798      	blx	r3
10003c50:	42ac      	cmp	r4, r5
10003c52:	d3fa      	bcc.n	10003c4a <runtime_init+0xe>
10003c54:	bd38      	pop	{r3, r4, r5, pc}
10003c56:	bf00      	nop
10003c58:	100067b8 	.word	0x100067b8
10003c5c:	100067c4 	.word	0x100067c4

10003c60 <stdio_out_chars_no_crlf>:
10003c60:	6803      	ldr	r3, [r0, #0]
10003c62:	4608      	mov	r0, r1
10003c64:	4611      	mov	r1, r2
10003c66:	4718      	bx	r3

10003c68 <stdio_out_chars_crlf>:
10003c68:	b570      	push	{r4, r5, r6, lr}
10003c6a:	4605      	mov	r5, r0
10003c6c:	4608      	mov	r0, r1
10003c6e:	7d69      	ldrb	r1, [r5, #21]
10003c70:	b082      	sub	sp, #8
10003c72:	2900      	cmp	r1, #0
10003c74:	d04f      	beq.n	10003d16 <stdio_out_chars_crlf+0xae>
10003c76:	2a00      	cmp	r2, #0
10003c78:	dd25      	ble.n	10003cc6 <stdio_out_chars_crlf+0x5e>
10003c7a:	7803      	ldrb	r3, [r0, #0]
10003c7c:	4614      	mov	r4, r2
10003c7e:	2b0a      	cmp	r3, #10
10003c80:	4606      	mov	r6, r0
10003c82:	d022      	beq.n	10003cca <stdio_out_chars_crlf+0x62>
10003c84:	2c01      	cmp	r4, #1
10003c86:	f04f 0e00 	mov.w	lr, #0
10003c8a:	d00d      	beq.n	10003ca8 <stdio_out_chars_crlf+0x40>
10003c8c:	4632      	mov	r2, r6
10003c8e:	2301      	movs	r3, #1
10003c90:	f812 cf01 	ldrb.w	ip, [r2, #1]!
10003c94:	4619      	mov	r1, r3
10003c96:	f1bc 0f0a 	cmp.w	ip, #10
10003c9a:	f103 0301 	add.w	r3, r3, #1
10003c9e:	d020      	beq.n	10003ce2 <stdio_out_chars_crlf+0x7a>
10003ca0:	429c      	cmp	r4, r3
10003ca2:	d1f5      	bne.n	10003c90 <stdio_out_chars_crlf+0x28>
10003ca4:	4574      	cmp	r4, lr
10003ca6:	dd05      	ble.n	10003cb4 <stdio_out_chars_crlf+0x4c>
10003ca8:	682b      	ldr	r3, [r5, #0]
10003caa:	eba4 010e 	sub.w	r1, r4, lr
10003cae:	eb06 000e 	add.w	r0, r6, lr
10003cb2:	4798      	blx	r3
10003cb4:	1931      	adds	r1, r6, r4
10003cb6:	f811 3c01 	ldrb.w	r3, [r1, #-1]
10003cba:	f1a3 030d 	sub.w	r3, r3, #13
10003cbe:	fab3 f383 	clz	r3, r3
10003cc2:	095b      	lsrs	r3, r3, #5
10003cc4:	752b      	strb	r3, [r5, #20]
10003cc6:	b002      	add	sp, #8
10003cc8:	bd70      	pop	{r4, r5, r6, pc}
10003cca:	7d2b      	ldrb	r3, [r5, #20]
10003ccc:	2b00      	cmp	r3, #0
10003cce:	d1d9      	bne.n	10003c84 <stdio_out_chars_crlf+0x1c>
10003cd0:	2102      	movs	r1, #2
10003cd2:	682b      	ldr	r3, [r5, #0]
10003cd4:	4813      	ldr	r0, [pc, #76]	@ (10003d24 <stdio_out_chars_crlf+0xbc>)
10003cd6:	4798      	blx	r3
10003cd8:	2c01      	cmp	r4, #1
10003cda:	d0eb      	beq.n	10003cb4 <stdio_out_chars_crlf+0x4c>
10003cdc:	f04f 0e01 	mov.w	lr, #1
10003ce0:	e7d4      	b.n	10003c8c <stdio_out_chars_crlf+0x24>
10003ce2:	f812 0c01 	ldrb.w	r0, [r2, #-1]
10003ce6:	280d      	cmp	r0, #13
10003ce8:	d0da      	beq.n	10003ca0 <stdio_out_chars_crlf+0x38>
10003cea:	458e      	cmp	lr, r1
10003cec:	eb06 000e 	add.w	r0, r6, lr
10003cf0:	eba1 010e 	sub.w	r1, r1, lr
10003cf4:	da05      	bge.n	10003d02 <stdio_out_chars_crlf+0x9a>
10003cf6:	e9cd 3200 	strd	r3, r2, [sp]
10003cfa:	682b      	ldr	r3, [r5, #0]
10003cfc:	4798      	blx	r3
10003cfe:	e9dd 3200 	ldrd	r3, r2, [sp]
10003d02:	e9cd 3200 	strd	r3, r2, [sp]
10003d06:	2102      	movs	r1, #2
10003d08:	682b      	ldr	r3, [r5, #0]
10003d0a:	4806      	ldr	r0, [pc, #24]	@ (10003d24 <stdio_out_chars_crlf+0xbc>)
10003d0c:	4798      	blx	r3
10003d0e:	9b00      	ldr	r3, [sp, #0]
10003d10:	9a01      	ldr	r2, [sp, #4]
10003d12:	469e      	mov	lr, r3
10003d14:	e7c4      	b.n	10003ca0 <stdio_out_chars_crlf+0x38>
10003d16:	4611      	mov	r1, r2
10003d18:	682b      	ldr	r3, [r5, #0]
10003d1a:	b002      	add	sp, #8
10003d1c:	e8bd 4070 	ldmia.w	sp!, {r4, r5, r6, lr}
10003d20:	4718      	bx	r3
10003d22:	bf00      	nop
10003d24:	100069b8 	.word	0x100069b8

10003d28 <stdio_put_string>:
10003d28:	e92d 47f0 	stmdb	sp!, {r4, r5, r6, r7, r8, r9, sl, lr}
10003d2c:	b082      	sub	sp, #8
10003d2e:	4690      	mov	r8, r2
10003d30:	461c      	mov	r4, r3
10003d32:	460d      	mov	r5, r1
10003d34:	4607      	mov	r7, r0
10003d36:	f7ff fba7 	bl	10003488 <time_us_64>
10003d3a:	f04f 3cff 	mov.w	ip, #4294967295
10003d3e:	f06f 4600 	mvn.w	r6, #2147483648	@ 0x80000000
10003d42:	4a2e      	ldr	r2, [pc, #184]	@ (10003dfc <stdio_put_string+0xd4>)
10003d44:	1882      	adds	r2, r0, r2
10003d46:	f141 0300 	adc.w	r3, r1, #0
10003d4a:	4594      	cmp	ip, r2
10003d4c:	eb76 0103 	sbcs.w	r1, r6, r3
10003d50:	bf3c      	itt	cc
10003d52:	4662      	movcc	r2, ip
10003d54:	4633      	movcc	r3, r6
10003d56:	482a      	ldr	r0, [pc, #168]	@ (10003e00 <stdio_put_string+0xd8>)
10003d58:	f002 fd06 	bl	10006768 <__mutex_try_enter_block_until_veneer>
10003d5c:	1c6b      	adds	r3, r5, #1
10003d5e:	4682      	mov	sl, r0
10003d60:	d040      	beq.n	10003de4 <stdio_put_string+0xbc>
10003d62:	b30c      	cbz	r4, 10003da8 <stdio_put_string+0x80>
10003d64:	4e27      	ldr	r6, [pc, #156]	@ (10003e04 <stdio_put_string+0xdc>)
10003d66:	4b28      	ldr	r3, [pc, #160]	@ (10003e08 <stdio_put_string+0xe0>)
10003d68:	681c      	ldr	r4, [r3, #0]
10003d6a:	b1b4      	cbz	r4, 10003d9a <stdio_put_string+0x72>
10003d6c:	f1b8 0f00 	cmp.w	r8, #0
10003d70:	d11c      	bne.n	10003dac <stdio_put_string+0x84>
10003d72:	f8df 809c 	ldr.w	r8, [pc, #156]	@ 10003e10 <stdio_put_string+0xe8>
10003d76:	e001      	b.n	10003d7c <stdio_put_string+0x54>
10003d78:	6924      	ldr	r4, [r4, #16]
10003d7a:	b174      	cbz	r4, 10003d9a <stdio_put_string+0x72>
10003d7c:	6823      	ldr	r3, [r4, #0]
10003d7e:	2b00      	cmp	r3, #0
10003d80:	d0fa      	beq.n	10003d78 <stdio_put_string+0x50>
10003d82:	f8d8 3000 	ldr.w	r3, [r8]
10003d86:	b10b      	cbz	r3, 10003d8c <stdio_put_string+0x64>
10003d88:	429c      	cmp	r4, r3
10003d8a:	d1f5      	bne.n	10003d78 <stdio_put_string+0x50>
10003d8c:	4620      	mov	r0, r4
10003d8e:	462a      	mov	r2, r5
10003d90:	4639      	mov	r1, r7
10003d92:	47b0      	blx	r6
10003d94:	6924      	ldr	r4, [r4, #16]
10003d96:	2c00      	cmp	r4, #0
10003d98:	d1f0      	bne.n	10003d7c <stdio_put_string+0x54>
10003d9a:	f1ba 0f00 	cmp.w	sl, #0
10003d9e:	d126      	bne.n	10003dee <stdio_put_string+0xc6>
10003da0:	4628      	mov	r0, r5
10003da2:	b002      	add	sp, #8
10003da4:	e8bd 87f0 	ldmia.w	sp!, {r4, r5, r6, r7, r8, r9, sl, pc}
10003da8:	4e18      	ldr	r6, [pc, #96]	@ (10003e0c <stdio_put_string+0xe4>)
10003daa:	e7dc      	b.n	10003d66 <stdio_put_string+0x3e>
10003dac:	f04f 090a 	mov.w	r9, #10
10003db0:	f8df 805c 	ldr.w	r8, [pc, #92]	@ 10003e10 <stdio_put_string+0xe8>
10003db4:	e002      	b.n	10003dbc <stdio_put_string+0x94>
10003db6:	6924      	ldr	r4, [r4, #16]
10003db8:	2c00      	cmp	r4, #0
10003dba:	d0ee      	beq.n	10003d9a <stdio_put_string+0x72>
10003dbc:	6823      	ldr	r3, [r4, #0]
10003dbe:	2b00      	cmp	r3, #0
10003dc0:	d0f9      	beq.n	10003db6 <stdio_put_string+0x8e>
10003dc2:	f8d8 3000 	ldr.w	r3, [r8]
10003dc6:	b10b      	cbz	r3, 10003dcc <stdio_put_string+0xa4>
10003dc8:	42a3      	cmp	r3, r4
10003dca:	d1f4      	bne.n	10003db6 <stdio_put_string+0x8e>
10003dcc:	462a      	mov	r2, r5
10003dce:	4639      	mov	r1, r7
10003dd0:	4620      	mov	r0, r4
10003dd2:	47b0      	blx	r6
10003dd4:	2201      	movs	r2, #1
10003dd6:	4620      	mov	r0, r4
10003dd8:	f10d 0107 	add.w	r1, sp, #7
10003ddc:	f88d 9007 	strb.w	r9, [sp, #7]
10003de0:	47b0      	blx	r6
10003de2:	e7e8      	b.n	10003db6 <stdio_put_string+0x8e>
10003de4:	4638      	mov	r0, r7
10003de6:	f002 fc6d 	bl	100066c4 <strlen>
10003dea:	4605      	mov	r5, r0
10003dec:	e7b9      	b.n	10003d62 <stdio_put_string+0x3a>
10003dee:	4804      	ldr	r0, [pc, #16]	@ (10003e00 <stdio_put_string+0xd8>)
10003df0:	f002 fcaa 	bl	10006748 <__mutex_exit_veneer>
10003df4:	4628      	mov	r0, r5
10003df6:	b002      	add	sp, #8
10003df8:	e8bd 87f0 	ldmia.w	sp!, {r4, r5, r6, r7, r8, r9, sl, pc}
10003dfc:	000f4240 	.word	0x000f4240
10003e00:	20001294 	.word	0x20001294
10003e04:	10003c69 	.word	0x10003c69
10003e08:	20001a84 	.word	0x20001a84
10003e0c:	10003c61 	.word	0x10003c61
10003e10:	20001a8c 	.word	0x20001a8c

10003e14 <stdio_set_driver_enabled>:
10003e14:	4a08      	ldr	r2, [pc, #32]	@ (10003e38 <stdio_set_driver_enabled+0x24>)
10003e16:	6813      	ldr	r3, [r2, #0]
10003e18:	b923      	cbnz	r3, 10003e24 <stdio_set_driver_enabled+0x10>
10003e1a:	e00a      	b.n	10003e32 <stdio_set_driver_enabled+0x1e>
10003e1c:	f103 0210 	add.w	r2, r3, #16
10003e20:	691b      	ldr	r3, [r3, #16]
10003e22:	b133      	cbz	r3, 10003e32 <stdio_set_driver_enabled+0x1e>
10003e24:	4283      	cmp	r3, r0
10003e26:	d1f9      	bne.n	10003e1c <stdio_set_driver_enabled+0x8>
10003e28:	b929      	cbnz	r1, 10003e36 <stdio_set_driver_enabled+0x22>
10003e2a:	6918      	ldr	r0, [r3, #16]
10003e2c:	6010      	str	r0, [r2, #0]
10003e2e:	6119      	str	r1, [r3, #16]
10003e30:	4770      	bx	lr
10003e32:	b101      	cbz	r1, 10003e36 <stdio_set_driver_enabled+0x22>
10003e34:	6010      	str	r0, [r2, #0]
10003e36:	4770      	bx	lr
10003e38:	20001a84 	.word	0x20001a84

10003e3c <stdio_init_all>:
10003e3c:	f000 ba74 	b.w	10004328 <stdio_usb_init>

10003e40 <__wrap_putchar>:
10003e40:	b5f0      	push	{r4, r5, r6, r7, lr}
10003e42:	b083      	sub	sp, #12
10003e44:	4606      	mov	r6, r0
10003e46:	f88d 0007 	strb.w	r0, [sp, #7]
10003e4a:	f7ff fb1d 	bl	10003488 <time_us_64>
10003e4e:	f04f 35ff 	mov.w	r5, #4294967295
10003e52:	f06f 4400 	mvn.w	r4, #2147483648	@ 0x80000000
10003e56:	4a17      	ldr	r2, [pc, #92]	@ (10003eb4 <__wrap_putchar+0x74>)
10003e58:	1882      	adds	r2, r0, r2
10003e5a:	f141 0300 	adc.w	r3, r1, #0
10003e5e:	4295      	cmp	r5, r2
10003e60:	eb74 0103 	sbcs.w	r1, r4, r3
10003e64:	bf3c      	itt	cc
10003e66:	4623      	movcc	r3, r4
10003e68:	462a      	movcc	r2, r5
10003e6a:	4813      	ldr	r0, [pc, #76]	@ (10003eb8 <__wrap_putchar+0x78>)
10003e6c:	f002 fc7c 	bl	10006768 <__mutex_try_enter_block_until_veneer>
10003e70:	4b12      	ldr	r3, [pc, #72]	@ (10003ebc <__wrap_putchar+0x7c>)
10003e72:	4607      	mov	r7, r0
10003e74:	681c      	ldr	r4, [r3, #0]
10003e76:	b19c      	cbz	r4, 10003ea0 <__wrap_putchar+0x60>
10003e78:	4d11      	ldr	r5, [pc, #68]	@ (10003ec0 <__wrap_putchar+0x80>)
10003e7a:	e001      	b.n	10003e80 <__wrap_putchar+0x40>
10003e7c:	6924      	ldr	r4, [r4, #16]
10003e7e:	b17c      	cbz	r4, 10003ea0 <__wrap_putchar+0x60>
10003e80:	6823      	ldr	r3, [r4, #0]
10003e82:	2b00      	cmp	r3, #0
10003e84:	d0fa      	beq.n	10003e7c <__wrap_putchar+0x3c>
10003e86:	682b      	ldr	r3, [r5, #0]
10003e88:	b10b      	cbz	r3, 10003e8e <__wrap_putchar+0x4e>
10003e8a:	429c      	cmp	r4, r3
10003e8c:	d1f6      	bne.n	10003e7c <__wrap_putchar+0x3c>
10003e8e:	4620      	mov	r0, r4
10003e90:	2201      	movs	r2, #1
10003e92:	f10d 0107 	add.w	r1, sp, #7
10003e96:	f7ff fee7 	bl	10003c68 <stdio_out_chars_crlf>
10003e9a:	6924      	ldr	r4, [r4, #16]
10003e9c:	2c00      	cmp	r4, #0
10003e9e:	d1ef      	bne.n	10003e80 <__wrap_putchar+0x40>
10003ea0:	b917      	cbnz	r7, 10003ea8 <__wrap_putchar+0x68>
10003ea2:	4630      	mov	r0, r6
10003ea4:	b003      	add	sp, #12
10003ea6:	bdf0      	pop	{r4, r5, r6, r7, pc}
10003ea8:	4803      	ldr	r0, [pc, #12]	@ (10003eb8 <__wrap_putchar+0x78>)
10003eaa:	f002 fc4d 	bl	10006748 <__mutex_exit_veneer>
10003eae:	4630      	mov	r0, r6
10003eb0:	b003      	add	sp, #12
10003eb2:	bdf0      	pop	{r4, r5, r6, r7, pc}
10003eb4:	000f4240 	.word	0x000f4240
10003eb8:	20001294 	.word	0x20001294
10003ebc:	20001a84 	.word	0x20001a84
10003ec0:	20001a8c 	.word	0x20001a8c

10003ec4 <__wrap_puts>:
10003ec4:	b538      	push	{r3, r4, r5, lr}
10003ec6:	4604      	mov	r4, r0
10003ec8:	f002 fbfc 	bl	100066c4 <strlen>
10003ecc:	2301      	movs	r3, #1
10003ece:	4605      	mov	r5, r0
10003ed0:	461a      	mov	r2, r3
10003ed2:	4620      	mov	r0, r4
10003ed4:	4629      	mov	r1, r5
10003ed6:	f7ff ff27 	bl	10003d28 <stdio_put_string>
10003eda:	4b08      	ldr	r3, [pc, #32]	@ (10003efc <__wrap_puts+0x38>)
10003edc:	681c      	ldr	r4, [r3, #0]
10003ede:	b12c      	cbz	r4, 10003eec <__wrap_puts+0x28>
10003ee0:	6863      	ldr	r3, [r4, #4]
10003ee2:	b12b      	cbz	r3, 10003ef0 <__wrap_puts+0x2c>
10003ee4:	4798      	blx	r3
10003ee6:	6924      	ldr	r4, [r4, #16]
10003ee8:	2c00      	cmp	r4, #0
10003eea:	d1f9      	bne.n	10003ee0 <__wrap_puts+0x1c>
10003eec:	4628      	mov	r0, r5
10003eee:	bd38      	pop	{r3, r4, r5, pc}
10003ef0:	6924      	ldr	r4, [r4, #16]
10003ef2:	2c00      	cmp	r4, #0
10003ef4:	d1f4      	bne.n	10003ee0 <__wrap_puts+0x1c>
10003ef6:	4628      	mov	r0, r5
10003ef8:	bd38      	pop	{r3, r4, r5, pc}
10003efa:	bf00      	nop
10003efc:	20001a84 	.word	0x20001a84

10003f00 <resetd_init>:
10003f00:	4770      	bx	lr
10003f02:	bf00      	nop

10003f04 <resetd_reset>:
10003f04:	2200      	movs	r2, #0
10003f06:	4b01      	ldr	r3, [pc, #4]	@ (10003f0c <resetd_reset+0x8>)
10003f08:	701a      	strb	r2, [r3, #0]
10003f0a:	4770      	bx	lr
10003f0c:	20022290 	.word	0x20022290

10003f10 <resetd_open>:
10003f10:	794b      	ldrb	r3, [r1, #5]
10003f12:	2bff      	cmp	r3, #255	@ 0xff
10003f14:	d10b      	bne.n	10003f2e <resetd_open+0x1e>
10003f16:	7988      	ldrb	r0, [r1, #6]
10003f18:	b948      	cbnz	r0, 10003f2e <resetd_open+0x1e>
10003f1a:	79cb      	ldrb	r3, [r1, #7]
10003f1c:	2b01      	cmp	r3, #1
10003f1e:	d107      	bne.n	10003f30 <resetd_open+0x20>
10003f20:	2a08      	cmp	r2, #8
10003f22:	d905      	bls.n	10003f30 <resetd_open+0x20>
10003f24:	4b03      	ldr	r3, [pc, #12]	@ (10003f34 <resetd_open+0x24>)
10003f26:	788a      	ldrb	r2, [r1, #2]
10003f28:	2009      	movs	r0, #9
10003f2a:	701a      	strb	r2, [r3, #0]
10003f2c:	4770      	bx	lr
10003f2e:	2000      	movs	r0, #0
10003f30:	4770      	bx	lr
10003f32:	bf00      	nop
10003f34:	20022290 	.word	0x20022290

10003f38 <resetd_xfer_cb>:
10003f38:	2001      	movs	r0, #1
10003f3a:	4770      	bx	lr

10003f3c <resetd_control_xfer_cb>:
10003f3c:	2901      	cmp	r1, #1
10003f3e:	d001      	beq.n	10003f44 <resetd_control_xfer_cb+0x8>
10003f40:	2001      	movs	r0, #1
10003f42:	4770      	bx	lr
10003f44:	b508      	push	{r3, lr}
10003f46:	4b10      	ldr	r3, [pc, #64]	@ (10003f88 <resetd_control_xfer_cb+0x4c>)
10003f48:	8891      	ldrh	r1, [r2, #4]
10003f4a:	781b      	ldrb	r3, [r3, #0]
10003f4c:	4299      	cmp	r1, r3
10003f4e:	d001      	beq.n	10003f54 <resetd_control_xfer_cb+0x18>
10003f50:	2000      	movs	r0, #0
10003f52:	bd08      	pop	{r3, pc}
10003f54:	7853      	ldrb	r3, [r2, #1]
10003f56:	2b01      	cmp	r3, #1
10003f58:	d008      	beq.n	10003f6c <resetd_control_xfer_cb+0x30>
10003f5a:	2b02      	cmp	r3, #2
10003f5c:	d1f8      	bne.n	10003f50 <resetd_control_xfer_cb+0x14>
10003f5e:	2100      	movs	r1, #0
10003f60:	2264      	movs	r2, #100	@ 0x64
10003f62:	4608      	mov	r0, r1
10003f64:	f7ff fae2 	bl	1000352c <watchdog_reboot>
10003f68:	2001      	movs	r0, #1
10003f6a:	bd08      	pop	{r3, pc}
10003f6c:	8851      	ldrh	r1, [r2, #2]
10003f6e:	05cb      	lsls	r3, r1, #23
10003f70:	bf48      	it	mi
10003f72:	0a48      	lsrmi	r0, r1, #9
10003f74:	f3c1 2240 	ubfx	r2, r1, #9, #1
10003f78:	bf58      	it	pl
10003f7a:	f04f 30ff 	movpl.w	r0, #4294967295
10003f7e:	f001 017f 	and.w	r1, r1, #127	@ 0x7f
10003f82:	f7ff fb5d 	bl	10003640 <rom_reset_usb_boot_extra>
10003f86:	bf00      	nop
10003f88:	20022290 	.word	0x20022290

10003f8c <tud_descriptor_bos_cb>:
10003f8c:	4800      	ldr	r0, [pc, #0]	@ (10003f90 <tud_descriptor_bos_cb+0x4>)
10003f8e:	4770      	bx	lr
10003f90:	10006a84 	.word	0x10006a84

10003f94 <tud_vendor_control_xfer_cb>:
10003f94:	2901      	cmp	r1, #1
10003f96:	d107      	bne.n	10003fa8 <tud_vendor_control_xfer_cb+0x14>
10003f98:	7853      	ldrb	r3, [r2, #1]
10003f9a:	2b01      	cmp	r3, #1
10003f9c:	d102      	bne.n	10003fa4 <tud_vendor_control_xfer_cb+0x10>
10003f9e:	8893      	ldrh	r3, [r2, #4]
10003fa0:	2b07      	cmp	r3, #7
10003fa2:	d003      	beq.n	10003fac <tud_vendor_control_xfer_cb+0x18>
10003fa4:	2000      	movs	r0, #0
10003fa6:	4770      	bx	lr
10003fa8:	2001      	movs	r0, #1
10003faa:	4770      	bx	lr
10003fac:	4611      	mov	r1, r2
10003fae:	23a6      	movs	r3, #166	@ 0xa6
10003fb0:	4a01      	ldr	r2, [pc, #4]	@ (10003fb8 <tud_vendor_control_xfer_cb+0x24>)
10003fb2:	f001 b9af 	b.w	10005314 <tud_control_xfer>
10003fb6:	bf00      	nop
10003fb8:	100069dc 	.word	0x100069dc

10003fbc <usbd_app_driver_get_cb>:
10003fbc:	4603      	mov	r3, r0
10003fbe:	2201      	movs	r2, #1
10003fc0:	4801      	ldr	r0, [pc, #4]	@ (10003fc8 <usbd_app_driver_get_cb+0xc>)
10003fc2:	701a      	strb	r2, [r3, #0]
10003fc4:	4770      	bx	lr
10003fc6:	bf00      	nop
10003fc8:	100069bc 	.word	0x100069bc

10003fcc <tud_cdc_line_coding_cb>:
10003fcc:	b508      	push	{r3, lr}
10003fce:	680b      	ldr	r3, [r1, #0]
10003fd0:	f5b3 6f96 	cmp.w	r3, #1200	@ 0x4b0
10003fd4:	d000      	beq.n	10003fd8 <tud_cdc_line_coding_cb+0xc>
10003fd6:	bd08      	pop	{r3, pc}
10003fd8:	2200      	movs	r2, #0
10003fda:	f04f 30ff 	mov.w	r0, #4294967295
10003fde:	4611      	mov	r1, r2
10003fe0:	f7ff fb2e 	bl	10003640 <rom_reset_usb_boot_extra>

10003fe4 <stdio_usb_set_chars_available_callback>:
10003fe4:	4a02      	ldr	r2, [pc, #8]	@ (10003ff0 <stdio_usb_set_chars_available_callback+0xc>)
10003fe6:	4b03      	ldr	r3, [pc, #12]	@ (10003ff4 <stdio_usb_set_chars_available_callback+0x10>)
10003fe8:	6010      	str	r0, [r2, #0]
10003fea:	6019      	str	r1, [r3, #0]
10003fec:	4770      	bx	lr
10003fee:	bf00      	nop
10003ff0:	20001a20 	.word	0x20001a20
10003ff4:	20001a24 	.word	0x20001a24

10003ff8 <timer_task>:
10003ff8:	4b18      	ldr	r3, [pc, #96]	@ (1000405c <timer_task+0x64>)
10003ffa:	b570      	push	{r4, r5, r6, lr}
10003ffc:	681a      	ldr	r2, [r3, #0]
10003ffe:	2a00      	cmp	r2, #0
10004000:	d028      	beq.n	10004054 <timer_task+0x5c>
10004002:	f3ef 8110 	mrs	r1, PRIMASK
10004006:	b672      	cpsid	i
10004008:	e8d2 4fcf 	ldaexb	r4, [r2]
1000400c:	2001      	movs	r0, #1
1000400e:	2c00      	cmp	r4, #0
10004010:	d1fa      	bne.n	10004008 <timer_task+0x10>
10004012:	e8c2 0f44 	strexb	r4, r0, [r2]
10004016:	2c00      	cmp	r4, #0
10004018:	d1f6      	bne.n	10004008 <timer_task+0x10>
1000401a:	f3bf 8f5f 	dmb	sy
1000401e:	2200      	movs	r2, #0
10004020:	4c0f      	ldr	r4, [pc, #60]	@ (10004060 <timer_task+0x68>)
10004022:	6818      	ldr	r0, [r3, #0]
10004024:	6059      	str	r1, [r3, #4]
10004026:	7022      	strb	r2, [r4, #0]
10004028:	e8c0 2f8f 	stlb	r2, [r0]
1000402c:	f381 8810 	msr	PRIMASK, r1
10004030:	2400      	movs	r4, #0
10004032:	2500      	movs	r5, #0
10004034:	4e0b      	ldr	r6, [pc, #44]	@ (10004064 <timer_task+0x6c>)
10004036:	7830      	ldrb	r0, [r6, #0]
10004038:	f7fe fc1c 	bl	10002874 <irq_is_enabled>
1000403c:	b920      	cbnz	r0, 10004048 <timer_task+0x50>
1000403e:	2400      	movs	r4, #0
10004040:	2500      	movs	r5, #0
10004042:	4620      	mov	r0, r4
10004044:	4629      	mov	r1, r5
10004046:	bd70      	pop	{r4, r5, r6, pc}
10004048:	7830      	ldrb	r0, [r6, #0]
1000404a:	f7fe fc23 	bl	10002894 <irq_set_pending>
1000404e:	4620      	mov	r0, r4
10004050:	4629      	mov	r1, r5
10004052:	bd70      	pop	{r4, r5, r6, pc}
10004054:	f44f 747a 	mov.w	r4, #1000	@ 0x3e8
10004058:	2500      	movs	r5, #0
1000405a:	e7eb      	b.n	10004034 <timer_task+0x3c>
1000405c:	20001eb4 	.word	0x20001eb4
10004060:	20022292 	.word	0x20022292
10004064:	20022291 	.word	0x20022291

10004068 <usb_irq>:
10004068:	4b01      	ldr	r3, [pc, #4]	@ (10004070 <usb_irq+0x8>)
1000406a:	7818      	ldrb	r0, [r3, #0]
1000406c:	f7fe bc12 	b.w	10002894 <irq_set_pending>
10004070:	20022291 	.word	0x20022291

10004074 <stdio_usb_in_chars>:
10004074:	b538      	push	{r3, r4, r5, lr}
10004076:	4604      	mov	r4, r0
10004078:	2000      	movs	r0, #0
1000407a:	460d      	mov	r5, r1
1000407c:	f001 fa84 	bl	10005588 <tud_cdc_n_connected>
10004080:	b3a8      	cbz	r0, 100040ee <stdio_usb_in_chars+0x7a>
10004082:	2000      	movs	r0, #0
10004084:	f001 fa96 	bl	100055b4 <tud_cdc_n_available>
10004088:	b388      	cbz	r0, 100040ee <stdio_usb_in_chars+0x7a>
1000408a:	f7ff f9fd 	bl	10003488 <time_us_64>
1000408e:	f04f 3eff 	mov.w	lr, #4294967295
10004092:	f06f 4c00 	mvn.w	ip, #2147483648	@ 0x80000000
10004096:	4a17      	ldr	r2, [pc, #92]	@ (100040f4 <stdio_usb_in_chars+0x80>)
10004098:	1882      	adds	r2, r0, r2
1000409a:	f141 0300 	adc.w	r3, r1, #0
1000409e:	4596      	cmp	lr, r2
100040a0:	eb7c 0103 	sbcs.w	r1, ip, r3
100040a4:	bf3c      	itt	cc
100040a6:	4672      	movcc	r2, lr
100040a8:	4663      	movcc	r3, ip
100040aa:	4813      	ldr	r0, [pc, #76]	@ (100040f8 <stdio_usb_in_chars+0x84>)
100040ac:	f002 fb5c 	bl	10006768 <__mutex_try_enter_block_until_veneer>
100040b0:	b1e8      	cbz	r0, 100040ee <stdio_usb_in_chars+0x7a>
100040b2:	2000      	movs	r0, #0
100040b4:	f001 fa68 	bl	10005588 <tud_cdc_n_connected>
100040b8:	b958      	cbnz	r0, 100040d2 <stdio_usb_in_chars+0x5e>
100040ba:	4601      	mov	r1, r0
100040bc:	f04f 30ff 	mov.w	r0, #4294967295
100040c0:	f000 fc4c 	bl	1000495c <tud_task_ext>
100040c4:	f06f 0402 	mvn.w	r4, #2
100040c8:	480b      	ldr	r0, [pc, #44]	@ (100040f8 <stdio_usb_in_chars+0x84>)
100040ca:	f002 fb3d 	bl	10006748 <__mutex_exit_veneer>
100040ce:	4620      	mov	r0, r4
100040d0:	bd38      	pop	{r3, r4, r5, pc}
100040d2:	2000      	movs	r0, #0
100040d4:	f001 fa6e 	bl	100055b4 <tud_cdc_n_available>
100040d8:	2800      	cmp	r0, #0
100040da:	d0ee      	beq.n	100040ba <stdio_usb_in_chars+0x46>
100040dc:	4621      	mov	r1, r4
100040de:	462a      	mov	r2, r5
100040e0:	2000      	movs	r0, #0
100040e2:	f001 fa71 	bl	100055c8 <tud_cdc_n_read>
100040e6:	4604      	mov	r4, r0
100040e8:	2800      	cmp	r0, #0
100040ea:	d1ed      	bne.n	100040c8 <stdio_usb_in_chars+0x54>
100040ec:	e7ea      	b.n	100040c4 <stdio_usb_in_chars+0x50>
100040ee:	f06f 0402 	mvn.w	r4, #2
100040f2:	e7ec      	b.n	100040ce <stdio_usb_in_chars+0x5a>
100040f4:	000f4240 	.word	0x000f4240
100040f8:	20002184 	.word	0x20002184

100040fc <stdio_usb_out_flush>:
100040fc:	b508      	push	{r3, lr}
100040fe:	f7ff f9c3 	bl	10003488 <time_us_64>
10004102:	f04f 3eff 	mov.w	lr, #4294967295
10004106:	f06f 4c00 	mvn.w	ip, #2147483648	@ 0x80000000
1000410a:	4a0f      	ldr	r2, [pc, #60]	@ (10004148 <stdio_usb_out_flush+0x4c>)
1000410c:	1882      	adds	r2, r0, r2
1000410e:	f141 0300 	adc.w	r3, r1, #0
10004112:	4596      	cmp	lr, r2
10004114:	eb7c 0103 	sbcs.w	r1, ip, r3
10004118:	bf3c      	itt	cc
1000411a:	4672      	movcc	r2, lr
1000411c:	4663      	movcc	r3, ip
1000411e:	480b      	ldr	r0, [pc, #44]	@ (1000414c <stdio_usb_out_flush+0x50>)
10004120:	f002 fb22 	bl	10006768 <__mutex_try_enter_block_until_veneer>
10004124:	b170      	cbz	r0, 10004144 <stdio_usb_out_flush+0x48>
10004126:	f04f 30ff 	mov.w	r0, #4294967295
1000412a:	2100      	movs	r1, #0
1000412c:	f000 fc16 	bl	1000495c <tud_task_ext>
10004130:	2000      	movs	r0, #0
10004132:	f001 fa8f 	bl	10005654 <tud_cdc_n_write_flush>
10004136:	2800      	cmp	r0, #0
10004138:	d1f5      	bne.n	10004126 <stdio_usb_out_flush+0x2a>
1000413a:	e8bd 4008 	ldmia.w	sp!, {r3, lr}
1000413e:	4803      	ldr	r0, [pc, #12]	@ (1000414c <stdio_usb_out_flush+0x50>)
10004140:	f002 bb02 	b.w	10006748 <__mutex_exit_veneer>
10004144:	bd08      	pop	{r3, pc}
10004146:	bf00      	nop
10004148:	000f4240 	.word	0x000f4240
1000414c:	20002184 	.word	0x20002184

10004150 <stdio_usb_out_chars>:
10004150:	e92d 41f0 	stmdb	sp!, {r4, r5, r6, r7, r8, lr}
10004154:	4607      	mov	r7, r0
10004156:	460e      	mov	r6, r1
10004158:	f7ff f996 	bl	10003488 <time_us_64>
1000415c:	f04f 35ff 	mov.w	r5, #4294967295
10004160:	f06f 4400 	mvn.w	r4, #2147483648	@ 0x80000000
10004164:	4a32      	ldr	r2, [pc, #200]	@ (10004230 <stdio_usb_out_chars+0xe0>)
10004166:	1882      	adds	r2, r0, r2
10004168:	f141 0300 	adc.w	r3, r1, #0
1000416c:	4295      	cmp	r5, r2
1000416e:	eb74 0103 	sbcs.w	r1, r4, r3
10004172:	bf3c      	itt	cc
10004174:	462a      	movcc	r2, r5
10004176:	4623      	movcc	r3, r4
10004178:	482e      	ldr	r0, [pc, #184]	@ (10004234 <stdio_usb_out_chars+0xe4>)
1000417a:	f002 faf5 	bl	10006768 <__mutex_try_enter_block_until_veneer>
1000417e:	b908      	cbnz	r0, 10004184 <stdio_usb_out_chars+0x34>
10004180:	e8bd 81f0 	ldmia.w	sp!, {r4, r5, r6, r7, r8, pc}
10004184:	2000      	movs	r0, #0
10004186:	f001 f9ff 	bl	10005588 <tud_cdc_n_connected>
1000418a:	2800      	cmp	r0, #0
1000418c:	d045      	beq.n	1000421a <stdio_usb_out_chars+0xca>
1000418e:	2e00      	cmp	r6, #0
10004190:	dd3e      	ble.n	10004210 <stdio_usb_out_chars+0xc0>
10004192:	2500      	movs	r5, #0
10004194:	f8df 80a4 	ldr.w	r8, [pc, #164]	@ 1000423c <stdio_usb_out_chars+0xec>
10004198:	e012      	b.n	100041c0 <stdio_usb_out_chars+0x70>
1000419a:	4622      	mov	r2, r4
1000419c:	2000      	movs	r0, #0
1000419e:	f001 faa3 	bl	100056e8 <tud_cdc_n_write>
100041a2:	2100      	movs	r1, #0
100041a4:	4405      	add	r5, r0
100041a6:	f04f 30ff 	mov.w	r0, #4294967295
100041aa:	f000 fbd7 	bl	1000495c <tud_task_ext>
100041ae:	2000      	movs	r0, #0
100041b0:	f001 fa50 	bl	10005654 <tud_cdc_n_write_flush>
100041b4:	f7ff f968 	bl	10003488 <time_us_64>
100041b8:	e9c8 0100 	strd	r0, r1, [r8]
100041bc:	42ae      	cmp	r6, r5
100041be:	dd27      	ble.n	10004210 <stdio_usb_out_chars+0xc0>
100041c0:	2000      	movs	r0, #0
100041c2:	f001 faaf 	bl	10005724 <tud_cdc_n_write_available>
100041c6:	1b74      	subs	r4, r6, r5
100041c8:	4284      	cmp	r4, r0
100041ca:	bfa8      	it	ge
100041cc:	4604      	movge	r4, r0
100041ce:	1979      	adds	r1, r7, r5
100041d0:	2c00      	cmp	r4, #0
100041d2:	d1e2      	bne.n	1000419a <stdio_usb_out_chars+0x4a>
100041d4:	4621      	mov	r1, r4
100041d6:	f04f 30ff 	mov.w	r0, #4294967295
100041da:	f000 fbbf 	bl	1000495c <tud_task_ext>
100041de:	4620      	mov	r0, r4
100041e0:	f001 fa38 	bl	10005654 <tud_cdc_n_write_flush>
100041e4:	4620      	mov	r0, r4
100041e6:	f001 f9cf 	bl	10005588 <tud_cdc_n_connected>
100041ea:	b188      	cbz	r0, 10004210 <stdio_usb_out_chars+0xc0>
100041ec:	4620      	mov	r0, r4
100041ee:	f001 fa99 	bl	10005724 <tud_cdc_n_write_available>
100041f2:	2800      	cmp	r0, #0
100041f4:	d1e2      	bne.n	100041bc <stdio_usb_out_chars+0x6c>
100041f6:	f7ff f947 	bl	10003488 <time_us_64>
100041fa:	4a0f      	ldr	r2, [pc, #60]	@ (10004238 <stdio_usb_out_chars+0xe8>)
100041fc:	f8d8 3000 	ldr.w	r3, [r8]
10004200:	189b      	adds	r3, r3, r2
10004202:	f8d8 2004 	ldr.w	r2, [r8, #4]
10004206:	f142 0200 	adc.w	r2, r2, #0
1000420a:	4283      	cmp	r3, r0
1000420c:	418a      	sbcs	r2, r1
1000420e:	d2d5      	bcs.n	100041bc <stdio_usb_out_chars+0x6c>
10004210:	4808      	ldr	r0, [pc, #32]	@ (10004234 <stdio_usb_out_chars+0xe4>)
10004212:	e8bd 41f0 	ldmia.w	sp!, {r4, r5, r6, r7, r8, lr}
10004216:	f002 ba97 	b.w	10006748 <__mutex_exit_veneer>
1000421a:	2000      	movs	r0, #0
1000421c:	e8bd 41f0 	ldmia.w	sp!, {r4, r5, r6, r7, r8, lr}
10004220:	2100      	movs	r1, #0
10004222:	4b06      	ldr	r3, [pc, #24]	@ (1000423c <stdio_usb_out_chars+0xec>)
10004224:	e9c3 0100 	strd	r0, r1, [r3]
10004228:	4802      	ldr	r0, [pc, #8]	@ (10004234 <stdio_usb_out_chars+0xe4>)
1000422a:	f002 ba8d 	b.w	10006748 <__mutex_exit_veneer>
1000422e:	bf00      	nop
10004230:	000f4240 	.word	0x000f4240
10004234:	20002184 	.word	0x20002184
10004238:	0007a120 	.word	0x0007a120
1000423c:	200014e8 	.word	0x200014e8

10004240 <low_priority_worker_irq>:
10004240:	b510      	push	{r4, lr}
10004242:	2100      	movs	r1, #0
10004244:	b084      	sub	sp, #16
10004246:	4832      	ldr	r0, [pc, #200]	@ (10004310 <low_priority_worker_irq+0xd0>)
10004248:	f002 fa92 	bl	10006770 <__mutex_try_enter_veneer>
1000424c:	bb28      	cbnz	r0, 1000429a <low_priority_worker_irq+0x5a>
1000424e:	4b31      	ldr	r3, [pc, #196]	@ (10004314 <low_priority_worker_irq+0xd4>)
10004250:	681a      	ldr	r2, [r3, #0]
10004252:	b302      	cbz	r2, 10004296 <low_priority_worker_irq+0x56>
10004254:	f3ef 8110 	mrs	r1, PRIMASK
10004258:	b672      	cpsid	i
1000425a:	e8d2 efcf 	ldaexb	lr, [r2]
1000425e:	f05f 0c01 	movs.w	ip, #1
10004262:	f1be 0f00 	cmp.w	lr, #0
10004266:	d1f8      	bne.n	1000425a <low_priority_worker_irq+0x1a>
10004268:	e8c2 cf4e 	strexb	lr, ip, [r2]
1000426c:	f1be 0f00 	cmp.w	lr, #0
10004270:	d1f3      	bne.n	1000425a <low_priority_worker_irq+0x1a>
10004272:	f3bf 8f5f 	dmb	sy
10004276:	f8df c0a8 	ldr.w	ip, [pc, #168]	@ 10004320 <low_priority_worker_irq+0xe0>
1000427a:	f8d3 e000 	ldr.w	lr, [r3]
1000427e:	f89c 2000 	ldrb.w	r2, [ip]
10004282:	6059      	str	r1, [r3, #4]
10004284:	b2d3      	uxtb	r3, r2
10004286:	2201      	movs	r2, #1
10004288:	f88c 2000 	strb.w	r2, [ip]
1000428c:	e8ce 0f8f 	stlb	r0, [lr]
10004290:	f381 8810 	msr	PRIMASK, r1
10004294:	b1cb      	cbz	r3, 100042ca <low_priority_worker_irq+0x8a>
10004296:	b004      	add	sp, #16
10004298:	bd10      	pop	{r4, pc}
1000429a:	2100      	movs	r1, #0
1000429c:	f04f 30ff 	mov.w	r0, #4294967295
100042a0:	f000 fb5c 	bl	1000495c <tud_task_ext>
100042a4:	2000      	movs	r0, #0
100042a6:	f001 f985 	bl	100055b4 <tud_cdc_n_available>
100042aa:	4604      	mov	r4, r0
100042ac:	4818      	ldr	r0, [pc, #96]	@ (10004310 <low_priority_worker_irq+0xd0>)
100042ae:	f002 fa4b 	bl	10006748 <__mutex_exit_veneer>
100042b2:	2c00      	cmp	r4, #0
100042b4:	d0ef      	beq.n	10004296 <low_priority_worker_irq+0x56>
100042b6:	4b18      	ldr	r3, [pc, #96]	@ (10004318 <low_priority_worker_irq+0xd8>)
100042b8:	681b      	ldr	r3, [r3, #0]
100042ba:	2b00      	cmp	r3, #0
100042bc:	d0eb      	beq.n	10004296 <low_priority_worker_irq+0x56>
100042be:	4a17      	ldr	r2, [pc, #92]	@ (1000431c <low_priority_worker_irq+0xdc>)
100042c0:	6810      	ldr	r0, [r2, #0]
100042c2:	b004      	add	sp, #16
100042c4:	e8bd 4010 	ldmia.w	sp!, {r4, lr}
100042c8:	4718      	bx	r3
100042ca:	f7fe ff27 	bl	1000311c <alarm_pool_get_default>
100042ce:	4604      	mov	r4, r0
100042d0:	f7ff f8da 	bl	10003488 <time_us_64>
100042d4:	f04f 3eff 	mov.w	lr, #4294967295
100042d8:	f06f 4c00 	mvn.w	ip, #2147483648	@ 0x80000000
100042dc:	f510 727a 	adds.w	r2, r0, #1000	@ 0x3e8
100042e0:	f141 0300 	adc.w	r3, r1, #0
100042e4:	4596      	cmp	lr, r2
100042e6:	eb7c 0103 	sbcs.w	r1, ip, r3
100042ea:	bf38      	it	cc
100042ec:	4663      	movcc	r3, ip
100042ee:	f04f 0100 	mov.w	r1, #0
100042f2:	f04f 0c01 	mov.w	ip, #1
100042f6:	bf38      	it	cc
100042f8:	4672      	movcc	r2, lr
100042fa:	f8df e028 	ldr.w	lr, [pc, #40]	@ 10004324 <low_priority_worker_irq+0xe4>
100042fe:	4620      	mov	r0, r4
10004300:	e9cd 1c01 	strd	r1, ip, [sp, #4]
10004304:	f8cd e000 	str.w	lr, [sp]
10004308:	f7fe ff0c 	bl	10003124 <alarm_pool_add_alarm_at>
1000430c:	b004      	add	sp, #16
1000430e:	bd10      	pop	{r4, pc}
10004310:	20002184 	.word	0x20002184
10004314:	20001eb4 	.word	0x20001eb4
10004318:	20001a20 	.word	0x20001a20
1000431c:	20001a24 	.word	0x20001a24
10004320:	20022292 	.word	0x20022292
10004324:	10003ff9 	.word	0x10003ff9

10004328 <stdio_usb_init>:
10004328:	f04f 4350 	mov.w	r3, #3489660928	@ 0xd0000000
1000432c:	b530      	push	{r4, r5, lr}
1000432e:	b085      	sub	sp, #20
10004330:	681c      	ldr	r4, [r3, #0]
10004332:	f7fe fef3 	bl	1000311c <alarm_pool_get_default>
10004336:	f7ff f80f 	bl	10003358 <alarm_pool_core_num>
1000433a:	42a0      	cmp	r0, r4
1000433c:	d002      	beq.n	10004344 <stdio_usb_init+0x1c>
1000433e:	2000      	movs	r0, #0
10004340:	b005      	add	sp, #20
10004342:	bd30      	pop	{r4, r5, pc}
10004344:	2100      	movs	r1, #0
10004346:	4b2c      	ldr	r3, [pc, #176]	@ (100043f8 <stdio_usb_init+0xd0>)
10004348:	4608      	mov	r0, r1
1000434a:	781b      	ldrb	r3, [r3, #0]
1000434c:	f001 fcce 	bl	10005cec <tusb_rhport_init>
10004350:	482a      	ldr	r0, [pc, #168]	@ (100043fc <stdio_usb_init+0xd4>)
10004352:	6803      	ldr	r3, [r0, #0]
10004354:	2b00      	cmp	r3, #0
10004356:	d04b      	beq.n	100043f0 <stdio_usb_init+0xc8>
10004358:	2001      	movs	r0, #1
1000435a:	f7fe fc63 	bl	10002c24 <user_irq_claim_unused>
1000435e:	4603      	mov	r3, r0
10004360:	4c27      	ldr	r4, [pc, #156]	@ (10004400 <stdio_usb_init+0xd8>)
10004362:	4928      	ldr	r1, [pc, #160]	@ (10004404 <stdio_usb_init+0xdc>)
10004364:	b2c0      	uxtb	r0, r0
10004366:	7023      	strb	r3, [r4, #0]
10004368:	f7fe fab0 	bl	100028cc <irq_set_exclusive_handler>
1000436c:	7820      	ldrb	r0, [r4, #0]
1000436e:	2101      	movs	r1, #1
10004370:	f7fe fa6a 	bl	10002848 <irq_set_enabled>
10004374:	200e      	movs	r0, #14
10004376:	f7fe fa99 	bl	100028ac <irq_has_shared_handler>
1000437a:	bb60      	cbnz	r0, 100043d6 <stdio_usb_init+0xae>
1000437c:	4b22      	ldr	r3, [pc, #136]	@ (10004408 <stdio_usb_init+0xe0>)
1000437e:	f06f 4400 	mvn.w	r4, #2147483648	@ 0x80000000
10004382:	e9c3 0000 	strd	r0, r0, [r3]
10004386:	f7fe fec9 	bl	1000311c <alarm_pool_get_default>
1000438a:	4605      	mov	r5, r0
1000438c:	f7ff f87c 	bl	10003488 <time_us_64>
10004390:	f04f 3cff 	mov.w	ip, #4294967295
10004394:	f510 727a 	adds.w	r2, r0, #1000	@ 0x3e8
10004398:	f141 0300 	adc.w	r3, r1, #0
1000439c:	4594      	cmp	ip, r2
1000439e:	eb74 0103 	sbcs.w	r1, r4, r3
100043a2:	bf38      	it	cc
100043a4:	4623      	movcc	r3, r4
100043a6:	f04f 0100 	mov.w	r1, #0
100043aa:	f04f 0401 	mov.w	r4, #1
100043ae:	bf38      	it	cc
100043b0:	4662      	movcc	r2, ip
100043b2:	f8df c060 	ldr.w	ip, [pc, #96]	@ 10004414 <stdio_usb_init+0xec>
100043b6:	4628      	mov	r0, r5
100043b8:	e9cd 1401 	strd	r1, r4, [sp, #4]
100043bc:	f8cd c000 	str.w	ip, [sp]
100043c0:	f7fe feb0 	bl	10003124 <alarm_pool_add_alarm_at>
100043c4:	2800      	cmp	r0, #0
100043c6:	dbba      	blt.n	1000433e <stdio_usb_init+0x16>
100043c8:	2101      	movs	r1, #1
100043ca:	4810      	ldr	r0, [pc, #64]	@ (1000440c <stdio_usb_init+0xe4>)
100043cc:	f7ff fd22 	bl	10003e14 <stdio_set_driver_enabled>
100043d0:	2001      	movs	r0, #1
100043d2:	b005      	add	sp, #20
100043d4:	bd30      	pop	{r4, r5, pc}
100043d6:	2001      	movs	r0, #1
100043d8:	f7fe f9f0 	bl	100027bc <spin_lock_claim_unused>
100043dc:	4601      	mov	r1, r0
100043de:	480a      	ldr	r0, [pc, #40]	@ (10004408 <stdio_usb_init+0xe0>)
100043e0:	f7fe fc82 	bl	10002ce8 <critical_section_init_with_lock_num>
100043e4:	2200      	movs	r2, #0
100043e6:	200e      	movs	r0, #14
100043e8:	4909      	ldr	r1, [pc, #36]	@ (10004410 <stdio_usb_init+0xe8>)
100043ea:	f7fe faa7 	bl	1000293c <irq_add_shared_handler>
100043ee:	e7eb      	b.n	100043c8 <stdio_usb_init+0xa0>
100043f0:	f7fe fc5e 	bl	10002cb0 <mutex_init>
100043f4:	e7b0      	b.n	10004358 <stdio_usb_init+0x30>
100043f6:	bf00      	nop
100043f8:	10006b98 	.word	0x10006b98
100043fc:	20002184 	.word	0x20002184
10004400:	20022291 	.word	0x20022291
10004404:	10004241 	.word	0x10004241
10004408:	20001eb4 	.word	0x20001eb4
1000440c:	20001254 	.word	0x20001254
10004410:	10004069 	.word	0x10004069
10004414:	10003ff9 	.word	0x10003ff9

10004418 <tud_descriptor_device_cb>:
10004418:	4800      	ldr	r0, [pc, #0]	@ (1000441c <tud_descriptor_device_cb+0x4>)
1000441a:	4770      	bx	lr
1000441c:	10006b20 	.word	0x10006b20

10004420 <tud_descriptor_configuration_cb>:
10004420:	4800      	ldr	r0, [pc, #0]	@ (10004424 <tud_descriptor_configuration_cb+0x4>)
10004422:	4770      	bx	lr
10004424:	10006acc 	.word	0x10006acc

10004428 <tud_descriptor_string_cb>:
10004428:	b500      	push	{lr}
1000442a:	4a1c      	ldr	r2, [pc, #112]	@ (1000449c <tud_descriptor_string_cb+0x74>)
1000442c:	4603      	mov	r3, r0
1000442e:	7811      	ldrb	r1, [r2, #0]
10004430:	b083      	sub	sp, #12
10004432:	b331      	cbz	r1, 10004482 <tud_descriptor_string_cb+0x5a>
10004434:	b963      	cbnz	r3, 10004450 <tud_descriptor_string_cb+0x28>
10004436:	f240 4209 	movw	r2, #1033	@ 0x409
1000443a:	f44f 7341 	mov.w	r3, #772	@ 0x304
1000443e:	f8df c060 	ldr.w	ip, [pc, #96]	@ 100044a0 <tud_descriptor_string_cb+0x78>
10004442:	f8ac 2002 	strh.w	r2, [ip, #2]
10004446:	4816      	ldr	r0, [pc, #88]	@ (100044a0 <tud_descriptor_string_cb+0x78>)
10004448:	f8ac 3000 	strh.w	r3, [ip]
1000444c:	b003      	add	sp, #12
1000444e:	bd00      	pop	{pc}
10004450:	2b05      	cmp	r3, #5
10004452:	d820      	bhi.n	10004496 <tud_descriptor_string_cb+0x6e>
10004454:	4a13      	ldr	r2, [pc, #76]	@ (100044a4 <tud_descriptor_string_cb+0x7c>)
10004456:	f8df c048 	ldr.w	ip, [pc, #72]	@ 100044a0 <tud_descriptor_string_cb+0x78>
1000445a:	f852 1023 	ldr.w	r1, [r2, r3, lsl #2]
1000445e:	4660      	mov	r0, ip
10004460:	2300      	movs	r3, #0
10004462:	3901      	subs	r1, #1
10004464:	e003      	b.n	1000446e <tud_descriptor_string_cb+0x46>
10004466:	2b13      	cmp	r3, #19
10004468:	f820 2f02 	strh.w	r2, [r0, #2]!
1000446c:	d010      	beq.n	10004490 <tud_descriptor_string_cb+0x68>
1000446e:	f811 2f01 	ldrb.w	r2, [r1, #1]!
10004472:	3301      	adds	r3, #1
10004474:	b2db      	uxtb	r3, r3
10004476:	2a00      	cmp	r2, #0
10004478:	d1f5      	bne.n	10004466 <tud_descriptor_string_cb+0x3e>
1000447a:	005b      	lsls	r3, r3, #1
1000447c:	f443 7340 	orr.w	r3, r3, #768	@ 0x300
10004480:	e7e1      	b.n	10004446 <tud_descriptor_string_cb+0x1e>
10004482:	9001      	str	r0, [sp, #4]
10004484:	2111      	movs	r1, #17
10004486:	4610      	mov	r0, r2
10004488:	f7ff f9da 	bl	10003840 <pico_get_unique_board_id_string>
1000448c:	9b01      	ldr	r3, [sp, #4]
1000448e:	e7d1      	b.n	10004434 <tud_descriptor_string_cb+0xc>
10004490:	f44f 734a 	mov.w	r3, #808	@ 0x328
10004494:	e7d7      	b.n	10004446 <tud_descriptor_string_cb+0x1e>
10004496:	2000      	movs	r0, #0
10004498:	e7d8      	b.n	1000444c <tud_descriptor_string_cb+0x24>
1000449a:	bf00      	nop
1000449c:	20022190 	.word	0x20022190
100044a0:	20001a58 	.word	0x20001a58
100044a4:	10006ab4 	.word	0x10006ab4

100044a8 <dcd_init>:
100044a8:	b510      	push	{r4, lr}
100044aa:	f000 f939 	bl	10004720 <rp2040_usb_init>
100044ae:	230c      	movs	r3, #12
100044b0:	4c1c      	ldr	r4, [pc, #112]	@ (10004524 <dcd_init+0x7c>)
100044b2:	22ff      	movs	r2, #255	@ 0xff
100044b4:	67a3      	str	r3, [r4, #120]	@ 0x78
100044b6:	200e      	movs	r0, #14
100044b8:	491b      	ldr	r1, [pc, #108]	@ (10004528 <dcd_init+0x80>)
100044ba:	f7fe fa3f 	bl	1000293c <irq_add_shared_handler>
100044be:	2240      	movs	r2, #64	@ 0x40
100044c0:	2100      	movs	r1, #0
100044c2:	481a      	ldr	r0, [pc, #104]	@ (1000452c <dcd_init+0x84>)
100044c4:	f002 f844 	bl	10006550 <memset>
100044c8:	f04f 0c80 	mov.w	ip, #128	@ 0x80
100044cc:	2001      	movs	r0, #1
100044ce:	4a17      	ldr	r2, [pc, #92]	@ (1000452c <dcd_init+0x84>)
100044d0:	2300      	movs	r3, #0
100044d2:	f8a2 c022 	strh.w	ip, [r2, #34]	@ 0x22
100044d6:	7050      	strb	r0, [r2, #1]
100044d8:	4610      	mov	r0, r2
100044da:	2240      	movs	r2, #64	@ 0x40
100044dc:	4914      	ldr	r1, [pc, #80]	@ (10004530 <dcd_init+0x88>)
100044de:	8302      	strh	r2, [r0, #24]
100044e0:	8702      	strh	r2, [r0, #56]	@ 0x38
100044e2:	4a14      	ldr	r2, [pc, #80]	@ (10004534 <dcd_init+0x8c>)
100044e4:	6081      	str	r1, [r0, #8]
100044e6:	6043      	str	r3, [r0, #4]
100044e8:	f8c2 3084 	str.w	r3, [r2, #132]	@ 0x84
100044ec:	f8c2 3080 	str.w	r3, [r2, #128]	@ 0x80
100044f0:	f880 3021 	strb.w	r3, [r0, #33]	@ 0x21
100044f4:	f880 303b 	strb.w	r3, [r0, #59]	@ 0x3b
100044f8:	6243      	str	r3, [r0, #36]	@ 0x24
100044fa:	4b0f      	ldr	r3, [pc, #60]	@ (10004538 <dcd_init+0x90>)
100044fc:	60c3      	str	r3, [r0, #12]
100044fe:	62c3      	str	r3, [r0, #44]	@ 0x2c
10004500:	3b80      	subs	r3, #128	@ 0x80
10004502:	6283      	str	r3, [r0, #40]	@ 0x28
10004504:	f002 f910 	bl	10006728 <__reset_non_control_endpoints_veneer>
10004508:	f04f 5c00 	mov.w	ip, #536870912	@ 0x20000000
1000450c:	f44f 3280 	mov.w	r2, #65536	@ 0x10000
10004510:	2001      	movs	r0, #1
10004512:	490a      	ldr	r1, [pc, #40]	@ (1000453c <dcd_init+0x94>)
10004514:	4b0a      	ldr	r3, [pc, #40]	@ (10004540 <dcd_init+0x98>)
10004516:	6420      	str	r0, [r4, #64]	@ 0x40
10004518:	f8c4 c04c 	str.w	ip, [r4, #76]	@ 0x4c
1000451c:	f8c4 1090 	str.w	r1, [r4, #144]	@ 0x90
10004520:	64da      	str	r2, [r3, #76]	@ 0x4c
10004522:	bd10      	pop	{r4, pc}
10004524:	50110000 	.word	0x50110000
10004528:	200003ad 	.word	0x200003ad
1000452c:	20001a90 	.word	0x20001a90
10004530:	50100084 	.word	0x50100084
10004534:	50100000 	.word	0x50100000
10004538:	50100100 	.word	0x50100100
1000453c:	0001d010 	.word	0x0001d010
10004540:	50112000 	.word	0x50112000

10004544 <dcd_int_enable>:
10004544:	2101      	movs	r1, #1
10004546:	200e      	movs	r0, #14
10004548:	f7fe b97e 	b.w	10002848 <irq_set_enabled>

1000454c <dcd_set_address>:
1000454c:	2200      	movs	r2, #0
1000454e:	4802      	ldr	r0, [pc, #8]	@ (10004558 <dcd_set_address+0xc>)
10004550:	4611      	mov	r1, r2
10004552:	f000 b905 	b.w	10004760 <hw_endpoint_xfer_start>
10004556:	bf00      	nop
10004558:	20001ab0 	.word	0x20001ab0

1000455c <dcd_sof_enable>:
1000455c:	4b04      	ldr	r3, [pc, #16]	@ (10004570 <dcd_sof_enable+0x14>)
1000455e:	7019      	strb	r1, [r3, #0]
10004560:	b121      	cbz	r1, 1000456c <dcd_sof_enable+0x10>
10004562:	f44f 3200 	mov.w	r2, #131072	@ 0x20000
10004566:	4b03      	ldr	r3, [pc, #12]	@ (10004574 <dcd_sof_enable+0x18>)
10004568:	f8c3 2090 	str.w	r2, [r3, #144]	@ 0x90
1000456c:	4770      	bx	lr
1000456e:	bf00      	nop
10004570:	2002228d 	.word	0x2002228d
10004574:	50112000 	.word	0x50112000

10004578 <dcd_edpt0_status_complete>:
10004578:	780b      	ldrb	r3, [r1, #0]
1000457a:	065b      	lsls	r3, r3, #25
1000457c:	d000      	beq.n	10004580 <dcd_edpt0_status_complete+0x8>
1000457e:	4770      	bx	lr
10004580:	784b      	ldrb	r3, [r1, #1]
10004582:	2b05      	cmp	r3, #5
10004584:	d1fb      	bne.n	1000457e <dcd_edpt0_status_complete+0x6>
10004586:	884b      	ldrh	r3, [r1, #2]
10004588:	4a01      	ldr	r2, [pc, #4]	@ (10004590 <dcd_edpt0_status_complete+0x18>)
1000458a:	b2db      	uxtb	r3, r3
1000458c:	6013      	str	r3, [r2, #0]
1000458e:	e7f6      	b.n	1000457e <dcd_edpt0_status_complete+0x6>
10004590:	50110000 	.word	0x50110000

10004594 <dcd_edpt_open>:
10004594:	78cb      	ldrb	r3, [r1, #3]
10004596:	f003 0c03 	and.w	ip, r3, #3
1000459a:	f1bc 0f01 	cmp.w	ip, #1
1000459e:	f3c3 0001 	ubfx	r0, r3, #0, #2
100045a2:	d062      	beq.n	1000466a <dcd_edpt_open+0xd6>
100045a4:	e92d 41f0 	stmdb	sp!, {r4, r5, r6, r7, r8, lr}
100045a8:	2600      	movs	r6, #0
100045aa:	f891 e002 	ldrb.w	lr, [r1, #2]
100045ae:	4c36      	ldr	r4, [pc, #216]	@ (10004688 <dcd_edpt_open+0xf4>)
100045b0:	f00e 027f 	and.w	r2, lr, #127	@ 0x7f
100045b4:	0053      	lsls	r3, r2, #1
100045b6:	8889      	ldrh	r1, [r1, #4]
100045b8:	4698      	mov	r8, r3
100045ba:	eb03 13de 	add.w	r3, r3, lr, lsr #7
100045be:	eb04 1343 	add.w	r3, r4, r3, lsl #5
100045c2:	ea4f 15de 	mov.w	r5, lr, lsr #7
100045c6:	76d8      	strb	r0, [r3, #27]
100045c8:	f3c1 010a 	ubfx	r1, r1, #0, #11
100045cc:	f085 0001 	eor.w	r0, r5, #1
100045d0:	f883 e002 	strb.w	lr, [r3, #2]
100045d4:	8319      	strh	r1, [r3, #24]
100045d6:	7058      	strb	r0, [r3, #1]
100045d8:	70de      	strb	r6, [r3, #3]
100045da:	00d3      	lsls	r3, r2, #3
100045dc:	2d00      	cmp	r5, #0
100045de:	d132      	bne.n	10004646 <dcd_edpt_open+0xb2>
100045e0:	482a      	ldr	r0, [pc, #168]	@ (1000468c <dcd_edpt_open+0xf8>)
100045e2:	3304      	adds	r3, #4
100045e4:	eb04 1e82 	add.w	lr, r4, r2, lsl #6
100045e8:	181f      	adds	r7, r3, r0
100045ea:	f8ce 7008 	str.w	r7, [lr, #8]
100045ee:	501e      	str	r6, [r3, r0]
100045f0:	b392      	cbz	r2, 10004658 <dcd_edpt_open+0xc4>
100045f2:	4b27      	ldr	r3, [pc, #156]	@ (10004690 <dcd_edpt_open+0xfc>)
100045f4:	eb03 03c2 	add.w	r3, r3, r2, lsl #3
100045f8:	f8ce 3004 	str.w	r3, [lr, #4]
100045fc:	313f      	adds	r1, #63	@ 0x3f
100045fe:	0989      	lsrs	r1, r1, #6
10004600:	f1bc 0f02 	cmp.w	ip, #2
10004604:	bf14      	ite	ne
10004606:	018b      	lslne	r3, r1, #6
10004608:	01cb      	lsleq	r3, r1, #7
1000460a:	4922      	ldr	r1, [pc, #136]	@ (10004694 <dcd_edpt_open+0x100>)
1000460c:	eb08 0605 	add.w	r6, r8, r5
10004610:	680a      	ldr	r2, [r1, #0]
10004612:	eb04 1646 	add.w	r6, r4, r6, lsl #5
10004616:	4413      	add	r3, r2
10004618:	600b      	str	r3, [r1, #0]
1000461a:	491f      	ldr	r1, [pc, #124]	@ (10004698 <dcd_edpt_open+0x104>)
1000461c:	60f2      	str	r2, [r6, #12]
1000461e:	428b      	cmp	r3, r1
10004620:	d82d      	bhi.n	1000467e <dcd_edpt_open+0xea>
10004622:	eb08 0305 	add.w	r3, r8, r5
10004626:	eb04 1443 	add.w	r4, r4, r3, lsl #5
1000462a:	7ee1      	ldrb	r1, [r4, #27]
1000462c:	f082 42a0 	eor.w	r2, r2, #1342177280	@ 0x50000000
10004630:	f482 1280 	eor.w	r2, r2, #1048576	@ 0x100000
10004634:	6863      	ldr	r3, [r4, #4]
10004636:	ea42 6281 	orr.w	r2, r2, r1, lsl #26
1000463a:	f042 4200 	orr.w	r2, r2, #2147483648	@ 0x80000000
1000463e:	2001      	movs	r0, #1
10004640:	601a      	str	r2, [r3, #0]
10004642:	e8bd 81f0 	ldmia.w	sp!, {r4, r5, r6, r7, r8, pc}
10004646:	4811      	ldr	r0, [pc, #68]	@ (1000468c <dcd_edpt_open+0xf8>)
10004648:	eb04 1e82 	add.w	lr, r4, r2, lsl #6
1000464c:	4403      	add	r3, r0
1000464e:	f8ce 3028 	str.w	r3, [lr, #40]	@ 0x28
10004652:	f840 6032 	str.w	r6, [r0, r2, lsl #3]
10004656:	b952      	cbnz	r2, 1000466e <dcd_edpt_open+0xda>
10004658:	4613      	mov	r3, r2
1000465a:	4a10      	ldr	r2, [pc, #64]	@ (1000469c <dcd_edpt_open+0x108>)
1000465c:	eb04 1445 	add.w	r4, r4, r5, lsl #5
10004660:	2001      	movs	r0, #1
10004662:	60e2      	str	r2, [r4, #12]
10004664:	6063      	str	r3, [r4, #4]
10004666:	e8bd 81f0 	ldmia.w	sp!, {r4, r5, r6, r7, r8, pc}
1000466a:	2000      	movs	r0, #0
1000466c:	4770      	bx	lr
1000466e:	00d2      	lsls	r2, r2, #3
10004670:	f102 42a0 	add.w	r2, r2, #1342177280	@ 0x50000000
10004674:	f502 1280 	add.w	r2, r2, #1048576	@ 0x100000
10004678:	f8ce 2024 	str.w	r2, [lr, #36]	@ 0x24
1000467c:	e7be      	b.n	100045fc <dcd_edpt_open+0x68>
1000467e:	f7ff f9a9 	bl	100039d4 <hard_assertion_failure>
10004682:	68f2      	ldr	r2, [r6, #12]
10004684:	e7cd      	b.n	10004622 <dcd_edpt_open+0x8e>
10004686:	bf00      	nop
10004688:	20001a90 	.word	0x20001a90
1000468c:	50100080 	.word	0x50100080
10004690:	50100004 	.word	0x50100004
10004694:	20001e98 	.word	0x20001e98
10004698:	50100fff 	.word	0x50100fff
1000469c:	50100100 	.word	0x50100100

100046a0 <dcd_edpt_close_all>:
100046a0:	f002 b842 	b.w	10006728 <__reset_non_control_endpoints_veneer>

100046a4 <dcd_edpt_xfer>:
100046a4:	b508      	push	{r3, lr}
100046a6:	4696      	mov	lr, r2
100046a8:	f8df c01c 	ldr.w	ip, [pc, #28]	@ 100046c8 <dcd_edpt_xfer+0x24>
100046ac:	f001 027f 	and.w	r2, r1, #127	@ 0x7f
100046b0:	09c8      	lsrs	r0, r1, #7
100046b2:	eb00 0042 	add.w	r0, r0, r2, lsl #1
100046b6:	eb0c 1040 	add.w	r0, ip, r0, lsl #5
100046ba:	461a      	mov	r2, r3
100046bc:	4671      	mov	r1, lr
100046be:	f000 f84f 	bl	10004760 <hw_endpoint_xfer_start>
100046c2:	2001      	movs	r0, #1
100046c4:	bd08      	pop	{r3, pc}
100046c6:	bf00      	nop
100046c8:	20001a90 	.word	0x20001a90

100046cc <dcd_edpt_stall>:
100046cc:	f011 027f 	ands.w	r2, r1, #127	@ 0x7f
100046d0:	d105      	bne.n	100046de <dcd_edpt_stall+0x12>
100046d2:	2900      	cmp	r1, #0
100046d4:	bf0c      	ite	eq
100046d6:	2002      	moveq	r0, #2
100046d8:	2001      	movne	r0, #1
100046da:	4b06      	ldr	r3, [pc, #24]	@ (100046f4 <dcd_edpt_stall+0x28>)
100046dc:	6698      	str	r0, [r3, #104]	@ 0x68
100046de:	09c9      	lsrs	r1, r1, #7
100046e0:	4b05      	ldr	r3, [pc, #20]	@ (100046f8 <dcd_edpt_stall+0x2c>)
100046e2:	eb01 0042 	add.w	r0, r1, r2, lsl #1
100046e6:	eb03 1040 	add.w	r0, r3, r0, lsl #5
100046ea:	f44f 6200 	mov.w	r2, #2048	@ 0x800
100046ee:	2100      	movs	r1, #0
100046f0:	f002 b836 	b.w	10006760 <___hw_endpoint_buffer_control_update32_veneer>
100046f4:	50112000 	.word	0x50112000
100046f8:	20001a90 	.word	0x20001a90

100046fc <dcd_edpt_clear_stall>:
100046fc:	f011 037f 	ands.w	r3, r1, #127	@ 0x7f
10004700:	d100      	bne.n	10004704 <dcd_edpt_clear_stall+0x8>
10004702:	4770      	bx	lr
10004704:	2200      	movs	r2, #0
10004706:	4805      	ldr	r0, [pc, #20]	@ (1000471c <dcd_edpt_clear_stall+0x20>)
10004708:	005b      	lsls	r3, r3, #1
1000470a:	eb03 13d1 	add.w	r3, r3, r1, lsr #7
1000470e:	eb00 1043 	add.w	r0, r0, r3, lsl #5
10004712:	f46f 6100 	mvn.w	r1, #2048	@ 0x800
10004716:	70c2      	strb	r2, [r0, #3]
10004718:	f002 b822 	b.w	10006760 <___hw_endpoint_buffer_control_update32_veneer>
1000471c:	20001a90 	.word	0x20001a90

10004720 <rp2040_usb_init>:
10004720:	f04f 5280 	mov.w	r2, #268435456	@ 0x10000000
10004724:	4809      	ldr	r0, [pc, #36]	@ (1000474c <rp2040_usb_init+0x2c>)
10004726:	490a      	ldr	r1, [pc, #40]	@ (10004750 <rp2040_usb_init+0x30>)
10004728:	b508      	push	{r3, lr}
1000472a:	4b0a      	ldr	r3, [pc, #40]	@ (10004754 <rp2040_usb_init+0x34>)
1000472c:	6002      	str	r2, [r0, #0]
1000472e:	600a      	str	r2, [r1, #0]
10004730:	6899      	ldr	r1, [r3, #8]
10004732:	43c9      	mvns	r1, r1
10004734:	f011 5180 	ands.w	r1, r1, #268435456	@ 0x10000000
10004738:	d1fa      	bne.n	10004730 <rp2040_usb_init+0x10>
1000473a:	f44f 5280 	mov.w	r2, #4096	@ 0x1000
1000473e:	4806      	ldr	r0, [pc, #24]	@ (10004758 <rp2040_usb_init+0x38>)
10004740:	f001 ff06 	bl	10006550 <memset>
10004744:	2209      	movs	r2, #9
10004746:	4b05      	ldr	r3, [pc, #20]	@ (1000475c <rp2040_usb_init+0x3c>)
10004748:	675a      	str	r2, [r3, #116]	@ 0x74
1000474a:	bd08      	pop	{r3, pc}
1000474c:	40022000 	.word	0x40022000
10004750:	40023000 	.word	0x40023000
10004754:	40020000 	.word	0x40020000
10004758:	50100000 	.word	0x50100000
1000475c:	50110000 	.word	0x50110000

10004760 <hw_endpoint_xfer_start>:
10004760:	2300      	movs	r3, #0
10004762:	f04f 0c01 	mov.w	ip, #1
10004766:	b510      	push	{r4, lr}
10004768:	6101      	str	r1, [r0, #16]
1000476a:	f880 c01a 	strb.w	ip, [r0, #26]
1000476e:	8282      	strh	r2, [r0, #20]
10004770:	82c3      	strh	r3, [r0, #22]
10004772:	4604      	mov	r4, r0
10004774:	f001 fff0 	bl	10006758 <__e15_is_bulkin_ep_veneer>
10004778:	b120      	cbz	r0, 10004784 <hw_endpoint_xfer_start+0x24>
1000477a:	f44f 3200 	mov.w	r2, #131072	@ 0x20000
1000477e:	4b07      	ldr	r3, [pc, #28]	@ (1000479c <hw_endpoint_xfer_start+0x3c>)
10004780:	f8c3 2090 	str.w	r2, [r3, #144]	@ 0x90
10004784:	4620      	mov	r0, r4
10004786:	f001 ffd7 	bl	10006738 <__e15_is_critical_frame_period_veneer>
1000478a:	b110      	cbz	r0, 10004792 <hw_endpoint_xfer_start+0x32>
1000478c:	2301      	movs	r3, #1
1000478e:	7723      	strb	r3, [r4, #28]
10004790:	bd10      	pop	{r4, pc}
10004792:	4620      	mov	r0, r4
10004794:	e8bd 4010 	ldmia.w	sp!, {r4, lr}
10004798:	f001 bfd2 	b.w	10006740 <__hw_endpoint_start_next_buffer_veneer>
1000479c:	50112000 	.word	0x50112000

100047a0 <configuration_reset>:
100047a0:	e92d 41f0 	stmdb	sp!, {r4, r5, r6, r7, r8, lr}
100047a4:	2400      	movs	r4, #0
100047a6:	4d1c      	ldr	r5, [pc, #112]	@ (10004818 <configuration_reset+0x78>)
100047a8:	4606      	mov	r6, r0
100047aa:	4623      	mov	r3, r4
100047ac:	782a      	ldrb	r2, [r5, #0]
100047ae:	f8df 8078 	ldr.w	r8, [pc, #120]	@ 10004828 <configuration_reset+0x88>
100047b2:	4f1a      	ldr	r7, [pc, #104]	@ (1000481c <configuration_reset+0x7c>)
100047b4:	e00d      	b.n	100047d2 <configuration_reset+0x32>
100047b6:	683b      	ldr	r3, [r7, #0]
100047b8:	eb13 1344 	adds.w	r3, r3, r4, lsl #5
100047bc:	d023      	beq.n	10004806 <configuration_reset+0x66>
100047be:	68db      	ldr	r3, [r3, #12]
100047c0:	4630      	mov	r0, r6
100047c2:	4798      	blx	r3
100047c4:	782a      	ldrb	r2, [r5, #0]
100047c6:	3401      	adds	r4, #1
100047c8:	b2e4      	uxtb	r4, r4
100047ca:	1c51      	adds	r1, r2, #1
100047cc:	42a1      	cmp	r1, r4
100047ce:	4623      	mov	r3, r4
100047d0:	db06      	blt.n	100047e0 <configuration_reset+0x40>
100047d2:	42a2      	cmp	r2, r4
100047d4:	eba3 0302 	sub.w	r3, r3, r2
100047d8:	d8ed      	bhi.n	100047b6 <configuration_reset+0x16>
100047da:	eb08 1343 	add.w	r3, r8, r3, lsl #5
100047de:	e7ee      	b.n	100047be <configuration_reset+0x1e>
100047e0:	2254      	movs	r2, #84	@ 0x54
100047e2:	2100      	movs	r1, #0
100047e4:	480e      	ldr	r0, [pc, #56]	@ (10004820 <configuration_reset+0x80>)
100047e6:	f001 feb3 	bl	10006550 <memset>
100047ea:	f04f 33ff 	mov.w	r3, #4294967295
100047ee:	4c0c      	ldr	r4, [pc, #48]	@ (10004820 <configuration_reset+0x80>)
100047f0:	2220      	movs	r2, #32
100047f2:	e9c4 3301 	strd	r3, r3, [r4, #4]
100047f6:	e9c4 3303 	strd	r3, r3, [r4, #12]
100047fa:	21ff      	movs	r1, #255	@ 0xff
100047fc:	e8bd 41f0 	ldmia.w	sp!, {r4, r5, r6, r7, r8, lr}
10004800:	4808      	ldr	r0, [pc, #32]	@ (10004824 <configuration_reset+0x84>)
10004802:	f001 bea5 	b.w	10006550 <memset>
10004806:	f04f 23e0 	mov.w	r3, #3758153728	@ 0xe000e000
1000480a:	f8d3 3df0 	ldr.w	r3, [r3, #3568]	@ 0xdf0
1000480e:	07db      	lsls	r3, r3, #31
10004810:	d500      	bpl.n	10004814 <configuration_reset+0x74>
10004812:	be00      	bkpt	0x0000
10004814:	e8bd 81f0 	ldmia.w	sp!, {r4, r5, r6, r7, r8, pc}
10004818:	2002228c 	.word	0x2002228c
1000481c:	20001530 	.word	0x20001530
10004820:	20001638 	.word	0x20001638
10004824:	2000164c 	.word	0x2000164c
10004828:	10006b34 	.word	0x10006b34

1000482c <tud_event_hook_cb>:
1000482c:	4770      	bx	lr
1000482e:	bf00      	nop

10004830 <tud_sof_cb>:
10004830:	4770      	bx	lr
10004832:	bf00      	nop

10004834 <tud_descriptor_device_qualifier_cb>:
10004834:	2000      	movs	r0, #0
10004836:	4770      	bx	lr

10004838 <tud_descriptor_other_speed_configuration_cb>:
10004838:	2000      	movs	r0, #0
1000483a:	4770      	bx	lr

1000483c <tud_mount_cb>:
1000483c:	4770      	bx	lr
1000483e:	bf00      	nop

10004840 <tud_umount_cb>:
10004840:	4770      	bx	lr
10004842:	bf00      	nop

10004844 <tud_suspend_cb>:
10004844:	4770      	bx	lr
10004846:	bf00      	nop

10004848 <tud_resume_cb>:
10004848:	4770      	bx	lr
1000484a:	bf00      	nop

1000484c <tud_mounted>:
1000484c:	4b02      	ldr	r3, [pc, #8]	@ (10004858 <tud_mounted+0xc>)
1000484e:	7858      	ldrb	r0, [r3, #1]
10004850:	3800      	subs	r0, #0
10004852:	bf18      	it	ne
10004854:	2001      	movne	r0, #1
10004856:	4770      	bx	lr
10004858:	20001638 	.word	0x20001638

1000485c <tud_suspended>:
1000485c:	4b02      	ldr	r3, [pc, #8]	@ (10004868 <tud_suspended+0xc>)
1000485e:	7818      	ldrb	r0, [r3, #0]
10004860:	f3c0 0080 	ubfx	r0, r0, #2, #1
10004864:	4770      	bx	lr
10004866:	bf00      	nop
10004868:	20001638 	.word	0x20001638

1000486c <tud_rhport_init>:
1000486c:	e92d 47f0 	stmdb	sp!, {r4, r5, r6, r7, r8, r9, sl, lr}
10004870:	f8df 80e4 	ldr.w	r8, [pc, #228]	@ 10004958 <tud_rhport_init+0xec>
10004874:	f898 3000 	ldrb.w	r3, [r8]
10004878:	2bff      	cmp	r3, #255	@ 0xff
1000487a:	d153      	bne.n	10004924 <tud_rhport_init+0xb8>
1000487c:	2900      	cmp	r1, #0
1000487e:	d03c      	beq.n	100048fa <tud_rhport_init+0x8e>
10004880:	2254      	movs	r2, #84	@ 0x54
10004882:	468a      	mov	sl, r1
10004884:	4681      	mov	r9, r0
10004886:	2100      	movs	r1, #0
10004888:	4828      	ldr	r0, [pc, #160]	@ (1000492c <tud_rhport_init+0xc0>)
1000488a:	f001 fe61 	bl	10006550 <memset>
1000488e:	2200      	movs	r2, #0
10004890:	4c27      	ldr	r4, [pc, #156]	@ (10004930 <tud_rhport_init+0xc4>)
10004892:	4b28      	ldr	r3, [pc, #160]	@ (10004934 <tud_rhport_init+0xc8>)
10004894:	4620      	mov	r0, r4
10004896:	701a      	strb	r2, [r3, #0]
10004898:	f7fe fa0a 	bl	10002cb0 <mutex_init>
1000489c:	4b26      	ldr	r3, [pc, #152]	@ (10004938 <tud_rhport_init+0xcc>)
1000489e:	4827      	ldr	r0, [pc, #156]	@ (1000493c <tud_rhport_init+0xd0>)
100048a0:	601c      	str	r4, [r3, #0]
100048a2:	4c27      	ldr	r4, [pc, #156]	@ (10004940 <tud_rhport_init+0xd4>)
100048a4:	f7fe fa12 	bl	10002ccc <critical_section_init>
100048a8:	4620      	mov	r0, r4
100048aa:	f001 fe17 	bl	100064dc <tu_fifo_clear>
100048ae:	4a25      	ldr	r2, [pc, #148]	@ (10004944 <tud_rhport_init+0xd8>)
100048b0:	4b25      	ldr	r3, [pc, #148]	@ (10004948 <tud_rhport_init+0xdc>)
100048b2:	6014      	str	r4, [r2, #0]
100048b4:	b123      	cbz	r3, 100048c0 <tud_rhport_init+0x54>
100048b6:	4825      	ldr	r0, [pc, #148]	@ (1000494c <tud_rhport_init+0xe0>)
100048b8:	f7ff fb80 	bl	10003fbc <usbd_app_driver_get_cb>
100048bc:	4b24      	ldr	r3, [pc, #144]	@ (10004950 <tud_rhport_init+0xe4>)
100048be:	6018      	str	r0, [r3, #0]
100048c0:	2400      	movs	r4, #0
100048c2:	4d22      	ldr	r5, [pc, #136]	@ (1000494c <tud_rhport_init+0xe0>)
100048c4:	4623      	mov	r3, r4
100048c6:	782a      	ldrb	r2, [r5, #0]
100048c8:	4f22      	ldr	r7, [pc, #136]	@ (10004954 <tud_rhport_init+0xe8>)
100048ca:	4e21      	ldr	r6, [pc, #132]	@ (10004950 <tud_rhport_init+0xe4>)
100048cc:	e00d      	b.n	100048ea <tud_rhport_init+0x7e>
100048ce:	6833      	ldr	r3, [r6, #0]
100048d0:	eb13 1344 	adds.w	r3, r3, r4, lsl #5
100048d4:	d011      	beq.n	100048fa <tud_rhport_init+0x8e>
100048d6:	685b      	ldr	r3, [r3, #4]
100048d8:	b17b      	cbz	r3, 100048fa <tud_rhport_init+0x8e>
100048da:	4798      	blx	r3
100048dc:	782a      	ldrb	r2, [r5, #0]
100048de:	3401      	adds	r4, #1
100048e0:	b2e4      	uxtb	r4, r4
100048e2:	1c51      	adds	r1, r2, #1
100048e4:	42a1      	cmp	r1, r4
100048e6:	4623      	mov	r3, r4
100048e8:	db11      	blt.n	1000490e <tud_rhport_init+0xa2>
100048ea:	42a2      	cmp	r2, r4
100048ec:	d8ef      	bhi.n	100048ce <tud_rhport_init+0x62>
100048ee:	1a9b      	subs	r3, r3, r2
100048f0:	eb07 1343 	add.w	r3, r7, r3, lsl #5
100048f4:	685b      	ldr	r3, [r3, #4]
100048f6:	2b00      	cmp	r3, #0
100048f8:	d1ef      	bne.n	100048da <tud_rhport_init+0x6e>
100048fa:	f04f 23e0 	mov.w	r3, #3758153728	@ 0xe000e000
100048fe:	f8d3 3df0 	ldr.w	r3, [r3, #3568]	@ 0xdf0
10004902:	07db      	lsls	r3, r3, #31
10004904:	d500      	bpl.n	10004908 <tud_rhport_init+0x9c>
10004906:	be00      	bkpt	0x0000
10004908:	2000      	movs	r0, #0
1000490a:	e8bd 87f0 	ldmia.w	sp!, {r4, r5, r6, r7, r8, r9, sl, pc}
1000490e:	4651      	mov	r1, sl
10004910:	4648      	mov	r0, r9
10004912:	f888 9000 	strb.w	r9, [r8]
10004916:	f7ff fdc7 	bl	100044a8 <dcd_init>
1000491a:	2800      	cmp	r0, #0
1000491c:	d0ed      	beq.n	100048fa <tud_rhport_init+0x8e>
1000491e:	4648      	mov	r0, r9
10004920:	f7ff fe10 	bl	10004544 <dcd_int_enable>
10004924:	2001      	movs	r0, #1
10004926:	e8bd 87f0 	ldmia.w	sp!, {r4, r5, r6, r7, r8, r9, sl, pc}
1000492a:	bf00      	nop
1000492c:	20001638 	.word	0x20001638
10004930:	20001630 	.word	0x20001630
10004934:	2002228e 	.word	0x2002228e
10004938:	2000168c 	.word	0x2000168c
1000493c:	20001280 	.word	0x20001280
10004940:	2000126c 	.word	0x2000126c
10004944:	20001690 	.word	0x20001690
10004948:	10003fbd 	.word	0x10003fbd
1000494c:	2002228c 	.word	0x2002228c
10004950:	20001530 	.word	0x20001530
10004954:	10006b34 	.word	0x10006b34
10004958:	20001288 	.word	0x20001288

1000495c <tud_task_ext>:
1000495c:	4b95      	ldr	r3, [pc, #596]	@ (10004bb4 <tud_task_ext+0x258>)
1000495e:	781b      	ldrb	r3, [r3, #0]
10004960:	2bff      	cmp	r3, #255	@ 0xff
10004962:	f000 8119 	beq.w	10004b98 <tud_task_ext+0x23c>
10004966:	e92d 4ff0 	stmdb	sp!, {r4, r5, r6, r7, r8, r9, sl, fp, lr}
1000496a:	4c93      	ldr	r4, [pc, #588]	@ (10004bb8 <tud_task_ext+0x25c>)
1000496c:	4d93      	ldr	r5, [pc, #588]	@ (10004bbc <tud_task_ext+0x260>)
1000496e:	f8df 8260 	ldr.w	r8, [pc, #608]	@ 10004bd0 <tud_task_ext+0x274>
10004972:	4f93      	ldr	r7, [pc, #588]	@ (10004bc0 <tud_task_ext+0x264>)
10004974:	b08b      	sub	sp, #44	@ 0x2c
10004976:	6826      	ldr	r6, [r4, #0]
10004978:	6973      	ldr	r3, [r6, #20]
1000497a:	f3ef 8210 	mrs	r2, PRIMASK
1000497e:	b672      	cpsid	i
10004980:	e8d3 0fcf 	ldaexb	r0, [r3]
10004984:	2101      	movs	r1, #1
10004986:	2800      	cmp	r0, #0
10004988:	d1fa      	bne.n	10004980 <tud_task_ext+0x24>
1000498a:	e8c3 1f40 	strexb	r0, r1, [r3]
1000498e:	2800      	cmp	r0, #0
10004990:	d1f6      	bne.n	10004980 <tud_task_ext+0x24>
10004992:	f3bf 8f5f 	dmb	sy
10004996:	61b2      	str	r2, [r6, #24]
10004998:	4630      	mov	r0, r6
1000499a:	a907      	add	r1, sp, #28
1000499c:	f001 fbe4 	bl	10006168 <tu_fifo_read>
100049a0:	2300      	movs	r3, #0
100049a2:	6972      	ldr	r2, [r6, #20]
100049a4:	e8c2 3f8f 	stlb	r3, [r2]
100049a8:	69b3      	ldr	r3, [r6, #24]
100049aa:	f383 8810 	msr	PRIMASK, r3
100049ae:	2800      	cmp	r0, #0
100049b0:	f000 80ca 	beq.w	10004b48 <tud_task_ext+0x1ec>
100049b4:	f89d 301d 	ldrb.w	r3, [sp, #29]
100049b8:	3b01      	subs	r3, #1
100049ba:	2b07      	cmp	r3, #7
100049bc:	f200 839e 	bhi.w	100050fc <tud_task_ext+0x7a0>
100049c0:	e8df f003 	tbb	[pc, r3]
100049c4:	9b93afa5 	.word	0x9b93afa5
100049c8:	040a358c 	.word	0x040a358c
100049cc:	9b08      	ldr	r3, [sp, #32]
100049ce:	2b00      	cmp	r3, #0
100049d0:	d0d1      	beq.n	10004976 <tud_task_ext+0x1a>
100049d2:	9809      	ldr	r0, [sp, #36]	@ 0x24
100049d4:	4798      	blx	r3
100049d6:	e7ce      	b.n	10004976 <tud_task_ext+0x1a>
100049d8:	f89d 1020 	ldrb.w	r1, [sp, #32]
100049dc:	f001 067f 	and.w	r6, r1, #127	@ 0x7f
100049e0:	eb05 0046 	add.w	r0, r5, r6, lsl #1
100049e4:	eb00 10d1 	add.w	r0, r0, r1, lsr #7
100049e8:	f890 3034 	ldrb.w	r3, [r0, #52]	@ 0x34
100049ec:	f023 0301 	bic.w	r3, r3, #1
100049f0:	f880 3034 	strb.w	r3, [r0, #52]	@ 0x34
100049f4:	f890 3034 	ldrb.w	r3, [r0, #52]	@ 0x34
100049f8:	f023 0304 	bic.w	r3, r3, #4
100049fc:	f880 3034 	strb.w	r3, [r0, #52]	@ 0x34
10004a00:	2e00      	cmp	r6, #0
10004a02:	f000 80a4 	beq.w	10004b4e <tud_task_ext+0x1f2>
10004a06:	7d03      	ldrb	r3, [r0, #20]
10004a08:	f898 2000 	ldrb.w	r2, [r8]
10004a0c:	4293      	cmp	r3, r2
10004a0e:	f080 8091 	bcs.w	10004b34 <tud_task_ext+0x1d8>
10004a12:	4a6c      	ldr	r2, [pc, #432]	@ (10004bc4 <tud_task_ext+0x268>)
10004a14:	6812      	ldr	r2, [r2, #0]
10004a16:	eb12 1343 	adds.w	r3, r2, r3, lsl #5
10004a1a:	f000 808e 	beq.w	10004b3a <tud_task_ext+0x1de>
10004a1e:	699e      	ldr	r6, [r3, #24]
10004a20:	f89d 2021 	ldrb.w	r2, [sp, #33]	@ 0x21
10004a24:	9b09      	ldr	r3, [sp, #36]	@ 0x24
10004a26:	f89d 001c 	ldrb.w	r0, [sp, #28]
10004a2a:	47b0      	blx	r6
10004a2c:	e7a3      	b.n	10004976 <tud_task_ext+0x1a>
10004a2e:	783b      	ldrb	r3, [r7, #0]
10004a30:	2b00      	cmp	r3, #0
10004a32:	f000 8082 	beq.w	10004b3a <tud_task_ext+0x1de>
10004a36:	783b      	ldrb	r3, [r7, #0]
10004a38:	3b01      	subs	r3, #1
10004a3a:	703b      	strb	r3, [r7, #0]
10004a3c:	783b      	ldrb	r3, [r7, #0]
10004a3e:	f003 00ff 	and.w	r0, r3, #255	@ 0xff
10004a42:	2b00      	cmp	r3, #0
10004a44:	d197      	bne.n	10004976 <tud_task_ext+0x1a>
10004a46:	f8df a174 	ldr.w	sl, [pc, #372]	@ 10004bbc <tud_task_ext+0x260>
10004a4a:	f89d b01c 	ldrb.w	fp, [sp, #28]
10004a4e:	f89a 3000 	ldrb.w	r3, [sl]
10004a52:	f043 0301 	orr.w	r3, r3, #1
10004a56:	f88a 3000 	strb.w	r3, [sl]
10004a5a:	f89a 3034 	ldrb.w	r3, [sl, #52]	@ 0x34
10004a5e:	f360 0300 	bfi	r3, r0, #0, #1
10004a62:	f88a 3034 	strb.w	r3, [sl, #52]	@ 0x34
10004a66:	f89a 3034 	ldrb.w	r3, [sl, #52]	@ 0x34
10004a6a:	f360 0382 	bfi	r3, r0, #2, #1
10004a6e:	f88a 3034 	strb.w	r3, [sl, #52]	@ 0x34
10004a72:	f89a 3035 	ldrb.w	r3, [sl, #53]	@ 0x35
10004a76:	f360 0300 	bfi	r3, r0, #0, #1
10004a7a:	f88a 3035 	strb.w	r3, [sl, #53]	@ 0x35
10004a7e:	f89a 3035 	ldrb.w	r3, [sl, #53]	@ 0x35
10004a82:	f360 0382 	bfi	r3, r0, #2, #1
10004a86:	f88a 3035 	strb.w	r3, [sl, #53]	@ 0x35
10004a8a:	f000 fca7 	bl	100053dc <usbd_control_set_complete_callback>
10004a8e:	f89d 3020 	ldrb.w	r3, [sp, #32]
10004a92:	f003 0260 	and.w	r2, r3, #96	@ 0x60
10004a96:	2a60      	cmp	r2, #96	@ 0x60
10004a98:	d06c      	beq.n	10004b74 <tud_task_ext+0x218>
10004a9a:	2a40      	cmp	r2, #64	@ 0x40
10004a9c:	d07d      	beq.n	10004b9a <tud_task_ext+0x23e>
10004a9e:	f003 031f 	and.w	r3, r3, #31
10004aa2:	2b01      	cmp	r3, #1
10004aa4:	f000 80c3 	beq.w	10004c2e <tud_task_ext+0x2d2>
10004aa8:	2b02      	cmp	r3, #2
10004aaa:	f000 8093 	beq.w	10004bd4 <tud_task_ext+0x278>
10004aae:	2b00      	cmp	r3, #0
10004ab0:	d160      	bne.n	10004b74 <tud_task_ext+0x218>
10004ab2:	2a20      	cmp	r2, #32
10004ab4:	f000 8202 	beq.w	10004ebc <tud_task_ext+0x560>
10004ab8:	2a00      	cmp	r2, #0
10004aba:	d15b      	bne.n	10004b74 <tud_task_ext+0x218>
10004abc:	f89d 3021 	ldrb.w	r3, [sp, #33]	@ 0x21
10004ac0:	2b09      	cmp	r3, #9
10004ac2:	d857      	bhi.n	10004b74 <tud_task_ext+0x218>
10004ac4:	e8df f013 	tbh	[pc, r3, lsl #1]
10004ac8:	01af01bf 	.word	0x01af01bf
10004acc:	01d10056 	.word	0x01d10056
10004ad0:	01a00056 	.word	0x01a00056
10004ad4:	00560176 	.word	0x00560176
10004ad8:	00f9016a 	.word	0x00f9016a
10004adc:	782b      	ldrb	r3, [r5, #0]
10004ade:	07d9      	lsls	r1, r3, #31
10004ae0:	f57f af49 	bpl.w	10004976 <tud_task_ext+0x1a>
10004ae4:	f7ff feb0 	bl	10004848 <tud_resume_cb>
10004ae8:	e745      	b.n	10004976 <tud_task_ext+0x1a>
10004aea:	78eb      	ldrb	r3, [r5, #3]
10004aec:	07da      	lsls	r2, r3, #31
10004aee:	f57f af42 	bpl.w	10004976 <tud_task_ext+0x1a>
10004af2:	9808      	ldr	r0, [sp, #32]
10004af4:	f7ff fe9c 	bl	10004830 <tud_sof_cb>
10004af8:	e73d      	b.n	10004976 <tud_task_ext+0x1a>
10004afa:	782b      	ldrb	r3, [r5, #0]
10004afc:	07d8      	lsls	r0, r3, #31
10004afe:	f57f af3a 	bpl.w	10004976 <tud_task_ext+0x1a>
10004b02:	7828      	ldrb	r0, [r5, #0]
10004b04:	f3c0 00c0 	ubfx	r0, r0, #3, #1
10004b08:	f7ff fe9c 	bl	10004844 <tud_suspend_cb>
10004b0c:	e733      	b.n	10004976 <tud_task_ext+0x1a>
10004b0e:	f89d 001c 	ldrb.w	r0, [sp, #28]
10004b12:	f7ff fe45 	bl	100047a0 <configuration_reset>
10004b16:	f000 fc57 	bl	100053c8 <usbd_control_reset>
10004b1a:	f89d 3020 	ldrb.w	r3, [sp, #32]
10004b1e:	70ab      	strb	r3, [r5, #2]
10004b20:	e729      	b.n	10004976 <tud_task_ext+0x1a>
10004b22:	f89d 001c 	ldrb.w	r0, [sp, #28]
10004b26:	f7ff fe3b 	bl	100047a0 <configuration_reset>
10004b2a:	f000 fc4d 	bl	100053c8 <usbd_control_reset>
10004b2e:	f7ff fe87 	bl	10004840 <tud_umount_cb>
10004b32:	e720      	b.n	10004976 <tud_task_ext+0x1a>
10004b34:	1c50      	adds	r0, r2, #1
10004b36:	4298      	cmp	r0, r3
10004b38:	da11      	bge.n	10004b5e <tud_task_ext+0x202>
10004b3a:	f04f 23e0 	mov.w	r3, #3758153728	@ 0xe000e000
10004b3e:	f8d3 3df0 	ldr.w	r3, [r3, #3568]	@ 0xdf0
10004b42:	07dc      	lsls	r4, r3, #31
10004b44:	d500      	bpl.n	10004b48 <tud_task_ext+0x1ec>
10004b46:	be00      	bkpt	0x0000
10004b48:	b00b      	add	sp, #44	@ 0x2c
10004b4a:	e8bd 8ff0 	ldmia.w	sp!, {r4, r5, r6, r7, r8, r9, sl, fp, pc}
10004b4e:	9b09      	ldr	r3, [sp, #36]	@ 0x24
10004b50:	f89d 2021 	ldrb.w	r2, [sp, #33]	@ 0x21
10004b54:	f89d 001c 	ldrb.w	r0, [sp, #28]
10004b58:	f000 fc54 	bl	10005404 <usbd_control_xfer_cb>
10004b5c:	e70b      	b.n	10004976 <tud_task_ext+0x1a>
10004b5e:	1a9b      	subs	r3, r3, r2
10004b60:	4a19      	ldr	r2, [pc, #100]	@ (10004bc8 <tud_task_ext+0x26c>)
10004b62:	eb02 1343 	add.w	r3, r2, r3, lsl #5
10004b66:	e75a      	b.n	10004a1e <tud_task_ext+0xc2>
10004b68:	f7ff fc5a 	bl	10004420 <tud_descriptor_configuration_cb>
10004b6c:	4602      	mov	r2, r0
10004b6e:	2800      	cmp	r0, #0
10004b70:	f040 8194 	bne.w	10004e9c <tud_task_ext+0x540>
10004b74:	f04f 23e0 	mov.w	r3, #3758153728	@ 0xe000e000
10004b78:	f8d3 3df0 	ldr.w	r3, [r3, #3568]	@ 0xdf0
10004b7c:	07de      	lsls	r6, r3, #31
10004b7e:	d500      	bpl.n	10004b82 <tud_task_ext+0x226>
10004b80:	be00      	bkpt	0x0000
10004b82:	f89d 001c 	ldrb.w	r0, [sp, #28]
10004b86:	2100      	movs	r1, #0
10004b88:	f7ff fda0 	bl	100046cc <dcd_edpt_stall>
10004b8c:	2180      	movs	r1, #128	@ 0x80
10004b8e:	f89d 001c 	ldrb.w	r0, [sp, #28]
10004b92:	f7ff fd9b 	bl	100046cc <dcd_edpt_stall>
10004b96:	e6ee      	b.n	10004976 <tud_task_ext+0x1a>
10004b98:	4770      	bx	lr
10004b9a:	480c      	ldr	r0, [pc, #48]	@ (10004bcc <tud_task_ext+0x270>)
10004b9c:	f000 fc1e 	bl	100053dc <usbd_control_set_complete_callback>
10004ba0:	2101      	movs	r1, #1
10004ba2:	4658      	mov	r0, fp
10004ba4:	aa08      	add	r2, sp, #32
10004ba6:	f7ff f9f5 	bl	10003f94 <tud_vendor_control_xfer_cb>
10004baa:	2800      	cmp	r0, #0
10004bac:	f47f aee3 	bne.w	10004976 <tud_task_ext+0x1a>
10004bb0:	e7e7      	b.n	10004b82 <tud_task_ext+0x226>
10004bb2:	bf00      	nop
10004bb4:	20001288 	.word	0x20001288
10004bb8:	20001690 	.word	0x20001690
10004bbc:	20001638 	.word	0x20001638
10004bc0:	2002228e 	.word	0x2002228e
10004bc4:	20001530 	.word	0x20001530
10004bc8:	10006b34 	.word	0x10006b34
10004bcc:	10003f95 	.word	0x10003f95
10004bd0:	2002228c 	.word	0x2002228c
10004bd4:	f89d 1024 	ldrb.w	r1, [sp, #36]	@ 0x24
10004bd8:	f011 0f70 	tst.w	r1, #112	@ 0x70
10004bdc:	d1ca      	bne.n	10004b74 <tud_task_ext+0x218>
10004bde:	48b4      	ldr	r0, [pc, #720]	@ (10004eb0 <tud_task_ext+0x554>)
10004be0:	f001 037f 	and.w	r3, r1, #127	@ 0x7f
10004be4:	f890 c000 	ldrb.w	ip, [r0]
10004be8:	eb0a 0043 	add.w	r0, sl, r3, lsl #1
10004bec:	eb00 10d1 	add.w	r0, r0, r1, lsr #7
10004bf0:	7d00      	ldrb	r0, [r0, #20]
10004bf2:	4560      	cmp	r0, ip
10004bf4:	d34d      	bcc.n	10004c92 <tud_task_ext+0x336>
10004bf6:	f10c 0e01 	add.w	lr, ip, #1
10004bfa:	4586      	cmp	lr, r0
10004bfc:	f2c0 8170 	blt.w	10004ee0 <tud_task_ext+0x584>
10004c00:	eba0 000c 	sub.w	r0, r0, ip
10004c04:	f8df c2ac 	ldr.w	ip, [pc, #684]	@ 10004eb4 <tud_task_ext+0x558>
10004c08:	eb0c 1040 	add.w	r0, ip, r0, lsl #5
10004c0c:	9000      	str	r0, [sp, #0]
10004c0e:	2a00      	cmp	r2, #0
10004c10:	f000 816a 	beq.w	10004ee8 <tud_task_ext+0x58c>
10004c14:	9e00      	ldr	r6, [sp, #0]
10004c16:	6970      	ldr	r0, [r6, #20]
10004c18:	f000 fbe0 	bl	100053dc <usbd_control_set_complete_callback>
10004c1c:	2101      	movs	r1, #1
10004c1e:	4658      	mov	r0, fp
10004c20:	6973      	ldr	r3, [r6, #20]
10004c22:	aa08      	add	r2, sp, #32
10004c24:	4798      	blx	r3
10004c26:	2800      	cmp	r0, #0
10004c28:	f47f aea5 	bne.w	10004976 <tud_task_ext+0x1a>
10004c2c:	e7a9      	b.n	10004b82 <tud_task_ext+0x226>
10004c2e:	f89d 3024 	ldrb.w	r3, [sp, #36]	@ 0x24
10004c32:	2b0f      	cmp	r3, #15
10004c34:	d8a5      	bhi.n	10004b82 <tud_task_ext+0x226>
10004c36:	4a9e      	ldr	r2, [pc, #632]	@ (10004eb0 <tud_task_ext+0x554>)
10004c38:	4453      	add	r3, sl
10004c3a:	791b      	ldrb	r3, [r3, #4]
10004c3c:	7812      	ldrb	r2, [r2, #0]
10004c3e:	4293      	cmp	r3, r2
10004c40:	d335      	bcc.n	10004cae <tud_task_ext+0x352>
10004c42:	1c51      	adds	r1, r2, #1
10004c44:	4299      	cmp	r1, r3
10004c46:	db9c      	blt.n	10004b82 <tud_task_ext+0x226>
10004c48:	4e9a      	ldr	r6, [pc, #616]	@ (10004eb4 <tud_task_ext+0x558>)
10004c4a:	1a9b      	subs	r3, r3, r2
10004c4c:	eb06 1643 	add.w	r6, r6, r3, lsl #5
10004c50:	6970      	ldr	r0, [r6, #20]
10004c52:	f000 fbc3 	bl	100053dc <usbd_control_set_complete_callback>
10004c56:	2101      	movs	r1, #1
10004c58:	4658      	mov	r0, fp
10004c5a:	6973      	ldr	r3, [r6, #20]
10004c5c:	aa08      	add	r2, sp, #32
10004c5e:	4798      	blx	r3
10004c60:	2800      	cmp	r0, #0
10004c62:	f47f ae88 	bne.w	10004976 <tud_task_ext+0x1a>
10004c66:	f89d 3020 	ldrb.w	r3, [sp, #32]
10004c6a:	f013 0660 	ands.w	r6, r3, #96	@ 0x60
10004c6e:	d188      	bne.n	10004b82 <tud_task_ext+0x226>
10004c70:	f89d 3021 	ldrb.w	r3, [sp, #33]	@ 0x21
10004c74:	3b0a      	subs	r3, #10
10004c76:	2b01      	cmp	r3, #1
10004c78:	d883      	bhi.n	10004b82 <tud_task_ext+0x226>
10004c7a:	f000 fbaf 	bl	100053dc <usbd_control_set_complete_callback>
10004c7e:	f89d 3021 	ldrb.w	r3, [sp, #33]	@ 0x21
10004c82:	2b0a      	cmp	r3, #10
10004c84:	f000 8213 	beq.w	100050ae <tud_task_ext+0x752>
10004c88:	4658      	mov	r0, fp
10004c8a:	a908      	add	r1, sp, #32
10004c8c:	f000 fb26 	bl	100052dc <tud_control_status>
10004c90:	e671      	b.n	10004976 <tud_task_ext+0x1a>
10004c92:	f8df c224 	ldr.w	ip, [pc, #548]	@ 10004eb8 <tud_task_ext+0x55c>
10004c96:	f8dc c000 	ldr.w	ip, [ip]
10004c9a:	eb0c 1040 	add.w	r0, ip, r0, lsl #5
10004c9e:	9000      	str	r0, [sp, #0]
10004ca0:	2a00      	cmp	r2, #0
10004ca2:	f000 8121 	beq.w	10004ee8 <tud_task_ext+0x58c>
10004ca6:	2800      	cmp	r0, #0
10004ca8:	f43f af6b 	beq.w	10004b82 <tud_task_ext+0x226>
10004cac:	e7b2      	b.n	10004c14 <tud_task_ext+0x2b8>
10004cae:	4a82      	ldr	r2, [pc, #520]	@ (10004eb8 <tud_task_ext+0x55c>)
10004cb0:	6816      	ldr	r6, [r2, #0]
10004cb2:	eb16 1643 	adds.w	r6, r6, r3, lsl #5
10004cb6:	d1cb      	bne.n	10004c50 <tud_task_ext+0x2f4>
10004cb8:	e763      	b.n	10004b82 <tud_task_ext+0x226>
10004cba:	f89a 2001 	ldrb.w	r2, [sl, #1]
10004cbe:	f89d 3022 	ldrb.w	r3, [sp, #34]	@ 0x22
10004cc2:	4293      	cmp	r3, r2
10004cc4:	f000 8164 	beq.w	10004f90 <tud_task_ext+0x634>
10004cc8:	f89a 2001 	ldrb.w	r2, [sl, #1]
10004ccc:	2a00      	cmp	r2, #0
10004cce:	f040 81d8 	bne.w	10005082 <tud_task_ext+0x726>
10004cd2:	f88a 3001 	strb.w	r3, [sl, #1]
10004cd6:	2b00      	cmp	r3, #0
10004cd8:	f000 8158 	beq.w	10004f8c <tud_task_ext+0x630>
10004cdc:	3b01      	subs	r3, #1
10004cde:	b2d8      	uxtb	r0, r3
10004ce0:	f7ff fb9e 	bl	10004420 <tud_descriptor_configuration_cb>
10004ce4:	2800      	cmp	r0, #0
10004ce6:	f000 8174 	beq.w	10004fd2 <tud_task_ext+0x676>
10004cea:	7843      	ldrb	r3, [r0, #1]
10004cec:	2b02      	cmp	r3, #2
10004cee:	f040 8170 	bne.w	10004fd2 <tud_task_ext+0x676>
10004cf2:	79c2      	ldrb	r2, [r0, #7]
10004cf4:	f89a 1000 	ldrb.w	r1, [sl]
10004cf8:	f3c2 1340 	ubfx	r3, r2, #5, #1
10004cfc:	011b      	lsls	r3, r3, #4
10004cfe:	f3c2 1280 	ubfx	r2, r2, #6, #1
10004d02:	f021 0130 	bic.w	r1, r1, #48	@ 0x30
10004d06:	ea43 1342 	orr.w	r3, r3, r2, lsl #5
10004d0a:	430b      	orrs	r3, r1
10004d0c:	f88a 3000 	strb.w	r3, [sl]
10004d10:	8843      	ldrh	r3, [r0, #2]
10004d12:	f100 0109 	add.w	r1, r0, #9
10004d16:	18c3      	adds	r3, r0, r3
10004d18:	9302      	str	r3, [sp, #8]
10004d1a:	9b02      	ldr	r3, [sp, #8]
10004d1c:	428b      	cmp	r3, r1
10004d1e:	f240 81c3 	bls.w	100050a8 <tud_task_ext+0x74c>
10004d22:	784b      	ldrb	r3, [r1, #1]
10004d24:	2b0b      	cmp	r3, #11
10004d26:	f000 81cc 	beq.w	100050c2 <tud_task_ext+0x766>
10004d2a:	2001      	movs	r0, #1
10004d2c:	2b04      	cmp	r3, #4
10004d2e:	f040 8150 	bne.w	10004fd2 <tud_task_ext+0x676>
10004d32:	2200      	movs	r2, #0
10004d34:	9b02      	ldr	r3, [sp, #8]
10004d36:	9200      	str	r2, [sp, #0]
10004d38:	1a5b      	subs	r3, r3, r1
10004d3a:	fa1f f983 	uxth.w	r9, r3
10004d3e:	4b5c      	ldr	r3, [pc, #368]	@ (10004eb0 <tud_task_ext+0x554>)
10004d40:	9201      	str	r2, [sp, #4]
10004d42:	781b      	ldrb	r3, [r3, #0]
10004d44:	9003      	str	r0, [sp, #12]
10004d46:	e01f      	b.n	10004d88 <tud_task_ext+0x42c>
10004d48:	4b5b      	ldr	r3, [pc, #364]	@ (10004eb8 <tud_task_ext+0x55c>)
10004d4a:	681b      	ldr	r3, [r3, #0]
10004d4c:	eb13 1342 	adds.w	r3, r3, r2, lsl #5
10004d50:	f000 813f 	beq.w	10004fd2 <tud_task_ext+0x676>
10004d54:	464a      	mov	r2, r9
10004d56:	691e      	ldr	r6, [r3, #16]
10004d58:	4658      	mov	r0, fp
10004d5a:	9105      	str	r1, [sp, #20]
10004d5c:	9304      	str	r3, [sp, #16]
10004d5e:	47b0      	blx	r6
10004d60:	4602      	mov	r2, r0
10004d62:	9b00      	ldr	r3, [sp, #0]
10004d64:	2a08      	cmp	r2, #8
10004d66:	9905      	ldr	r1, [sp, #20]
10004d68:	f103 0001 	add.w	r0, r3, #1
10004d6c:	d903      	bls.n	10004d76 <tud_task_ext+0x41a>
10004d6e:	4591      	cmp	r9, r2
10004d70:	9b04      	ldr	r3, [sp, #16]
10004d72:	f080 8112 	bcs.w	10004f9a <tud_task_ext+0x63e>
10004d76:	4b4e      	ldr	r3, [pc, #312]	@ (10004eb0 <tud_task_ext+0x554>)
10004d78:	b2c0      	uxtb	r0, r0
10004d7a:	781b      	ldrb	r3, [r3, #0]
10004d7c:	9000      	str	r0, [sp, #0]
10004d7e:	1c5a      	adds	r2, r3, #1
10004d80:	4290      	cmp	r0, r2
10004d82:	9001      	str	r0, [sp, #4]
10004d84:	f300 8125 	bgt.w	10004fd2 <tud_task_ext+0x676>
10004d88:	9a00      	ldr	r2, [sp, #0]
10004d8a:	9801      	ldr	r0, [sp, #4]
10004d8c:	4293      	cmp	r3, r2
10004d8e:	eba0 0303 	sub.w	r3, r0, r3
10004d92:	d8d9      	bhi.n	10004d48 <tud_task_ext+0x3ec>
10004d94:	4a47      	ldr	r2, [pc, #284]	@ (10004eb4 <tud_task_ext+0x558>)
10004d96:	eb02 1343 	add.w	r3, r2, r3, lsl #5
10004d9a:	e7db      	b.n	10004d54 <tud_task_ext+0x3f8>
10004d9c:	f89a 3001 	ldrb.w	r3, [sl, #1]
10004da0:	4658      	mov	r0, fp
10004da2:	f88d 301a 	strb.w	r3, [sp, #26]
10004da6:	f10d 021a 	add.w	r2, sp, #26
10004daa:	2301      	movs	r3, #1
10004dac:	a908      	add	r1, sp, #32
10004dae:	f000 fab1 	bl	10005314 <tud_control_xfer>
10004db2:	e5e0      	b.n	10004976 <tud_task_ext+0x1a>
10004db4:	f8bd 0022 	ldrh.w	r0, [sp, #34]	@ 0x22
10004db8:	0a03      	lsrs	r3, r0, #8
10004dba:	1e5a      	subs	r2, r3, #1
10004dbc:	b2c0      	uxtb	r0, r0
10004dbe:	2a0e      	cmp	r2, #14
10004dc0:	f63f aedf 	bhi.w	10004b82 <tud_task_ext+0x226>
10004dc4:	a101      	add	r1, pc, #4	@ (adr r1, 10004dcc <tud_task_ext+0x470>)
10004dc6:	f851 f022 	ldr.w	pc, [r1, r2, lsl #2]
10004dca:	bf00      	nop
10004dcc:	10005005 	.word	0x10005005
10004dd0:	10004e8b 	.word	0x10004e8b
10004dd4:	10005041 	.word	0x10005041
10004dd8:	10004b83 	.word	0x10004b83
10004ddc:	10004b83 	.word	0x10004b83
10004de0:	10005023 	.word	0x10005023
10004de4:	10004e8b 	.word	0x10004e8b
10004de8:	10004b83 	.word	0x10004b83
10004dec:	10004b83 	.word	0x10004b83
10004df0:	10004b83 	.word	0x10004b83
10004df4:	10004b83 	.word	0x10004b83
10004df8:	10004b83 	.word	0x10004b83
10004dfc:	10004b83 	.word	0x10004b83
10004e00:	10004b83 	.word	0x10004b83
10004e04:	10004ff7 	.word	0x10004ff7
10004e08:	a808      	add	r0, sp, #32
10004e0a:	f000 faed 	bl	100053e8 <usbd_control_set_request>
10004e0e:	4658      	mov	r0, fp
10004e10:	f89d 1022 	ldrb.w	r1, [sp, #34]	@ 0x22
10004e14:	f7ff fb9a 	bl	1000454c <dcd_set_address>
10004e18:	f89a 3000 	ldrb.w	r3, [sl]
10004e1c:	f043 0302 	orr.w	r3, r3, #2
10004e20:	f88a 3000 	strb.w	r3, [sl]
10004e24:	e5a7      	b.n	10004976 <tud_task_ext+0x1a>
10004e26:	f8bd 3022 	ldrh.w	r3, [sp, #34]	@ 0x22
10004e2a:	2b01      	cmp	r3, #1
10004e2c:	f47f aea9 	bne.w	10004b82 <tud_task_ext+0x226>
10004e30:	f89a 3000 	ldrb.w	r3, [sl]
10004e34:	4658      	mov	r0, fp
10004e36:	f023 0308 	bic.w	r3, r3, #8
10004e3a:	a908      	add	r1, sp, #32
10004e3c:	f88a 3000 	strb.w	r3, [sl]
10004e40:	f000 fa4c 	bl	100052dc <tud_control_status>
10004e44:	e597      	b.n	10004976 <tud_task_ext+0x1a>
10004e46:	4658      	mov	r0, fp
10004e48:	f89a 3000 	ldrb.w	r3, [sl]
10004e4c:	089a      	lsrs	r2, r3, #2
10004e4e:	f002 0202 	and.w	r2, r2, #2
10004e52:	f3c3 1340 	ubfx	r3, r3, #5, #1
10004e56:	4313      	orrs	r3, r2
10004e58:	f8ad 301a 	strh.w	r3, [sp, #26]
10004e5c:	f10d 021a 	add.w	r2, sp, #26
10004e60:	2302      	movs	r3, #2
10004e62:	a908      	add	r1, sp, #32
10004e64:	f000 fa56 	bl	10005314 <tud_control_xfer>
10004e68:	e585      	b.n	10004976 <tud_task_ext+0x1a>
10004e6a:	f8bd 3022 	ldrh.w	r3, [sp, #34]	@ 0x22
10004e6e:	2b01      	cmp	r3, #1
10004e70:	f47f ae87 	bne.w	10004b82 <tud_task_ext+0x226>
10004e74:	f89a 3000 	ldrb.w	r3, [sl]
10004e78:	4658      	mov	r0, fp
10004e7a:	f043 0308 	orr.w	r3, r3, #8
10004e7e:	a908      	add	r1, sp, #32
10004e80:	f88a 3000 	strb.w	r3, [sl]
10004e84:	f000 fa2a 	bl	100052dc <tud_control_status>
10004e88:	e575      	b.n	10004976 <tud_task_ext+0x1a>
10004e8a:	2b02      	cmp	r3, #2
10004e8c:	f43f ae6c 	beq.w	10004b68 <tud_task_ext+0x20c>
10004e90:	f7ff fcd2 	bl	10004838 <tud_descriptor_other_speed_configuration_cb>
10004e94:	4602      	mov	r2, r0
10004e96:	2800      	cmp	r0, #0
10004e98:	f43f ae73 	beq.w	10004b82 <tud_task_ext+0x226>
10004e9c:	4658      	mov	r0, fp
10004e9e:	8853      	ldrh	r3, [r2, #2]
10004ea0:	a908      	add	r1, sp, #32
10004ea2:	f000 fa37 	bl	10005314 <tud_control_xfer>
10004ea6:	2800      	cmp	r0, #0
10004ea8:	f47f ad65 	bne.w	10004976 <tud_task_ext+0x1a>
10004eac:	e669      	b.n	10004b82 <tud_task_ext+0x226>
10004eae:	bf00      	nop
10004eb0:	2002228c 	.word	0x2002228c
10004eb4:	10006b34 	.word	0x10006b34
10004eb8:	20001530 	.word	0x20001530
10004ebc:	f89d 3024 	ldrb.w	r3, [sp, #36]	@ 0x24
10004ec0:	2b0f      	cmp	r3, #15
10004ec2:	f63f ae5e 	bhi.w	10004b82 <tud_task_ext+0x226>
10004ec6:	4a92      	ldr	r2, [pc, #584]	@ (10005110 <tud_task_ext+0x7b4>)
10004ec8:	4453      	add	r3, sl
10004eca:	791b      	ldrb	r3, [r3, #4]
10004ecc:	7812      	ldrb	r2, [r2, #0]
10004ece:	4293      	cmp	r3, r2
10004ed0:	d21e      	bcs.n	10004f10 <tud_task_ext+0x5b4>
10004ed2:	4a90      	ldr	r2, [pc, #576]	@ (10005114 <tud_task_ext+0x7b8>)
10004ed4:	6816      	ldr	r6, [r2, #0]
10004ed6:	eb16 1643 	adds.w	r6, r6, r3, lsl #5
10004eda:	f47f ae9c 	bne.w	10004c16 <tud_task_ext+0x2ba>
10004ede:	e650      	b.n	10004b82 <tud_task_ext+0x226>
10004ee0:	2a00      	cmp	r2, #0
10004ee2:	f47f ae4e 	bne.w	10004b82 <tud_task_ext+0x226>
10004ee6:	9200      	str	r2, [sp, #0]
10004ee8:	f89d c021 	ldrb.w	ip, [sp, #33]	@ 0x21
10004eec:	f00c 02fd 	and.w	r2, ip, #253	@ 0xfd
10004ef0:	2a01      	cmp	r2, #1
10004ef2:	d016      	beq.n	10004f22 <tud_task_ext+0x5c6>
10004ef4:	f1bc 0f00 	cmp.w	ip, #0
10004ef8:	f47f ae3c 	bne.w	10004b74 <tud_task_ext+0x218>
10004efc:	eb0a 0343 	add.w	r3, sl, r3, lsl #1
10004f00:	eb03 13d1 	add.w	r3, r3, r1, lsr #7
10004f04:	f893 3034 	ldrb.w	r3, [r3, #52]	@ 0x34
10004f08:	4658      	mov	r0, fp
10004f0a:	f3c3 0340 	ubfx	r3, r3, #1, #1
10004f0e:	e7a3      	b.n	10004e58 <tud_task_ext+0x4fc>
10004f10:	1c51      	adds	r1, r2, #1
10004f12:	4299      	cmp	r1, r3
10004f14:	f6ff ae35 	blt.w	10004b82 <tud_task_ext+0x226>
10004f18:	4e7f      	ldr	r6, [pc, #508]	@ (10005118 <tud_task_ext+0x7bc>)
10004f1a:	1a9b      	subs	r3, r3, r2
10004f1c:	eb06 1643 	add.w	r6, r6, r3, lsl #5
10004f20:	e679      	b.n	10004c16 <tud_task_ext+0x2ba>
10004f22:	f8bd 2022 	ldrh.w	r2, [sp, #34]	@ 0x22
10004f26:	b9da      	cbnz	r2, 10004f60 <tud_task_ext+0x604>
10004f28:	487c      	ldr	r0, [pc, #496]	@ (1000511c <tud_task_ext+0x7c0>)
10004f2a:	f1bc 0f01 	cmp.w	ip, #1
10004f2e:	7800      	ldrb	r0, [r0, #0]
10004f30:	f000 808e 	beq.w	10005050 <tud_task_ext+0x6f4>
10004f34:	e9cd 1301 	strd	r1, r3, [sp, #4]
10004f38:	f7ff fbc8 	bl	100046cc <dcd_edpt_stall>
10004f3c:	9b02      	ldr	r3, [sp, #8]
10004f3e:	9901      	ldr	r1, [sp, #4]
10004f40:	eb0a 0343 	add.w	r3, sl, r3, lsl #1
10004f44:	eb03 13d1 	add.w	r3, r3, r1, lsr #7
10004f48:	f893 2034 	ldrb.w	r2, [r3, #52]	@ 0x34
10004f4c:	f042 0202 	orr.w	r2, r2, #2
10004f50:	f883 2034 	strb.w	r2, [r3, #52]	@ 0x34
10004f54:	f893 2034 	ldrb.w	r2, [r3, #52]	@ 0x34
10004f58:	f042 0201 	orr.w	r2, r2, #1
10004f5c:	f883 2034 	strb.w	r2, [r3, #52]	@ 0x34
10004f60:	9b00      	ldr	r3, [sp, #0]
10004f62:	2b00      	cmp	r3, #0
10004f64:	f43f ad07 	beq.w	10004976 <tud_task_ext+0x1a>
10004f68:	461e      	mov	r6, r3
10004f6a:	6958      	ldr	r0, [r3, #20]
10004f6c:	f000 fa36 	bl	100053dc <usbd_control_set_complete_callback>
10004f70:	6973      	ldr	r3, [r6, #20]
10004f72:	2101      	movs	r1, #1
10004f74:	aa08      	add	r2, sp, #32
10004f76:	4658      	mov	r0, fp
10004f78:	4798      	blx	r3
10004f7a:	2000      	movs	r0, #0
10004f7c:	f000 fa2e 	bl	100053dc <usbd_control_set_complete_callback>
10004f80:	f89a 3035 	ldrb.w	r3, [sl, #53]	@ 0x35
10004f84:	07db      	lsls	r3, r3, #31
10004f86:	f53f acf6 	bmi.w	10004976 <tud_task_ext+0x1a>
10004f8a:	e67d      	b.n	10004c88 <tud_task_ext+0x32c>
10004f8c:	f7ff fc58 	bl	10004840 <tud_umount_cb>
10004f90:	4658      	mov	r0, fp
10004f92:	a908      	add	r1, sp, #32
10004f94:	f000 f9a2 	bl	100052dc <tud_control_status>
10004f98:	e4ed      	b.n	10004976 <tud_task_ext+0x1a>
10004f9a:	9803      	ldr	r0, [sp, #12]
10004f9c:	2801      	cmp	r0, #1
10004f9e:	f000 80a6 	beq.w	100050ee <tud_task_ext+0x792>
10004fa2:	2800      	cmp	r0, #0
10004fa4:	f000 8092 	beq.w	100050cc <tud_task_ext+0x770>
10004fa8:	2300      	movs	r3, #0
10004faa:	f891 e002 	ldrb.w	lr, [r1, #2]
10004fae:	e007      	b.n	10004fc0 <tud_task_ext+0x664>
10004fb0:	9e00      	ldr	r6, [sp, #0]
10004fb2:	f88c 6004 	strb.w	r6, [ip, #4]
10004fb6:	fa5f fc83 	uxtb.w	ip, r3
10004fba:	4560      	cmp	r0, ip
10004fbc:	f240 8086 	bls.w	100050cc <tud_task_ext+0x770>
10004fc0:	eb0e 0c03 	add.w	ip, lr, r3
10004fc4:	fa5a fc8c 	uxtab	ip, sl, ip
10004fc8:	f89c 6004 	ldrb.w	r6, [ip, #4]
10004fcc:	3301      	adds	r3, #1
10004fce:	2eff      	cmp	r6, #255	@ 0xff
10004fd0:	d0ee      	beq.n	10004fb0 <tud_task_ext+0x654>
10004fd2:	f04f 23e0 	mov.w	r3, #3758153728	@ 0xe000e000
10004fd6:	f8d3 3df0 	ldr.w	r3, [r3, #3568]	@ 0xdf0
10004fda:	07d9      	lsls	r1, r3, #31
10004fdc:	d500      	bpl.n	10004fe0 <tud_task_ext+0x684>
10004fde:	be00      	bkpt	0x0000
10004fe0:	f04f 23e0 	mov.w	r3, #3758153728	@ 0xe000e000
10004fe4:	f8d3 3df0 	ldr.w	r3, [r3, #3568]	@ 0xdf0
10004fe8:	07da      	lsls	r2, r3, #31
10004fea:	d500      	bpl.n	10004fee <tud_task_ext+0x692>
10004fec:	be00      	bkpt	0x0000
10004fee:	2300      	movs	r3, #0
10004ff0:	f88a 3001 	strb.w	r3, [sl, #1]
10004ff4:	e5c5      	b.n	10004b82 <tud_task_ext+0x226>
10004ff6:	f7fe ffc9 	bl	10003f8c <tud_descriptor_bos_cb>
10004ffa:	4602      	mov	r2, r0
10004ffc:	2800      	cmp	r0, #0
10004ffe:	f47f af4d 	bne.w	10004e9c <tud_task_ext+0x540>
10005002:	e5be      	b.n	10004b82 <tud_task_ext+0x226>
10005004:	f7ff fa08 	bl	10004418 <tud_descriptor_device_cb>
10005008:	4602      	mov	r2, r0
1000500a:	2800      	cmp	r0, #0
1000500c:	f43f adb2 	beq.w	10004b74 <tud_task_ext+0x218>
10005010:	4658      	mov	r0, fp
10005012:	2312      	movs	r3, #18
10005014:	a908      	add	r1, sp, #32
10005016:	f000 f97d 	bl	10005314 <tud_control_xfer>
1000501a:	2800      	cmp	r0, #0
1000501c:	f47f acab 	bne.w	10004976 <tud_task_ext+0x1a>
10005020:	e5af      	b.n	10004b82 <tud_task_ext+0x226>
10005022:	f7ff fc07 	bl	10004834 <tud_descriptor_device_qualifier_cb>
10005026:	4602      	mov	r2, r0
10005028:	2800      	cmp	r0, #0
1000502a:	f43f adaa 	beq.w	10004b82 <tud_task_ext+0x226>
1000502e:	4658      	mov	r0, fp
10005030:	7813      	ldrb	r3, [r2, #0]
10005032:	a908      	add	r1, sp, #32
10005034:	f000 f96e 	bl	10005314 <tud_control_xfer>
10005038:	2800      	cmp	r0, #0
1000503a:	f47f ac9c 	bne.w	10004976 <tud_task_ext+0x1a>
1000503e:	e5a0      	b.n	10004b82 <tud_task_ext+0x226>
10005040:	f8bd 1024 	ldrh.w	r1, [sp, #36]	@ 0x24
10005044:	f7ff f9f0 	bl	10004428 <tud_descriptor_string_cb>
10005048:	4602      	mov	r2, r0
1000504a:	2800      	cmp	r0, #0
1000504c:	d1ef      	bne.n	1000502e <tud_task_ext+0x6d2>
1000504e:	e598      	b.n	10004b82 <tud_task_ext+0x226>
10005050:	e9cd 3202 	strd	r3, r2, [sp, #8]
10005054:	9101      	str	r1, [sp, #4]
10005056:	f7ff fb51 	bl	100046fc <dcd_edpt_clear_stall>
1000505a:	9b02      	ldr	r3, [sp, #8]
1000505c:	9901      	ldr	r1, [sp, #4]
1000505e:	eb0a 0343 	add.w	r3, sl, r3, lsl #1
10005062:	eb03 13d1 	add.w	r3, r3, r1, lsr #7
10005066:	f893 1034 	ldrb.w	r1, [r3, #52]	@ 0x34
1000506a:	9a03      	ldr	r2, [sp, #12]
1000506c:	f362 0141 	bfi	r1, r2, #1, #1
10005070:	f883 1034 	strb.w	r1, [r3, #52]	@ 0x34
10005074:	f893 1034 	ldrb.w	r1, [r3, #52]	@ 0x34
10005078:	f362 0100 	bfi	r1, r2, #0, #1
1000507c:	f883 1034 	strb.w	r1, [r3, #52]	@ 0x34
10005080:	e76e      	b.n	10004f60 <tud_task_ext+0x604>
10005082:	2100      	movs	r1, #0
10005084:	4658      	mov	r0, fp
10005086:	9301      	str	r3, [sp, #4]
10005088:	f7ff fa68 	bl	1000455c <dcd_sof_enable>
1000508c:	4658      	mov	r0, fp
1000508e:	f7ff fb07 	bl	100046a0 <dcd_edpt_close_all>
10005092:	f89a 2002 	ldrb.w	r2, [sl, #2]
10005096:	4658      	mov	r0, fp
10005098:	9200      	str	r2, [sp, #0]
1000509a:	f7ff fb81 	bl	100047a0 <configuration_reset>
1000509e:	9a00      	ldr	r2, [sp, #0]
100050a0:	9b01      	ldr	r3, [sp, #4]
100050a2:	f88a 2002 	strb.w	r2, [sl, #2]
100050a6:	e614      	b.n	10004cd2 <tud_task_ext+0x376>
100050a8:	f7ff fbc8 	bl	1000483c <tud_mount_cb>
100050ac:	e770      	b.n	10004f90 <tud_task_ext+0x634>
100050ae:	4658      	mov	r0, fp
100050b0:	2301      	movs	r3, #1
100050b2:	a908      	add	r1, sp, #32
100050b4:	f10d 021a 	add.w	r2, sp, #26
100050b8:	f88d 601a 	strb.w	r6, [sp, #26]
100050bc:	f000 f92a 	bl	10005314 <tud_control_xfer>
100050c0:	e459      	b.n	10004976 <tud_task_ext+0x1a>
100050c2:	780b      	ldrb	r3, [r1, #0]
100050c4:	78c8      	ldrb	r0, [r1, #3]
100050c6:	4419      	add	r1, r3
100050c8:	784b      	ldrb	r3, [r1, #1]
100050ca:	e62f      	b.n	10004d2c <tud_task_ext+0x3d0>
100050cc:	9b00      	ldr	r3, [sp, #0]
100050ce:	4814      	ldr	r0, [pc, #80]	@ (10005120 <tud_task_ext+0x7c4>)
100050d0:	9203      	str	r2, [sp, #12]
100050d2:	9100      	str	r1, [sp, #0]
100050d4:	f000 febc 	bl	10005e50 <tu_edpt_bind_driver>
100050d8:	4b0d      	ldr	r3, [pc, #52]	@ (10005110 <tud_task_ext+0x7b4>)
100050da:	9a03      	ldr	r2, [sp, #12]
100050dc:	9900      	ldr	r1, [sp, #0]
100050de:	781b      	ldrb	r3, [r3, #0]
100050e0:	4411      	add	r1, r2
100050e2:	9a01      	ldr	r2, [sp, #4]
100050e4:	3301      	adds	r3, #1
100050e6:	4293      	cmp	r3, r2
100050e8:	f6bf ae17 	bge.w	10004d1a <tud_task_ext+0x3be>
100050ec:	e771      	b.n	10004fd2 <tud_task_ext+0x676>
100050ee:	f8d3 c010 	ldr.w	ip, [r3, #16]
100050f2:	4b0c      	ldr	r3, [pc, #48]	@ (10005124 <tud_task_ext+0x7c8>)
100050f4:	459c      	cmp	ip, r3
100050f6:	bf08      	it	eq
100050f8:	2002      	moveq	r0, #2
100050fa:	e755      	b.n	10004fa8 <tud_task_ext+0x64c>
100050fc:	f04f 23e0 	mov.w	r3, #3758153728	@ 0xe000e000
10005100:	f8d3 3df0 	ldr.w	r3, [r3, #3568]	@ 0xdf0
10005104:	07db      	lsls	r3, r3, #31
10005106:	f57f ac36 	bpl.w	10004976 <tud_task_ext+0x1a>
1000510a:	be00      	bkpt	0x0000
1000510c:	e433      	b.n	10004976 <tud_task_ext+0x1a>
1000510e:	bf00      	nop
10005110:	2002228c 	.word	0x2002228c
10005114:	20001530 	.word	0x20001530
10005118:	10006b34 	.word	0x10006b34
1000511c:	20001288 	.word	0x20001288
10005120:	2000164c 	.word	0x2000164c
10005124:	1000582d 	.word	0x1000582d

10005128 <usbd_open_edpt_pair>:
10005128:	e92d 4ff8 	stmdb	sp!, {r3, r4, r5, r6, r7, r8, r9, sl, fp, lr}
1000512c:	9f0a      	ldr	r7, [sp, #40]	@ 0x28
1000512e:	2a00      	cmp	r2, #0
10005130:	d040      	beq.n	100051b4 <usbd_open_edpt_pair+0x8c>
10005132:	460c      	mov	r4, r1
10005134:	461e      	mov	r6, r3
10005136:	4615      	mov	r5, r2
10005138:	f04f 0b00 	mov.w	fp, #0
1000513c:	f8df 9080 	ldr.w	r9, [pc, #128]	@ 100051c0 <usbd_open_edpt_pair+0x98>
10005140:	f8df 8080 	ldr.w	r8, [pc, #128]	@ 100051c4 <usbd_open_edpt_pair+0x9c>
10005144:	e016      	b.n	10005174 <usbd_open_edpt_pair+0x4c>
10005146:	4620      	mov	r0, r4
10005148:	f898 1002 	ldrb.w	r1, [r8, #2]
1000514c:	f899 a000 	ldrb.w	sl, [r9]
10005150:	f000 fe4e 	bl	10005df0 <tu_edpt_validate>
10005154:	b1d0      	cbz	r0, 1000518c <usbd_open_edpt_pair+0x64>
10005156:	4621      	mov	r1, r4
10005158:	4650      	mov	r0, sl
1000515a:	f7ff fa1b 	bl	10004594 <dcd_edpt_open>
1000515e:	b1e0      	cbz	r0, 1000519a <usbd_open_edpt_pair+0x72>
10005160:	78a3      	ldrb	r3, [r4, #2]
10005162:	f10b 0b01 	add.w	fp, fp, #1
10005166:	09da      	lsrs	r2, r3, #7
10005168:	d120      	bne.n	100051ac <usbd_open_edpt_pair+0x84>
1000516a:	45ab      	cmp	fp, r5
1000516c:	703b      	strb	r3, [r7, #0]
1000516e:	d021      	beq.n	100051b4 <usbd_open_edpt_pair+0x8c>
10005170:	7823      	ldrb	r3, [r4, #0]
10005172:	441c      	add	r4, r3
10005174:	7863      	ldrb	r3, [r4, #1]
10005176:	2b05      	cmp	r3, #5
10005178:	d10f      	bne.n	1000519a <usbd_open_edpt_pair+0x72>
1000517a:	78e1      	ldrb	r1, [r4, #3]
1000517c:	f001 0103 	and.w	r1, r1, #3
10005180:	42b1      	cmp	r1, r6
10005182:	d10a      	bne.n	1000519a <usbd_open_edpt_pair+0x72>
10005184:	78a3      	ldrb	r3, [r4, #2]
10005186:	f013 0f70 	tst.w	r3, #112	@ 0x70
1000518a:	d0dc      	beq.n	10005146 <usbd_open_edpt_pair+0x1e>
1000518c:	f04f 23e0 	mov.w	r3, #3758153728	@ 0xe000e000
10005190:	f8d3 3df0 	ldr.w	r3, [r3, #3568]	@ 0xdf0
10005194:	07da      	lsls	r2, r3, #31
10005196:	d500      	bpl.n	1000519a <usbd_open_edpt_pair+0x72>
10005198:	be00      	bkpt	0x0000
1000519a:	f04f 23e0 	mov.w	r3, #3758153728	@ 0xe000e000
1000519e:	f8d3 3df0 	ldr.w	r3, [r3, #3568]	@ 0xdf0
100051a2:	07db      	lsls	r3, r3, #31
100051a4:	d409      	bmi.n	100051ba <usbd_open_edpt_pair+0x92>
100051a6:	2000      	movs	r0, #0
100051a8:	e8bd 8ff8 	ldmia.w	sp!, {r3, r4, r5, r6, r7, r8, r9, sl, fp, pc}
100051ac:	9a0b      	ldr	r2, [sp, #44]	@ 0x2c
100051ae:	45ab      	cmp	fp, r5
100051b0:	7013      	strb	r3, [r2, #0]
100051b2:	d1dd      	bne.n	10005170 <usbd_open_edpt_pair+0x48>
100051b4:	2001      	movs	r0, #1
100051b6:	e8bd 8ff8 	ldmia.w	sp!, {r3, r4, r5, r6, r7, r8, r9, sl, fp, pc}
100051ba:	be00      	bkpt	0x0000
100051bc:	e7f3      	b.n	100051a6 <usbd_open_edpt_pair+0x7e>
100051be:	bf00      	nop
100051c0:	20001288 	.word	0x20001288
100051c4:	20001638 	.word	0x20001638

100051c8 <usbd_edpt_open>:
100051c8:	788b      	ldrb	r3, [r1, #2]
100051ca:	f013 0f70 	tst.w	r3, #112	@ 0x70
100051ce:	d008      	beq.n	100051e2 <usbd_edpt_open+0x1a>
100051d0:	f04f 23e0 	mov.w	r3, #3758153728	@ 0xe000e000
100051d4:	f8d3 3df0 	ldr.w	r3, [r3, #3568]	@ 0xdf0
100051d8:	07da      	lsls	r2, r3, #31
100051da:	d500      	bpl.n	100051de <usbd_edpt_open+0x16>
100051dc:	be00      	bkpt	0x0000
100051de:	2000      	movs	r0, #0
100051e0:	4770      	bx	lr
100051e2:	b510      	push	{r4, lr}
100051e4:	b082      	sub	sp, #8
100051e6:	4608      	mov	r0, r1
100051e8:	9101      	str	r1, [sp, #4]
100051ea:	490c      	ldr	r1, [pc, #48]	@ (1000521c <usbd_edpt_open+0x54>)
100051ec:	4a0c      	ldr	r2, [pc, #48]	@ (10005220 <usbd_edpt_open+0x58>)
100051ee:	7889      	ldrb	r1, [r1, #2]
100051f0:	7814      	ldrb	r4, [r2, #0]
100051f2:	f000 fdfd 	bl	10005df0 <tu_edpt_validate>
100051f6:	b948      	cbnz	r0, 1000520c <usbd_edpt_open+0x44>
100051f8:	f04f 23e0 	mov.w	r3, #3758153728	@ 0xe000e000
100051fc:	f8d3 3df0 	ldr.w	r3, [r3, #3568]	@ 0xdf0
10005200:	07db      	lsls	r3, r3, #31
10005202:	d500      	bpl.n	10005206 <usbd_edpt_open+0x3e>
10005204:	be00      	bkpt	0x0000
10005206:	2000      	movs	r0, #0
10005208:	b002      	add	sp, #8
1000520a:	bd10      	pop	{r4, pc}
1000520c:	4620      	mov	r0, r4
1000520e:	9901      	ldr	r1, [sp, #4]
10005210:	b002      	add	sp, #8
10005212:	e8bd 4010 	ldmia.w	sp!, {r4, lr}
10005216:	f7ff b9bd 	b.w	10004594 <dcd_edpt_open>
1000521a:	bf00      	nop
1000521c:	20001638 	.word	0x20001638
10005220:	20001288 	.word	0x20001288

10005224 <usbd_edpt_claim>:
10005224:	460a      	mov	r2, r1
10005226:	4b06      	ldr	r3, [pc, #24]	@ (10005240 <usbd_edpt_claim+0x1c>)
10005228:	4806      	ldr	r0, [pc, #24]	@ (10005244 <usbd_edpt_claim+0x20>)
1000522a:	6819      	ldr	r1, [r3, #0]
1000522c:	09d3      	lsrs	r3, r2, #7
1000522e:	3334      	adds	r3, #52	@ 0x34
10005230:	f002 027f 	and.w	r2, r2, #127	@ 0x7f
10005234:	eb03 0342 	add.w	r3, r3, r2, lsl #1
10005238:	4418      	add	r0, r3
1000523a:	f000 bd8d 	b.w	10005d58 <tu_edpt_claim>
1000523e:	bf00      	nop
10005240:	2000168c 	.word	0x2000168c
10005244:	20001638 	.word	0x20001638

10005248 <usbd_edpt_release>:
10005248:	460a      	mov	r2, r1
1000524a:	4b06      	ldr	r3, [pc, #24]	@ (10005264 <usbd_edpt_release+0x1c>)
1000524c:	4806      	ldr	r0, [pc, #24]	@ (10005268 <usbd_edpt_release+0x20>)
1000524e:	6819      	ldr	r1, [r3, #0]
10005250:	09d3      	lsrs	r3, r2, #7
10005252:	3334      	adds	r3, #52	@ 0x34
10005254:	f002 027f 	and.w	r2, r2, #127	@ 0x7f
10005258:	eb03 0342 	add.w	r3, r3, r2, lsl #1
1000525c:	4418      	add	r0, r3
1000525e:	f000 bdab 	b.w	10005db8 <tu_edpt_release>
10005262:	bf00      	nop
10005264:	2000168c 	.word	0x2000168c
10005268:	20001638 	.word	0x20001638

1000526c <usbd_edpt_xfer>:
1000526c:	b510      	push	{r4, lr}
1000526e:	4819      	ldr	r0, [pc, #100]	@ (100052d4 <usbd_edpt_xfer+0x68>)
10005270:	f001 047f 	and.w	r4, r1, #127	@ 0x7f
10005274:	eb00 0044 	add.w	r0, r0, r4, lsl #1
10005278:	eb00 10d1 	add.w	r0, r0, r1, lsr #7
1000527c:	f890 c034 	ldrb.w	ip, [r0, #52]	@ 0x34
10005280:	f01c 0f01 	tst.w	ip, #1
10005284:	d008      	beq.n	10005298 <usbd_edpt_xfer+0x2c>
10005286:	f04f 23e0 	mov.w	r3, #3758153728	@ 0xe000e000
1000528a:	f8d3 3df0 	ldr.w	r3, [r3, #3568]	@ 0xdf0
1000528e:	07da      	lsls	r2, r3, #31
10005290:	d500      	bpl.n	10005294 <usbd_edpt_xfer+0x28>
10005292:	be00      	bkpt	0x0000
10005294:	2000      	movs	r0, #0
10005296:	bd10      	pop	{r4, pc}
10005298:	f100 0430 	add.w	r4, r0, #48	@ 0x30
1000529c:	f894 c004 	ldrb.w	ip, [r4, #4]
100052a0:	480d      	ldr	r0, [pc, #52]	@ (100052d8 <usbd_edpt_xfer+0x6c>)
100052a2:	f04c 0c01 	orr.w	ip, ip, #1
100052a6:	7800      	ldrb	r0, [r0, #0]
100052a8:	f884 c004 	strb.w	ip, [r4, #4]
100052ac:	f7ff f9fa 	bl	100046a4 <dcd_edpt_xfer>
100052b0:	2800      	cmp	r0, #0
100052b2:	d1f0      	bne.n	10005296 <usbd_edpt_xfer+0x2a>
100052b4:	f04f 21e0 	mov.w	r1, #3758153728	@ 0xe000e000
100052b8:	7922      	ldrb	r2, [r4, #4]
100052ba:	f360 0200 	bfi	r2, r0, #0, #1
100052be:	7122      	strb	r2, [r4, #4]
100052c0:	7922      	ldrb	r2, [r4, #4]
100052c2:	f360 0282 	bfi	r2, r0, #2, #1
100052c6:	7122      	strb	r2, [r4, #4]
100052c8:	f8d1 3df0 	ldr.w	r3, [r1, #3568]	@ 0xdf0
100052cc:	07db      	lsls	r3, r3, #31
100052ce:	d5e1      	bpl.n	10005294 <usbd_edpt_xfer+0x28>
100052d0:	be00      	bkpt	0x0000
100052d2:	e7df      	b.n	10005294 <usbd_edpt_xfer+0x28>
100052d4:	20001638 	.word	0x20001638
100052d8:	20001288 	.word	0x20001288

100052dc <tud_control_status>:
100052dc:	f8df c030 	ldr.w	ip, [pc, #48]	@ 10005310 <tud_control_status+0x34>
100052e0:	2300      	movs	r3, #0
100052e2:	4662      	mov	r2, ip
100052e4:	b510      	push	{r4, lr}
100052e6:	468e      	mov	lr, r1
100052e8:	4604      	mov	r4, r0
100052ea:	6808      	ldr	r0, [r1, #0]
100052ec:	6849      	ldr	r1, [r1, #4]
100052ee:	f8cc 300c 	str.w	r3, [ip, #12]
100052f2:	c203      	stmia	r2!, {r0, r1}
100052f4:	f89e 1000 	ldrb.w	r1, [lr]
100052f8:	4620      	mov	r0, r4
100052fa:	e8bd 4010 	ldmia.w	sp!, {r4, lr}
100052fe:	f081 01ff 	eor.w	r1, r1, #255	@ 0xff
10005302:	461a      	mov	r2, r3
10005304:	f001 0180 	and.w	r1, r1, #128	@ 0x80
10005308:	f8cc 3008 	str.w	r3, [ip, #8]
1000530c:	f7ff bfae 	b.w	1000526c <usbd_edpt_xfer>
10005310:	200015f8 	.word	0x200015f8

10005314 <tud_control_xfer>:
10005314:	f8df c0ac 	ldr.w	ip, [pc, #172]	@ 100053c4 <tud_control_xfer+0xb0>
10005318:	b570      	push	{r4, r5, r6, lr}
1000531a:	4615      	mov	r5, r2
1000531c:	4662      	mov	r2, ip
1000531e:	2400      	movs	r4, #0
10005320:	468e      	mov	lr, r1
10005322:	4606      	mov	r6, r0
10005324:	6808      	ldr	r0, [r1, #0]
10005326:	6849      	ldr	r1, [r1, #4]
10005328:	b082      	sub	sp, #8
1000532a:	c203      	stmia	r2!, {r0, r1}
1000532c:	f8cc 5008 	str.w	r5, [ip, #8]
10005330:	f8ac 400e 	strh.w	r4, [ip, #14]
10005334:	f8be 2006 	ldrh.w	r2, [lr, #6]
10005338:	4293      	cmp	r3, r2
1000533a:	bf28      	it	cs
1000533c:	4613      	movcs	r3, r2
1000533e:	f8ac 300c 	strh.w	r3, [ip, #12]
10005342:	b18a      	cbz	r2, 10005368 <tud_control_xfer+0x54>
10005344:	b333      	cbz	r3, 10005394 <tud_control_xfer+0x80>
10005346:	b1dd      	cbz	r5, 10005380 <tud_control_xfer+0x6c>
10005348:	f99c 2000 	ldrsb.w	r2, [ip]
1000534c:	2b40      	cmp	r3, #64	@ 0x40
1000534e:	bf28      	it	cs
10005350:	2340      	movcs	r3, #64	@ 0x40
10005352:	2a00      	cmp	r2, #0
10005354:	db29      	blt.n	100053aa <tud_control_xfer+0x96>
10005356:	4621      	mov	r1, r4
10005358:	4630      	mov	r0, r6
1000535a:	4a19      	ldr	r2, [pc, #100]	@ (100053c0 <tud_control_xfer+0xac>)
1000535c:	f7ff ff86 	bl	1000526c <usbd_edpt_xfer>
10005360:	b170      	cbz	r0, 10005380 <tud_control_xfer+0x6c>
10005362:	2001      	movs	r0, #1
10005364:	b002      	add	sp, #8
10005366:	bd70      	pop	{r4, r5, r6, pc}
10005368:	f89e 1000 	ldrb.w	r1, [lr]
1000536c:	4613      	mov	r3, r2
1000536e:	f081 01ff 	eor.w	r1, r1, #255	@ 0xff
10005372:	4630      	mov	r0, r6
10005374:	f001 0180 	and.w	r1, r1, #128	@ 0x80
10005378:	f7ff ff78 	bl	1000526c <usbd_edpt_xfer>
1000537c:	2800      	cmp	r0, #0
1000537e:	d1f0      	bne.n	10005362 <tud_control_xfer+0x4e>
10005380:	f04f 23e0 	mov.w	r3, #3758153728	@ 0xe000e000
10005384:	f8d3 3df0 	ldr.w	r3, [r3, #3568]	@ 0xdf0
10005388:	07db      	lsls	r3, r3, #31
1000538a:	d500      	bpl.n	1000538e <tud_control_xfer+0x7a>
1000538c:	be00      	bkpt	0x0000
1000538e:	2000      	movs	r0, #0
10005390:	b002      	add	sp, #8
10005392:	bd70      	pop	{r4, r5, r6, pc}
10005394:	461a      	mov	r2, r3
10005396:	f89c 1000 	ldrb.w	r1, [ip]
1000539a:	f001 0180 	and.w	r1, r1, #128	@ 0x80
1000539e:	4630      	mov	r0, r6
100053a0:	f7ff ff64 	bl	1000526c <usbd_edpt_xfer>
100053a4:	2800      	cmp	r0, #0
100053a6:	d1dc      	bne.n	10005362 <tud_control_xfer+0x4e>
100053a8:	e7ea      	b.n	10005380 <tud_control_xfer+0x6c>
100053aa:	461a      	mov	r2, r3
100053ac:	4629      	mov	r1, r5
100053ae:	4804      	ldr	r0, [pc, #16]	@ (100053c0 <tud_control_xfer+0xac>)
100053b0:	9301      	str	r3, [sp, #4]
100053b2:	f001 f911 	bl	100065d8 <memcpy>
100053b6:	2180      	movs	r1, #128	@ 0x80
100053b8:	4a01      	ldr	r2, [pc, #4]	@ (100053c0 <tud_control_xfer+0xac>)
100053ba:	9b01      	ldr	r3, [sp, #4]
100053bc:	e7ef      	b.n	1000539e <tud_control_xfer+0x8a>
100053be:	bf00      	nop
100053c0:	200015b8 	.word	0x200015b8
100053c4:	200015f8 	.word	0x200015f8

100053c8 <usbd_control_reset>:
100053c8:	2200      	movs	r2, #0
100053ca:	4b03      	ldr	r3, [pc, #12]	@ (100053d8 <usbd_control_reset+0x10>)
100053cc:	e9c3 2200 	strd	r2, r2, [r3]
100053d0:	e9c3 2202 	strd	r2, r2, [r3, #8]
100053d4:	611a      	str	r2, [r3, #16]
100053d6:	4770      	bx	lr
100053d8:	200015f8 	.word	0x200015f8

100053dc <usbd_control_set_complete_callback>:
100053dc:	4b01      	ldr	r3, [pc, #4]	@ (100053e4 <usbd_control_set_complete_callback+0x8>)
100053de:	6118      	str	r0, [r3, #16]
100053e0:	4770      	bx	lr
100053e2:	bf00      	nop
100053e4:	200015f8 	.word	0x200015f8

100053e8 <usbd_control_set_request>:
100053e8:	4601      	mov	r1, r0
100053ea:	4a05      	ldr	r2, [pc, #20]	@ (10005400 <usbd_control_set_request+0x18>)
100053ec:	f04f 0c00 	mov.w	ip, #0
100053f0:	4613      	mov	r3, r2
100053f2:	6800      	ldr	r0, [r0, #0]
100053f4:	6849      	ldr	r1, [r1, #4]
100053f6:	e9c2 cc02 	strd	ip, ip, [r2, #8]
100053fa:	c303      	stmia	r3!, {r0, r1}
100053fc:	4770      	bx	lr
100053fe:	bf00      	nop
10005400:	200015f8 	.word	0x200015f8

10005404 <usbd_control_xfer_cb>:
10005404:	b530      	push	{r4, r5, lr}
10005406:	4c3e      	ldr	r4, [pc, #248]	@ (10005500 <usbd_control_xfer_cb+0xfc>)
10005408:	09c9      	lsrs	r1, r1, #7
1000540a:	7822      	ldrb	r2, [r4, #0]
1000540c:	4605      	mov	r5, r0
1000540e:	ebb1 1fd2 	cmp.w	r1, r2, lsr #7
10005412:	b083      	sub	sp, #12
10005414:	d017      	beq.n	10005446 <usbd_control_xfer_cb+0x42>
10005416:	b153      	cbz	r3, 1000542e <usbd_control_xfer_cb+0x2a>
10005418:	f04f 23e0 	mov.w	r3, #3758153728	@ 0xe000e000
1000541c:	f8d3 3df0 	ldr.w	r3, [r3, #3568]	@ 0xdf0
10005420:	07db      	lsls	r3, r3, #31
10005422:	d402      	bmi.n	1000542a <usbd_control_xfer_cb+0x26>
10005424:	2000      	movs	r0, #0
10005426:	b003      	add	sp, #12
10005428:	bd30      	pop	{r4, r5, pc}
1000542a:	be00      	bkpt	0x0000
1000542c:	e7fa      	b.n	10005424 <usbd_control_xfer_cb+0x20>
1000542e:	4621      	mov	r1, r4
10005430:	f7ff f8a2 	bl	10004578 <dcd_edpt0_status_complete>
10005434:	6923      	ldr	r3, [r4, #16]
10005436:	b11b      	cbz	r3, 10005440 <usbd_control_xfer_cb+0x3c>
10005438:	4622      	mov	r2, r4
1000543a:	2103      	movs	r1, #3
1000543c:	4628      	mov	r0, r5
1000543e:	4798      	blx	r3
10005440:	2001      	movs	r0, #1
10005442:	b003      	add	sp, #12
10005444:	bd30      	pop	{r4, r5, pc}
10005446:	f994 2000 	ldrsb.w	r2, [r4]
1000544a:	2a00      	cmp	r2, #0
1000544c:	db08      	blt.n	10005460 <usbd_control_xfer_cb+0x5c>
1000544e:	68a0      	ldr	r0, [r4, #8]
10005450:	2800      	cmp	r0, #0
10005452:	d0e7      	beq.n	10005424 <usbd_control_xfer_cb+0x20>
10005454:	461a      	mov	r2, r3
10005456:	492b      	ldr	r1, [pc, #172]	@ (10005504 <usbd_control_xfer_cb+0x100>)
10005458:	9301      	str	r3, [sp, #4]
1000545a:	f001 f8bd 	bl	100065d8 <memcpy>
1000545e:	9b01      	ldr	r3, [sp, #4]
10005460:	89e0      	ldrh	r0, [r4, #14]
10005462:	68a1      	ldr	r1, [r4, #8]
10005464:	88e2      	ldrh	r2, [r4, #6]
10005466:	4418      	add	r0, r3
10005468:	b280      	uxth	r0, r0
1000546a:	4419      	add	r1, r3
1000546c:	4282      	cmp	r2, r0
1000546e:	81e0      	strh	r0, [r4, #14]
10005470:	60a1      	str	r1, [r4, #8]
10005472:	d016      	beq.n	100054a2 <usbd_control_xfer_cb+0x9e>
10005474:	2b3f      	cmp	r3, #63	@ 0x3f
10005476:	d914      	bls.n	100054a2 <usbd_control_xfer_cb+0x9e>
10005478:	89a2      	ldrh	r2, [r4, #12]
1000547a:	f994 4000 	ldrsb.w	r4, [r4]
1000547e:	1a13      	subs	r3, r2, r0
10005480:	b29b      	uxth	r3, r3
10005482:	2b40      	cmp	r3, #64	@ 0x40
10005484:	bf28      	it	cs
10005486:	2340      	movcs	r3, #64	@ 0x40
10005488:	2c00      	cmp	r4, #0
1000548a:	db28      	blt.n	100054de <usbd_control_xfer_cb+0xda>
1000548c:	4290      	cmp	r0, r2
1000548e:	f04f 0100 	mov.w	r1, #0
10005492:	d032      	beq.n	100054fa <usbd_control_xfer_cb+0xf6>
10005494:	4a1b      	ldr	r2, [pc, #108]	@ (10005504 <usbd_control_xfer_cb+0x100>)
10005496:	4628      	mov	r0, r5
10005498:	f7ff fee8 	bl	1000526c <usbd_edpt_xfer>
1000549c:	2800      	cmp	r0, #0
1000549e:	d1cf      	bne.n	10005440 <usbd_control_xfer_cb+0x3c>
100054a0:	e7ba      	b.n	10005418 <usbd_control_xfer_cb+0x14>
100054a2:	6923      	ldr	r3, [r4, #16]
100054a4:	b123      	cbz	r3, 100054b0 <usbd_control_xfer_cb+0xac>
100054a6:	2102      	movs	r1, #2
100054a8:	4628      	mov	r0, r5
100054aa:	4a15      	ldr	r2, [pc, #84]	@ (10005500 <usbd_control_xfer_cb+0xfc>)
100054ac:	4798      	blx	r3
100054ae:	b168      	cbz	r0, 100054cc <usbd_control_xfer_cb+0xc8>
100054b0:	2300      	movs	r3, #0
100054b2:	7821      	ldrb	r1, [r4, #0]
100054b4:	4628      	mov	r0, r5
100054b6:	f081 01ff 	eor.w	r1, r1, #255	@ 0xff
100054ba:	461a      	mov	r2, r3
100054bc:	f001 0180 	and.w	r1, r1, #128	@ 0x80
100054c0:	f7ff fed4 	bl	1000526c <usbd_edpt_xfer>
100054c4:	2800      	cmp	r0, #0
100054c6:	d0a7      	beq.n	10005418 <usbd_control_xfer_cb+0x14>
100054c8:	2001      	movs	r0, #1
100054ca:	e7ba      	b.n	10005442 <usbd_control_xfer_cb+0x3e>
100054cc:	4601      	mov	r1, r0
100054ce:	4628      	mov	r0, r5
100054d0:	f7ff f8fc 	bl	100046cc <dcd_edpt_stall>
100054d4:	2180      	movs	r1, #128	@ 0x80
100054d6:	4628      	mov	r0, r5
100054d8:	f7ff f8f8 	bl	100046cc <dcd_edpt_stall>
100054dc:	e7b0      	b.n	10005440 <usbd_control_xfer_cb+0x3c>
100054de:	4290      	cmp	r0, r2
100054e0:	d008      	beq.n	100054f4 <usbd_control_xfer_cb+0xf0>
100054e2:	461a      	mov	r2, r3
100054e4:	4807      	ldr	r0, [pc, #28]	@ (10005504 <usbd_control_xfer_cb+0x100>)
100054e6:	9301      	str	r3, [sp, #4]
100054e8:	f001 f876 	bl	100065d8 <memcpy>
100054ec:	2180      	movs	r1, #128	@ 0x80
100054ee:	4a05      	ldr	r2, [pc, #20]	@ (10005504 <usbd_control_xfer_cb+0x100>)
100054f0:	9b01      	ldr	r3, [sp, #4]
100054f2:	e7d0      	b.n	10005496 <usbd_control_xfer_cb+0x92>
100054f4:	2180      	movs	r1, #128	@ 0x80
100054f6:	2200      	movs	r2, #0
100054f8:	e7cd      	b.n	10005496 <usbd_control_xfer_cb+0x92>
100054fa:	460a      	mov	r2, r1
100054fc:	e7cb      	b.n	10005496 <usbd_control_xfer_cb+0x92>
100054fe:	bf00      	nop
10005500:	200015f8 	.word	0x200015f8
10005504:	200015b8 	.word	0x200015b8

10005508 <_prep_out_transaction.isra.0>:
10005508:	b570      	push	{r4, r5, r6, lr}
1000550a:	b082      	sub	sp, #8
1000550c:	4604      	mov	r4, r0
1000550e:	f7ff f99d 	bl	1000484c <tud_mounted>
10005512:	b908      	cbnz	r0, 10005518 <_prep_out_transaction.isra.0+0x10>
10005514:	b002      	add	sp, #8
10005516:	bd70      	pop	{r4, r5, r6, pc}
10005518:	f7ff f9a0 	bl	1000485c <tud_suspended>
1000551c:	4602      	mov	r2, r0
1000551e:	2800      	cmp	r0, #0
10005520:	d1f8      	bne.n	10005514 <_prep_out_transaction.isra.0+0xc>
10005522:	23c8      	movs	r3, #200	@ 0xc8
10005524:	fb04 f303 	mul.w	r3, r4, r3
10005528:	4915      	ldr	r1, [pc, #84]	@ (10005580 <_prep_out_transaction.isra.0+0x78>)
1000552a:	4625      	mov	r5, r4
1000552c:	18cc      	adds	r4, r1, r3
1000552e:	78e0      	ldrb	r0, [r4, #3]
10005530:	2800      	cmp	r0, #0
10005532:	d0ef      	beq.n	10005514 <_prep_out_transaction.isra.0+0xc>
10005534:	3310      	adds	r3, #16
10005536:	185e      	adds	r6, r3, r1
10005538:	4630      	mov	r0, r6
1000553a:	9201      	str	r2, [sp, #4]
1000553c:	f000 fe02 	bl	10006144 <tu_fifo_remaining>
10005540:	283f      	cmp	r0, #63	@ 0x3f
10005542:	d9e7      	bls.n	10005514 <_prep_out_transaction.isra.0+0xc>
10005544:	78e1      	ldrb	r1, [r4, #3]
10005546:	9801      	ldr	r0, [sp, #4]
10005548:	f7ff fe6c 	bl	10005224 <usbd_edpt_claim>
1000554c:	2800      	cmp	r0, #0
1000554e:	d0e1      	beq.n	10005514 <_prep_out_transaction.isra.0+0xc>
10005550:	4630      	mov	r0, r6
10005552:	f000 fdf7 	bl	10006144 <tu_fifo_remaining>
10005556:	283f      	cmp	r0, #63	@ 0x3f
10005558:	78e1      	ldrb	r1, [r4, #3]
1000555a:	d90a      	bls.n	10005572 <_prep_out_transaction.isra.0+0x6a>
1000555c:	2340      	movs	r3, #64	@ 0x40
1000555e:	f8df c024 	ldr.w	ip, [pc, #36]	@ 10005584 <_prep_out_transaction.isra.0+0x7c>
10005562:	9801      	ldr	r0, [sp, #4]
10005564:	eb0c 12c5 	add.w	r2, ip, r5, lsl #7
10005568:	b002      	add	sp, #8
1000556a:	e8bd 4070 	ldmia.w	sp!, {r4, r5, r6, lr}
1000556e:	f7ff be7d 	b.w	1000526c <usbd_edpt_xfer>
10005572:	9801      	ldr	r0, [sp, #4]
10005574:	b002      	add	sp, #8
10005576:	e8bd 4070 	ldmia.w	sp!, {r4, r5, r6, lr}
1000557a:	f7ff be65 	b.w	10005248 <usbd_edpt_release>
1000557e:	bf00      	nop
10005580:	200012a0 	.word	0x200012a0
10005584:	20001534 	.word	0x20001534

10005588 <tud_cdc_n_connected>:
10005588:	b510      	push	{r4, lr}
1000558a:	4604      	mov	r4, r0
1000558c:	f7ff f95e 	bl	1000484c <tud_mounted>
10005590:	b908      	cbnz	r0, 10005596 <tud_cdc_n_connected+0xe>
10005592:	2000      	movs	r0, #0
10005594:	bd10      	pop	{r4, pc}
10005596:	f7ff f961 	bl	1000485c <tud_suspended>
1000559a:	2800      	cmp	r0, #0
1000559c:	d1f9      	bne.n	10005592 <tud_cdc_n_connected+0xa>
1000559e:	22c8      	movs	r2, #200	@ 0xc8
100055a0:	4b03      	ldr	r3, [pc, #12]	@ (100055b0 <tud_cdc_n_connected+0x28>)
100055a2:	fb02 3304 	mla	r3, r2, r4, r3
100055a6:	7918      	ldrb	r0, [r3, #4]
100055a8:	f000 0001 	and.w	r0, r0, #1
100055ac:	bd10      	pop	{r4, pc}
100055ae:	bf00      	nop
100055b0:	200012a0 	.word	0x200012a0

100055b4 <tud_cdc_n_available>:
100055b4:	22c8      	movs	r2, #200	@ 0xc8
100055b6:	b508      	push	{r3, lr}
100055b8:	4b02      	ldr	r3, [pc, #8]	@ (100055c4 <tud_cdc_n_available+0x10>)
100055ba:	fb02 3000 	mla	r0, r2, r0, r3
100055be:	f000 fda7 	bl	10006110 <tu_fifo_count>
100055c2:	bd08      	pop	{r3, pc}
100055c4:	200012b0 	.word	0x200012b0

100055c8 <tud_cdc_n_read>:
100055c8:	f64f 73ff 	movw	r3, #65535	@ 0xffff
100055cc:	e92d 41f0 	stmdb	sp!, {r4, r5, r6, r7, r8, lr}
100055d0:	24c8      	movs	r4, #200	@ 0xc8
100055d2:	429a      	cmp	r2, r3
100055d4:	bf28      	it	cs
100055d6:	461a      	movcs	r2, r3
100055d8:	fb00 f404 	mul.w	r4, r0, r4
100055dc:	4d1b      	ldr	r5, [pc, #108]	@ (1000564c <tud_cdc_n_read+0x84>)
100055de:	f104 0310 	add.w	r3, r4, #16
100055e2:	b082      	sub	sp, #8
100055e4:	4680      	mov	r8, r0
100055e6:	b292      	uxth	r2, r2
100055e8:	1958      	adds	r0, r3, r5
100055ea:	195f      	adds	r7, r3, r5
100055ec:	f000 fe0a 	bl	10006204 <tu_fifo_read_n>
100055f0:	4606      	mov	r6, r0
100055f2:	f7ff f92b 	bl	1000484c <tud_mounted>
100055f6:	b918      	cbnz	r0, 10005600 <tud_cdc_n_read+0x38>
100055f8:	4630      	mov	r0, r6
100055fa:	b002      	add	sp, #8
100055fc:	e8bd 81f0 	ldmia.w	sp!, {r4, r5, r6, r7, r8, pc}
10005600:	f7ff f92c 	bl	1000485c <tud_suspended>
10005604:	2800      	cmp	r0, #0
10005606:	d1f7      	bne.n	100055f8 <tud_cdc_n_read+0x30>
10005608:	4425      	add	r5, r4
1000560a:	78ea      	ldrb	r2, [r5, #3]
1000560c:	2a00      	cmp	r2, #0
1000560e:	d0f3      	beq.n	100055f8 <tud_cdc_n_read+0x30>
10005610:	9001      	str	r0, [sp, #4]
10005612:	4638      	mov	r0, r7
10005614:	f000 fd96 	bl	10006144 <tu_fifo_remaining>
10005618:	283f      	cmp	r0, #63	@ 0x3f
1000561a:	d9ed      	bls.n	100055f8 <tud_cdc_n_read+0x30>
1000561c:	9801      	ldr	r0, [sp, #4]
1000561e:	78e9      	ldrb	r1, [r5, #3]
10005620:	f7ff fe00 	bl	10005224 <usbd_edpt_claim>
10005624:	2800      	cmp	r0, #0
10005626:	d0e7      	beq.n	100055f8 <tud_cdc_n_read+0x30>
10005628:	4638      	mov	r0, r7
1000562a:	f000 fd8b 	bl	10006144 <tu_fifo_remaining>
1000562e:	283f      	cmp	r0, #63	@ 0x3f
10005630:	78e9      	ldrb	r1, [r5, #3]
10005632:	d907      	bls.n	10005644 <tud_cdc_n_read+0x7c>
10005634:	4a06      	ldr	r2, [pc, #24]	@ (10005650 <tud_cdc_n_read+0x88>)
10005636:	2340      	movs	r3, #64	@ 0x40
10005638:	9801      	ldr	r0, [sp, #4]
1000563a:	eb02 12c8 	add.w	r2, r2, r8, lsl #7
1000563e:	f7ff fe15 	bl	1000526c <usbd_edpt_xfer>
10005642:	e7d9      	b.n	100055f8 <tud_cdc_n_read+0x30>
10005644:	9801      	ldr	r0, [sp, #4]
10005646:	f7ff fdff 	bl	10005248 <usbd_edpt_release>
1000564a:	e7d5      	b.n	100055f8 <tud_cdc_n_read+0x30>
1000564c:	200012a0 	.word	0x200012a0
10005650:	20001534 	.word	0x20001534

10005654 <tud_cdc_n_write_flush>:
10005654:	b5f0      	push	{r4, r5, r6, r7, lr}
10005656:	b083      	sub	sp, #12
10005658:	4605      	mov	r5, r0
1000565a:	f7ff f8f7 	bl	1000484c <tud_mounted>
1000565e:	b910      	cbnz	r0, 10005666 <tud_cdc_n_write_flush+0x12>
10005660:	2000      	movs	r0, #0
10005662:	b003      	add	sp, #12
10005664:	bdf0      	pop	{r4, r5, r6, r7, pc}
10005666:	f7ff f8f9 	bl	1000485c <tud_suspended>
1000566a:	4604      	mov	r4, r0
1000566c:	2800      	cmp	r0, #0
1000566e:	d1f7      	bne.n	10005660 <tud_cdc_n_write_flush+0xc>
10005670:	23c8      	movs	r3, #200	@ 0xc8
10005672:	fb05 f303 	mul.w	r3, r5, r3
10005676:	4a1a      	ldr	r2, [pc, #104]	@ (100056e0 <tud_cdc_n_write_flush+0x8c>)
10005678:	f103 0124 	add.w	r1, r3, #36	@ 0x24
1000567c:	188f      	adds	r7, r1, r2
1000567e:	4638      	mov	r0, r7
10005680:	9300      	str	r3, [sp, #0]
10005682:	f000 fd45 	bl	10006110 <tu_fifo_count>
10005686:	2800      	cmp	r0, #0
10005688:	d0ea      	beq.n	10005660 <tud_cdc_n_write_flush+0xc>
1000568a:	4a15      	ldr	r2, [pc, #84]	@ (100056e0 <tud_cdc_n_write_flush+0x8c>)
1000568c:	9b00      	ldr	r3, [sp, #0]
1000568e:	4620      	mov	r0, r4
10005690:	18d6      	adds	r6, r2, r3
10005692:	78b1      	ldrb	r1, [r6, #2]
10005694:	f7ff fdc6 	bl	10005224 <usbd_edpt_claim>
10005698:	2800      	cmp	r0, #0
1000569a:	d0e1      	beq.n	10005660 <tud_cdc_n_write_flush+0xc>
1000569c:	4911      	ldr	r1, [pc, #68]	@ (100056e4 <tud_cdc_n_write_flush+0x90>)
1000569e:	4638      	mov	r0, r7
100056a0:	eb01 11c5 	add.w	r1, r1, r5, lsl #7
100056a4:	2240      	movs	r2, #64	@ 0x40
100056a6:	9100      	str	r1, [sp, #0]
100056a8:	f000 fdac 	bl	10006204 <tu_fifo_read_n>
100056ac:	f896 c002 	ldrb.w	ip, [r6, #2]
100056b0:	4603      	mov	r3, r0
100056b2:	b170      	cbz	r0, 100056d2 <tud_cdc_n_write_flush+0x7e>
100056b4:	9001      	str	r0, [sp, #4]
100056b6:	4661      	mov	r1, ip
100056b8:	4620      	mov	r0, r4
100056ba:	9a00      	ldr	r2, [sp, #0]
100056bc:	f7ff fdd6 	bl	1000526c <usbd_edpt_xfer>
100056c0:	b958      	cbnz	r0, 100056da <tud_cdc_n_write_flush+0x86>
100056c2:	f04f 23e0 	mov.w	r3, #3758153728	@ 0xe000e000
100056c6:	f8d3 3df0 	ldr.w	r3, [r3, #3568]	@ 0xdf0
100056ca:	07db      	lsls	r3, r3, #31
100056cc:	d5c8      	bpl.n	10005660 <tud_cdc_n_write_flush+0xc>
100056ce:	be00      	bkpt	0x0000
100056d0:	e7c6      	b.n	10005660 <tud_cdc_n_write_flush+0xc>
100056d2:	4661      	mov	r1, ip
100056d4:	f7ff fdb8 	bl	10005248 <usbd_edpt_release>
100056d8:	e7c2      	b.n	10005660 <tud_cdc_n_write_flush+0xc>
100056da:	9801      	ldr	r0, [sp, #4]
100056dc:	e7c1      	b.n	10005662 <tud_cdc_n_write_flush+0xe>
100056de:	bf00      	nop
100056e0:	200012a0 	.word	0x200012a0
100056e4:	20001574 	.word	0x20001574

100056e8 <tud_cdc_n_write>:
100056e8:	b570      	push	{r4, r5, r6, lr}
100056ea:	4605      	mov	r5, r0
100056ec:	f64f 70ff 	movw	r0, #65535	@ 0xffff
100056f0:	23c8      	movs	r3, #200	@ 0xc8
100056f2:	4282      	cmp	r2, r0
100056f4:	bf28      	it	cs
100056f6:	4602      	movcs	r2, r0
100056f8:	4c09      	ldr	r4, [pc, #36]	@ (10005720 <tud_cdc_n_write+0x38>)
100056fa:	b292      	uxth	r2, r2
100056fc:	fb03 4405 	mla	r4, r3, r5, r4
10005700:	4620      	mov	r0, r4
10005702:	f000 fe43 	bl	1000638c <tu_fifo_write_n>
10005706:	4606      	mov	r6, r0
10005708:	4620      	mov	r0, r4
1000570a:	f000 fd01 	bl	10006110 <tu_fifo_count>
1000570e:	283f      	cmp	r0, #63	@ 0x3f
10005710:	d801      	bhi.n	10005716 <tud_cdc_n_write+0x2e>
10005712:	4630      	mov	r0, r6
10005714:	bd70      	pop	{r4, r5, r6, pc}
10005716:	4628      	mov	r0, r5
10005718:	f7ff ff9c 	bl	10005654 <tud_cdc_n_write_flush>
1000571c:	4630      	mov	r0, r6
1000571e:	bd70      	pop	{r4, r5, r6, pc}
10005720:	200012c4 	.word	0x200012c4

10005724 <tud_cdc_n_write_available>:
10005724:	22c8      	movs	r2, #200	@ 0xc8
10005726:	b508      	push	{r3, lr}
10005728:	4b02      	ldr	r3, [pc, #8]	@ (10005734 <tud_cdc_n_write_available+0x10>)
1000572a:	fb02 3000 	mla	r0, r2, r0, r3
1000572e:	f000 fd09 	bl	10006144 <tu_fifo_remaining>
10005732:	bd08      	pop	{r3, pc}
10005734:	200012c4 	.word	0x200012c4

10005738 <cdcd_init>:
10005738:	b570      	push	{r4, r5, r6, lr}
1000573a:	2400      	movs	r4, #0
1000573c:	b082      	sub	sp, #8
1000573e:	22c8      	movs	r2, #200	@ 0xc8
10005740:	2100      	movs	r1, #0
10005742:	4818      	ldr	r0, [pc, #96]	@ (100057a4 <cdcd_init+0x6c>)
10005744:	f000 ff04 	bl	10006550 <memset>
10005748:	23ff      	movs	r3, #255	@ 0xff
1000574a:	f44f 31e1 	mov.w	r1, #115200	@ 0x1c200
1000574e:	2208      	movs	r2, #8
10005750:	4815      	ldr	r0, [pc, #84]	@ (100057a8 <cdcd_init+0x70>)
10005752:	7004      	strb	r4, [r0, #0]
10005754:	4813      	ldr	r0, [pc, #76]	@ (100057a4 <cdcd_init+0x6c>)
10005756:	9400      	str	r4, [sp, #0]
10005758:	4606      	mov	r6, r0
1000575a:	7143      	strb	r3, [r0, #5]
1000575c:	6081      	str	r1, [r0, #8]
1000575e:	7382      	strb	r2, [r0, #14]
10005760:	f100 0138 	add.w	r1, r0, #56	@ 0x38
10005764:	2301      	movs	r3, #1
10005766:	2240      	movs	r2, #64	@ 0x40
10005768:	3010      	adds	r0, #16
1000576a:	f000 fca1 	bl	100060b0 <tu_fifo_config>
1000576e:	2301      	movs	r3, #1
10005770:	2240      	movs	r2, #64	@ 0x40
10005772:	f106 0178 	add.w	r1, r6, #120	@ 0x78
10005776:	9300      	str	r3, [sp, #0]
10005778:	f106 05b8 	add.w	r5, r6, #184	@ 0xb8
1000577c:	f106 0024 	add.w	r0, r6, #36	@ 0x24
10005780:	f000 fc96 	bl	100060b0 <tu_fifo_config>
10005784:	4628      	mov	r0, r5
10005786:	f7fd fa93 	bl	10002cb0 <mutex_init>
1000578a:	f106 00c0 	add.w	r0, r6, #192	@ 0xc0
1000578e:	f7fd fa8f 	bl	10002cb0 <mutex_init>
10005792:	f106 00c0 	add.w	r0, r6, #192	@ 0xc0
10005796:	e9c6 4507 	strd	r4, r5, [r6, #28]
1000579a:	e9c6 040c 	strd	r0, r4, [r6, #48]	@ 0x30
1000579e:	b002      	add	sp, #8
100057a0:	bd70      	pop	{r4, r5, r6, pc}
100057a2:	bf00      	nop
100057a4:	200012a0 	.word	0x200012a0
100057a8:	200015b4 	.word	0x200015b4

100057ac <cdcd_deinit>:
100057ac:	4b0a      	ldr	r3, [pc, #40]	@ (100057d8 <cdcd_deinit+0x2c>)
100057ae:	6b19      	ldr	r1, [r3, #48]	@ 0x30
100057b0:	6a1a      	ldr	r2, [r3, #32]
100057b2:	b161      	cbz	r1, 100057ce <cdcd_deinit+0x22>
100057b4:	b13a      	cbz	r2, 100057c6 <cdcd_deinit+0x1a>
100057b6:	2200      	movs	r2, #0
100057b8:	e9c3 220c 	strd	r2, r2, [r3, #48]	@ 0x30
100057bc:	61da      	str	r2, [r3, #28]
100057be:	2200      	movs	r2, #0
100057c0:	621a      	str	r2, [r3, #32]
100057c2:	2001      	movs	r0, #1
100057c4:	4770      	bx	lr
100057c6:	2001      	movs	r0, #1
100057c8:	e9c3 220c 	strd	r2, r2, [r3, #48]	@ 0x30
100057cc:	4770      	bx	lr
100057ce:	2a00      	cmp	r2, #0
100057d0:	d0f7      	beq.n	100057c2 <cdcd_deinit+0x16>
100057d2:	61d9      	str	r1, [r3, #28]
100057d4:	e7f3      	b.n	100057be <cdcd_deinit+0x12>
100057d6:	bf00      	nop
100057d8:	200012a0 	.word	0x200012a0

100057dc <cdcd_reset>:
100057dc:	2200      	movs	r2, #0
100057de:	4910      	ldr	r1, [pc, #64]	@ (10005820 <cdcd_reset+0x44>)
100057e0:	b508      	push	{r3, lr}
100057e2:	4810      	ldr	r0, [pc, #64]	@ (10005824 <cdcd_reset+0x48>)
100057e4:	780b      	ldrb	r3, [r1, #0]
100057e6:	6002      	str	r2, [r0, #0]
100057e8:	7102      	strb	r2, [r0, #4]
100057ea:	07da      	lsls	r2, r3, #31
100057ec:	d507      	bpl.n	100057fe <cdcd_reset+0x22>
100057ee:	079b      	lsls	r3, r3, #30
100057f0:	d50c      	bpl.n	1000580c <cdcd_reset+0x30>
100057f2:	e8bd 4008 	ldmia.w	sp!, {r3, lr}
100057f6:	2101      	movs	r1, #1
100057f8:	480b      	ldr	r0, [pc, #44]	@ (10005828 <cdcd_reset+0x4c>)
100057fa:	f000 be8b 	b.w	10006514 <tu_fifo_set_overwritable>
100057fe:	3010      	adds	r0, #16
10005800:	f000 fe6c 	bl	100064dc <tu_fifo_clear>
10005804:	4906      	ldr	r1, [pc, #24]	@ (10005820 <cdcd_reset+0x44>)
10005806:	780b      	ldrb	r3, [r1, #0]
10005808:	079b      	lsls	r3, r3, #30
1000580a:	d4f2      	bmi.n	100057f2 <cdcd_reset+0x16>
1000580c:	4806      	ldr	r0, [pc, #24]	@ (10005828 <cdcd_reset+0x4c>)
1000580e:	f000 fe65 	bl	100064dc <tu_fifo_clear>
10005812:	e8bd 4008 	ldmia.w	sp!, {r3, lr}
10005816:	2101      	movs	r1, #1
10005818:	4803      	ldr	r0, [pc, #12]	@ (10005828 <cdcd_reset+0x4c>)
1000581a:	f000 be7b 	b.w	10006514 <tu_fifo_set_overwritable>
1000581e:	bf00      	nop
10005820:	200015b4 	.word	0x200015b4
10005824:	200012a0 	.word	0x200012a0
10005828:	200012c4 	.word	0x200012c4

1000582c <cdcd_open>:
1000582c:	b570      	push	{r4, r5, r6, lr}
1000582e:	794b      	ldrb	r3, [r1, #5]
10005830:	b084      	sub	sp, #16
10005832:	2b02      	cmp	r3, #2
10005834:	d102      	bne.n	1000583c <cdcd_open+0x10>
10005836:	798b      	ldrb	r3, [r1, #6]
10005838:	2b02      	cmp	r3, #2
1000583a:	d003      	beq.n	10005844 <cdcd_open+0x18>
1000583c:	2400      	movs	r4, #0
1000583e:	4620      	mov	r0, r4
10005840:	b004      	add	sp, #16
10005842:	bd70      	pop	{r4, r5, r6, pc}
10005844:	4b2b      	ldr	r3, [pc, #172]	@ (100058f4 <cdcd_open+0xc8>)
10005846:	789b      	ldrb	r3, [r3, #2]
10005848:	b13b      	cbz	r3, 1000585a <cdcd_open+0x2e>
1000584a:	f04f 23e0 	mov.w	r3, #3758153728	@ 0xe000e000
1000584e:	f8d3 3df0 	ldr.w	r3, [r3, #3568]	@ 0xdf0
10005852:	07db      	lsls	r3, r3, #31
10005854:	d5f2      	bpl.n	1000583c <cdcd_open+0x10>
10005856:	be00      	bkpt	0x0000
10005858:	e7f0      	b.n	1000583c <cdcd_open+0x10>
1000585a:	788b      	ldrb	r3, [r1, #2]
1000585c:	4605      	mov	r5, r0
1000585e:	4825      	ldr	r0, [pc, #148]	@ (100058f4 <cdcd_open+0xc8>)
10005860:	7003      	strb	r3, [r0, #0]
10005862:	780b      	ldrb	r3, [r1, #0]
10005864:	4419      	add	r1, r3
10005866:	f891 c001 	ldrb.w	ip, [r1, #1]
1000586a:	f1bc 0f24 	cmp.w	ip, #36	@ 0x24
1000586e:	bf08      	it	eq
10005870:	2409      	moveq	r4, #9
10005872:	d009      	beq.n	10005888 <cdcd_open+0x5c>
10005874:	e03b      	b.n	100058ee <cdcd_open+0xc2>
10005876:	780b      	ldrb	r3, [r1, #0]
10005878:	4419      	add	r1, r3
1000587a:	f891 c001 	ldrb.w	ip, [r1, #1]
1000587e:	4423      	add	r3, r4
10005880:	f1bc 0f24 	cmp.w	ip, #36	@ 0x24
10005884:	b29c      	uxth	r4, r3
10005886:	d107      	bne.n	10005898 <cdcd_open+0x6c>
10005888:	4294      	cmp	r4, r2
1000588a:	d9f4      	bls.n	10005876 <cdcd_open+0x4a>
1000588c:	2000      	movs	r0, #0
1000588e:	f7ff fe3b 	bl	10005508 <_prep_out_transaction.isra.0>
10005892:	4620      	mov	r0, r4
10005894:	b004      	add	sp, #16
10005896:	bd70      	pop	{r4, r5, r6, pc}
10005898:	4663      	mov	r3, ip
1000589a:	f1bc 0f05 	cmp.w	ip, #5
1000589e:	d016      	beq.n	100058ce <cdcd_open+0xa2>
100058a0:	2b04      	cmp	r3, #4
100058a2:	d1f3      	bne.n	1000588c <cdcd_open+0x60>
100058a4:	794b      	ldrb	r3, [r1, #5]
100058a6:	2b0a      	cmp	r3, #10
100058a8:	d1f0      	bne.n	1000588c <cdcd_open+0x60>
100058aa:	4b13      	ldr	r3, [pc, #76]	@ (100058f8 <cdcd_open+0xcc>)
100058ac:	780a      	ldrb	r2, [r1, #0]
100058ae:	9301      	str	r3, [sp, #4]
100058b0:	3301      	adds	r3, #1
100058b2:	9300      	str	r3, [sp, #0]
100058b4:	2302      	movs	r3, #2
100058b6:	4616      	mov	r6, r2
100058b8:	4411      	add	r1, r2
100058ba:	4628      	mov	r0, r5
100058bc:	461a      	mov	r2, r3
100058be:	f7ff fc33 	bl	10005128 <usbd_open_edpt_pair>
100058c2:	2800      	cmp	r0, #0
100058c4:	d0c1      	beq.n	1000584a <cdcd_open+0x1e>
100058c6:	340e      	adds	r4, #14
100058c8:	1933      	adds	r3, r6, r4
100058ca:	b29c      	uxth	r4, r3
100058cc:	e7de      	b.n	1000588c <cdcd_open+0x60>
100058ce:	4628      	mov	r0, r5
100058d0:	9103      	str	r1, [sp, #12]
100058d2:	f7ff fc79 	bl	100051c8 <usbd_edpt_open>
100058d6:	9903      	ldr	r1, [sp, #12]
100058d8:	2800      	cmp	r0, #0
100058da:	d0b6      	beq.n	1000584a <cdcd_open+0x1e>
100058dc:	788b      	ldrb	r3, [r1, #2]
100058de:	4a05      	ldr	r2, [pc, #20]	@ (100058f4 <cdcd_open+0xc8>)
100058e0:	7053      	strb	r3, [r2, #1]
100058e2:	780b      	ldrb	r3, [r1, #0]
100058e4:	191a      	adds	r2, r3, r4
100058e6:	4419      	add	r1, r3
100058e8:	784b      	ldrb	r3, [r1, #1]
100058ea:	b294      	uxth	r4, r2
100058ec:	e7d8      	b.n	100058a0 <cdcd_open+0x74>
100058ee:	4663      	mov	r3, ip
100058f0:	2409      	movs	r4, #9
100058f2:	e7d2      	b.n	1000589a <cdcd_open+0x6e>
100058f4:	200012a0 	.word	0x200012a0
100058f8:	200012a2 	.word	0x200012a2

100058fc <cdcd_control_xfer_cb>:
100058fc:	7813      	ldrb	r3, [r2, #0]
100058fe:	f003 0360 	and.w	r3, r3, #96	@ 0x60
10005902:	2b20      	cmp	r3, #32
10005904:	d10b      	bne.n	1000591e <cdcd_control_xfer_cb+0x22>
10005906:	b500      	push	{lr}
10005908:	f8df c0bc 	ldr.w	ip, [pc, #188]	@ 100059c8 <cdcd_control_xfer_cb+0xcc>
1000590c:	8893      	ldrh	r3, [r2, #4]
1000590e:	f89c e000 	ldrb.w	lr, [ip]
10005912:	b083      	sub	sp, #12
10005914:	459e      	cmp	lr, r3
10005916:	d004      	beq.n	10005922 <cdcd_control_xfer_cb+0x26>
10005918:	2000      	movs	r0, #0
1000591a:	b003      	add	sp, #12
1000591c:	bd00      	pop	{pc}
1000591e:	2000      	movs	r0, #0
10005920:	4770      	bx	lr
10005922:	7853      	ldrb	r3, [r2, #1]
10005924:	3b20      	subs	r3, #32
10005926:	2b03      	cmp	r3, #3
10005928:	d8f6      	bhi.n	10005918 <cdcd_control_xfer_cb+0x1c>
1000592a:	e8df f003 	tbb	[pc, r3]
1000592e:	272c      	.short	0x272c
10005930:	020d      	.short	0x020d
10005932:	2901      	cmp	r1, #1
10005934:	d033      	beq.n	1000599e <cdcd_control_xfer_cb+0xa2>
10005936:	2903      	cmp	r1, #3
10005938:	d122      	bne.n	10005980 <cdcd_control_xfer_cb+0x84>
1000593a:	4b1e      	ldr	r3, [pc, #120]	@ (100059b4 <cdcd_control_xfer_cb+0xb8>)
1000593c:	b303      	cbz	r3, 10005980 <cdcd_control_xfer_cb+0x84>
1000593e:	2000      	movs	r0, #0
10005940:	8851      	ldrh	r1, [r2, #2]
10005942:	f3af 8000 	nop.w
10005946:	e01b      	b.n	10005980 <cdcd_control_xfer_cb+0x84>
10005948:	2901      	cmp	r1, #1
1000594a:	d028      	beq.n	1000599e <cdcd_control_xfer_cb+0xa2>
1000594c:	2903      	cmp	r1, #3
1000594e:	d117      	bne.n	10005980 <cdcd_control_xfer_cb+0x84>
10005950:	8852      	ldrh	r2, [r2, #2]
10005952:	4819      	ldr	r0, [pc, #100]	@ (100059b8 <cdcd_control_xfer_cb+0xbc>)
10005954:	f002 0301 	and.w	r3, r2, #1
10005958:	f083 0101 	eor.w	r1, r3, #1
1000595c:	9301      	str	r3, [sp, #4]
1000595e:	f88c 2004 	strb.w	r2, [ip, #4]
10005962:	9200      	str	r2, [sp, #0]
10005964:	f000 fdd6 	bl	10006514 <tu_fifo_set_overwritable>
10005968:	4914      	ldr	r1, [pc, #80]	@ (100059bc <cdcd_control_xfer_cb+0xc0>)
1000596a:	b149      	cbz	r1, 10005980 <cdcd_control_xfer_cb+0x84>
1000596c:	9a00      	ldr	r2, [sp, #0]
1000596e:	2000      	movs	r0, #0
10005970:	9901      	ldr	r1, [sp, #4]
10005972:	f3c2 0240 	ubfx	r2, r2, #1, #1
10005976:	f3af 8000 	nop.w
1000597a:	e001      	b.n	10005980 <cdcd_control_xfer_cb+0x84>
1000597c:	2901      	cmp	r1, #1
1000597e:	d012      	beq.n	100059a6 <cdcd_control_xfer_cb+0xaa>
10005980:	2001      	movs	r0, #1
10005982:	b003      	add	sp, #12
10005984:	bd00      	pop	{pc}
10005986:	2901      	cmp	r1, #1
10005988:	d00d      	beq.n	100059a6 <cdcd_control_xfer_cb+0xaa>
1000598a:	2903      	cmp	r1, #3
1000598c:	d1f8      	bne.n	10005980 <cdcd_control_xfer_cb+0x84>
1000598e:	4b0c      	ldr	r3, [pc, #48]	@ (100059c0 <cdcd_control_xfer_cb+0xc4>)
10005990:	2b00      	cmp	r3, #0
10005992:	d0f5      	beq.n	10005980 <cdcd_control_xfer_cb+0x84>
10005994:	2000      	movs	r0, #0
10005996:	490b      	ldr	r1, [pc, #44]	@ (100059c4 <cdcd_control_xfer_cb+0xc8>)
10005998:	f7fe fb18 	bl	10003fcc <tud_cdc_line_coding_cb>
1000599c:	e7f0      	b.n	10005980 <cdcd_control_xfer_cb+0x84>
1000599e:	4611      	mov	r1, r2
100059a0:	f7ff fc9c 	bl	100052dc <tud_control_status>
100059a4:	e7ec      	b.n	10005980 <cdcd_control_xfer_cb+0x84>
100059a6:	4611      	mov	r1, r2
100059a8:	2307      	movs	r3, #7
100059aa:	4a06      	ldr	r2, [pc, #24]	@ (100059c4 <cdcd_control_xfer_cb+0xc8>)
100059ac:	f7ff fcb2 	bl	10005314 <tud_control_xfer>
100059b0:	e7e6      	b.n	10005980 <cdcd_control_xfer_cb+0x84>
100059b2:	bf00      	nop
100059b4:	00000000 	.word	0x00000000
100059b8:	200012c4 	.word	0x200012c4
100059bc:	00000000 	.word	0x00000000
100059c0:	10003fcd 	.word	0x10003fcd
100059c4:	200012a8 	.word	0x200012a8
100059c8:	200012a0 	.word	0x200012a0

100059cc <cdcd_xfer_cb>:
100059cc:	e92d 41f0 	stmdb	sp!, {r4, r5, r6, r7, r8, lr}
100059d0:	4c35      	ldr	r4, [pc, #212]	@ (10005aa8 <cdcd_xfer_cb+0xdc>)
100059d2:	460d      	mov	r5, r1
100059d4:	78e2      	ldrb	r2, [r4, #3]
100059d6:	4607      	mov	r7, r0
100059d8:	428a      	cmp	r2, r1
100059da:	461e      	mov	r6, r3
100059dc:	b082      	sub	sp, #8
100059de:	d02f      	beq.n	10005a40 <cdcd_xfer_cb+0x74>
100059e0:	78a3      	ldrb	r3, [r4, #2]
100059e2:	428b      	cmp	r3, r1
100059e4:	d009      	beq.n	100059fa <cdcd_xfer_cb+0x2e>
100059e6:	f04f 23e0 	mov.w	r3, #3758153728	@ 0xe000e000
100059ea:	f8d3 3df0 	ldr.w	r3, [r3, #3568]	@ 0xdf0
100059ee:	07db      	lsls	r3, r3, #31
100059f0:	d424      	bmi.n	10005a3c <cdcd_xfer_cb+0x70>
100059f2:	2000      	movs	r0, #0
100059f4:	b002      	add	sp, #8
100059f6:	e8bd 81f0 	ldmia.w	sp!, {r4, r5, r6, r7, r8, pc}
100059fa:	4b2c      	ldr	r3, [pc, #176]	@ (10005aac <cdcd_xfer_cb+0xe0>)
100059fc:	b113      	cbz	r3, 10005a04 <cdcd_xfer_cb+0x38>
100059fe:	2000      	movs	r0, #0
10005a00:	f3af 8000 	nop.w
10005a04:	2000      	movs	r0, #0
10005a06:	f7ff fe25 	bl	10005654 <tud_cdc_n_write_flush>
10005a0a:	2800      	cmp	r0, #0
10005a0c:	d147      	bne.n	10005a9e <cdcd_xfer_cb+0xd2>
10005a0e:	4828      	ldr	r0, [pc, #160]	@ (10005ab0 <cdcd_xfer_cb+0xe4>)
10005a10:	f000 fb7e 	bl	10006110 <tu_fifo_count>
10005a14:	2800      	cmp	r0, #0
10005a16:	d142      	bne.n	10005a9e <cdcd_xfer_cb+0xd2>
10005a18:	2e00      	cmp	r6, #0
10005a1a:	d040      	beq.n	10005a9e <cdcd_xfer_cb+0xd2>
10005a1c:	f016 053f 	ands.w	r5, r6, #63	@ 0x3f
10005a20:	d13d      	bne.n	10005a9e <cdcd_xfer_cb+0xd2>
10005a22:	4638      	mov	r0, r7
10005a24:	78a1      	ldrb	r1, [r4, #2]
10005a26:	f7ff fbfd 	bl	10005224 <usbd_edpt_claim>
10005a2a:	2800      	cmp	r0, #0
10005a2c:	d037      	beq.n	10005a9e <cdcd_xfer_cb+0xd2>
10005a2e:	462b      	mov	r3, r5
10005a30:	462a      	mov	r2, r5
10005a32:	4638      	mov	r0, r7
10005a34:	78a1      	ldrb	r1, [r4, #2]
10005a36:	f7ff fc19 	bl	1000526c <usbd_edpt_xfer>
10005a3a:	e030      	b.n	10005a9e <cdcd_xfer_cb+0xd2>
10005a3c:	be00      	bkpt	0x0000
10005a3e:	e7d8      	b.n	100059f2 <cdcd_xfer_cb+0x26>
10005a40:	b29a      	uxth	r2, r3
10005a42:	491c      	ldr	r1, [pc, #112]	@ (10005ab4 <cdcd_xfer_cb+0xe8>)
10005a44:	f104 0010 	add.w	r0, r4, #16
10005a48:	f000 fca0 	bl	1000638c <tu_fifo_write_n>
10005a4c:	4b1a      	ldr	r3, [pc, #104]	@ (10005ab8 <cdcd_xfer_cb+0xec>)
10005a4e:	b1d3      	cbz	r3, 10005a86 <cdcd_xfer_cb+0xba>
10005a50:	7962      	ldrb	r2, [r4, #5]
10005a52:	2aff      	cmp	r2, #255	@ 0xff
10005a54:	d017      	beq.n	10005a86 <cdcd_xfer_cb+0xba>
10005a56:	b1b6      	cbz	r6, 10005a86 <cdcd_xfer_cb+0xba>
10005a58:	4b16      	ldr	r3, [pc, #88]	@ (10005ab4 <cdcd_xfer_cb+0xe8>)
10005a5a:	eb03 0806 	add.w	r8, r3, r6
10005a5e:	e002      	b.n	10005a66 <cdcd_xfer_cb+0x9a>
10005a60:	4543      	cmp	r3, r8
10005a62:	d010      	beq.n	10005a86 <cdcd_xfer_cb+0xba>
10005a64:	7962      	ldrb	r2, [r4, #5]
10005a66:	f813 1b01 	ldrb.w	r1, [r3], #1
10005a6a:	4291      	cmp	r1, r2
10005a6c:	d1f8      	bne.n	10005a60 <cdcd_xfer_cb+0x94>
10005a6e:	4813      	ldr	r0, [pc, #76]	@ (10005abc <cdcd_xfer_cb+0xf0>)
10005a70:	9301      	str	r3, [sp, #4]
10005a72:	f000 fb5d 	bl	10006130 <tu_fifo_empty>
10005a76:	9b01      	ldr	r3, [sp, #4]
10005a78:	2800      	cmp	r0, #0
10005a7a:	d1f1      	bne.n	10005a60 <cdcd_xfer_cb+0x94>
10005a7c:	7961      	ldrb	r1, [r4, #5]
10005a7e:	f3af 8000 	nop.w
10005a82:	9b01      	ldr	r3, [sp, #4]
10005a84:	e7ec      	b.n	10005a60 <cdcd_xfer_cb+0x94>
10005a86:	4b0e      	ldr	r3, [pc, #56]	@ (10005ac0 <cdcd_xfer_cb+0xf4>)
10005a88:	b11b      	cbz	r3, 10005a92 <cdcd_xfer_cb+0xc6>
10005a8a:	480c      	ldr	r0, [pc, #48]	@ (10005abc <cdcd_xfer_cb+0xf0>)
10005a8c:	f000 fb50 	bl	10006130 <tu_fifo_empty>
10005a90:	b138      	cbz	r0, 10005aa2 <cdcd_xfer_cb+0xd6>
10005a92:	2000      	movs	r0, #0
10005a94:	f7ff fd38 	bl	10005508 <_prep_out_transaction.isra.0>
10005a98:	78a3      	ldrb	r3, [r4, #2]
10005a9a:	42ab      	cmp	r3, r5
10005a9c:	d0ad      	beq.n	100059fa <cdcd_xfer_cb+0x2e>
10005a9e:	2001      	movs	r0, #1
10005aa0:	e7a8      	b.n	100059f4 <cdcd_xfer_cb+0x28>
10005aa2:	f3af 8000 	nop.w
10005aa6:	e7f4      	b.n	10005a92 <cdcd_xfer_cb+0xc6>
10005aa8:	200012a0 	.word	0x200012a0
10005aac:	00000000 	.word	0x00000000
10005ab0:	200012c4 	.word	0x200012c4
10005ab4:	20001534 	.word	0x20001534
10005ab8:	00000000 	.word	0x00000000
10005abc:	200012b0 	.word	0x200012b0
10005ac0:	00000000 	.word	0x00000000

10005ac4 <vendord_init>:
10005ac4:	b5f0      	push	{r4, r5, r6, r7, lr}
10005ac6:	f44f 7213 	mov.w	r2, #588	@ 0x24c
10005aca:	b085      	sub	sp, #20
10005acc:	2100      	movs	r1, #0
10005ace:	4812      	ldr	r0, [pc, #72]	@ (10005b18 <vendord_init+0x54>)
10005ad0:	f000 fd3e 	bl	10006550 <memset>
10005ad4:	2640      	movs	r6, #64	@ 0x40
10005ad6:	2300      	movs	r3, #0
10005ad8:	f44f 7580 	mov.w	r5, #256	@ 0x100
10005adc:	4f0e      	ldr	r7, [pc, #56]	@ (10005b18 <vendord_init+0x54>)
10005ade:	4c0f      	ldr	r4, [pc, #60]	@ (10005b1c <vendord_init+0x58>)
10005ae0:	f507 72a6 	add.w	r2, r7, #332	@ 0x14c
10005ae4:	4619      	mov	r1, r3
10005ae6:	e9cd 4602 	strd	r4, r6, [sp, #8]
10005aea:	9200      	str	r2, [sp, #0]
10005aec:	9501      	str	r5, [sp, #4]
10005aee:	461a      	mov	r2, r3
10005af0:	f507 7094 	add.w	r0, r7, #296	@ 0x128
10005af4:	f000 f9d6 	bl	10005ea4 <tu_edpt_stream_init>
10005af8:	2300      	movs	r3, #0
10005afa:	f107 0128 	add.w	r1, r7, #40	@ 0x28
10005afe:	4434      	add	r4, r6
10005b00:	9100      	str	r1, [sp, #0]
10005b02:	2201      	movs	r2, #1
10005b04:	4619      	mov	r1, r3
10005b06:	e9cd 4602 	strd	r4, r6, [sp, #8]
10005b0a:	9501      	str	r5, [sp, #4]
10005b0c:	1d38      	adds	r0, r7, #4
10005b0e:	f000 f9c9 	bl	10005ea4 <tu_edpt_stream_init>
10005b12:	b005      	add	sp, #20
10005b14:	bdf0      	pop	{r4, r5, r6, r7, pc}
10005b16:	bf00      	nop
10005b18:	200017d4 	.word	0x200017d4
10005b1c:	20001754 	.word	0x20001754

10005b20 <vendord_deinit>:
10005b20:	b508      	push	{r3, lr}
10005b22:	4804      	ldr	r0, [pc, #16]	@ (10005b34 <vendord_deinit+0x14>)
10005b24:	f000 f9ea 	bl	10005efc <tu_edpt_stream_deinit>
10005b28:	4803      	ldr	r0, [pc, #12]	@ (10005b38 <vendord_deinit+0x18>)
10005b2a:	f000 f9e7 	bl	10005efc <tu_edpt_stream_deinit>
10005b2e:	2001      	movs	r0, #1
10005b30:	bd08      	pop	{r3, pc}
10005b32:	bf00      	nop
10005b34:	200018fc 	.word	0x200018fc
10005b38:	200017d8 	.word	0x200017d8

10005b3c <vendord_reset>:
10005b3c:	b538      	push	{r3, r4, r5, lr}
10005b3e:	2500      	movs	r5, #0
10005b40:	4c06      	ldr	r4, [pc, #24]	@ (10005b5c <vendord_reset+0x20>)
10005b42:	f504 7098 	add.w	r0, r4, #304	@ 0x130
10005b46:	7025      	strb	r5, [r4, #0]
10005b48:	f000 fcc8 	bl	100064dc <tu_fifo_clear>
10005b4c:	f104 000c 	add.w	r0, r4, #12
10005b50:	f000 fcc4 	bl	100064dc <tu_fifo_clear>
10005b54:	f884 5129 	strb.w	r5, [r4, #297]	@ 0x129
10005b58:	7165      	strb	r5, [r4, #5]
10005b5a:	bd38      	pop	{r3, r4, r5, pc}
10005b5c:	200017d4 	.word	0x200017d4

10005b60 <vendord_open>:
10005b60:	e92d 43f8 	stmdb	sp!, {r3, r4, r5, r6, r7, r8, r9, lr}
10005b64:	794b      	ldrb	r3, [r1, #5]
10005b66:	2bff      	cmp	r3, #255	@ 0xff
10005b68:	d105      	bne.n	10005b76 <vendord_open+0x16>
10005b6a:	4f35      	ldr	r7, [pc, #212]	@ (10005c40 <vendord_open+0xe0>)
10005b6c:	797e      	ldrb	r6, [r7, #5]
10005b6e:	f897 3129 	ldrb.w	r3, [r7, #297]	@ 0x129
10005b72:	431e      	orrs	r6, r3
10005b74:	d002      	beq.n	10005b7c <vendord_open+0x1c>
10005b76:	2000      	movs	r0, #0
10005b78:	e8bd 83f8 	ldmia.w	sp!, {r3, r4, r5, r6, r7, r8, r9, pc}
10005b7c:	788b      	ldrb	r3, [r1, #2]
10005b7e:	780c      	ldrb	r4, [r1, #0]
10005b80:	703b      	strb	r3, [r7, #0]
10005b82:	790b      	ldrb	r3, [r1, #4]
10005b84:	4681      	mov	r9, r0
10005b86:	4688      	mov	r8, r1
10005b88:	440c      	add	r4, r1
10005b8a:	2b00      	cmp	r3, #0
10005b8c:	d034      	beq.n	10005bf8 <vendord_open+0x98>
10005b8e:	18a5      	adds	r5, r4, r2
10005b90:	e003      	b.n	10005b9a <vendord_open+0x3a>
10005b92:	42ac      	cmp	r4, r5
10005b94:	d230      	bcs.n	10005bf8 <vendord_open+0x98>
10005b96:	7823      	ldrb	r3, [r4, #0]
10005b98:	441c      	add	r4, r3
10005b9a:	7863      	ldrb	r3, [r4, #1]
10005b9c:	2b05      	cmp	r3, #5
10005b9e:	d1f8      	bne.n	10005b92 <vendord_open+0x32>
10005ba0:	42ac      	cmp	r4, r5
10005ba2:	d229      	bcs.n	10005bf8 <vendord_open+0x98>
10005ba4:	4621      	mov	r1, r4
10005ba6:	4648      	mov	r0, r9
10005ba8:	f7ff fb0e 	bl	100051c8 <usbd_edpt_open>
10005bac:	2800      	cmp	r0, #0
10005bae:	d03e      	beq.n	10005c2e <vendord_open+0xce>
10005bb0:	78a3      	ldrb	r3, [r4, #2]
10005bb2:	09db      	lsrs	r3, r3, #7
10005bb4:	d125      	bne.n	10005c02 <vendord_open+0xa2>
10005bb6:	4823      	ldr	r0, [pc, #140]	@ (10005c44 <vendord_open+0xe4>)
10005bb8:	f000 fc90 	bl	100064dc <tu_fifo_clear>
10005bbc:	78a3      	ldrb	r3, [r4, #2]
10005bbe:	f897 2128 	ldrb.w	r2, [r7, #296]	@ 0x128
10005bc2:	f887 3129 	strb.w	r3, [r7, #297]	@ 0x129
10005bc6:	88a3      	ldrh	r3, [r4, #4]
10005bc8:	4648      	mov	r0, r9
10005bca:	f3c3 030a 	ubfx	r3, r3, #0, #11
10005bce:	f5a3 7300 	sub.w	r3, r3, #512	@ 0x200
10005bd2:	fab3 f383 	clz	r3, r3
10005bd6:	095b      	lsrs	r3, r3, #5
10005bd8:	f363 0241 	bfi	r2, r3, #1, #1
10005bdc:	491a      	ldr	r1, [pc, #104]	@ (10005c48 <vendord_open+0xe8>)
10005bde:	f887 2128 	strb.w	r2, [r7, #296]	@ 0x128
10005be2:	f000 f9fd 	bl	10005fe0 <tu_edpt_stream_read_xfer>
10005be6:	b310      	cbz	r0, 10005c2e <vendord_open+0xce>
10005be8:	7823      	ldrb	r3, [r4, #0]
10005bea:	f898 2004 	ldrb.w	r2, [r8, #4]
10005bee:	3601      	adds	r6, #1
10005bf0:	441c      	add	r4, r3
10005bf2:	b2f3      	uxtb	r3, r6
10005bf4:	429a      	cmp	r2, r3
10005bf6:	d8d0      	bhi.n	10005b9a <vendord_open+0x3a>
10005bf8:	eba4 0008 	sub.w	r0, r4, r8
10005bfc:	b280      	uxth	r0, r0
10005bfe:	e8bd 83f8 	ldmia.w	sp!, {r3, r4, r5, r6, r7, r8, r9, pc}
10005c02:	4812      	ldr	r0, [pc, #72]	@ (10005c4c <vendord_open+0xec>)
10005c04:	f000 fc6a 	bl	100064dc <tu_fifo_clear>
10005c08:	78a3      	ldrb	r3, [r4, #2]
10005c0a:	793a      	ldrb	r2, [r7, #4]
10005c0c:	717b      	strb	r3, [r7, #5]
10005c0e:	88a3      	ldrh	r3, [r4, #4]
10005c10:	490f      	ldr	r1, [pc, #60]	@ (10005c50 <vendord_open+0xf0>)
10005c12:	f3c3 030a 	ubfx	r3, r3, #0, #11
10005c16:	f5a3 7300 	sub.w	r3, r3, #512	@ 0x200
10005c1a:	fab3 f383 	clz	r3, r3
10005c1e:	095b      	lsrs	r3, r3, #5
10005c20:	f363 0241 	bfi	r2, r3, #1, #1
10005c24:	2000      	movs	r0, #0
10005c26:	713a      	strb	r2, [r7, #4]
10005c28:	f000 f9a0 	bl	10005f6c <tu_edpt_stream_write_xfer>
10005c2c:	e7dc      	b.n	10005be8 <vendord_open+0x88>
10005c2e:	f04f 23e0 	mov.w	r3, #3758153728	@ 0xe000e000
10005c32:	f8d3 3df0 	ldr.w	r3, [r3, #3568]	@ 0xdf0
10005c36:	07db      	lsls	r3, r3, #31
10005c38:	d59d      	bpl.n	10005b76 <vendord_open+0x16>
10005c3a:	be00      	bkpt	0x0000
10005c3c:	e79b      	b.n	10005b76 <vendord_open+0x16>
10005c3e:	bf00      	nop
10005c40:	200017d4 	.word	0x200017d4
10005c44:	20001904 	.word	0x20001904
10005c48:	200018fc 	.word	0x200018fc
10005c4c:	200017e0 	.word	0x200017e0
10005c50:	200017d8 	.word	0x200017d8

10005c54 <vendord_xfer_cb>:
10005c54:	b510      	push	{r4, lr}
10005c56:	f8df c090 	ldr.w	ip, [pc, #144]	@ 10005ce8 <vendord_xfer_cb+0x94>
10005c5a:	4604      	mov	r4, r0
10005c5c:	f89c 2129 	ldrb.w	r2, [ip, #297]	@ 0x129
10005c60:	b082      	sub	sp, #8
10005c62:	428a      	cmp	r2, r1
10005c64:	d01a      	beq.n	10005c9c <vendord_xfer_cb+0x48>
10005c66:	f89c 2005 	ldrb.w	r2, [ip, #5]
10005c6a:	428a      	cmp	r2, r1
10005c6c:	d002      	beq.n	10005c74 <vendord_xfer_cb+0x20>
10005c6e:	2000      	movs	r0, #0
10005c70:	b002      	add	sp, #8
10005c72:	bd10      	pop	{r4, pc}
10005c74:	4a17      	ldr	r2, [pc, #92]	@ (10005cd4 <vendord_xfer_cb+0x80>)
10005c76:	b12a      	cbz	r2, 10005c84 <vendord_xfer_cb+0x30>
10005c78:	b299      	uxth	r1, r3
10005c7a:	2000      	movs	r0, #0
10005c7c:	9301      	str	r3, [sp, #4]
10005c7e:	f3af 8000 	nop.w
10005c82:	9b01      	ldr	r3, [sp, #4]
10005c84:	4620      	mov	r0, r4
10005c86:	4914      	ldr	r1, [pc, #80]	@ (10005cd8 <vendord_xfer_cb+0x84>)
10005c88:	9301      	str	r3, [sp, #4]
10005c8a:	f000 f96f 	bl	10005f6c <tu_edpt_stream_write_xfer>
10005c8e:	b998      	cbnz	r0, 10005cb8 <vendord_xfer_cb+0x64>
10005c90:	4620      	mov	r0, r4
10005c92:	9a01      	ldr	r2, [sp, #4]
10005c94:	4910      	ldr	r1, [pc, #64]	@ (10005cd8 <vendord_xfer_cb+0x84>)
10005c96:	f000 f933 	bl	10005f00 <tu_edpt_stream_write_zlp_if_needed>
10005c9a:	e00d      	b.n	10005cb8 <vendord_xfer_cb+0x64>
10005c9c:	f8bc 2134 	ldrh.w	r2, [ip, #308]	@ 0x134
10005ca0:	b96a      	cbnz	r2, 10005cbe <vendord_xfer_cb+0x6a>
10005ca2:	4a0e      	ldr	r2, [pc, #56]	@ (10005cdc <vendord_xfer_cb+0x88>)
10005ca4:	b122      	cbz	r2, 10005cb0 <vendord_xfer_cb+0x5c>
10005ca6:	2000      	movs	r0, #0
10005ca8:	490d      	ldr	r1, [pc, #52]	@ (10005ce0 <vendord_xfer_cb+0x8c>)
10005caa:	b29a      	uxth	r2, r3
10005cac:	f3af 8000 	nop.w
10005cb0:	4620      	mov	r0, r4
10005cb2:	490c      	ldr	r1, [pc, #48]	@ (10005ce4 <vendord_xfer_cb+0x90>)
10005cb4:	f000 f994 	bl	10005fe0 <tu_edpt_stream_read_xfer>
10005cb8:	2001      	movs	r0, #1
10005cba:	b002      	add	sp, #8
10005cbc:	bd10      	pop	{r4, pc}
10005cbe:	b29a      	uxth	r2, r3
10005cc0:	f8dc 112c 	ldr.w	r1, [ip, #300]	@ 0x12c
10005cc4:	f50c 7098 	add.w	r0, ip, #304	@ 0x130
10005cc8:	9301      	str	r3, [sp, #4]
10005cca:	f000 fb5f 	bl	1000638c <tu_fifo_write_n>
10005cce:	9b01      	ldr	r3, [sp, #4]
10005cd0:	e7e7      	b.n	10005ca2 <vendord_xfer_cb+0x4e>
10005cd2:	bf00      	nop
10005cd4:	00000000 	.word	0x00000000
10005cd8:	200017d8 	.word	0x200017d8
10005cdc:	00000000 	.word	0x00000000
10005ce0:	20001754 	.word	0x20001754
10005ce4:	200018fc 	.word	0x200018fc
10005ce8:	200017d4 	.word	0x200017d4

10005cec <tusb_rhport_init>:
10005cec:	b500      	push	{lr}
10005cee:	b083      	sub	sp, #12
10005cf0:	b1d9      	cbz	r1, 10005d2a <tusb_rhport_init+0x3e>
10005cf2:	2801      	cmp	r0, #1
10005cf4:	d80e      	bhi.n	10005d14 <tusb_rhport_init+0x28>
10005cf6:	780b      	ldrb	r3, [r1, #0]
10005cf8:	b163      	cbz	r3, 10005d14 <tusb_rhport_init+0x28>
10005cfa:	f8df c058 	ldr.w	ip, [pc, #88]	@ 10005d54 <tusb_rhport_init+0x68>
10005cfe:	2b01      	cmp	r3, #1
10005d00:	f80c 3000 	strb.w	r3, [ip, r0]
10005d04:	d002      	beq.n	10005d0c <tusb_rhport_init+0x20>
10005d06:	2001      	movs	r0, #1
10005d08:	b003      	add	sp, #12
10005d0a:	bd00      	pop	{pc}
10005d0c:	f7fe fdae 	bl	1000486c <tud_rhport_init>
10005d10:	2800      	cmp	r0, #0
10005d12:	d1f8      	bne.n	10005d06 <tusb_rhport_init+0x1a>
10005d14:	f04f 23e0 	mov.w	r3, #3758153728	@ 0xe000e000
10005d18:	f8d3 3df0 	ldr.w	r3, [r3, #3568]	@ 0xdf0
10005d1c:	07db      	lsls	r3, r3, #31
10005d1e:	d402      	bmi.n	10005d26 <tusb_rhport_init+0x3a>
10005d20:	2000      	movs	r0, #0
10005d22:	b003      	add	sp, #12
10005d24:	bd00      	pop	{pc}
10005d26:	be00      	bkpt	0x0000
10005d28:	e7fa      	b.n	10005d20 <tusb_rhport_init+0x34>
10005d2a:	2201      	movs	r2, #1
10005d2c:	4608      	mov	r0, r1
10005d2e:	a901      	add	r1, sp, #4
10005d30:	f8ad 2004 	strh.w	r2, [sp, #4]
10005d34:	f7fe fd9a 	bl	1000486c <tud_rhport_init>
10005d38:	2201      	movs	r2, #1
10005d3a:	b938      	cbnz	r0, 10005d4c <tusb_rhport_init+0x60>
10005d3c:	f04f 23e0 	mov.w	r3, #3758153728	@ 0xe000e000
10005d40:	f8d3 3df0 	ldr.w	r3, [r3, #3568]	@ 0xdf0
10005d44:	07da      	lsls	r2, r3, #31
10005d46:	d5ec      	bpl.n	10005d22 <tusb_rhport_init+0x36>
10005d48:	be00      	bkpt	0x0000
10005d4a:	e7ea      	b.n	10005d22 <tusb_rhport_init+0x36>
10005d4c:	4b01      	ldr	r3, [pc, #4]	@ (10005d54 <tusb_rhport_init+0x68>)
10005d4e:	701a      	strb	r2, [r3, #0]
10005d50:	e7e7      	b.n	10005d22 <tusb_rhport_init+0x36>
10005d52:	bf00      	nop
10005d54:	2000162c 	.word	0x2000162c

10005d58 <tu_edpt_claim>:
10005d58:	7803      	ldrb	r3, [r0, #0]
10005d5a:	f013 0301 	ands.w	r3, r3, #1
10005d5e:	d11e      	bne.n	10005d9e <tu_edpt_claim+0x46>
10005d60:	b530      	push	{r4, r5, lr}
10005d62:	4602      	mov	r2, r0
10005d64:	7800      	ldrb	r0, [r0, #0]
10005d66:	b083      	sub	sp, #12
10005d68:	4604      	mov	r4, r0
10005d6a:	0740      	lsls	r0, r0, #29
10005d6c:	d502      	bpl.n	10005d74 <tu_edpt_claim+0x1c>
10005d6e:	4618      	mov	r0, r3
10005d70:	b003      	add	sp, #12
10005d72:	bd30      	pop	{r4, r5, pc}
10005d74:	4608      	mov	r0, r1
10005d76:	460d      	mov	r5, r1
10005d78:	f04f 31ff 	mov.w	r1, #4294967295
10005d7c:	9201      	str	r2, [sp, #4]
10005d7e:	f000 fcd7 	bl	10006730 <__mutex_enter_timeout_ms_veneer>
10005d82:	9a01      	ldr	r2, [sp, #4]
10005d84:	7813      	ldrb	r3, [r2, #0]
10005d86:	f013 0301 	ands.w	r3, r3, #1
10005d8a:	d10b      	bne.n	10005da4 <tu_edpt_claim+0x4c>
10005d8c:	7811      	ldrb	r1, [r2, #0]
10005d8e:	0749      	lsls	r1, r1, #29
10005d90:	d40a      	bmi.n	10005da8 <tu_edpt_claim+0x50>
10005d92:	7811      	ldrb	r1, [r2, #0]
10005d94:	2301      	movs	r3, #1
10005d96:	f041 0104 	orr.w	r1, r1, #4
10005d9a:	7011      	strb	r1, [r2, #0]
10005d9c:	e004      	b.n	10005da8 <tu_edpt_claim+0x50>
10005d9e:	2300      	movs	r3, #0
10005da0:	4618      	mov	r0, r3
10005da2:	4770      	bx	lr
10005da4:	f3c4 0380 	ubfx	r3, r4, #2, #1
10005da8:	4628      	mov	r0, r5
10005daa:	9301      	str	r3, [sp, #4]
10005dac:	f000 fccc 	bl	10006748 <__mutex_exit_veneer>
10005db0:	9b01      	ldr	r3, [sp, #4]
10005db2:	4618      	mov	r0, r3
10005db4:	b003      	add	sp, #12
10005db6:	bd30      	pop	{r4, r5, pc}

10005db8 <tu_edpt_release>:
10005db8:	b570      	push	{r4, r5, r6, lr}
10005dba:	460d      	mov	r5, r1
10005dbc:	4604      	mov	r4, r0
10005dbe:	f04f 31ff 	mov.w	r1, #4294967295
10005dc2:	4628      	mov	r0, r5
10005dc4:	f000 fcb4 	bl	10006730 <__mutex_enter_timeout_ms_veneer>
10005dc8:	7823      	ldrb	r3, [r4, #0]
10005dca:	f3c3 0680 	ubfx	r6, r3, #2, #1
10005dce:	075b      	lsls	r3, r3, #29
10005dd0:	d508      	bpl.n	10005de4 <tu_edpt_release+0x2c>
10005dd2:	7823      	ldrb	r3, [r4, #0]
10005dd4:	f013 0301 	ands.w	r3, r3, #1
10005dd8:	bf11      	iteee	ne
10005dda:	2600      	movne	r6, #0
10005ddc:	7822      	ldrbeq	r2, [r4, #0]
10005dde:	f363 0282 	bfieq	r2, r3, #2, #1
10005de2:	7022      	strbeq	r2, [r4, #0]
10005de4:	4628      	mov	r0, r5
10005de6:	f000 fcaf 	bl	10006748 <__mutex_exit_veneer>
10005dea:	4630      	mov	r0, r6
10005dec:	bd70      	pop	{r4, r5, r6, pc}
10005dee:	bf00      	nop

10005df0 <tu_edpt_validate>:
10005df0:	78c3      	ldrb	r3, [r0, #3]
10005df2:	8882      	ldrh	r2, [r0, #4]
10005df4:	f003 0003 	and.w	r0, r3, #3
10005df8:	2802      	cmp	r0, #2
10005dfa:	f3c2 020a 	ubfx	r2, r2, #0, #11
10005dfe:	d015      	beq.n	10005e2c <tu_edpt_validate+0x3c>
10005e00:	2803      	cmp	r0, #3
10005e02:	d00a      	beq.n	10005e1a <tu_edpt_validate+0x2a>
10005e04:	2801      	cmp	r0, #1
10005e06:	d11c      	bne.n	10005e42 <tu_edpt_validate+0x52>
10005e08:	2902      	cmp	r1, #2
10005e0a:	f240 33ff 	movw	r3, #1023	@ 0x3ff
10005e0e:	bf08      	it	eq
10005e10:	f44f 6380 	moveq.w	r3, #1024	@ 0x400
10005e14:	4293      	cmp	r3, r2
10005e16:	d30d      	bcc.n	10005e34 <tu_edpt_validate+0x44>
10005e18:	4770      	bx	lr
10005e1a:	2902      	cmp	r1, #2
10005e1c:	bf14      	ite	ne
10005e1e:	2340      	movne	r3, #64	@ 0x40
10005e20:	f44f 6380 	moveq.w	r3, #1024	@ 0x400
10005e24:	4293      	cmp	r3, r2
10005e26:	d305      	bcc.n	10005e34 <tu_edpt_validate+0x44>
10005e28:	2001      	movs	r0, #1
10005e2a:	4770      	bx	lr
10005e2c:	2902      	cmp	r1, #2
10005e2e:	d00a      	beq.n	10005e46 <tu_edpt_validate+0x56>
10005e30:	2a40      	cmp	r2, #64	@ 0x40
10005e32:	d9f9      	bls.n	10005e28 <tu_edpt_validate+0x38>
10005e34:	f04f 23e0 	mov.w	r3, #3758153728	@ 0xe000e000
10005e38:	f8d3 3df0 	ldr.w	r3, [r3, #3568]	@ 0xdf0
10005e3c:	07db      	lsls	r3, r3, #31
10005e3e:	d500      	bpl.n	10005e42 <tu_edpt_validate+0x52>
10005e40:	be00      	bkpt	0x0000
10005e42:	2000      	movs	r0, #0
10005e44:	4770      	bx	lr
10005e46:	f5b2 7f00 	cmp.w	r2, #512	@ 0x200
10005e4a:	d0ed      	beq.n	10005e28 <tu_edpt_validate+0x38>
10005e4c:	e7f2      	b.n	10005e34 <tu_edpt_validate+0x44>
10005e4e:	bf00      	nop

10005e50 <tu_edpt_bind_driver>:
10005e50:	440a      	add	r2, r1
10005e52:	4291      	cmp	r1, r2
10005e54:	d225      	bcs.n	10005ea2 <tu_edpt_bind_driver+0x52>
10005e56:	f891 c001 	ldrb.w	ip, [r1, #1]
10005e5a:	f1bc 0f05 	cmp.w	ip, #5
10005e5e:	d005      	beq.n	10005e6c <tu_edpt_bind_driver+0x1c>
10005e60:	f891 c000 	ldrb.w	ip, [r1]
10005e64:	4461      	add	r1, ip
10005e66:	428a      	cmp	r2, r1
10005e68:	d8f5      	bhi.n	10005e56 <tu_edpt_bind_driver+0x6>
10005e6a:	4770      	bx	lr
10005e6c:	b500      	push	{lr}
10005e6e:	f891 c002 	ldrb.w	ip, [r1, #2]
10005e72:	f00c 0e7f 	and.w	lr, ip, #127	@ 0x7f
10005e76:	eb00 0e4e 	add.w	lr, r0, lr, lsl #1
10005e7a:	ea4f 1cdc 	mov.w	ip, ip, lsr #7
10005e7e:	f80e 300c 	strb.w	r3, [lr, ip]
10005e82:	f891 c000 	ldrb.w	ip, [r1]
10005e86:	4461      	add	r1, ip
10005e88:	428a      	cmp	r2, r1
10005e8a:	d909      	bls.n	10005ea0 <tu_edpt_bind_driver+0x50>
10005e8c:	f891 c001 	ldrb.w	ip, [r1, #1]
10005e90:	f1bc 0f05 	cmp.w	ip, #5
10005e94:	d0eb      	beq.n	10005e6e <tu_edpt_bind_driver+0x1e>
10005e96:	f891 c000 	ldrb.w	ip, [r1]
10005e9a:	4461      	add	r1, ip
10005e9c:	428a      	cmp	r2, r1
10005e9e:	d8f5      	bhi.n	10005e8c <tu_edpt_bind_driver+0x3c>
10005ea0:	bd00      	pop	{pc}
10005ea2:	4770      	bx	lr

10005ea4 <tu_edpt_stream_init>:
10005ea4:	b570      	push	{r4, r5, r6, lr}
10005ea6:	b084      	sub	sp, #16
10005ea8:	9300      	str	r3, [sp, #0]
10005eaa:	f890 c000 	ldrb.w	ip, [r0]
10005eae:	4616      	mov	r6, r2
10005eb0:	f361 0c00 	bfi	ip, r1, #0, #1
10005eb4:	f8bd 2024 	ldrh.w	r2, [sp, #36]	@ 0x24
10005eb8:	4604      	mov	r4, r0
10005eba:	2301      	movs	r3, #1
10005ebc:	9908      	ldr	r1, [sp, #32]
10005ebe:	f800 cb08 	strb.w	ip, [r0], #8
10005ec2:	f8bd 502c 	ldrh.w	r5, [sp, #44]	@ 0x2c
10005ec6:	9203      	str	r2, [sp, #12]
10005ec8:	f000 f8f2 	bl	100060b0 <tu_fifo_config>
10005ecc:	9b08      	ldr	r3, [sp, #32]
10005ece:	b10b      	cbz	r3, 10005ed4 <tu_edpt_stream_init+0x30>
10005ed0:	9a03      	ldr	r2, [sp, #12]
10005ed2:	b92a      	cbnz	r2, 10005ee0 <tu_edpt_stream_init+0x3c>
10005ed4:	2001      	movs	r0, #1
10005ed6:	9b0a      	ldr	r3, [sp, #40]	@ 0x28
10005ed8:	8065      	strh	r5, [r4, #2]
10005eda:	6063      	str	r3, [r4, #4]
10005edc:	b004      	add	sp, #16
10005ede:	bd70      	pop	{r4, r5, r6, pc}
10005ee0:	f104 001c 	add.w	r0, r4, #28
10005ee4:	9003      	str	r0, [sp, #12]
10005ee6:	f7fc fee3 	bl	10002cb0 <mutex_init>
10005eea:	9803      	ldr	r0, [sp, #12]
10005eec:	b91e      	cbnz	r6, 10005ef6 <tu_edpt_stream_init+0x52>
10005eee:	4633      	mov	r3, r6
10005ef0:	e9c4 3005 	strd	r3, r0, [r4, #20]
10005ef4:	e7ee      	b.n	10005ed4 <tu_edpt_stream_init+0x30>
10005ef6:	4603      	mov	r3, r0
10005ef8:	2000      	movs	r0, #0
10005efa:	e7f9      	b.n	10005ef0 <tu_edpt_stream_init+0x4c>

10005efc <tu_edpt_stream_deinit>:
10005efc:	2001      	movs	r0, #1
10005efe:	4770      	bx	lr

10005f00 <tu_edpt_stream_write_zlp_if_needed>:
10005f00:	b570      	push	{r4, r5, r6, lr}
10005f02:	4606      	mov	r6, r0
10005f04:	4608      	mov	r0, r1
10005f06:	f240 13ff 	movw	r3, #511	@ 0x1ff
10005f0a:	460c      	mov	r4, r1
10005f0c:	f810 1b08 	ldrb.w	r1, [r0], #8
10005f10:	b082      	sub	sp, #8
10005f12:	f011 0f02 	tst.w	r1, #2
10005f16:	9201      	str	r2, [sp, #4]
10005f18:	bf0c      	ite	eq
10005f1a:	253f      	moveq	r5, #63	@ 0x3f
10005f1c:	461d      	movne	r5, r3
10005f1e:	f000 f8f7 	bl	10006110 <tu_fifo_count>
10005f22:	9a01      	ldr	r2, [sp, #4]
10005f24:	b928      	cbnz	r0, 10005f32 <tu_edpt_stream_write_zlp_if_needed+0x32>
10005f26:	b122      	cbz	r2, 10005f32 <tu_edpt_stream_write_zlp_if_needed+0x32>
10005f28:	4215      	tst	r5, r2
10005f2a:	d102      	bne.n	10005f32 <tu_edpt_stream_write_zlp_if_needed+0x32>
10005f2c:	7823      	ldrb	r3, [r4, #0]
10005f2e:	07da      	lsls	r2, r3, #31
10005f30:	d502      	bpl.n	10005f38 <tu_edpt_stream_write_zlp_if_needed+0x38>
10005f32:	2000      	movs	r0, #0
10005f34:	b002      	add	sp, #8
10005f36:	bd70      	pop	{r4, r5, r6, pc}
10005f38:	4630      	mov	r0, r6
10005f3a:	7861      	ldrb	r1, [r4, #1]
10005f3c:	f7ff f972 	bl	10005224 <usbd_edpt_claim>
10005f40:	2800      	cmp	r0, #0
10005f42:	d0f6      	beq.n	10005f32 <tu_edpt_stream_write_zlp_if_needed+0x32>
10005f44:	7823      	ldrb	r3, [r4, #0]
10005f46:	f013 0301 	ands.w	r3, r3, #1
10005f4a:	d007      	beq.n	10005f5c <tu_edpt_stream_write_zlp_if_needed+0x5c>
10005f4c:	f04f 23e0 	mov.w	r3, #3758153728	@ 0xe000e000
10005f50:	f8d3 3df0 	ldr.w	r3, [r3, #3568]	@ 0xdf0
10005f54:	07db      	lsls	r3, r3, #31
10005f56:	d5ec      	bpl.n	10005f32 <tu_edpt_stream_write_zlp_if_needed+0x32>
10005f58:	be00      	bkpt	0x0000
10005f5a:	e7ea      	b.n	10005f32 <tu_edpt_stream_write_zlp_if_needed+0x32>
10005f5c:	461a      	mov	r2, r3
10005f5e:	4630      	mov	r0, r6
10005f60:	7861      	ldrb	r1, [r4, #1]
10005f62:	f7ff f983 	bl	1000526c <usbd_edpt_xfer>
10005f66:	2800      	cmp	r0, #0
10005f68:	d1e4      	bne.n	10005f34 <tu_edpt_stream_write_zlp_if_needed+0x34>
10005f6a:	e7ef      	b.n	10005f4c <tu_edpt_stream_write_zlp_if_needed+0x4c>

10005f6c <tu_edpt_stream_write_xfer>:
10005f6c:	b570      	push	{r4, r5, r6, lr}
10005f6e:	4605      	mov	r5, r0
10005f70:	b082      	sub	sp, #8
10005f72:	f101 0008 	add.w	r0, r1, #8
10005f76:	460c      	mov	r4, r1
10005f78:	f000 f8ca 	bl	10006110 <tu_fifo_count>
10005f7c:	b110      	cbz	r0, 10005f84 <tu_edpt_stream_write_xfer+0x18>
10005f7e:	7823      	ldrb	r3, [r4, #0]
10005f80:	07da      	lsls	r2, r3, #31
10005f82:	d502      	bpl.n	10005f8a <tu_edpt_stream_write_xfer+0x1e>
10005f84:	2000      	movs	r0, #0
10005f86:	b002      	add	sp, #8
10005f88:	bd70      	pop	{r4, r5, r6, pc}
10005f8a:	4628      	mov	r0, r5
10005f8c:	7861      	ldrb	r1, [r4, #1]
10005f8e:	f7ff f949 	bl	10005224 <usbd_edpt_claim>
10005f92:	2800      	cmp	r0, #0
10005f94:	d0f6      	beq.n	10005f84 <tu_edpt_stream_write_xfer+0x18>
10005f96:	8862      	ldrh	r2, [r4, #2]
10005f98:	6861      	ldr	r1, [r4, #4]
10005f9a:	f104 0008 	add.w	r0, r4, #8
10005f9e:	f000 f931 	bl	10006204 <tu_fifo_read_n>
10005fa2:	7822      	ldrb	r2, [r4, #0]
10005fa4:	4603      	mov	r3, r0
10005fa6:	f002 0201 	and.w	r2, r2, #1
10005faa:	b140      	cbz	r0, 10005fbe <tu_edpt_stream_write_xfer+0x52>
10005fac:	b172      	cbz	r2, 10005fcc <tu_edpt_stream_write_xfer+0x60>
10005fae:	f04f 23e0 	mov.w	r3, #3758153728	@ 0xe000e000
10005fb2:	f8d3 3df0 	ldr.w	r3, [r3, #3568]	@ 0xdf0
10005fb6:	07db      	lsls	r3, r3, #31
10005fb8:	d5e4      	bpl.n	10005f84 <tu_edpt_stream_write_xfer+0x18>
10005fba:	be00      	bkpt	0x0000
10005fbc:	e7e2      	b.n	10005f84 <tu_edpt_stream_write_xfer+0x18>
10005fbe:	2a00      	cmp	r2, #0
10005fc0:	d1e0      	bne.n	10005f84 <tu_edpt_stream_write_xfer+0x18>
10005fc2:	4628      	mov	r0, r5
10005fc4:	7861      	ldrb	r1, [r4, #1]
10005fc6:	f7ff f93f 	bl	10005248 <usbd_edpt_release>
10005fca:	e7db      	b.n	10005f84 <tu_edpt_stream_write_xfer+0x18>
10005fcc:	9001      	str	r0, [sp, #4]
10005fce:	6862      	ldr	r2, [r4, #4]
10005fd0:	4628      	mov	r0, r5
10005fd2:	7861      	ldrb	r1, [r4, #1]
10005fd4:	f7ff f94a 	bl	1000526c <usbd_edpt_xfer>
10005fd8:	2800      	cmp	r0, #0
10005fda:	d0e8      	beq.n	10005fae <tu_edpt_stream_write_xfer+0x42>
10005fdc:	9801      	ldr	r0, [sp, #4]
10005fde:	e7d2      	b.n	10005f86 <tu_edpt_stream_write_xfer+0x1a>

10005fe0 <tu_edpt_stream_read_xfer>:
10005fe0:	e92d 41f0 	stmdb	sp!, {r4, r5, r6, r7, r8, lr}
10005fe4:	898a      	ldrh	r2, [r1, #12]
10005fe6:	460c      	mov	r4, r1
10005fe8:	4605      	mov	r5, r0
10005fea:	780b      	ldrb	r3, [r1, #0]
10005fec:	b082      	sub	sp, #8
10005fee:	b92a      	cbnz	r2, 10005ffc <tu_edpt_stream_read_xfer+0x1c>
10005ff0:	07de      	lsls	r6, r3, #31
10005ff2:	d537      	bpl.n	10006064 <tu_edpt_stream_read_xfer+0x84>
10005ff4:	2000      	movs	r0, #0
10005ff6:	b002      	add	sp, #8
10005ff8:	e8bd 81f0 	ldmia.w	sp!, {r4, r5, r6, r7, r8, pc}
10005ffc:	0799      	lsls	r1, r3, #30
10005ffe:	f104 0008 	add.w	r0, r4, #8
10006002:	bf47      	ittee	mi
10006004:	f44f 487e 	movmi.w	r8, #65024	@ 0xfe00
10006008:	f44f 7600 	movmi.w	r6, #512	@ 0x200
1000600c:	f64f 78c0 	movwpl	r8, #65472	@ 0xffc0
10006010:	2640      	movpl	r6, #64	@ 0x40
10006012:	f000 f897 	bl	10006144 <tu_fifo_remaining>
10006016:	4286      	cmp	r6, r0
10006018:	f104 0708 	add.w	r7, r4, #8
1000601c:	d8ea      	bhi.n	10005ff4 <tu_edpt_stream_read_xfer+0x14>
1000601e:	7823      	ldrb	r3, [r4, #0]
10006020:	07da      	lsls	r2, r3, #31
10006022:	d4e7      	bmi.n	10005ff4 <tu_edpt_stream_read_xfer+0x14>
10006024:	4628      	mov	r0, r5
10006026:	7861      	ldrb	r1, [r4, #1]
10006028:	f7ff f8fc 	bl	10005224 <usbd_edpt_claim>
1000602c:	2800      	cmp	r0, #0
1000602e:	d0e1      	beq.n	10005ff4 <tu_edpt_stream_read_xfer+0x14>
10006030:	4638      	mov	r0, r7
10006032:	f000 f887 	bl	10006144 <tu_fifo_remaining>
10006036:	7823      	ldrb	r3, [r4, #0]
10006038:	4286      	cmp	r6, r0
1000603a:	f003 0301 	and.w	r3, r3, #1
1000603e:	d82e      	bhi.n	1000609e <tu_edpt_stream_read_xfer+0xbe>
10006040:	b9c3      	cbnz	r3, 10006074 <tu_edpt_stream_read_xfer+0x94>
10006042:	8863      	ldrh	r3, [r4, #2]
10006044:	ea08 0200 	and.w	r2, r8, r0
10006048:	4293      	cmp	r3, r2
1000604a:	bf28      	it	cs
1000604c:	4613      	movcs	r3, r2
1000604e:	7861      	ldrb	r1, [r4, #1]
10006050:	2b00      	cmp	r3, #0
10006052:	d02b      	beq.n	100060ac <tu_edpt_stream_read_xfer+0xcc>
10006054:	6862      	ldr	r2, [r4, #4]
10006056:	4628      	mov	r0, r5
10006058:	9301      	str	r3, [sp, #4]
1000605a:	f7ff f907 	bl	1000526c <usbd_edpt_xfer>
1000605e:	b148      	cbz	r0, 10006074 <tu_edpt_stream_read_xfer+0x94>
10006060:	9801      	ldr	r0, [sp, #4]
10006062:	e7c8      	b.n	10005ff6 <tu_edpt_stream_read_xfer+0x16>
10006064:	7849      	ldrb	r1, [r1, #1]
10006066:	f7ff f8dd 	bl	10005224 <usbd_edpt_claim>
1000606a:	2800      	cmp	r0, #0
1000606c:	d0c2      	beq.n	10005ff4 <tu_edpt_stream_read_xfer+0x14>
1000606e:	7823      	ldrb	r3, [r4, #0]
10006070:	07d8      	lsls	r0, r3, #31
10006072:	d507      	bpl.n	10006084 <tu_edpt_stream_read_xfer+0xa4>
10006074:	f04f 23e0 	mov.w	r3, #3758153728	@ 0xe000e000
10006078:	f8d3 3df0 	ldr.w	r3, [r3, #3568]	@ 0xdf0
1000607c:	07db      	lsls	r3, r3, #31
1000607e:	d5b9      	bpl.n	10005ff4 <tu_edpt_stream_read_xfer+0x14>
10006080:	be00      	bkpt	0x0000
10006082:	e7b7      	b.n	10005ff4 <tu_edpt_stream_read_xfer+0x14>
10006084:	8863      	ldrh	r3, [r4, #2]
10006086:	7861      	ldrb	r1, [r4, #1]
10006088:	b13b      	cbz	r3, 1000609a <tu_edpt_stream_read_xfer+0xba>
1000608a:	6862      	ldr	r2, [r4, #4]
1000608c:	4628      	mov	r0, r5
1000608e:	f7ff f8ed 	bl	1000526c <usbd_edpt_xfer>
10006092:	2800      	cmp	r0, #0
10006094:	d0ee      	beq.n	10006074 <tu_edpt_stream_read_xfer+0x94>
10006096:	8860      	ldrh	r0, [r4, #2]
10006098:	e7ad      	b.n	10005ff6 <tu_edpt_stream_read_xfer+0x16>
1000609a:	461a      	mov	r2, r3
1000609c:	e7f6      	b.n	1000608c <tu_edpt_stream_read_xfer+0xac>
1000609e:	2b00      	cmp	r3, #0
100060a0:	d1a8      	bne.n	10005ff4 <tu_edpt_stream_read_xfer+0x14>
100060a2:	4628      	mov	r0, r5
100060a4:	7861      	ldrb	r1, [r4, #1]
100060a6:	f7ff f8cf 	bl	10005248 <usbd_edpt_release>
100060aa:	e7a3      	b.n	10005ff4 <tu_edpt_stream_read_xfer+0x14>
100060ac:	461a      	mov	r2, r3
100060ae:	e7d2      	b.n	10006056 <tu_edpt_stream_read_xfer+0x76>

100060b0 <tu_fifo_config>:
100060b0:	e92d 41f0 	stmdb	sp!, {r4, r5, r6, r7, r8, lr}
100060b4:	f5b2 4f00 	cmp.w	r2, #32768	@ 0x8000
100060b8:	f89d 5018 	ldrb.w	r5, [sp, #24]
100060bc:	d824      	bhi.n	10006108 <tu_fifo_config+0x58>
100060be:	4604      	mov	r4, r0
100060c0:	68c0      	ldr	r0, [r0, #12]
100060c2:	4698      	mov	r8, r3
100060c4:	460f      	mov	r7, r1
100060c6:	4616      	mov	r6, r2
100060c8:	b118      	cbz	r0, 100060d2 <tu_fifo_config+0x22>
100060ca:	f04f 31ff 	mov.w	r1, #4294967295
100060ce:	f000 fb2f 	bl	10006730 <__mutex_enter_timeout_ms_veneer>
100060d2:	6920      	ldr	r0, [r4, #16]
100060d4:	b118      	cbz	r0, 100060de <tu_fifo_config+0x2e>
100060d6:	f04f 31ff 	mov.w	r1, #4294967295
100060da:	f000 fb29 	bl	10006730 <__mutex_enter_timeout_ms_veneer>
100060de:	2200      	movs	r2, #0
100060e0:	f3c8 030e 	ubfx	r3, r8, #0, #15
100060e4:	68e0      	ldr	r0, [r4, #12]
100060e6:	ea43 33c5 	orr.w	r3, r3, r5, lsl #15
100060ea:	8162      	strh	r2, [r4, #10]
100060ec:	6027      	str	r7, [r4, #0]
100060ee:	80a6      	strh	r6, [r4, #4]
100060f0:	80e3      	strh	r3, [r4, #6]
100060f2:	8122      	strh	r2, [r4, #8]
100060f4:	b108      	cbz	r0, 100060fa <tu_fifo_config+0x4a>
100060f6:	f000 fb27 	bl	10006748 <__mutex_exit_veneer>
100060fa:	6920      	ldr	r0, [r4, #16]
100060fc:	b108      	cbz	r0, 10006102 <tu_fifo_config+0x52>
100060fe:	f000 fb23 	bl	10006748 <__mutex_exit_veneer>
10006102:	2001      	movs	r0, #1
10006104:	e8bd 81f0 	ldmia.w	sp!, {r4, r5, r6, r7, r8, pc}
10006108:	2000      	movs	r0, #0
1000610a:	e8bd 81f0 	ldmia.w	sp!, {r4, r5, r6, r7, r8, pc}
1000610e:	bf00      	nop

10006110 <tu_fifo_count>:
10006110:	8903      	ldrh	r3, [r0, #8]
10006112:	8942      	ldrh	r2, [r0, #10]
10006114:	b29b      	uxth	r3, r3
10006116:	b292      	uxth	r2, r2
10006118:	8880      	ldrh	r0, [r0, #4]
1000611a:	4293      	cmp	r3, r2
1000611c:	bf36      	itet	cc
1000611e:	ebc2 0240 	rsbcc	r2, r2, r0, lsl #1
10006122:	1a9b      	subcs	r3, r3, r2
10006124:	189b      	addcc	r3, r3, r2
10006126:	b29b      	uxth	r3, r3
10006128:	4298      	cmp	r0, r3
1000612a:	bf28      	it	cs
1000612c:	4618      	movcs	r0, r3
1000612e:	4770      	bx	lr

10006130 <tu_fifo_empty>:
10006130:	8902      	ldrh	r2, [r0, #8]
10006132:	8943      	ldrh	r3, [r0, #10]
10006134:	b290      	uxth	r0, r2
10006136:	b29b      	uxth	r3, r3
10006138:	1ac0      	subs	r0, r0, r3
1000613a:	fab0 f080 	clz	r0, r0
1000613e:	0940      	lsrs	r0, r0, #5
10006140:	4770      	bx	lr
10006142:	bf00      	nop

10006144 <tu_fifo_remaining>:
10006144:	8903      	ldrh	r3, [r0, #8]
10006146:	8942      	ldrh	r2, [r0, #10]
10006148:	b29b      	uxth	r3, r3
1000614a:	8880      	ldrh	r0, [r0, #4]
1000614c:	b292      	uxth	r2, r2
1000614e:	4293      	cmp	r3, r2
10006150:	bf36      	itet	cc
10006152:	ebc2 0240 	rsbcc	r2, r2, r0, lsl #1
10006156:	1a9b      	subcs	r3, r3, r2
10006158:	189b      	addcc	r3, r3, r2
1000615a:	b29b      	uxth	r3, r3
1000615c:	4298      	cmp	r0, r3
1000615e:	bf86      	itte	hi
10006160:	1ac0      	subhi	r0, r0, r3
10006162:	b280      	uxthhi	r0, r0
10006164:	2000      	movls	r0, #0
10006166:	4770      	bx	lr

10006168 <tu_fifo_read>:
10006168:	b530      	push	{r4, r5, lr}
1000616a:	4604      	mov	r4, r0
1000616c:	6900      	ldr	r0, [r0, #16]
1000616e:	460d      	mov	r5, r1
10006170:	b083      	sub	sp, #12
10006172:	b118      	cbz	r0, 1000617c <tu_fifo_read+0x14>
10006174:	f04f 31ff 	mov.w	r1, #4294967295
10006178:	f000 fada 	bl	10006730 <__mutex_enter_timeout_ms_veneer>
1000617c:	8922      	ldrh	r2, [r4, #8]
1000617e:	8961      	ldrh	r1, [r4, #10]
10006180:	b292      	uxth	r2, r2
10006182:	b289      	uxth	r1, r1
10006184:	88a3      	ldrh	r3, [r4, #4]
10006186:	428a      	cmp	r2, r1
10006188:	bf36      	itet	cc
1000618a:	ebc1 0043 	rsbcc	r0, r1, r3, lsl #1
1000618e:	1a50      	subcs	r0, r2, r1
10006190:	1880      	addcc	r0, r0, r2
10006192:	b280      	uxth	r0, r0
10006194:	b368      	cbz	r0, 100061f2 <tu_fifo_read+0x8a>
10006196:	4283      	cmp	r3, r0
10006198:	d209      	bcs.n	100061ae <tu_fifo_read+0x46>
1000619a:	429a      	cmp	r2, r3
1000619c:	bf2c      	ite	cs
1000619e:	1ad2      	subcs	r2, r2, r3
100061a0:	18d2      	addcc	r2, r2, r3
100061a2:	b291      	uxth	r1, r2
100061a4:	428b      	cmp	r3, r1
100061a6:	8161      	strh	r1, [r4, #10]
100061a8:	d803      	bhi.n	100061b2 <tu_fifo_read+0x4a>
100061aa:	1ac9      	subs	r1, r1, r3
100061ac:	b289      	uxth	r1, r1
100061ae:	428b      	cmp	r3, r1
100061b0:	d9fb      	bls.n	100061aa <tu_fifo_read+0x42>
100061b2:	88e2      	ldrh	r2, [r4, #6]
100061b4:	6823      	ldr	r3, [r4, #0]
100061b6:	f3c2 020e 	ubfx	r2, r2, #0, #15
100061ba:	fb02 3101 	mla	r1, r2, r1, r3
100061be:	4628      	mov	r0, r5
100061c0:	f000 fa0a 	bl	100065d8 <memcpy>
100061c4:	8962      	ldrh	r2, [r4, #10]
100061c6:	88a3      	ldrh	r3, [r4, #4]
100061c8:	b292      	uxth	r2, r2
100061ca:	1c51      	adds	r1, r2, #1
100061cc:	b289      	uxth	r1, r1
100061ce:	428a      	cmp	r2, r1
100061d0:	f04f 0201 	mov.w	r2, #1
100061d4:	d910      	bls.n	100061f8 <tu_fifo_read+0x90>
100061d6:	2100      	movs	r1, #0
100061d8:	fa03 f002 	lsl.w	r0, r3, r2
100061dc:	1a09      	subs	r1, r1, r0
100061de:	6920      	ldr	r0, [r4, #16]
100061e0:	8161      	strh	r1, [r4, #10]
100061e2:	b118      	cbz	r0, 100061ec <tu_fifo_read+0x84>
100061e4:	9201      	str	r2, [sp, #4]
100061e6:	f000 faaf 	bl	10006748 <__mutex_exit_veneer>
100061ea:	9a01      	ldr	r2, [sp, #4]
100061ec:	4610      	mov	r0, r2
100061ee:	b003      	add	sp, #12
100061f0:	bd30      	pop	{r4, r5, pc}
100061f2:	4602      	mov	r2, r0
100061f4:	8961      	ldrh	r1, [r4, #10]
100061f6:	b289      	uxth	r1, r1
100061f8:	ebb1 0f43 	cmp.w	r1, r3, lsl #1
100061fc:	ea4f 0043 	mov.w	r0, r3, lsl #1
10006200:	dbed      	blt.n	100061de <tu_fifo_read+0x76>
10006202:	e7eb      	b.n	100061dc <tu_fifo_read+0x74>

10006204 <tu_fifo_read_n>:
10006204:	e92d 41f0 	stmdb	sp!, {r4, r5, r6, r7, r8, lr}
10006208:	4605      	mov	r5, r0
1000620a:	6900      	ldr	r0, [r0, #16]
1000620c:	4688      	mov	r8, r1
1000620e:	b082      	sub	sp, #8
10006210:	b128      	cbz	r0, 1000621e <tu_fifo_read_n+0x1a>
10006212:	f04f 31ff 	mov.w	r1, #4294967295
10006216:	9200      	str	r2, [sp, #0]
10006218:	f000 fa8a 	bl	10006730 <__mutex_enter_timeout_ms_veneer>
1000621c:	9a00      	ldr	r2, [sp, #0]
1000621e:	8929      	ldrh	r1, [r5, #8]
10006220:	896b      	ldrh	r3, [r5, #10]
10006222:	b289      	uxth	r1, r1
10006224:	b29b      	uxth	r3, r3
10006226:	88ac      	ldrh	r4, [r5, #4]
10006228:	4299      	cmp	r1, r3
1000622a:	bf36      	itet	cc
1000622c:	ebc3 0644 	rsbcc	r6, r3, r4, lsl #1
10006230:	1ace      	subcs	r6, r1, r3
10006232:	1876      	addcc	r6, r6, r1
10006234:	b2b6      	uxth	r6, r6
10006236:	2e00      	cmp	r6, #0
10006238:	d04b      	beq.n	100062d2 <tu_fifo_read_n+0xce>
1000623a:	42b4      	cmp	r4, r6
1000623c:	d341      	bcc.n	100062c2 <tu_fifo_read_n+0xbe>
1000623e:	42b2      	cmp	r2, r6
10006240:	bf28      	it	cs
10006242:	4632      	movcs	r2, r6
10006244:	429c      	cmp	r4, r3
10006246:	b296      	uxth	r6, r2
10006248:	d803      	bhi.n	10006252 <tu_fifo_read_n+0x4e>
1000624a:	1b1b      	subs	r3, r3, r4
1000624c:	b29b      	uxth	r3, r3
1000624e:	429c      	cmp	r4, r3
10006250:	d9fb      	bls.n	1000624a <tu_fifo_read_n+0x46>
10006252:	f8b5 c006 	ldrh.w	ip, [r5, #6]
10006256:	1ae0      	subs	r0, r4, r3
10006258:	6829      	ldr	r1, [r5, #0]
1000625a:	b280      	uxth	r0, r0
1000625c:	f3cc 020e 	ubfx	r2, ip, #0, #15
10006260:	4286      	cmp	r6, r0
10006262:	4617      	mov	r7, r2
10006264:	fb02 1103 	mla	r1, r2, r3, r1
10006268:	d925      	bls.n	100062b6 <tu_fifo_read_n+0xb2>
1000626a:	fb10 f202 	smulbb	r2, r0, r2
1000626e:	4640      	mov	r0, r8
10006270:	b292      	uxth	r2, r2
10006272:	9301      	str	r3, [sp, #4]
10006274:	9200      	str	r2, [sp, #0]
10006276:	f000 f9af 	bl	100065d8 <memcpy>
1000627a:	9b01      	ldr	r3, [sp, #4]
1000627c:	9a00      	ldr	r2, [sp, #0]
1000627e:	1b34      	subs	r4, r6, r4
10006280:	4423      	add	r3, r4
10006282:	eb08 0002 	add.w	r0, r8, r2
10006286:	fb13 f207 	smulbb	r2, r3, r7
1000628a:	6829      	ldr	r1, [r5, #0]
1000628c:	b292      	uxth	r2, r2
1000628e:	f000 f9a3 	bl	100065d8 <memcpy>
10006292:	896a      	ldrh	r2, [r5, #10]
10006294:	88ac      	ldrh	r4, [r5, #4]
10006296:	b292      	uxth	r2, r2
10006298:	1993      	adds	r3, r2, r6
1000629a:	b29b      	uxth	r3, r3
1000629c:	429a      	cmp	r2, r3
1000629e:	d91a      	bls.n	100062d6 <tu_fifo_read_n+0xd2>
100062a0:	0062      	lsls	r2, r4, #1
100062a2:	1a9b      	subs	r3, r3, r2
100062a4:	6928      	ldr	r0, [r5, #16]
100062a6:	816b      	strh	r3, [r5, #10]
100062a8:	b108      	cbz	r0, 100062ae <tu_fifo_read_n+0xaa>
100062aa:	f000 fa4d 	bl	10006748 <__mutex_exit_veneer>
100062ae:	4630      	mov	r0, r6
100062b0:	b002      	add	sp, #8
100062b2:	e8bd 81f0 	ldmia.w	sp!, {r4, r5, r6, r7, r8, pc}
100062b6:	4640      	mov	r0, r8
100062b8:	fb06 f202 	mul.w	r2, r6, r2
100062bc:	f000 f98c 	bl	100065d8 <memcpy>
100062c0:	e7e7      	b.n	10006292 <tu_fifo_read_n+0x8e>
100062c2:	42a1      	cmp	r1, r4
100062c4:	bf2c      	ite	cs
100062c6:	1b09      	subcs	r1, r1, r4
100062c8:	1909      	addcc	r1, r1, r4
100062ca:	b28b      	uxth	r3, r1
100062cc:	4626      	mov	r6, r4
100062ce:	816b      	strh	r3, [r5, #10]
100062d0:	e7b5      	b.n	1000623e <tu_fifo_read_n+0x3a>
100062d2:	896b      	ldrh	r3, [r5, #10]
100062d4:	b29b      	uxth	r3, r3
100062d6:	ebb3 0f44 	cmp.w	r3, r4, lsl #1
100062da:	ea4f 0244 	mov.w	r2, r4, lsl #1
100062de:	dbe1      	blt.n	100062a4 <tu_fifo_read_n+0xa0>
100062e0:	e7df      	b.n	100062a2 <tu_fifo_read_n+0x9e>
100062e2:	bf00      	nop

100062e4 <tu_fifo_write>:
100062e4:	b570      	push	{r4, r5, r6, lr}
100062e6:	4604      	mov	r4, r0
100062e8:	68c0      	ldr	r0, [r0, #12]
100062ea:	460e      	mov	r6, r1
100062ec:	b082      	sub	sp, #8
100062ee:	b118      	cbz	r0, 100062f8 <tu_fifo_write+0x14>
100062f0:	f04f 31ff 	mov.w	r1, #4294967295
100062f4:	f000 fa1c 	bl	10006730 <__mutex_enter_timeout_ms_veneer>
100062f8:	8925      	ldrh	r5, [r4, #8]
100062fa:	8923      	ldrh	r3, [r4, #8]
100062fc:	8961      	ldrh	r1, [r4, #10]
100062fe:	b29b      	uxth	r3, r3
10006300:	b289      	uxth	r1, r1
10006302:	88a2      	ldrh	r2, [r4, #4]
10006304:	428b      	cmp	r3, r1
10006306:	bf36      	itet	cc
10006308:	ebc1 0142 	rsbcc	r1, r1, r2, lsl #1
1000630c:	1a5b      	subcs	r3, r3, r1
1000630e:	185b      	addcc	r3, r3, r1
10006310:	b29b      	uxth	r3, r3
10006312:	429a      	cmp	r2, r3
10006314:	b2ad      	uxth	r5, r5
10006316:	d80b      	bhi.n	10006330 <tu_fifo_write+0x4c>
10006318:	79e1      	ldrb	r1, [r4, #7]
1000631a:	09c9      	lsrs	r1, r1, #7
1000631c:	d108      	bne.n	10006330 <tu_fifo_write+0x4c>
1000631e:	68e0      	ldr	r0, [r4, #12]
10006320:	b118      	cbz	r0, 1000632a <tu_fifo_write+0x46>
10006322:	9101      	str	r1, [sp, #4]
10006324:	f000 fa10 	bl	10006748 <__mutex_exit_veneer>
10006328:	9901      	ldr	r1, [sp, #4]
1000632a:	4608      	mov	r0, r1
1000632c:	b002      	add	sp, #8
1000632e:	bd70      	pop	{r4, r5, r6, pc}
10006330:	4295      	cmp	r5, r2
10006332:	bf28      	it	cs
10006334:	462b      	movcs	r3, r5
10006336:	d317      	bcc.n	10006368 <tu_fifo_write+0x84>
10006338:	1a9b      	subs	r3, r3, r2
1000633a:	b29b      	uxth	r3, r3
1000633c:	4293      	cmp	r3, r2
1000633e:	d2fb      	bcs.n	10006338 <tu_fifo_write+0x54>
10006340:	88e2      	ldrh	r2, [r4, #6]
10006342:	6820      	ldr	r0, [r4, #0]
10006344:	f3c2 020e 	ubfx	r2, r2, #0, #15
10006348:	fb02 0003 	mla	r0, r2, r3, r0
1000634c:	4631      	mov	r1, r6
1000634e:	f000 f943 	bl	100065d8 <memcpy>
10006352:	1c6b      	adds	r3, r5, #1
10006354:	b29b      	uxth	r3, r3
10006356:	429d      	cmp	r5, r3
10006358:	88a2      	ldrh	r2, [r4, #4]
1000635a:	d911      	bls.n	10006380 <tu_fifo_write+0x9c>
1000635c:	2300      	movs	r3, #0
1000635e:	0051      	lsls	r1, r2, #1
10006360:	1a5b      	subs	r3, r3, r1
10006362:	2101      	movs	r1, #1
10006364:	8123      	strh	r3, [r4, #8]
10006366:	e7da      	b.n	1000631e <tu_fifo_write+0x3a>
10006368:	88e2      	ldrh	r2, [r4, #6]
1000636a:	6820      	ldr	r0, [r4, #0]
1000636c:	f3c2 020e 	ubfx	r2, r2, #0, #15
10006370:	fb05 0002 	mla	r0, r5, r2, r0
10006374:	4631      	mov	r1, r6
10006376:	f000 f92f 	bl	100065d8 <memcpy>
1000637a:	3501      	adds	r5, #1
1000637c:	88a2      	ldrh	r2, [r4, #4]
1000637e:	b2ab      	uxth	r3, r5
10006380:	ebb3 0f42 	cmp.w	r3, r2, lsl #1
10006384:	ea4f 0142 	mov.w	r1, r2, lsl #1
10006388:	dbeb      	blt.n	10006362 <tu_fifo_write+0x7e>
1000638a:	e7e9      	b.n	10006360 <tu_fifo_write+0x7c>

1000638c <tu_fifo_write_n>:
1000638c:	e92d 47f0 	stmdb	sp!, {r4, r5, r6, r7, r8, r9, sl, lr}
10006390:	4615      	mov	r5, r2
10006392:	b082      	sub	sp, #8
10006394:	2a00      	cmp	r2, #0
10006396:	d04a      	beq.n	1000642e <tu_fifo_write_n+0xa2>
10006398:	4604      	mov	r4, r0
1000639a:	68c0      	ldr	r0, [r0, #12]
1000639c:	4688      	mov	r8, r1
1000639e:	b118      	cbz	r0, 100063a8 <tu_fifo_write_n+0x1c>
100063a0:	f04f 31ff 	mov.w	r1, #4294967295
100063a4:	f000 f9c4 	bl	10006730 <__mutex_enter_timeout_ms_veneer>
100063a8:	79e1      	ldrb	r1, [r4, #7]
100063aa:	8926      	ldrh	r6, [r4, #8]
100063ac:	8963      	ldrh	r3, [r4, #10]
100063ae:	09c9      	lsrs	r1, r1, #7
100063b0:	88a2      	ldrh	r2, [r4, #4]
100063b2:	b2b6      	uxth	r6, r6
100063b4:	b29b      	uxth	r3, r3
100063b6:	d13e      	bne.n	10006436 <tu_fifo_write_n+0xaa>
100063b8:	429e      	cmp	r6, r3
100063ba:	bf36      	itet	cc
100063bc:	ebc3 0342 	rsbcc	r3, r3, r2, lsl #1
100063c0:	1af3      	subcs	r3, r6, r3
100063c2:	199b      	addcc	r3, r3, r6
100063c4:	b29b      	uxth	r3, r3
100063c6:	4293      	cmp	r3, r2
100063c8:	d253      	bcs.n	10006472 <tu_fifo_write_n+0xe6>
100063ca:	1ad3      	subs	r3, r2, r3
100063cc:	b29b      	uxth	r3, r3
100063ce:	42ab      	cmp	r3, r5
100063d0:	bf28      	it	cs
100063d2:	462b      	movcs	r3, r5
100063d4:	b29d      	uxth	r5, r3
100063d6:	1973      	adds	r3, r6, r5
100063d8:	f8b4 c006 	ldrh.w	ip, [r4, #6]
100063dc:	fa1f f983 	uxth.w	r9, r3
100063e0:	eba5 0a02 	sub.w	sl, r5, r2
100063e4:	4296      	cmp	r6, r2
100063e6:	4633      	mov	r3, r6
100063e8:	d303      	bcc.n	100063f2 <tu_fifo_write_n+0x66>
100063ea:	1a9b      	subs	r3, r3, r2
100063ec:	b29b      	uxth	r3, r3
100063ee:	4293      	cmp	r3, r2
100063f0:	d2fb      	bcs.n	100063ea <tu_fifo_write_n+0x5e>
100063f2:	1ad2      	subs	r2, r2, r3
100063f4:	b291      	uxth	r1, r2
100063f6:	6820      	ldr	r0, [r4, #0]
100063f8:	f3cc 020e 	ubfx	r2, ip, #0, #15
100063fc:	42a9      	cmp	r1, r5
100063fe:	4617      	mov	r7, r2
10006400:	fb02 0003 	mla	r0, r2, r3, r0
10006404:	d352      	bcc.n	100064ac <tu_fifo_write_n+0x120>
10006406:	4641      	mov	r1, r8
10006408:	fb05 f202 	mul.w	r2, r5, r2
1000640c:	f000 f8e4 	bl	100065d8 <memcpy>
10006410:	88a3      	ldrh	r3, [r4, #4]
10006412:	454e      	cmp	r6, r9
10006414:	ea4f 0243 	mov.w	r2, r3, lsl #1
10006418:	d802      	bhi.n	10006420 <tu_fifo_write_n+0x94>
1000641a:	ebb9 0f43 	cmp.w	r9, r3, lsl #1
1000641e:	db01      	blt.n	10006424 <tu_fifo_write_n+0x98>
10006420:	eba9 0902 	sub.w	r9, r9, r2
10006424:	68e0      	ldr	r0, [r4, #12]
10006426:	462a      	mov	r2, r5
10006428:	f8a4 9008 	strh.w	r9, [r4, #8]
1000642c:	bb28      	cbnz	r0, 1000647a <tu_fifo_write_n+0xee>
1000642e:	4610      	mov	r0, r2
10006430:	b002      	add	sp, #8
10006432:	e8bd 87f0 	ldmia.w	sp!, {r4, r5, r6, r7, r8, r9, sl, pc}
10006436:	4295      	cmp	r5, r2
10006438:	d227      	bcs.n	1000648a <tu_fifo_write_n+0xfe>
1000643a:	429e      	cmp	r6, r3
1000643c:	bf36      	itet	cc
1000643e:	ebc3 0142 	rsbcc	r1, r3, r2, lsl #1
10006442:	1af1      	subcs	r1, r6, r3
10006444:	1989      	addcc	r1, r1, r6
10006446:	b289      	uxth	r1, r1
10006448:	0050      	lsls	r0, r2, #1
1000644a:	4429      	add	r1, r5
1000644c:	1aaf      	subs	r7, r5, r2
1000644e:	4281      	cmp	r1, r0
10006450:	46ba      	mov	sl, r7
10006452:	db08      	blt.n	10006466 <tu_fifo_write_n+0xda>
10006454:	1899      	adds	r1, r3, r2
10006456:	b289      	uxth	r1, r1
10006458:	1b4e      	subs	r6, r1, r5
1000645a:	b2b6      	uxth	r6, r6
1000645c:	42b3      	cmp	r3, r6
1000645e:	4689      	mov	r9, r1
10006460:	d938      	bls.n	100064d4 <tu_fifo_write_n+0x148>
10006462:	1a30      	subs	r0, r6, r0
10006464:	b286      	uxth	r6, r0
10006466:	19ab      	adds	r3, r5, r6
10006468:	fa1f f983 	uxth.w	r9, r3
1000646c:	f8b4 c006 	ldrh.w	ip, [r4, #6]
10006470:	e7b8      	b.n	100063e4 <tu_fifo_write_n+0x58>
10006472:	2200      	movs	r2, #0
10006474:	68e0      	ldr	r0, [r4, #12]
10006476:	2800      	cmp	r0, #0
10006478:	d0d9      	beq.n	1000642e <tu_fifo_write_n+0xa2>
1000647a:	9200      	str	r2, [sp, #0]
1000647c:	f000 f964 	bl	10006748 <__mutex_exit_veneer>
10006480:	9a00      	ldr	r2, [sp, #0]
10006482:	4610      	mov	r0, r2
10006484:	b002      	add	sp, #8
10006486:	e8bd 87f0 	ldmia.w	sp!, {r4, r5, r6, r7, r8, r9, sl, pc}
1000648a:	2a00      	cmp	r2, #0
1000648c:	d0f2      	beq.n	10006474 <tu_fifo_write_n+0xe8>
1000648e:	f8b4 c006 	ldrh.w	ip, [r4, #6]
10006492:	1aad      	subs	r5, r5, r2
10006494:	1899      	adds	r1, r3, r2
10006496:	461e      	mov	r6, r3
10006498:	f3cc 030e 	ubfx	r3, ip, #0, #15
1000649c:	fb03 8805 	mla	r8, r3, r5, r8
100064a0:	f04f 0a00 	mov.w	sl, #0
100064a4:	4615      	mov	r5, r2
100064a6:	fa1f f981 	uxth.w	r9, r1
100064aa:	e79b      	b.n	100063e4 <tu_fifo_write_n+0x58>
100064ac:	fb11 f202 	smulbb	r2, r1, r2
100064b0:	4641      	mov	r1, r8
100064b2:	b292      	uxth	r2, r2
100064b4:	9301      	str	r3, [sp, #4]
100064b6:	9200      	str	r2, [sp, #0]
100064b8:	f000 f88e 	bl	100065d8 <memcpy>
100064bc:	9b01      	ldr	r3, [sp, #4]
100064be:	9a00      	ldr	r2, [sp, #0]
100064c0:	4453      	add	r3, sl
100064c2:	fb13 f307 	smulbb	r3, r3, r7
100064c6:	eb08 0102 	add.w	r1, r8, r2
100064ca:	6820      	ldr	r0, [r4, #0]
100064cc:	b29a      	uxth	r2, r3
100064ce:	f000 f883 	bl	100065d8 <memcpy>
100064d2:	e79d      	b.n	10006410 <tu_fifo_write_n+0x84>
100064d4:	42b0      	cmp	r0, r6
100064d6:	ddc4      	ble.n	10006462 <tu_fifo_write_n+0xd6>
100064d8:	e7c8      	b.n	1000646c <tu_fifo_write_n+0xe0>
100064da:	bf00      	nop

100064dc <tu_fifo_clear>:
100064dc:	b510      	push	{r4, lr}
100064de:	4604      	mov	r4, r0
100064e0:	68c0      	ldr	r0, [r0, #12]
100064e2:	b118      	cbz	r0, 100064ec <tu_fifo_clear+0x10>
100064e4:	f04f 31ff 	mov.w	r1, #4294967295
100064e8:	f000 f922 	bl	10006730 <__mutex_enter_timeout_ms_veneer>
100064ec:	6920      	ldr	r0, [r4, #16]
100064ee:	b118      	cbz	r0, 100064f8 <tu_fifo_clear+0x1c>
100064f0:	f04f 31ff 	mov.w	r1, #4294967295
100064f4:	f000 f91c 	bl	10006730 <__mutex_enter_timeout_ms_veneer>
100064f8:	2300      	movs	r3, #0
100064fa:	68e0      	ldr	r0, [r4, #12]
100064fc:	8163      	strh	r3, [r4, #10]
100064fe:	8123      	strh	r3, [r4, #8]
10006500:	b108      	cbz	r0, 10006506 <tu_fifo_clear+0x2a>
10006502:	f000 f921 	bl	10006748 <__mutex_exit_veneer>
10006506:	6920      	ldr	r0, [r4, #16]
10006508:	b108      	cbz	r0, 1000650e <tu_fifo_clear+0x32>
1000650a:	f000 f91d 	bl	10006748 <__mutex_exit_veneer>
1000650e:	2001      	movs	r0, #1
10006510:	bd10      	pop	{r4, pc}
10006512:	bf00      	nop

10006514 <tu_fifo_set_overwritable>:
10006514:	b538      	push	{r3, r4, r5, lr}
10006516:	4604      	mov	r4, r0
10006518:	68c0      	ldr	r0, [r0, #12]
1000651a:	460d      	mov	r5, r1
1000651c:	b118      	cbz	r0, 10006526 <tu_fifo_set_overwritable+0x12>
1000651e:	f04f 31ff 	mov.w	r1, #4294967295
10006522:	f000 f905 	bl	10006730 <__mutex_enter_timeout_ms_veneer>
10006526:	6920      	ldr	r0, [r4, #16]
10006528:	b118      	cbz	r0, 10006532 <tu_fifo_set_overwritable+0x1e>
1000652a:	f04f 31ff 	mov.w	r1, #4294967295
1000652e:	f000 f8ff 	bl	10006730 <__mutex_enter_timeout_ms_veneer>
10006532:	79e3      	ldrb	r3, [r4, #7]
10006534:	68e0      	ldr	r0, [r4, #12]
10006536:	f365 13c7 	bfi	r3, r5, #7, #1
1000653a:	71e3      	strb	r3, [r4, #7]
1000653c:	b108      	cbz	r0, 10006542 <tu_fifo_set_overwritable+0x2e>
1000653e:	f000 f903 	bl	10006748 <__mutex_exit_veneer>
10006542:	6920      	ldr	r0, [r4, #16]
10006544:	b108      	cbz	r0, 1000654a <tu_fifo_set_overwritable+0x36>
10006546:	f000 f8ff 	bl	10006748 <__mutex_exit_veneer>
1000654a:	2001      	movs	r0, #1
1000654c:	bd38      	pop	{r3, r4, r5, pc}
1000654e:	bf00      	nop

10006550 <memset>:
10006550:	b530      	push	{r4, r5, lr}
10006552:	0784      	lsls	r4, r0, #30
10006554:	4686      	mov	lr, r0
10006556:	4603      	mov	r3, r0
10006558:	d006      	beq.n	10006568 <memset+0x18>
1000655a:	b3a2      	cbz	r2, 100065c6 <memset+0x76>
1000655c:	f803 1b01 	strb.w	r1, [r3], #1
10006560:	0798      	lsls	r0, r3, #30
10006562:	f102 32ff 	add.w	r2, r2, #4294967295
10006566:	d1f8      	bne.n	1000655a <memset+0xa>
10006568:	2a03      	cmp	r2, #3
1000656a:	d926      	bls.n	100065ba <memset+0x6a>
1000656c:	fa5f fc81 	uxtb.w	ip, r1
10006570:	2a0f      	cmp	r2, #15
10006572:	eb0c 2c0c 	add.w	ip, ip, ip, lsl #8
10006576:	eb0c 400c 	add.w	r0, ip, ip, lsl #16
1000657a:	d92a      	bls.n	100065d2 <memset+0x82>
1000657c:	f022 0c0f 	bic.w	ip, r2, #15
10006580:	449c      	add	ip, r3
10006582:	e9c3 0000 	strd	r0, r0, [r3]
10006586:	e9c3 0002 	strd	r0, r0, [r3, #8]
1000658a:	3310      	adds	r3, #16
1000658c:	4563      	cmp	r3, ip
1000658e:	d1f8      	bne.n	10006582 <memset+0x32>
10006590:	f012 0f0c 	tst.w	r2, #12
10006594:	f002 050f 	and.w	r5, r2, #15
10006598:	d017      	beq.n	100065ca <memset+0x7a>
1000659a:	ea4f 0c95 	mov.w	ip, r5, lsr #2
1000659e:	461a      	mov	r2, r3
100065a0:	f10c 34ff 	add.w	r4, ip, #4294967295
100065a4:	eb03 0c8c 	add.w	ip, r3, ip, lsl #2
100065a8:	f842 0b04 	str.w	r0, [r2], #4
100065ac:	4562      	cmp	r2, ip
100065ae:	d1fb      	bne.n	100065a8 <memset+0x58>
100065b0:	3304      	adds	r3, #4
100065b2:	f005 0203 	and.w	r2, r5, #3
100065b6:	eb03 0384 	add.w	r3, r3, r4, lsl #2
100065ba:	b122      	cbz	r2, 100065c6 <memset+0x76>
100065bc:	441a      	add	r2, r3
100065be:	f803 1b01 	strb.w	r1, [r3], #1
100065c2:	429a      	cmp	r2, r3
100065c4:	d1fb      	bne.n	100065be <memset+0x6e>
100065c6:	4670      	mov	r0, lr
100065c8:	bd30      	pop	{r4, r5, pc}
100065ca:	462a      	mov	r2, r5
100065cc:	2a00      	cmp	r2, #0
100065ce:	d1f5      	bne.n	100065bc <memset+0x6c>
100065d0:	e7f9      	b.n	100065c6 <memset+0x76>
100065d2:	4615      	mov	r5, r2
100065d4:	e7e1      	b.n	1000659a <memset+0x4a>
100065d6:	bf00      	nop

100065d8 <memcpy>:
100065d8:	4684      	mov	ip, r0
100065da:	ea41 0300 	orr.w	r3, r1, r0
100065de:	f013 0303 	ands.w	r3, r3, #3
100065e2:	d149      	bne.n	10006678 <memcpy+0xa0>
100065e4:	3a40      	subs	r2, #64	@ 0x40
100065e6:	d323      	bcc.n	10006630 <memcpy+0x58>
100065e8:	680b      	ldr	r3, [r1, #0]
100065ea:	6003      	str	r3, [r0, #0]
100065ec:	684b      	ldr	r3, [r1, #4]
100065ee:	6043      	str	r3, [r0, #4]
100065f0:	688b      	ldr	r3, [r1, #8]
100065f2:	6083      	str	r3, [r0, #8]
100065f4:	68cb      	ldr	r3, [r1, #12]
100065f6:	60c3      	str	r3, [r0, #12]
100065f8:	690b      	ldr	r3, [r1, #16]
100065fa:	6103      	str	r3, [r0, #16]
100065fc:	694b      	ldr	r3, [r1, #20]
100065fe:	6143      	str	r3, [r0, #20]
10006600:	698b      	ldr	r3, [r1, #24]
10006602:	6183      	str	r3, [r0, #24]
10006604:	69cb      	ldr	r3, [r1, #28]
10006606:	61c3      	str	r3, [r0, #28]
10006608:	6a0b      	ldr	r3, [r1, #32]
1000660a:	6203      	str	r3, [r0, #32]
1000660c:	6a4b      	ldr	r3, [r1, #36]	@ 0x24
1000660e:	6243      	str	r3, [r0, #36]	@ 0x24
10006610:	6a8b      	ldr	r3, [r1, #40]	@ 0x28
10006612:	6283      	str	r3, [r0, #40]	@ 0x28
10006614:	6acb      	ldr	r3, [r1, #44]	@ 0x2c
10006616:	62c3      	str	r3, [r0, #44]	@ 0x2c
10006618:	6b0b      	ldr	r3, [r1, #48]	@ 0x30
1000661a:	6303      	str	r3, [r0, #48]	@ 0x30
1000661c:	6b4b      	ldr	r3, [r1, #52]	@ 0x34
1000661e:	6343      	str	r3, [r0, #52]	@ 0x34
10006620:	6b8b      	ldr	r3, [r1, #56]	@ 0x38
10006622:	6383      	str	r3, [r0, #56]	@ 0x38
10006624:	6bcb      	ldr	r3, [r1, #60]	@ 0x3c
10006626:	63c3      	str	r3, [r0, #60]	@ 0x3c
10006628:	3040      	adds	r0, #64	@ 0x40
1000662a:	3140      	adds	r1, #64	@ 0x40
1000662c:	3a40      	subs	r2, #64	@ 0x40
1000662e:	d2db      	bcs.n	100065e8 <memcpy+0x10>
10006630:	3230      	adds	r2, #48	@ 0x30
10006632:	d30b      	bcc.n	1000664c <memcpy+0x74>
10006634:	680b      	ldr	r3, [r1, #0]
10006636:	6003      	str	r3, [r0, #0]
10006638:	684b      	ldr	r3, [r1, #4]
1000663a:	6043      	str	r3, [r0, #4]
1000663c:	688b      	ldr	r3, [r1, #8]
1000663e:	6083      	str	r3, [r0, #8]
10006640:	68cb      	ldr	r3, [r1, #12]
10006642:	60c3      	str	r3, [r0, #12]
10006644:	3010      	adds	r0, #16
10006646:	3110      	adds	r1, #16
10006648:	3a10      	subs	r2, #16
1000664a:	d2f3      	bcs.n	10006634 <memcpy+0x5c>
1000664c:	320c      	adds	r2, #12
1000664e:	d305      	bcc.n	1000665c <memcpy+0x84>
10006650:	f851 3b04 	ldr.w	r3, [r1], #4
10006654:	f840 3b04 	str.w	r3, [r0], #4
10006658:	3a04      	subs	r2, #4
1000665a:	d2f9      	bcs.n	10006650 <memcpy+0x78>
1000665c:	3204      	adds	r2, #4
1000665e:	d008      	beq.n	10006672 <memcpy+0x9a>
10006660:	07d2      	lsls	r2, r2, #31
10006662:	bf1c      	itt	ne
10006664:	f811 3b01 	ldrbne.w	r3, [r1], #1
10006668:	f800 3b01 	strbne.w	r3, [r0], #1
1000666c:	d301      	bcc.n	10006672 <memcpy+0x9a>
1000666e:	880b      	ldrh	r3, [r1, #0]
10006670:	8003      	strh	r3, [r0, #0]
10006672:	4660      	mov	r0, ip
10006674:	4770      	bx	lr
10006676:	bf00      	nop
10006678:	2a08      	cmp	r2, #8
1000667a:	d313      	bcc.n	100066a4 <memcpy+0xcc>
1000667c:	078b      	lsls	r3, r1, #30
1000667e:	d0b1      	beq.n	100065e4 <memcpy+0xc>
10006680:	f010 0303 	ands.w	r3, r0, #3
10006684:	d0ae      	beq.n	100065e4 <memcpy+0xc>
10006686:	f1c3 0304 	rsb	r3, r3, #4
1000668a:	1ad2      	subs	r2, r2, r3
1000668c:	07db      	lsls	r3, r3, #31
1000668e:	bf1c      	itt	ne
10006690:	f811 3b01 	ldrbne.w	r3, [r1], #1
10006694:	f800 3b01 	strbne.w	r3, [r0], #1
10006698:	d3a4      	bcc.n	100065e4 <memcpy+0xc>
1000669a:	f831 3b02 	ldrh.w	r3, [r1], #2
1000669e:	f820 3b02 	strh.w	r3, [r0], #2
100066a2:	e79f      	b.n	100065e4 <memcpy+0xc>
100066a4:	3a04      	subs	r2, #4
100066a6:	d3d9      	bcc.n	1000665c <memcpy+0x84>
100066a8:	3a01      	subs	r2, #1
100066aa:	f811 3b01 	ldrb.w	r3, [r1], #1
100066ae:	f800 3b01 	strb.w	r3, [r0], #1
100066b2:	d2f9      	bcs.n	100066a8 <memcpy+0xd0>
100066b4:	780b      	ldrb	r3, [r1, #0]
100066b6:	7003      	strb	r3, [r0, #0]
100066b8:	784b      	ldrb	r3, [r1, #1]
100066ba:	7043      	strb	r3, [r0, #1]
100066bc:	788b      	ldrb	r3, [r1, #2]
100066be:	7083      	strb	r3, [r0, #2]
100066c0:	4660      	mov	r0, ip
100066c2:	4770      	bx	lr

100066c4 <strlen>:
100066c4:	f020 0103 	bic.w	r1, r0, #3
100066c8:	f010 0003 	ands.w	r0, r0, #3
100066cc:	f1c0 0000 	rsb	r0, r0, #0
100066d0:	f851 3b04 	ldr.w	r3, [r1], #4
100066d4:	f100 0c04 	add.w	ip, r0, #4
100066d8:	ea4f 0ccc 	mov.w	ip, ip, lsl #3
100066dc:	f06f 0200 	mvn.w	r2, #0
100066e0:	bf1c      	itt	ne
100066e2:	fa22 f20c 	lsrne.w	r2, r2, ip
100066e6:	4313      	orrne	r3, r2
100066e8:	f04f 0c01 	mov.w	ip, #1
100066ec:	ea4c 2c0c 	orr.w	ip, ip, ip, lsl #8
100066f0:	ea4c 4c0c 	orr.w	ip, ip, ip, lsl #16
100066f4:	eba3 020c 	sub.w	r2, r3, ip
100066f8:	ea22 0203 	bic.w	r2, r2, r3
100066fc:	ea12 12cc 	ands.w	r2, r2, ip, lsl #7
10006700:	bf04      	itt	eq
10006702:	f851 3b04 	ldreq.w	r3, [r1], #4
10006706:	3004      	addeq	r0, #4
10006708:	d0f4      	beq.n	100066f4 <strlen+0x30>
1000670a:	f1c2 0100 	rsb	r1, r2, #0
1000670e:	ea02 0201 	and.w	r2, r2, r1
10006712:	fab2 f282 	clz	r2, r2
10006716:	f1c2 021f 	rsb	r2, r2, #31
1000671a:	eb00 00d2 	add.w	r0, r0, r2, lsr #3
1000671e:	4770      	bx	lr

10006720 <_fini>:
10006720:	b5f8      	push	{r3, r4, r5, r6, r7, lr}
10006722:	bf00      	nop
10006724:	0000      	movs	r0, r0
	...

10006728 <__reset_non_control_endpoints_veneer>:
10006728:	f85f f000 	ldr.w	pc, [pc]	@ 1000672c <__reset_non_control_endpoints_veneer+0x4>
1000672c:	200002bd 	.word	0x200002bd

10006730 <__mutex_enter_timeout_ms_veneer>:
10006730:	f85f f000 	ldr.w	pc, [pc]	@ 10006734 <__mutex_enter_timeout_ms_veneer+0x4>
10006734:	20000219 	.word	0x20000219

10006738 <__e15_is_critical_frame_period_veneer>:
10006738:	f85f f000 	ldr.w	pc, [pc]	@ 1000673c <__e15_is_critical_frame_period_veneer+0x4>
1000673c:	20000a91 	.word	0x20000a91

10006740 <__hw_endpoint_start_next_buffer_veneer>:
10006740:	f85f f000 	ldr.w	pc, [pc]	@ 10006744 <__hw_endpoint_start_next_buffer_veneer+0x4>
10006744:	20000b0d 	.word	0x20000b0d

10006748 <__mutex_exit_veneer>:
10006748:	f85f f000 	ldr.w	pc, [pc]	@ 1000674c <__mutex_exit_veneer+0x4>
1000674c:	20000291 	.word	0x20000291

10006750 <____aeabi_ldivmod_veneer>:
10006750:	f85f f000 	ldr.w	pc, [pc]	@ 10006754 <____aeabi_ldivmod_veneer+0x4>
10006754:	20000dc5 	.word	0x20000dc5

10006758 <__e15_is_bulkin_ep_veneer>:
10006758:	f85f f000 	ldr.w	pc, [pc]	@ 1000675c <__e15_is_bulkin_ep_veneer+0x4>
1000675c:	20000a69 	.word	0x20000a69

10006760 <___hw_endpoint_buffer_control_update32_veneer>:
10006760:	f85f f000 	ldr.w	pc, [pc]	@ 10006764 <___hw_endpoint_buffer_control_update32_veneer+0x4>
10006764:	20000ac5 	.word	0x20000ac5

10006768 <__mutex_try_enter_block_until_veneer>:
10006768:	f85f f000 	ldr.w	pc, [pc]	@ 1000676c <__mutex_try_enter_block_until_veneer+0x4>
1000676c:	20000165 	.word	0x20000165

10006770 <__mutex_try_enter_veneer>:
10006770:	f85f f000 	ldr.w	pc, [pc]	@ 10006774 <__mutex_try_enter_veneer+0x4>
10006774:	20000111 	.word	0x20000111

10006778 <__pre_init_runtime_init_bootrom_reset>:
10006778:	10003a89                                .:..

1000677c <__pre_init_runtime_init_early_resets>:
1000677c:	10003a01                                .:..

10006780 <__pre_init_runtime_init_usb_power_down>:
10006780:	10003a31                                1:..

10006784 <__pre_init_runtime_init_clocks>:
10006784:	10003b1d                                .;..

10006788 <__pre_init_runtime_init_post_clock_resets>:
10006788:	10003a69                                i:..

1000678c <__pre_init_runtime_init_boot_locks_reset>:
1000678c:	10003671                                q6..

10006790 <__pre_init_runtime_init_spin_locks_reset>:
10006790:	10003ab1                                .:..

10006794 <__pre_init_runtime_init_bootrom_locking_enable>:
10006794:	1000365d                                ]6..

10006798 <__pre_init_runtime_init_mutex>:
10006798:	10002c5d                                ],..

1000679c <__pre_init_runtime_init_install_ram_vector_table>:
1000679c:	10003ab5                                .:..

100067a0 <__pre_init_runtime_init_default_alarm_pool>:
100067a0:	10003019                                .0..

100067a4 <__pre_init_first_per_core_initializer>:
100067a4:	100039d1                                .9..

100067a8 <__pre_init_runtime_init_per_core_bootrom_reset>:
100067a8:	10003a9d                                .:..

100067ac <__pre_init_runtime_init_per_core_enable_coprocessors>:
100067ac:	10003a4d                                M:..

100067b0 <__pre_init_spinlock_set_extexclall>:
100067b0:	100027e1                                .'..

100067b4 <__pre_init_runtime_init_per_core_irq_priorities>:
100067b4:	10002809                                .(..

100067b8 <__init_array_start>:
100067b8:	10003815 	.word	0x10003815

100067bc <__frame_dummy_init_array_entry>:
100067bc:	10000211 100009ed                       ........

Disassembly of section .data:

20000110 <mutex_try_enter>:
20000110:	b510      	push	{r4, lr}
20000112:	4603      	mov	r3, r0
20000114:	6802      	ldr	r2, [r0, #0]
20000116:	b082      	sub	sp, #8
20000118:	f3ef 8410 	mrs	r4, PRIMASK
2000011c:	b672      	cpsid	i
2000011e:	e8d2 cfcf 	ldaexb	ip, [r2]
20000122:	2001      	movs	r0, #1
20000124:	f1bc 0f00 	cmp.w	ip, #0
20000128:	d1f9      	bne.n	2000011e <mutex_try_enter+0xe>
2000012a:	e8c2 0f4c 	strexb	ip, r0, [r2]
2000012e:	f1bc 0f00 	cmp.w	ip, #0
20000132:	d1f4      	bne.n	2000011e <mutex_try_enter+0xe>
20000134:	f3bf 8f5f 	dmb	sy
20000138:	685a      	ldr	r2, [r3, #4]
2000013a:	1c50      	adds	r0, r2, #1
2000013c:	d00a      	beq.n	20000154 <mutex_try_enter+0x44>
2000013e:	b101      	cbz	r1, 20000142 <mutex_try_enter+0x32>
20000140:	600a      	str	r2, [r1, #0]
20000142:	2000      	movs	r0, #0
20000144:	2200      	movs	r2, #0
20000146:	681b      	ldr	r3, [r3, #0]
20000148:	e8c3 2f8f 	stlb	r2, [r3]
2000014c:	f384 8810 	msr	PRIMASK, r4
20000150:	b002      	add	sp, #8
20000152:	bd10      	pop	{r4, pc}
20000154:	9301      	str	r3, [sp, #4]
20000156:	f001 f83b 	bl	200011d0 <__ulPortLockGetCurrentOwnerId_veneer>
2000015a:	4602      	mov	r2, r0
2000015c:	9b01      	ldr	r3, [sp, #4]
2000015e:	2001      	movs	r0, #1
20000160:	605a      	str	r2, [r3, #4]
20000162:	e7ef      	b.n	20000144 <mutex_try_enter+0x34>

20000164 <mutex_try_enter_block_until>:
20000164:	b5f0      	push	{r4, r5, r6, r7, lr}
20000166:	461f      	mov	r7, r3
20000168:	4604      	mov	r4, r0
2000016a:	4616      	mov	r6, r2
2000016c:	6803      	ldr	r3, [r0, #0]
2000016e:	b083      	sub	sp, #12
20000170:	f3ef 8210 	mrs	r2, PRIMASK
20000174:	b672      	cpsid	i
20000176:	e8d3 0fcf 	ldaexb	r0, [r3]
2000017a:	2101      	movs	r1, #1
2000017c:	2800      	cmp	r0, #0
2000017e:	d1fa      	bne.n	20000176 <mutex_try_enter_block_until+0x12>
20000180:	e8c3 1f40 	strexb	r0, r1, [r3]
20000184:	2800      	cmp	r0, #0
20000186:	d1f6      	bne.n	20000176 <mutex_try_enter_block_until+0x12>
20000188:	f3bf 8f5f 	dmb	sy
2000018c:	6863      	ldr	r3, [r4, #4]
2000018e:	1c59      	adds	r1, r3, #1
20000190:	d00e      	beq.n	200001b0 <mutex_try_enter_block_until+0x4c>
20000192:	2100      	movs	r1, #0
20000194:	6820      	ldr	r0, [r4, #0]
20000196:	9301      	str	r3, [sp, #4]
20000198:	e8c0 1f8f 	stlb	r1, [r0]
2000019c:	f382 8810 	msr	PRIMASK, r2
200001a0:	f001 f816 	bl	200011d0 <__ulPortLockGetCurrentOwnerId_veneer>
200001a4:	9b01      	ldr	r3, [sp, #4]
200001a6:	4298      	cmp	r0, r3
200001a8:	d110      	bne.n	200001cc <mutex_try_enter_block_until+0x68>
200001aa:	2000      	movs	r0, #0
200001ac:	b003      	add	sp, #12
200001ae:	bdf0      	pop	{r4, r5, r6, r7, pc}
200001b0:	9201      	str	r2, [sp, #4]
200001b2:	f001 f80d 	bl	200011d0 <__ulPortLockGetCurrentOwnerId_veneer>
200001b6:	2300      	movs	r3, #0
200001b8:	6821      	ldr	r1, [r4, #0]
200001ba:	6060      	str	r0, [r4, #4]
200001bc:	e8c1 3f8f 	stlb	r3, [r1]
200001c0:	9a01      	ldr	r2, [sp, #4]
200001c2:	f382 8810 	msr	PRIMASK, r2
200001c6:	2001      	movs	r0, #1
200001c8:	b003      	add	sp, #12
200001ca:	bdf0      	pop	{r4, r5, r6, r7, pc}
200001cc:	f001 f800 	bl	200011d0 <__ulPortLockGetCurrentOwnerId_veneer>
200001d0:	4605      	mov	r5, r0
200001d2:	e006      	b.n	200001e2 <mutex_try_enter_block_until+0x7e>
200001d4:	4632      	mov	r2, r6
200001d6:	463b      	mov	r3, r7
200001d8:	4620      	mov	r0, r4
200001da:	f000 fff1 	bl	200011c0 <__xPortLockInternalSpinUnlockWithBestEffortWaitOrTimeout_veneer>
200001de:	2800      	cmp	r0, #0
200001e0:	d1e3      	bne.n	200001aa <mutex_try_enter_block_until+0x46>
200001e2:	6823      	ldr	r3, [r4, #0]
200001e4:	f3ef 8110 	mrs	r1, PRIMASK
200001e8:	b672      	cpsid	i
200001ea:	e8d3 0fcf 	ldaexb	r0, [r3]
200001ee:	2201      	movs	r2, #1
200001f0:	2800      	cmp	r0, #0
200001f2:	d1fa      	bne.n	200001ea <mutex_try_enter_block_until+0x86>
200001f4:	e8c3 2f40 	strexb	r0, r2, [r3]
200001f8:	2800      	cmp	r0, #0
200001fa:	d1f6      	bne.n	200001ea <mutex_try_enter_block_until+0x86>
200001fc:	f3bf 8f5f 	dmb	sy
20000200:	6863      	ldr	r3, [r4, #4]
20000202:	3301      	adds	r3, #1
20000204:	d1e6      	bne.n	200001d4 <mutex_try_enter_block_until+0x70>
20000206:	2300      	movs	r3, #0
20000208:	6822      	ldr	r2, [r4, #0]
2000020a:	6065      	str	r5, [r4, #4]
2000020c:	e8c2 3f8f 	stlb	r3, [r2]
20000210:	f381 8810 	msr	PRIMASK, r1
20000214:	e7d7      	b.n	200001c6 <mutex_try_enter_block_until+0x62>
20000216:	bf00      	nop

20000218 <mutex_enter_timeout_ms>:
20000218:	b5f8      	push	{r3, r4, r5, r6, r7, lr}
2000021a:	460f      	mov	r7, r1
2000021c:	4604      	mov	r4, r0
2000021e:	f000 ffc7 	bl	200011b0 <__time_us_64_veneer>
20000222:	f44f 737a 	mov.w	r3, #1000	@ 0x3e8
20000226:	4605      	mov	r5, r0
20000228:	f04f 3cff 	mov.w	ip, #4294967295
2000022c:	f06f 4200 	mvn.w	r2, #2147483648	@ 0x80000000
20000230:	fbe7 5103 	umlal	r5, r1, r7, r3
20000234:	45ac      	cmp	ip, r5
20000236:	eb72 0301 	sbcs.w	r3, r2, r1
2000023a:	bf3a      	itte	cc
2000023c:	4665      	movcc	r5, ip
2000023e:	4616      	movcc	r6, r2
20000240:	460e      	movcs	r6, r1
20000242:	f000 ffc5 	bl	200011d0 <__ulPortLockGetCurrentOwnerId_veneer>
20000246:	4607      	mov	r7, r0
20000248:	e005      	b.n	20000256 <mutex_enter_timeout_ms+0x3e>
2000024a:	462a      	mov	r2, r5
2000024c:	4633      	mov	r3, r6
2000024e:	4620      	mov	r0, r4
20000250:	f000 ffb6 	bl	200011c0 <__xPortLockInternalSpinUnlockWithBestEffortWaitOrTimeout_veneer>
20000254:	b9d0      	cbnz	r0, 2000028c <mutex_enter_timeout_ms+0x74>
20000256:	6823      	ldr	r3, [r4, #0]
20000258:	f3ef 8110 	mrs	r1, PRIMASK
2000025c:	b672      	cpsid	i
2000025e:	e8d3 0fcf 	ldaexb	r0, [r3]
20000262:	2201      	movs	r2, #1
20000264:	2800      	cmp	r0, #0
20000266:	d1fa      	bne.n	2000025e <mutex_enter_timeout_ms+0x46>
20000268:	e8c3 2f40 	strexb	r0, r2, [r3]
2000026c:	2800      	cmp	r0, #0
2000026e:	d1f6      	bne.n	2000025e <mutex_enter_timeout_ms+0x46>
20000270:	f3bf 8f5f 	dmb	sy
20000274:	6863      	ldr	r3, [r4, #4]
20000276:	3301      	adds	r3, #1
20000278:	d1e7      	bne.n	2000024a <mutex_enter_timeout_ms+0x32>
2000027a:	2300      	movs	r3, #0
2000027c:	6822      	ldr	r2, [r4, #0]
2000027e:	6067      	str	r7, [r4, #4]
20000280:	e8c2 3f8f 	stlb	r3, [r2]
20000284:	f381 8810 	msr	PRIMASK, r1
20000288:	2001      	movs	r0, #1
2000028a:	bdf8      	pop	{r3, r4, r5, r6, r7, pc}
2000028c:	2000      	movs	r0, #0
2000028e:	bdf8      	pop	{r3, r4, r5, r6, r7, pc}

20000290 <mutex_exit>:
20000290:	6803      	ldr	r3, [r0, #0]
20000292:	f3ef 8110 	mrs	r1, PRIMASK
20000296:	b672      	cpsid	i
20000298:	e8d3 cfcf 	ldaexb	ip, [r3]
2000029c:	2201      	movs	r2, #1
2000029e:	f1bc 0f00 	cmp.w	ip, #0
200002a2:	d1f9      	bne.n	20000298 <mutex_exit+0x8>
200002a4:	e8c3 2f4c 	strexb	ip, r2, [r3]
200002a8:	f1bc 0f00 	cmp.w	ip, #0
200002ac:	d1f4      	bne.n	20000298 <mutex_exit+0x8>
200002ae:	f3bf 8f5f 	dmb	sy
200002b2:	f04f 33ff 	mov.w	r3, #4294967295
200002b6:	6043      	str	r3, [r0, #4]
200002b8:	f000 bf7e 	b.w	200011b8 <__vPortLockInternalSpinUnlockWithNotify_veneer>

200002bc <reset_non_control_endpoints>:
200002bc:	2100      	movs	r1, #0
200002be:	b508      	push	{r3, lr}
200002c0:	4b13      	ldr	r3, [pc, #76]	@ (20000310 <reset_non_control_endpoints+0x54>)
200002c2:	f44f 7270 	mov.w	r2, #960	@ 0x3c0
200002c6:	6099      	str	r1, [r3, #8]
200002c8:	4812      	ldr	r0, [pc, #72]	@ (20000314 <reset_non_control_endpoints+0x58>)
200002ca:	60d9      	str	r1, [r3, #12]
200002cc:	6119      	str	r1, [r3, #16]
200002ce:	6159      	str	r1, [r3, #20]
200002d0:	6199      	str	r1, [r3, #24]
200002d2:	61d9      	str	r1, [r3, #28]
200002d4:	6219      	str	r1, [r3, #32]
200002d6:	6259      	str	r1, [r3, #36]	@ 0x24
200002d8:	6299      	str	r1, [r3, #40]	@ 0x28
200002da:	62d9      	str	r1, [r3, #44]	@ 0x2c
200002dc:	6319      	str	r1, [r3, #48]	@ 0x30
200002de:	6359      	str	r1, [r3, #52]	@ 0x34
200002e0:	6399      	str	r1, [r3, #56]	@ 0x38
200002e2:	63d9      	str	r1, [r3, #60]	@ 0x3c
200002e4:	6419      	str	r1, [r3, #64]	@ 0x40
200002e6:	6459      	str	r1, [r3, #68]	@ 0x44
200002e8:	6499      	str	r1, [r3, #72]	@ 0x48
200002ea:	64d9      	str	r1, [r3, #76]	@ 0x4c
200002ec:	6519      	str	r1, [r3, #80]	@ 0x50
200002ee:	6559      	str	r1, [r3, #84]	@ 0x54
200002f0:	6599      	str	r1, [r3, #88]	@ 0x58
200002f2:	65d9      	str	r1, [r3, #92]	@ 0x5c
200002f4:	6619      	str	r1, [r3, #96]	@ 0x60
200002f6:	6659      	str	r1, [r3, #100]	@ 0x64
200002f8:	6699      	str	r1, [r3, #104]	@ 0x68
200002fa:	66d9      	str	r1, [r3, #108]	@ 0x6c
200002fc:	6719      	str	r1, [r3, #112]	@ 0x70
200002fe:	6759      	str	r1, [r3, #116]	@ 0x74
20000300:	6799      	str	r1, [r3, #120]	@ 0x78
20000302:	67d9      	str	r1, [r3, #124]	@ 0x7c
20000304:	f000 ff50 	bl	200011a8 <__memset_veneer>
20000308:	4b03      	ldr	r3, [pc, #12]	@ (20000318 <reset_non_control_endpoints+0x5c>)
2000030a:	4a04      	ldr	r2, [pc, #16]	@ (2000031c <reset_non_control_endpoints+0x60>)
2000030c:	601a      	str	r2, [r3, #0]
2000030e:	bd08      	pop	{r3, pc}
20000310:	50100000 	.word	0x50100000
20000314:	20001ad0 	.word	0x20001ad0
20000318:	20001e98 	.word	0x20001e98
2000031c:	50100180 	.word	0x50100180

20000320 <hw_handle_buff_status>:
20000320:	e92d 47f0 	stmdb	sp!, {r4, r5, r6, r7, r8, r9, sl, lr}
20000324:	4b1e      	ldr	r3, [pc, #120]	@ (200003a0 <hw_handle_buff_status+0x80>)
20000326:	b084      	sub	sp, #16
20000328:	f8d3 a058 	ldr.w	sl, [r3, #88]	@ 0x58
2000032c:	f1ba 0f00 	cmp.w	sl, #0
20000330:	d021      	beq.n	20000376 <hw_handle_buff_status+0x56>
20000332:	2400      	movs	r4, #0
20000334:	2501      	movs	r5, #1
20000336:	f44f 69e0 	mov.w	r9, #1792	@ 0x700
2000033a:	f8df 806c 	ldr.w	r8, [pc, #108]	@ 200003a8 <hw_handle_buff_status+0x88>
2000033e:	4f19      	ldr	r7, [pc, #100]	@ (200003a4 <hw_handle_buff_status+0x84>)
20000340:	e005      	b.n	2000034e <hw_handle_buff_status+0x2e>
20000342:	3401      	adds	r4, #1
20000344:	b2e4      	uxtb	r4, r4
20000346:	2c20      	cmp	r4, #32
20000348:	ea4f 0545 	mov.w	r5, r5, lsl #1
2000034c:	d013      	beq.n	20000376 <hw_handle_buff_status+0x56>
2000034e:	ea1a 0f05 	tst.w	sl, r5
20000352:	d0f6      	beq.n	20000342 <hw_handle_buff_status+0x22>
20000354:	43e3      	mvns	r3, r4
20000356:	f004 06fe 	and.w	r6, r4, #254	@ 0xfe
2000035a:	f003 0301 	and.w	r3, r3, #1
2000035e:	441e      	add	r6, r3
20000360:	eb07 1646 	add.w	r6, r7, r6, lsl #5
20000364:	4630      	mov	r0, r6
20000366:	f8c8 5058 	str.w	r5, [r8, #88]	@ 0x58
2000036a:	f000 fc01 	bl	20000b70 <hw_endpoint_xfer_continue>
2000036e:	b928      	cbnz	r0, 2000037c <hw_handle_buff_status+0x5c>
20000370:	ea3a 0a05 	bics.w	sl, sl, r5
20000374:	d1e5      	bne.n	20000342 <hw_handle_buff_status+0x22>
20000376:	b004      	add	sp, #16
20000378:	e8bd 87f0 	ldmia.w	sp!, {r4, r5, r6, r7, r8, r9, sl, pc}
2000037c:	78b3      	ldrb	r3, [r6, #2]
2000037e:	8af2      	ldrh	r2, [r6, #22]
20000380:	f88d 3008 	strb.w	r3, [sp, #8]
20000384:	2300      	movs	r3, #0
20000386:	a801      	add	r0, sp, #4
20000388:	2101      	movs	r1, #1
2000038a:	f8ad 9004 	strh.w	r9, [sp, #4]
2000038e:	9203      	str	r2, [sp, #12]
20000390:	f88d 3009 	strb.w	r3, [sp, #9]
20000394:	f000 fc0a 	bl	20000bac <dcd_event_handler>
20000398:	4630      	mov	r0, r6
2000039a:	f000 fb8d 	bl	20000ab8 <hw_endpoint_reset_transfer>
2000039e:	e7e7      	b.n	20000370 <hw_handle_buff_status+0x50>
200003a0:	50110000 	.word	0x50110000
200003a4:	20001a90 	.word	0x20001a90
200003a8:	50113000 	.word	0x50113000

200003ac <dcd_rp2040_irq>:
200003ac:	b570      	push	{r4, r5, r6, lr}
200003ae:	4bb2      	ldr	r3, [pc, #712]	@ (20000678 <dcd_rp2040_irq+0x2cc>)
200003b0:	b086      	sub	sp, #24
200003b2:	f8d3 4098 	ldr.w	r4, [r3, #152]	@ 0x98
200003b6:	f414 3500 	ands.w	r5, r4, #131072	@ 0x20000
200003ba:	d074      	beq.n	200004a6 <dcd_rp2040_irq+0xfa>
200003bc:	4aaf      	ldr	r2, [pc, #700]	@ (2000067c <dcd_rp2040_irq+0x2d0>)
200003be:	4bb0      	ldr	r3, [pc, #704]	@ (20000680 <dcd_rp2040_irq+0x2d4>)
200003c0:	6a90      	ldr	r0, [r2, #40]	@ 0x28
200003c2:	f893 203b 	ldrb.w	r2, [r3, #59]	@ 0x3b
200003c6:	49af      	ldr	r1, [pc, #700]	@ (20000684 <dcd_rp2040_irq+0x2d8>)
200003c8:	2a02      	cmp	r2, #2
200003ca:	6008      	str	r0, [r1, #0]
200003cc:	f000 80e6 	beq.w	2000059c <dcd_rp2040_irq+0x1f0>
200003d0:	2500      	movs	r5, #0
200003d2:	f893 207b 	ldrb.w	r2, [r3, #123]	@ 0x7b
200003d6:	2a02      	cmp	r2, #2
200003d8:	f000 81b2 	beq.w	20000740 <dcd_rp2040_irq+0x394>
200003dc:	f893 20bb 	ldrb.w	r2, [r3, #187]	@ 0xbb
200003e0:	2a02      	cmp	r2, #2
200003e2:	f000 81a2 	beq.w	2000072a <dcd_rp2040_irq+0x37e>
200003e6:	f893 20fb 	ldrb.w	r2, [r3, #251]	@ 0xfb
200003ea:	2a02      	cmp	r2, #2
200003ec:	f000 8192 	beq.w	20000714 <dcd_rp2040_irq+0x368>
200003f0:	f893 213b 	ldrb.w	r2, [r3, #315]	@ 0x13b
200003f4:	2a02      	cmp	r2, #2
200003f6:	f000 8181 	beq.w	200006fc <dcd_rp2040_irq+0x350>
200003fa:	f893 217b 	ldrb.w	r2, [r3, #379]	@ 0x17b
200003fe:	2a02      	cmp	r2, #2
20000400:	f000 8171 	beq.w	200006e6 <dcd_rp2040_irq+0x33a>
20000404:	f893 21bb 	ldrb.w	r2, [r3, #443]	@ 0x1bb
20000408:	2a02      	cmp	r2, #2
2000040a:	f000 8161 	beq.w	200006d0 <dcd_rp2040_irq+0x324>
2000040e:	f893 21fb 	ldrb.w	r2, [r3, #507]	@ 0x1fb
20000412:	2a02      	cmp	r2, #2
20000414:	f000 8150 	beq.w	200006b8 <dcd_rp2040_irq+0x30c>
20000418:	f893 223b 	ldrb.w	r2, [r3, #571]	@ 0x23b
2000041c:	2a02      	cmp	r2, #2
2000041e:	f000 813f 	beq.w	200006a0 <dcd_rp2040_irq+0x2f4>
20000422:	f893 227b 	ldrb.w	r2, [r3, #635]	@ 0x27b
20000426:	2a02      	cmp	r2, #2
20000428:	f000 811a 	beq.w	20000660 <dcd_rp2040_irq+0x2b4>
2000042c:	f893 22bb 	ldrb.w	r2, [r3, #699]	@ 0x2bb
20000430:	2a02      	cmp	r2, #2
20000432:	f000 8109 	beq.w	20000648 <dcd_rp2040_irq+0x29c>
20000436:	f893 22fb 	ldrb.w	r2, [r3, #763]	@ 0x2fb
2000043a:	2a02      	cmp	r2, #2
2000043c:	f000 80f8 	beq.w	20000630 <dcd_rp2040_irq+0x284>
20000440:	f893 233b 	ldrb.w	r2, [r3, #827]	@ 0x33b
20000444:	2a02      	cmp	r2, #2
20000446:	f000 80e7 	beq.w	20000618 <dcd_rp2040_irq+0x26c>
2000044a:	f893 237b 	ldrb.w	r2, [r3, #891]	@ 0x37b
2000044e:	2a02      	cmp	r2, #2
20000450:	f000 80b7 	beq.w	200005c2 <dcd_rp2040_irq+0x216>
20000454:	f893 23bb 	ldrb.w	r2, [r3, #955]	@ 0x3bb
20000458:	2a02      	cmp	r2, #2
2000045a:	f000 817c 	beq.w	20000756 <dcd_rp2040_irq+0x3aa>
2000045e:	f893 23fb 	ldrb.w	r2, [r3, #1019]	@ 0x3fb
20000462:	2a02      	cmp	r2, #2
20000464:	f000 80c7 	beq.w	200005f6 <dcd_rp2040_irq+0x24a>
20000468:	b93d      	cbnz	r5, 2000047a <dcd_rp2040_irq+0xce>
2000046a:	4b87      	ldr	r3, [pc, #540]	@ (20000688 <dcd_rp2040_irq+0x2dc>)
2000046c:	781b      	ldrb	r3, [r3, #0]
2000046e:	b923      	cbnz	r3, 2000047a <dcd_rp2040_irq+0xce>
20000470:	f44f 3200 	mov.w	r2, #131072	@ 0x20000
20000474:	4b85      	ldr	r3, [pc, #532]	@ (2000068c <dcd_rp2040_irq+0x2e0>)
20000476:	f8c3 2090 	str.w	r2, [r3, #144]	@ 0x90
2000047a:	f44f 7240 	mov.w	r2, #768	@ 0x300
2000047e:	4b7e      	ldr	r3, [pc, #504]	@ (20000678 <dcd_rp2040_irq+0x2cc>)
20000480:	2101      	movs	r1, #1
20000482:	6c9b      	ldr	r3, [r3, #72]	@ 0x48
20000484:	a803      	add	r0, sp, #12
20000486:	f3c3 030a 	ubfx	r3, r3, #0, #11
2000048a:	9304      	str	r3, [sp, #16]
2000048c:	f8ad 200c 	strh.w	r2, [sp, #12]
20000490:	f000 fb8c 	bl	20000bac <dcd_event_handler>
20000494:	06e3      	lsls	r3, r4, #27
20000496:	f44f 3500 	mov.w	r5, #131072	@ 0x20000
2000049a:	4e7d      	ldr	r6, [pc, #500]	@ (20000690 <dcd_rp2040_irq+0x2e4>)
2000049c:	d507      	bpl.n	200004ae <dcd_rp2040_irq+0x102>
2000049e:	f7ff ff3f 	bl	20000320 <hw_handle_buff_status>
200004a2:	4635      	mov	r5, r6
200004a4:	e003      	b.n	200004ae <dcd_rp2040_irq+0x102>
200004a6:	06e3      	lsls	r3, r4, #27
200004a8:	f04f 0610 	mov.w	r6, #16
200004ac:	d4f7      	bmi.n	2000049e <dcd_rp2040_irq+0xf2>
200004ae:	03e0      	lsls	r0, r4, #15
200004b0:	d51d      	bpl.n	200004ee <dcd_rp2040_irq+0x142>
200004b2:	4873      	ldr	r0, [pc, #460]	@ (20000680 <dcd_rp2040_irq+0x2d4>)
200004b4:	2602      	movs	r6, #2
200004b6:	7e83      	ldrb	r3, [r0, #26]
200004b8:	f445 3580 	orr.w	r5, r5, #65536	@ 0x10000
200004bc:	bb33      	cbnz	r3, 2000050c <dcd_rp2040_irq+0x160>
200004be:	f04f 0301 	mov.w	r3, #1
200004c2:	2e01      	cmp	r6, #1
200004c4:	70c3      	strb	r3, [r0, #3]
200004c6:	f100 0020 	add.w	r0, r0, #32
200004ca:	d11b      	bne.n	20000504 <dcd_rp2040_irq+0x158>
200004cc:	f44f 62c0 	mov.w	r2, #1536	@ 0x600
200004d0:	4b70      	ldr	r3, [pc, #448]	@ (20000694 <dcd_rp2040_irq+0x2e8>)
200004d2:	f8ad 200c 	strh.w	r2, [sp, #12]
200004d6:	e893 0003 	ldmia.w	r3, {r0, r1}
200004da:	e9cd 0104 	strd	r0, r1, [sp, #16]
200004de:	4631      	mov	r1, r6
200004e0:	a803      	add	r0, sp, #12
200004e2:	f000 fb63 	bl	20000bac <dcd_event_handler>
200004e6:	f44f 3200 	mov.w	r2, #131072	@ 0x20000
200004ea:	4b68      	ldr	r3, [pc, #416]	@ (2000068c <dcd_rp2040_irq+0x2e0>)
200004ec:	651a      	str	r2, [r3, #80]	@ 0x50
200004ee:	04e1      	lsls	r1, r4, #19
200004f0:	d43e      	bmi.n	20000570 <dcd_rp2040_irq+0x1c4>
200004f2:	0462      	lsls	r2, r4, #17
200004f4:	d42e      	bmi.n	20000554 <dcd_rp2040_irq+0x1a8>
200004f6:	0423      	lsls	r3, r4, #16
200004f8:	d41d      	bmi.n	20000536 <dcd_rp2040_irq+0x18a>
200004fa:	42a5      	cmp	r5, r4
200004fc:	f040 81bb 	bne.w	20000876 <dcd_rp2040_irq+0x4ca>
20000500:	b006      	add	sp, #24
20000502:	bd70      	pop	{r4, r5, r6, pc}
20000504:	7e83      	ldrb	r3, [r0, #26]
20000506:	2601      	movs	r6, #1
20000508:	2b00      	cmp	r3, #0
2000050a:	d0d8      	beq.n	200004be <dcd_rp2040_irq+0x112>
2000050c:	4b62      	ldr	r3, [pc, #392]	@ (20000698 <dcd_rp2040_irq+0x2ec>)
2000050e:	4a5a      	ldr	r2, [pc, #360]	@ (20000678 <dcd_rp2040_irq+0x2cc>)
20000510:	661e      	str	r6, [r3, #96]	@ 0x60
20000512:	6e53      	ldr	r3, [r2, #100]	@ 0x64
20000514:	ea36 0303 	bics.w	r3, r6, r3
20000518:	d1fb      	bne.n	20000512 <dcd_rp2040_irq+0x166>
2000051a:	f44f 5240 	mov.w	r2, #12288	@ 0x3000
2000051e:	2100      	movs	r1, #0
20000520:	9001      	str	r0, [sp, #4]
20000522:	f000 facf 	bl	20000ac4 <_hw_endpoint_buffer_control_update32>
20000526:	9801      	ldr	r0, [sp, #4]
20000528:	f000 fac6 	bl	20000ab8 <hw_endpoint_reset_transfer>
2000052c:	4b57      	ldr	r3, [pc, #348]	@ (2000068c <dcd_rp2040_irq+0x2e0>)
2000052e:	9801      	ldr	r0, [sp, #4]
20000530:	665e      	str	r6, [r3, #100]	@ 0x64
20000532:	661e      	str	r6, [r3, #96]	@ 0x60
20000534:	e7c3      	b.n	200004be <dcd_rp2040_irq+0x112>
20000536:	f44f 63a0 	mov.w	r3, #1280	@ 0x500
2000053a:	2101      	movs	r1, #1
2000053c:	a803      	add	r0, sp, #12
2000053e:	f8ad 300c 	strh.w	r3, [sp, #12]
20000542:	f000 fb33 	bl	20000bac <dcd_event_handler>
20000546:	f44f 6200 	mov.w	r2, #2048	@ 0x800
2000054a:	4b50      	ldr	r3, [pc, #320]	@ (2000068c <dcd_rp2040_irq+0x2e0>)
2000054c:	f445 4500 	orr.w	r5, r5, #32768	@ 0x8000
20000550:	651a      	str	r2, [r3, #80]	@ 0x50
20000552:	e7d2      	b.n	200004fa <dcd_rp2040_irq+0x14e>
20000554:	f44f 6380 	mov.w	r3, #1024	@ 0x400
20000558:	2101      	movs	r1, #1
2000055a:	a803      	add	r0, sp, #12
2000055c:	f8ad 300c 	strh.w	r3, [sp, #12]
20000560:	f000 fb24 	bl	20000bac <dcd_event_handler>
20000564:	2210      	movs	r2, #16
20000566:	4b49      	ldr	r3, [pc, #292]	@ (2000068c <dcd_rp2040_irq+0x2e0>)
20000568:	f445 4580 	orr.w	r5, r5, #16384	@ 0x4000
2000056c:	651a      	str	r2, [r3, #80]	@ 0x50
2000056e:	e7c2      	b.n	200004f6 <dcd_rp2040_irq+0x14a>
20000570:	2600      	movs	r6, #0
20000572:	4b41      	ldr	r3, [pc, #260]	@ (20000678 <dcd_rp2040_irq+0x2cc>)
20000574:	f445 5580 	orr.w	r5, r5, #4096	@ 0x1000
20000578:	601e      	str	r6, [r3, #0]
2000057a:	f7ff fe9f 	bl	200002bc <reset_non_control_endpoints>
2000057e:	f44f 7380 	mov.w	r3, #256	@ 0x100
20000582:	2101      	movs	r1, #1
20000584:	a803      	add	r0, sp, #12
20000586:	f8ad 300c 	strh.w	r3, [sp, #12]
2000058a:	f88d 6010 	strb.w	r6, [sp, #16]
2000058e:	f000 fb0d 	bl	20000bac <dcd_event_handler>
20000592:	f44f 2200 	mov.w	r2, #524288	@ 0x80000
20000596:	4b3d      	ldr	r3, [pc, #244]	@ (2000068c <dcd_rp2040_irq+0x2e0>)
20000598:	651a      	str	r2, [r3, #80]	@ 0x50
2000059a:	e7aa      	b.n	200004f2 <dcd_rp2040_irq+0x146>
2000059c:	f893 503a 	ldrb.w	r5, [r3, #58]	@ 0x3a
200005a0:	2d00      	cmp	r5, #0
200005a2:	f43f af16 	beq.w	200003d2 <dcd_rp2040_irq+0x26>
200005a6:	f893 203c 	ldrb.w	r2, [r3, #60]	@ 0x3c
200005aa:	2a00      	cmp	r2, #0
200005ac:	f43f af11 	beq.w	200003d2 <dcd_rp2040_irq+0x26>
200005b0:	2200      	movs	r2, #0
200005b2:	f103 0020 	add.w	r0, r3, #32
200005b6:	f883 203c 	strb.w	r2, [r3, #60]	@ 0x3c
200005ba:	f000 faa7 	bl	20000b0c <hw_endpoint_start_next_buffer>
200005be:	4b30      	ldr	r3, [pc, #192]	@ (20000680 <dcd_rp2040_irq+0x2d4>)
200005c0:	e707      	b.n	200003d2 <dcd_rp2040_irq+0x26>
200005c2:	f893 637a 	ldrb.w	r6, [r3, #890]	@ 0x37a
200005c6:	2e00      	cmp	r6, #0
200005c8:	f43f af44 	beq.w	20000454 <dcd_rp2040_irq+0xa8>
200005cc:	f893 237c 	ldrb.w	r2, [r3, #892]	@ 0x37c
200005d0:	2a00      	cmp	r2, #0
200005d2:	f040 8140 	bne.w	20000856 <dcd_rp2040_irq+0x4aa>
200005d6:	f893 23bb 	ldrb.w	r2, [r3, #955]	@ 0x3bb
200005da:	2a02      	cmp	r2, #2
200005dc:	f040 80c4 	bne.w	20000768 <dcd_rp2040_irq+0x3bc>
200005e0:	f893 23ba 	ldrb.w	r2, [r3, #954]	@ 0x3ba
200005e4:	2a00      	cmp	r2, #0
200005e6:	f040 80bb 	bne.w	20000760 <dcd_rp2040_irq+0x3b4>
200005ea:	f893 23fb 	ldrb.w	r2, [r3, #1019]	@ 0x3fb
200005ee:	2a02      	cmp	r2, #2
200005f0:	f47f af43 	bne.w	2000047a <dcd_rp2040_irq+0xce>
200005f4:	4635      	mov	r5, r6
200005f6:	f893 23fa 	ldrb.w	r2, [r3, #1018]	@ 0x3fa
200005fa:	2a00      	cmp	r2, #0
200005fc:	f43f af34 	beq.w	20000468 <dcd_rp2040_irq+0xbc>
20000600:	f893 23fc 	ldrb.w	r2, [r3, #1020]	@ 0x3fc
20000604:	2a00      	cmp	r2, #0
20000606:	f43f af38 	beq.w	2000047a <dcd_rp2040_irq+0xce>
2000060a:	2200      	movs	r2, #0
2000060c:	4823      	ldr	r0, [pc, #140]	@ (2000069c <dcd_rp2040_irq+0x2f0>)
2000060e:	f883 23fc 	strb.w	r2, [r3, #1020]	@ 0x3fc
20000612:	f000 fa7b 	bl	20000b0c <hw_endpoint_start_next_buffer>
20000616:	e730      	b.n	2000047a <dcd_rp2040_irq+0xce>
20000618:	f893 633a 	ldrb.w	r6, [r3, #826]	@ 0x33a
2000061c:	2e00      	cmp	r6, #0
2000061e:	f43f af14 	beq.w	2000044a <dcd_rp2040_irq+0x9e>
20000622:	f893 233c 	ldrb.w	r2, [r3, #828]	@ 0x33c
20000626:	2a00      	cmp	r2, #0
20000628:	f040 80a9 	bne.w	2000077e <dcd_rp2040_irq+0x3d2>
2000062c:	4635      	mov	r5, r6
2000062e:	e70c      	b.n	2000044a <dcd_rp2040_irq+0x9e>
20000630:	f893 62fa 	ldrb.w	r6, [r3, #762]	@ 0x2fa
20000634:	2e00      	cmp	r6, #0
20000636:	f43f af03 	beq.w	20000440 <dcd_rp2040_irq+0x94>
2000063a:	f893 22fc 	ldrb.w	r2, [r3, #764]	@ 0x2fc
2000063e:	2a00      	cmp	r2, #0
20000640:	f040 80af 	bne.w	200007a2 <dcd_rp2040_irq+0x3f6>
20000644:	4635      	mov	r5, r6
20000646:	e6fb      	b.n	20000440 <dcd_rp2040_irq+0x94>
20000648:	f893 62ba 	ldrb.w	r6, [r3, #698]	@ 0x2ba
2000064c:	2e00      	cmp	r6, #0
2000064e:	f43f aef2 	beq.w	20000436 <dcd_rp2040_irq+0x8a>
20000652:	f893 22bc 	ldrb.w	r2, [r3, #700]	@ 0x2bc
20000656:	2a00      	cmp	r2, #0
20000658:	f040 809a 	bne.w	20000790 <dcd_rp2040_irq+0x3e4>
2000065c:	4635      	mov	r5, r6
2000065e:	e6ea      	b.n	20000436 <dcd_rp2040_irq+0x8a>
20000660:	f893 627a 	ldrb.w	r6, [r3, #634]	@ 0x27a
20000664:	2e00      	cmp	r6, #0
20000666:	f43f aee1 	beq.w	2000042c <dcd_rp2040_irq+0x80>
2000066a:	f893 227c 	ldrb.w	r2, [r3, #636]	@ 0x27c
2000066e:	2a00      	cmp	r2, #0
20000670:	f040 80cd 	bne.w	2000080e <dcd_rp2040_irq+0x462>
20000674:	4635      	mov	r5, r6
20000676:	e6d9      	b.n	2000042c <dcd_rp2040_irq+0x80>
20000678:	50110000 	.word	0x50110000
2000067c:	400b0000 	.word	0x400b0000
20000680:	20001a90 	.word	0x20001a90
20000684:	20001a88 	.word	0x20001a88
20000688:	2002228d 	.word	0x2002228d
2000068c:	50113000 	.word	0x50113000
20000690:	00020010 	.word	0x00020010
20000694:	50100000 	.word	0x50100000
20000698:	50112000 	.word	0x50112000
2000069c:	20001e70 	.word	0x20001e70
200006a0:	f893 623a 	ldrb.w	r6, [r3, #570]	@ 0x23a
200006a4:	2e00      	cmp	r6, #0
200006a6:	f43f aebc 	beq.w	20000422 <dcd_rp2040_irq+0x76>
200006aa:	f893 223c 	ldrb.w	r2, [r3, #572]	@ 0x23c
200006ae:	2a00      	cmp	r2, #0
200006b0:	f040 80a4 	bne.w	200007fc <dcd_rp2040_irq+0x450>
200006b4:	4635      	mov	r5, r6
200006b6:	e6b4      	b.n	20000422 <dcd_rp2040_irq+0x76>
200006b8:	f893 61fa 	ldrb.w	r6, [r3, #506]	@ 0x1fa
200006bc:	2e00      	cmp	r6, #0
200006be:	f43f aeab 	beq.w	20000418 <dcd_rp2040_irq+0x6c>
200006c2:	f893 21fc 	ldrb.w	r2, [r3, #508]	@ 0x1fc
200006c6:	2a00      	cmp	r2, #0
200006c8:	f040 808f 	bne.w	200007ea <dcd_rp2040_irq+0x43e>
200006cc:	4635      	mov	r5, r6
200006ce:	e6a3      	b.n	20000418 <dcd_rp2040_irq+0x6c>
200006d0:	f893 61ba 	ldrb.w	r6, [r3, #442]	@ 0x1ba
200006d4:	2e00      	cmp	r6, #0
200006d6:	f43f ae9a 	beq.w	2000040e <dcd_rp2040_irq+0x62>
200006da:	f893 21bc 	ldrb.w	r2, [r3, #444]	@ 0x1bc
200006de:	2a00      	cmp	r2, #0
200006e0:	d17a      	bne.n	200007d8 <dcd_rp2040_irq+0x42c>
200006e2:	4635      	mov	r5, r6
200006e4:	e693      	b.n	2000040e <dcd_rp2040_irq+0x62>
200006e6:	f893 617a 	ldrb.w	r6, [r3, #378]	@ 0x17a
200006ea:	2e00      	cmp	r6, #0
200006ec:	f43f ae8a 	beq.w	20000404 <dcd_rp2040_irq+0x58>
200006f0:	f893 217c 	ldrb.w	r2, [r3, #380]	@ 0x17c
200006f4:	2a00      	cmp	r2, #0
200006f6:	d166      	bne.n	200007c6 <dcd_rp2040_irq+0x41a>
200006f8:	4635      	mov	r5, r6
200006fa:	e683      	b.n	20000404 <dcd_rp2040_irq+0x58>
200006fc:	f893 613a 	ldrb.w	r6, [r3, #314]	@ 0x13a
20000700:	2e00      	cmp	r6, #0
20000702:	f43f ae7a 	beq.w	200003fa <dcd_rp2040_irq+0x4e>
20000706:	f893 213c 	ldrb.w	r2, [r3, #316]	@ 0x13c
2000070a:	2a00      	cmp	r2, #0
2000070c:	f040 8091 	bne.w	20000832 <dcd_rp2040_irq+0x486>
20000710:	4635      	mov	r5, r6
20000712:	e672      	b.n	200003fa <dcd_rp2040_irq+0x4e>
20000714:	f893 60fa 	ldrb.w	r6, [r3, #250]	@ 0xfa
20000718:	2e00      	cmp	r6, #0
2000071a:	f43f ae69 	beq.w	200003f0 <dcd_rp2040_irq+0x44>
2000071e:	f893 20fc 	ldrb.w	r2, [r3, #252]	@ 0xfc
20000722:	2a00      	cmp	r2, #0
20000724:	d17c      	bne.n	20000820 <dcd_rp2040_irq+0x474>
20000726:	4635      	mov	r5, r6
20000728:	e662      	b.n	200003f0 <dcd_rp2040_irq+0x44>
2000072a:	f893 60ba 	ldrb.w	r6, [r3, #186]	@ 0xba
2000072e:	2e00      	cmp	r6, #0
20000730:	f43f ae59 	beq.w	200003e6 <dcd_rp2040_irq+0x3a>
20000734:	f893 20bc 	ldrb.w	r2, [r3, #188]	@ 0xbc
20000738:	2a00      	cmp	r2, #0
2000073a:	d13b      	bne.n	200007b4 <dcd_rp2040_irq+0x408>
2000073c:	4635      	mov	r5, r6
2000073e:	e652      	b.n	200003e6 <dcd_rp2040_irq+0x3a>
20000740:	f893 607a 	ldrb.w	r6, [r3, #122]	@ 0x7a
20000744:	2e00      	cmp	r6, #0
20000746:	f43f ae49 	beq.w	200003dc <dcd_rp2040_irq+0x30>
2000074a:	f893 207c 	ldrb.w	r2, [r3, #124]	@ 0x7c
2000074e:	2a00      	cmp	r2, #0
20000750:	d178      	bne.n	20000844 <dcd_rp2040_irq+0x498>
20000752:	4635      	mov	r5, r6
20000754:	e642      	b.n	200003dc <dcd_rp2040_irq+0x30>
20000756:	f893 23ba 	ldrb.w	r2, [r3, #954]	@ 0x3ba
2000075a:	2a00      	cmp	r2, #0
2000075c:	f43f ae7f 	beq.w	2000045e <dcd_rp2040_irq+0xb2>
20000760:	f893 23bc 	ldrb.w	r2, [r3, #956]	@ 0x3bc
20000764:	2a00      	cmp	r2, #0
20000766:	d17e      	bne.n	20000866 <dcd_rp2040_irq+0x4ba>
20000768:	f893 23fb 	ldrb.w	r2, [r3, #1019]	@ 0x3fb
2000076c:	2a02      	cmp	r2, #2
2000076e:	f47f ae84 	bne.w	2000047a <dcd_rp2040_irq+0xce>
20000772:	f893 23fa 	ldrb.w	r2, [r3, #1018]	@ 0x3fa
20000776:	2a00      	cmp	r2, #0
20000778:	f43f ae7f 	beq.w	2000047a <dcd_rp2040_irq+0xce>
2000077c:	e740      	b.n	20000600 <dcd_rp2040_irq+0x254>
2000077e:	2200      	movs	r2, #0
20000780:	483f      	ldr	r0, [pc, #252]	@ (20000880 <dcd_rp2040_irq+0x4d4>)
20000782:	f883 233c 	strb.w	r2, [r3, #828]	@ 0x33c
20000786:	4635      	mov	r5, r6
20000788:	f000 f9c0 	bl	20000b0c <hw_endpoint_start_next_buffer>
2000078c:	4b3d      	ldr	r3, [pc, #244]	@ (20000884 <dcd_rp2040_irq+0x4d8>)
2000078e:	e65c      	b.n	2000044a <dcd_rp2040_irq+0x9e>
20000790:	2200      	movs	r2, #0
20000792:	483d      	ldr	r0, [pc, #244]	@ (20000888 <dcd_rp2040_irq+0x4dc>)
20000794:	f883 22bc 	strb.w	r2, [r3, #700]	@ 0x2bc
20000798:	4635      	mov	r5, r6
2000079a:	f000 f9b7 	bl	20000b0c <hw_endpoint_start_next_buffer>
2000079e:	4b39      	ldr	r3, [pc, #228]	@ (20000884 <dcd_rp2040_irq+0x4d8>)
200007a0:	e649      	b.n	20000436 <dcd_rp2040_irq+0x8a>
200007a2:	2200      	movs	r2, #0
200007a4:	4839      	ldr	r0, [pc, #228]	@ (2000088c <dcd_rp2040_irq+0x4e0>)
200007a6:	f883 22fc 	strb.w	r2, [r3, #764]	@ 0x2fc
200007aa:	4635      	mov	r5, r6
200007ac:	f000 f9ae 	bl	20000b0c <hw_endpoint_start_next_buffer>
200007b0:	4b34      	ldr	r3, [pc, #208]	@ (20000884 <dcd_rp2040_irq+0x4d8>)
200007b2:	e645      	b.n	20000440 <dcd_rp2040_irq+0x94>
200007b4:	2200      	movs	r2, #0
200007b6:	4836      	ldr	r0, [pc, #216]	@ (20000890 <dcd_rp2040_irq+0x4e4>)
200007b8:	f883 20bc 	strb.w	r2, [r3, #188]	@ 0xbc
200007bc:	4635      	mov	r5, r6
200007be:	f000 f9a5 	bl	20000b0c <hw_endpoint_start_next_buffer>
200007c2:	4b30      	ldr	r3, [pc, #192]	@ (20000884 <dcd_rp2040_irq+0x4d8>)
200007c4:	e60f      	b.n	200003e6 <dcd_rp2040_irq+0x3a>
200007c6:	2200      	movs	r2, #0
200007c8:	4832      	ldr	r0, [pc, #200]	@ (20000894 <dcd_rp2040_irq+0x4e8>)
200007ca:	f883 217c 	strb.w	r2, [r3, #380]	@ 0x17c
200007ce:	4635      	mov	r5, r6
200007d0:	f000 f99c 	bl	20000b0c <hw_endpoint_start_next_buffer>
200007d4:	4b2b      	ldr	r3, [pc, #172]	@ (20000884 <dcd_rp2040_irq+0x4d8>)
200007d6:	e615      	b.n	20000404 <dcd_rp2040_irq+0x58>
200007d8:	2200      	movs	r2, #0
200007da:	482f      	ldr	r0, [pc, #188]	@ (20000898 <dcd_rp2040_irq+0x4ec>)
200007dc:	f883 21bc 	strb.w	r2, [r3, #444]	@ 0x1bc
200007e0:	4635      	mov	r5, r6
200007e2:	f000 f993 	bl	20000b0c <hw_endpoint_start_next_buffer>
200007e6:	4b27      	ldr	r3, [pc, #156]	@ (20000884 <dcd_rp2040_irq+0x4d8>)
200007e8:	e611      	b.n	2000040e <dcd_rp2040_irq+0x62>
200007ea:	2200      	movs	r2, #0
200007ec:	482b      	ldr	r0, [pc, #172]	@ (2000089c <dcd_rp2040_irq+0x4f0>)
200007ee:	f883 21fc 	strb.w	r2, [r3, #508]	@ 0x1fc
200007f2:	4635      	mov	r5, r6
200007f4:	f000 f98a 	bl	20000b0c <hw_endpoint_start_next_buffer>
200007f8:	4b22      	ldr	r3, [pc, #136]	@ (20000884 <dcd_rp2040_irq+0x4d8>)
200007fa:	e60d      	b.n	20000418 <dcd_rp2040_irq+0x6c>
200007fc:	2200      	movs	r2, #0
200007fe:	4828      	ldr	r0, [pc, #160]	@ (200008a0 <dcd_rp2040_irq+0x4f4>)
20000800:	f883 223c 	strb.w	r2, [r3, #572]	@ 0x23c
20000804:	4635      	mov	r5, r6
20000806:	f000 f981 	bl	20000b0c <hw_endpoint_start_next_buffer>
2000080a:	4b1e      	ldr	r3, [pc, #120]	@ (20000884 <dcd_rp2040_irq+0x4d8>)
2000080c:	e609      	b.n	20000422 <dcd_rp2040_irq+0x76>
2000080e:	2200      	movs	r2, #0
20000810:	4824      	ldr	r0, [pc, #144]	@ (200008a4 <dcd_rp2040_irq+0x4f8>)
20000812:	f883 227c 	strb.w	r2, [r3, #636]	@ 0x27c
20000816:	4635      	mov	r5, r6
20000818:	f000 f978 	bl	20000b0c <hw_endpoint_start_next_buffer>
2000081c:	4b19      	ldr	r3, [pc, #100]	@ (20000884 <dcd_rp2040_irq+0x4d8>)
2000081e:	e605      	b.n	2000042c <dcd_rp2040_irq+0x80>
20000820:	2200      	movs	r2, #0
20000822:	4821      	ldr	r0, [pc, #132]	@ (200008a8 <dcd_rp2040_irq+0x4fc>)
20000824:	f883 20fc 	strb.w	r2, [r3, #252]	@ 0xfc
20000828:	4635      	mov	r5, r6
2000082a:	f000 f96f 	bl	20000b0c <hw_endpoint_start_next_buffer>
2000082e:	4b15      	ldr	r3, [pc, #84]	@ (20000884 <dcd_rp2040_irq+0x4d8>)
20000830:	e5de      	b.n	200003f0 <dcd_rp2040_irq+0x44>
20000832:	2200      	movs	r2, #0
20000834:	481d      	ldr	r0, [pc, #116]	@ (200008ac <dcd_rp2040_irq+0x500>)
20000836:	f883 213c 	strb.w	r2, [r3, #316]	@ 0x13c
2000083a:	4635      	mov	r5, r6
2000083c:	f000 f966 	bl	20000b0c <hw_endpoint_start_next_buffer>
20000840:	4b10      	ldr	r3, [pc, #64]	@ (20000884 <dcd_rp2040_irq+0x4d8>)
20000842:	e5da      	b.n	200003fa <dcd_rp2040_irq+0x4e>
20000844:	2200      	movs	r2, #0
20000846:	481a      	ldr	r0, [pc, #104]	@ (200008b0 <dcd_rp2040_irq+0x504>)
20000848:	f883 207c 	strb.w	r2, [r3, #124]	@ 0x7c
2000084c:	4635      	mov	r5, r6
2000084e:	f000 f95d 	bl	20000b0c <hw_endpoint_start_next_buffer>
20000852:	4b0c      	ldr	r3, [pc, #48]	@ (20000884 <dcd_rp2040_irq+0x4d8>)
20000854:	e5c2      	b.n	200003dc <dcd_rp2040_irq+0x30>
20000856:	2200      	movs	r2, #0
20000858:	4816      	ldr	r0, [pc, #88]	@ (200008b4 <dcd_rp2040_irq+0x508>)
2000085a:	f883 237c 	strb.w	r2, [r3, #892]	@ 0x37c
2000085e:	f000 f955 	bl	20000b0c <hw_endpoint_start_next_buffer>
20000862:	4b08      	ldr	r3, [pc, #32]	@ (20000884 <dcd_rp2040_irq+0x4d8>)
20000864:	e6b7      	b.n	200005d6 <dcd_rp2040_irq+0x22a>
20000866:	2200      	movs	r2, #0
20000868:	4813      	ldr	r0, [pc, #76]	@ (200008b8 <dcd_rp2040_irq+0x50c>)
2000086a:	f883 23bc 	strb.w	r2, [r3, #956]	@ 0x3bc
2000086e:	f000 f94d 	bl	20000b0c <hw_endpoint_start_next_buffer>
20000872:	4b04      	ldr	r3, [pc, #16]	@ (20000884 <dcd_rp2040_irq+0x4d8>)
20000874:	e778      	b.n	20000768 <dcd_rp2040_irq+0x3bc>
20000876:	4811      	ldr	r0, [pc, #68]	@ (200008bc <dcd_rp2040_irq+0x510>)
20000878:	ea85 0104 	eor.w	r1, r5, r4
2000087c:	f000 fcac 	bl	200011d8 <__panic_veneer>
20000880:	20001db0 	.word	0x20001db0
20000884:	20001a90 	.word	0x20001a90
20000888:	20001d30 	.word	0x20001d30
2000088c:	20001d70 	.word	0x20001d70
20000890:	20001b30 	.word	0x20001b30
20000894:	20001bf0 	.word	0x20001bf0
20000898:	20001c30 	.word	0x20001c30
2000089c:	20001c70 	.word	0x20001c70
200008a0:	20001cb0 	.word	0x20001cb0
200008a4:	20001cf0 	.word	0x20001cf0
200008a8:	20001b70 	.word	0x20001b70
200008ac:	20001bb0 	.word	0x20001bb0
200008b0:	20001af0 	.word	0x20001af0
200008b4:	20001df0 	.word	0x20001df0
200008b8:	20001e30 	.word	0x20001e30
200008bc:	10006904 	.word	0x10006904

200008c0 <prepare_ep_buffer>:
200008c0:	e92d 43f0 	stmdb	sp!, {r4, r5, r6, r7, r8, r9, lr}
200008c4:	8a82      	ldrh	r2, [r0, #20]
200008c6:	f8b0 e018 	ldrh.w	lr, [r0, #24]
200008ca:	4603      	mov	r3, r0
200008cc:	4596      	cmp	lr, r2
200008ce:	78c0      	ldrb	r0, [r0, #3]
200008d0:	bf28      	it	cs
200008d2:	4696      	movcs	lr, r2
200008d4:	1e04      	subs	r4, r0, #0
200008d6:	bf18      	it	ne
200008d8:	2401      	movne	r4, #1
200008da:	f080 0001 	eor.w	r0, r0, #1
200008de:	460d      	mov	r5, r1
200008e0:	eba2 020e 	sub.w	r2, r2, lr
200008e4:	7859      	ldrb	r1, [r3, #1]
200008e6:	70d8      	strb	r0, [r3, #3]
200008e8:	b292      	uxth	r2, r2
200008ea:	f44e 6080 	orr.w	r0, lr, #1024	@ 0x400
200008ee:	829a      	strh	r2, [r3, #20]
200008f0:	ea40 3044 	orr.w	r0, r0, r4, lsl #13
200008f4:	bba1      	cbnz	r1, 20000960 <prepare_ep_buffer+0xa0>
200008f6:	6919      	ldr	r1, [r3, #16]
200008f8:	f1be 0f00 	cmp.w	lr, #0
200008fc:	d02c      	beq.n	20000958 <prepare_ep_buffer+0x98>
200008fe:	f10e 34ff 	add.w	r4, lr, #4294967295
20000902:	68da      	ldr	r2, [r3, #12]
20000904:	2c05      	cmp	r4, #5
20000906:	46a1      	mov	r9, r4
20000908:	eb02 1885 	add.w	r8, r2, r5, lsl #6
2000090c:	d92f      	bls.n	2000096e <prepare_ep_buffer+0xae>
2000090e:	eba8 0401 	sub.w	r4, r8, r1
20000912:	3c01      	subs	r4, #1
20000914:	2c02      	cmp	r4, #2
20000916:	46c4      	mov	ip, r8
20000918:	460a      	mov	r2, r1
2000091a:	d928      	bls.n	2000096e <prepare_ep_buffer+0xae>
2000091c:	ea4f 079e 	mov.w	r7, lr, lsr #2
20000920:	eb01 0687 	add.w	r6, r1, r7, lsl #2
20000924:	f852 4b04 	ldr.w	r4, [r2], #4
20000928:	4296      	cmp	r6, r2
2000092a:	f84c 4b04 	str.w	r4, [ip], #4
2000092e:	d1f9      	bne.n	20000924 <prepare_ep_buffer+0x64>
20000930:	ebbe 0f87 	cmp.w	lr, r7, lsl #2
20000934:	d00e      	beq.n	20000954 <prepare_ep_buffer+0x94>
20000936:	f811 2027 	ldrb.w	r2, [r1, r7, lsl #2]
2000093a:	ebb9 0187 	subs.w	r1, r9, r7, lsl #2
2000093e:	f808 2027 	strb.w	r2, [r8, r7, lsl #2]
20000942:	eb08 0287 	add.w	r2, r8, r7, lsl #2
20000946:	d005      	beq.n	20000954 <prepare_ep_buffer+0x94>
20000948:	7874      	ldrb	r4, [r6, #1]
2000094a:	2901      	cmp	r1, #1
2000094c:	7054      	strb	r4, [r2, #1]
2000094e:	d001      	beq.n	20000954 <prepare_ep_buffer+0x94>
20000950:	78b1      	ldrb	r1, [r6, #2]
20000952:	7091      	strb	r1, [r2, #2]
20000954:	6919      	ldr	r1, [r3, #16]
20000956:	8a9a      	ldrh	r2, [r3, #20]
20000958:	4471      	add	r1, lr
2000095a:	6119      	str	r1, [r3, #16]
2000095c:	f440 4000 	orr.w	r0, r0, #32768	@ 0x8000
20000960:	b90a      	cbnz	r2, 20000966 <prepare_ep_buffer+0xa6>
20000962:	f440 4080 	orr.w	r0, r0, #16384	@ 0x4000
20000966:	b105      	cbz	r5, 2000096a <prepare_ep_buffer+0xaa>
20000968:	0400      	lsls	r0, r0, #16
2000096a:	e8bd 83f0 	ldmia.w	sp!, {r4, r5, r6, r7, r8, r9, pc}
2000096e:	f108 32ff 	add.w	r2, r8, #4294967295
20000972:	eb01 060e 	add.w	r6, r1, lr
20000976:	f811 4b01 	ldrb.w	r4, [r1], #1
2000097a:	42b1      	cmp	r1, r6
2000097c:	f802 4f01 	strb.w	r4, [r2, #1]!
20000980:	d1f9      	bne.n	20000976 <prepare_ep_buffer+0xb6>
20000982:	e7e7      	b.n	20000954 <prepare_ep_buffer+0x94>

20000984 <sync_ep_buffer>:
20000984:	6883      	ldr	r3, [r0, #8]
20000986:	e92d 41f0 	stmdb	sp!, {r4, r5, r6, r7, r8, lr}
2000098a:	4605      	mov	r5, r0
2000098c:	6818      	ldr	r0, [r3, #0]
2000098e:	b101      	cbz	r1, 20000992 <sync_ep_buffer+0xe>
20000990:	0c00      	lsrs	r0, r0, #16
20000992:	786a      	ldrb	r2, [r5, #1]
20000994:	f3c0 0009 	ubfx	r0, r0, #0, #10
20000998:	b94a      	cbnz	r2, 200009ae <sync_ep_buffer+0x2a>
2000099a:	8aeb      	ldrh	r3, [r5, #22]
2000099c:	4403      	add	r3, r0
2000099e:	82eb      	strh	r3, [r5, #22]
200009a0:	8b2b      	ldrh	r3, [r5, #24]
200009a2:	4283      	cmp	r3, r0
200009a4:	bf84      	itt	hi
200009a6:	2300      	movhi	r3, #0
200009a8:	82ab      	strhhi	r3, [r5, #20]
200009aa:	e8bd 81f0 	ldmia.w	sp!, {r4, r5, r6, r7, r8, pc}
200009ae:	f8d5 c010 	ldr.w	ip, [r5, #16]
200009b2:	b388      	cbz	r0, 20000a18 <sync_ep_buffer+0x94>
200009b4:	1e42      	subs	r2, r0, #1
200009b6:	68eb      	ldr	r3, [r5, #12]
200009b8:	2a05      	cmp	r2, #5
200009ba:	4616      	mov	r6, r2
200009bc:	eb03 1e81 	add.w	lr, r3, r1, lsl #6
200009c0:	d931      	bls.n	20000a26 <sync_ep_buffer+0xa2>
200009c2:	0189      	lsls	r1, r1, #6
200009c4:	1c4c      	adds	r4, r1, #1
200009c6:	441c      	add	r4, r3
200009c8:	ebac 0404 	sub.w	r4, ip, r4
200009cc:	2c02      	cmp	r4, #2
200009ce:	4662      	mov	r2, ip
200009d0:	d929      	bls.n	20000a26 <sync_ep_buffer+0xa2>
200009d2:	f400 717f 	and.w	r1, r0, #1020	@ 0x3fc
200009d6:	4673      	mov	r3, lr
200009d8:	460f      	mov	r7, r1
200009da:	ea4f 0890 	mov.w	r8, r0, lsr #2
200009de:	185c      	adds	r4, r3, r1
200009e0:	f853 1b04 	ldr.w	r1, [r3], #4
200009e4:	42a3      	cmp	r3, r4
200009e6:	f842 1b04 	str.w	r1, [r2], #4
200009ea:	d1f9      	bne.n	200009e0 <sync_ep_buffer+0x5c>
200009ec:	42b8      	cmp	r0, r7
200009ee:	d011      	beq.n	20000a14 <sync_ep_buffer+0x90>
200009f0:	f81e 3028 	ldrb.w	r3, [lr, r8, lsl #2]
200009f4:	44be      	add	lr, r7
200009f6:	f80c 3028 	strb.w	r3, [ip, r8, lsl #2]
200009fa:	1bf3      	subs	r3, r6, r7
200009fc:	44bc      	add	ip, r7
200009fe:	d009      	beq.n	20000a14 <sync_ep_buffer+0x90>
20000a00:	f89e 2001 	ldrb.w	r2, [lr, #1]
20000a04:	2b01      	cmp	r3, #1
20000a06:	f88c 2001 	strb.w	r2, [ip, #1]
20000a0a:	d003      	beq.n	20000a14 <sync_ep_buffer+0x90>
20000a0c:	f89e 3002 	ldrb.w	r3, [lr, #2]
20000a10:	f88c 3002 	strb.w	r3, [ip, #2]
20000a14:	f8d5 c010 	ldr.w	ip, [r5, #16]
20000a18:	8aea      	ldrh	r2, [r5, #22]
20000a1a:	eb0c 0300 	add.w	r3, ip, r0
20000a1e:	4402      	add	r2, r0
20000a20:	82ea      	strh	r2, [r5, #22]
20000a22:	612b      	str	r3, [r5, #16]
20000a24:	e7bc      	b.n	200009a0 <sync_ep_buffer+0x1c>
20000a26:	f10c 3cff 	add.w	ip, ip, #4294967295
20000a2a:	eb0e 0200 	add.w	r2, lr, r0
20000a2e:	f81e 3b01 	ldrb.w	r3, [lr], #1
20000a32:	4572      	cmp	r2, lr
20000a34:	f80c 3f01 	strb.w	r3, [ip, #1]!
20000a38:	d1f9      	bne.n	20000a2e <sync_ep_buffer+0xaa>
20000a3a:	e7eb      	b.n	20000a14 <sync_ep_buffer+0x90>

20000a3c <_hw_endpoint_xfer_sync>:
20000a3c:	b510      	push	{r4, lr}
20000a3e:	4604      	mov	r4, r0
20000a40:	6883      	ldr	r3, [r0, #8]
20000a42:	2100      	movs	r1, #0
20000a44:	681b      	ldr	r3, [r3, #0]
20000a46:	f7ff ff9d 	bl	20000984 <sync_ep_buffer>
20000a4a:	6863      	ldr	r3, [r4, #4]
20000a4c:	681b      	ldr	r3, [r3, #0]
20000a4e:	005b      	lsls	r3, r3, #1
20000a50:	d502      	bpl.n	20000a58 <_hw_endpoint_xfer_sync+0x1c>
20000a52:	8b23      	ldrh	r3, [r4, #24]
20000a54:	4283      	cmp	r3, r0
20000a56:	d000      	beq.n	20000a5a <_hw_endpoint_xfer_sync+0x1e>
20000a58:	bd10      	pop	{r4, pc}
20000a5a:	4620      	mov	r0, r4
20000a5c:	e8bd 4010 	ldmia.w	sp!, {r4, lr}
20000a60:	2101      	movs	r1, #1
20000a62:	f7ff bf8f 	b.w	20000984 <sync_ep_buffer>
20000a66:	bf00      	nop

20000a68 <e15_is_bulkin_ep>:
20000a68:	4b08      	ldr	r3, [pc, #32]	@ (20000a8c <e15_is_bulkin_ep+0x24>)
20000a6a:	6c1b      	ldr	r3, [r3, #64]	@ 0x40
20000a6c:	f013 0302 	ands.w	r3, r3, #2
20000a70:	d102      	bne.n	20000a78 <e15_is_bulkin_ep+0x10>
20000a72:	7882      	ldrb	r2, [r0, #2]
20000a74:	09d2      	lsrs	r2, r2, #7
20000a76:	d101      	bne.n	20000a7c <e15_is_bulkin_ep+0x14>
20000a78:	2000      	movs	r0, #0
20000a7a:	4770      	bx	lr
20000a7c:	7ec0      	ldrb	r0, [r0, #27]
20000a7e:	f1a0 0002 	sub.w	r0, r0, #2
20000a82:	fab0 f080 	clz	r0, r0
20000a86:	0940      	lsrs	r0, r0, #5
20000a88:	4770      	bx	lr
20000a8a:	bf00      	nop
20000a8c:	50110000 	.word	0x50110000

20000a90 <e15_is_critical_frame_period>:
20000a90:	b508      	push	{r3, lr}
20000a92:	f7ff ffe9 	bl	20000a68 <e15_is_bulkin_ep>
20000a96:	b150      	cbz	r0, 20000aae <e15_is_critical_frame_period+0x1e>
20000a98:	4a05      	ldr	r2, [pc, #20]	@ (20000ab0 <e15_is_critical_frame_period+0x20>)
20000a9a:	4b06      	ldr	r3, [pc, #24]	@ (20000ab4 <e15_is_critical_frame_period+0x24>)
20000a9c:	6a90      	ldr	r0, [r2, #40]	@ 0x28
20000a9e:	681b      	ldr	r3, [r3, #0]
20000aa0:	f5a0 7048 	sub.w	r0, r0, #800	@ 0x320
20000aa4:	1ac0      	subs	r0, r0, r3
20000aa6:	28c6      	cmp	r0, #198	@ 0xc6
20000aa8:	bf8c      	ite	hi
20000aaa:	2000      	movhi	r0, #0
20000aac:	2001      	movls	r0, #1
20000aae:	bd08      	pop	{r3, pc}
20000ab0:	400b0000 	.word	0x400b0000
20000ab4:	20001a88 	.word	0x20001a88

20000ab8 <hw_endpoint_reset_transfer>:
20000ab8:	2300      	movs	r3, #0
20000aba:	e9c0 3304 	strd	r3, r3, [r0, #16]
20000abe:	7683      	strb	r3, [r0, #26]
20000ac0:	4770      	bx	lr
20000ac2:	bf00      	nop

20000ac4 <_hw_endpoint_buffer_control_update32>:
20000ac4:	b508      	push	{r3, lr}
20000ac6:	6883      	ldr	r3, [r0, #8]
20000ac8:	b119      	cbz	r1, 20000ad2 <_hw_endpoint_buffer_control_update32+0xe>
20000aca:	f8d3 c000 	ldr.w	ip, [r3]
20000ace:	ea01 010c 	and.w	r1, r1, ip
20000ad2:	b18a      	cbz	r2, 20000af8 <_hw_endpoint_buffer_control_update32+0x34>
20000ad4:	4311      	orrs	r1, r2
20000ad6:	0552      	lsls	r2, r2, #21
20000ad8:	d50e      	bpl.n	20000af8 <_hw_endpoint_buffer_control_update32+0x34>
20000ada:	681a      	ldr	r2, [r3, #0]
20000adc:	0552      	lsls	r2, r2, #21
20000ade:	d40d      	bmi.n	20000afc <_hw_endpoint_buffer_control_update32+0x38>
20000ae0:	4a08      	ldr	r2, [pc, #32]	@ (20000b04 <_hw_endpoint_buffer_control_update32+0x40>)
20000ae2:	f421 6c80 	bic.w	ip, r1, #1024	@ 0x400
20000ae6:	f8c3 c000 	str.w	ip, [r3]
20000aea:	6c12      	ldr	r2, [r2, #64]	@ 0x40
20000aec:	0792      	lsls	r2, r2, #30
20000aee:	d403      	bmi.n	20000af8 <_hw_endpoint_buffer_control_update32+0x34>
20000af0:	230c      	movs	r3, #12
20000af2:	3b03      	subs	r3, #3
20000af4:	d2fd      	bcs.n	20000af2 <_hw_endpoint_buffer_control_update32+0x2e>
20000af6:	6883      	ldr	r3, [r0, #8]
20000af8:	6019      	str	r1, [r3, #0]
20000afa:	bd08      	pop	{r3, pc}
20000afc:	7881      	ldrb	r1, [r0, #2]
20000afe:	4802      	ldr	r0, [pc, #8]	@ (20000b08 <_hw_endpoint_buffer_control_update32+0x44>)
20000b00:	f000 fb6a 	bl	200011d8 <__panic_veneer>
20000b04:	50110000 	.word	0x50110000
20000b08:	10006918 	.word	0x10006918

20000b0c <hw_endpoint_start_next_buffer>:
20000b0c:	b530      	push	{r4, r5, lr}
20000b0e:	6843      	ldr	r3, [r0, #4]
20000b10:	2100      	movs	r1, #0
20000b12:	b083      	sub	sp, #12
20000b14:	4605      	mov	r5, r0
20000b16:	681c      	ldr	r4, [r3, #0]
20000b18:	f7ff fed2 	bl	200008c0 <prepare_ep_buffer>
20000b1c:	4b13      	ldr	r3, [pc, #76]	@ (20000b6c <hw_endpoint_start_next_buffer+0x60>)
20000b1e:	f440 5280 	orr.w	r2, r0, #4096	@ 0x1000
20000b22:	6c19      	ldr	r1, [r3, #64]	@ 0x40
20000b24:	78ab      	ldrb	r3, [r5, #2]
20000b26:	0789      	lsls	r1, r1, #30
20000b28:	d50e      	bpl.n	20000b48 <hw_endpoint_start_next_buffer+0x3c>
20000b2a:	065b      	lsls	r3, r3, #25
20000b2c:	d00e      	beq.n	20000b4c <hw_endpoint_start_next_buffer+0x40>
20000b2e:	f024 44a0 	bic.w	r4, r4, #1342177280	@ 0x50000000
20000b32:	f044 5400 	orr.w	r4, r4, #536870912	@ 0x20000000
20000b36:	2100      	movs	r1, #0
20000b38:	4628      	mov	r0, r5
20000b3a:	686b      	ldr	r3, [r5, #4]
20000b3c:	601c      	str	r4, [r3, #0]
20000b3e:	b003      	add	sp, #12
20000b40:	e8bd 4030 	ldmia.w	sp!, {r4, r5, lr}
20000b44:	f7ff bfbe 	b.w	20000ac4 <_hw_endpoint_buffer_control_update32>
20000b48:	09db      	lsrs	r3, r3, #7
20000b4a:	d0f0      	beq.n	20000b2e <hw_endpoint_start_next_buffer+0x22>
20000b4c:	8aab      	ldrh	r3, [r5, #20]
20000b4e:	2b00      	cmp	r3, #0
20000b50:	d0ed      	beq.n	20000b2e <hw_endpoint_start_next_buffer+0x22>
20000b52:	2101      	movs	r1, #1
20000b54:	4628      	mov	r0, r5
20000b56:	9201      	str	r2, [sp, #4]
20000b58:	f7ff feb2 	bl	200008c0 <prepare_ep_buffer>
20000b5c:	9a01      	ldr	r2, [sp, #4]
20000b5e:	f024 5400 	bic.w	r4, r4, #536870912	@ 0x20000000
20000b62:	4302      	orrs	r2, r0
20000b64:	f044 44a0 	orr.w	r4, r4, #1342177280	@ 0x50000000
20000b68:	e7e5      	b.n	20000b36 <hw_endpoint_start_next_buffer+0x2a>
20000b6a:	bf00      	nop
20000b6c:	50110000 	.word	0x50110000

20000b70 <hw_endpoint_xfer_continue>:
20000b70:	b538      	push	{r3, r4, r5, lr}
20000b72:	7e85      	ldrb	r5, [r0, #26]
20000b74:	4604      	mov	r4, r0
20000b76:	b195      	cbz	r5, 20000b9e <hw_endpoint_xfer_continue+0x2e>
20000b78:	f7ff ff60 	bl	20000a3c <_hw_endpoint_xfer_sync>
20000b7c:	8aa3      	ldrh	r3, [r4, #20]
20000b7e:	b90b      	cbnz	r3, 20000b84 <hw_endpoint_xfer_continue+0x14>
20000b80:	4628      	mov	r0, r5
20000b82:	bd38      	pop	{r3, r4, r5, pc}
20000b84:	4620      	mov	r0, r4
20000b86:	f7ff ff83 	bl	20000a90 <e15_is_critical_frame_period>
20000b8a:	b120      	cbz	r0, 20000b96 <hw_endpoint_xfer_continue+0x26>
20000b8c:	2301      	movs	r3, #1
20000b8e:	7723      	strb	r3, [r4, #28]
20000b90:	2500      	movs	r5, #0
20000b92:	4628      	mov	r0, r5
20000b94:	bd38      	pop	{r3, r4, r5, pc}
20000b96:	4620      	mov	r0, r4
20000b98:	f7ff ffb8 	bl	20000b0c <hw_endpoint_start_next_buffer>
20000b9c:	e7f8      	b.n	20000b90 <hw_endpoint_xfer_continue+0x20>
20000b9e:	7881      	ldrb	r1, [r0, #2]
20000ba0:	4801      	ldr	r0, [pc, #4]	@ (20000ba8 <hw_endpoint_xfer_continue+0x38>)
20000ba2:	f000 fb19 	bl	200011d8 <__panic_veneer>
20000ba6:	bf00      	nop
20000ba8:	10006938 	.word	0x10006938

20000bac <dcd_event_handler>:
20000bac:	b570      	push	{r4, r5, r6, lr}
20000bae:	7843      	ldrb	r3, [r0, #1]
20000bb0:	4604      	mov	r4, r0
20000bb2:	3b02      	subs	r3, #2
20000bb4:	460e      	mov	r6, r1
20000bb6:	b086      	sub	sp, #24
20000bb8:	2b04      	cmp	r3, #4
20000bba:	d813      	bhi.n	20000be4 <dcd_event_handler+0x38>
20000bbc:	e8df f003 	tbb	[pc, r3]
20000bc0:	72694903 	.word	0x72694903
20000bc4:	44          	.byte	0x44
20000bc5:	00          	.byte	0x00
20000bc6:	2100      	movs	r1, #0
20000bc8:	4b78      	ldr	r3, [pc, #480]	@ (20000dac <dcd_event_handler+0x200>)
20000bca:	781a      	ldrb	r2, [r3, #0]
20000bcc:	f022 0201 	bic.w	r2, r2, #1
20000bd0:	701a      	strb	r2, [r3, #0]
20000bd2:	781a      	ldrb	r2, [r3, #0]
20000bd4:	f022 0202 	bic.w	r2, r2, #2
20000bd8:	701a      	strb	r2, [r3, #0]
20000bda:	7059      	strb	r1, [r3, #1]
20000bdc:	781a      	ldrb	r2, [r3, #0]
20000bde:	f361 0282 	bfi	r2, r1, #2, #1
20000be2:	701a      	strb	r2, [r3, #0]
20000be4:	4b72      	ldr	r3, [pc, #456]	@ (20000db0 <dcd_event_handler+0x204>)
20000be6:	681b      	ldr	r3, [r3, #0]
20000be8:	695a      	ldr	r2, [r3, #20]
20000bea:	f3ef 8010 	mrs	r0, PRIMASK
20000bee:	b672      	cpsid	i
20000bf0:	e8d2 cfcf 	ldaexb	ip, [r2]
20000bf4:	2101      	movs	r1, #1
20000bf6:	f1bc 0f00 	cmp.w	ip, #0
20000bfa:	d1f9      	bne.n	20000bf0 <dcd_event_handler+0x44>
20000bfc:	e8c2 1f4c 	strexb	ip, r1, [r2]
20000c00:	f1bc 0f00 	cmp.w	ip, #0
20000c04:	d1f4      	bne.n	20000bf0 <dcd_event_handler+0x44>
20000c06:	f3bf 8f5f 	dmb	sy
20000c0a:	4621      	mov	r1, r4
20000c0c:	6198      	str	r0, [r3, #24]
20000c0e:	4618      	mov	r0, r3
20000c10:	9301      	str	r3, [sp, #4]
20000c12:	f000 fae5 	bl	200011e0 <__tu_fifo_write_veneer>
20000c16:	9b01      	ldr	r3, [sp, #4]
20000c18:	2200      	movs	r2, #0
20000c1a:	6959      	ldr	r1, [r3, #20]
20000c1c:	e8c1 2f8f 	stlb	r2, [r1]
20000c20:	699b      	ldr	r3, [r3, #24]
20000c22:	f383 8810 	msr	PRIMASK, r3
20000c26:	b940      	cbnz	r0, 20000c3a <dcd_event_handler+0x8e>
20000c28:	f04f 23e0 	mov.w	r3, #3758153728	@ 0xe000e000
20000c2c:	f8d3 3df0 	ldr.w	r3, [r3, #3568]	@ 0xdf0
20000c30:	07db      	lsls	r3, r3, #31
20000c32:	d507      	bpl.n	20000c44 <dcd_event_handler+0x98>
20000c34:	be00      	bkpt	0x0000
20000c36:	b006      	add	sp, #24
20000c38:	bd70      	pop	{r4, r5, r6, pc}
20000c3a:	4632      	mov	r2, r6
20000c3c:	7861      	ldrb	r1, [r4, #1]
20000c3e:	7820      	ldrb	r0, [r4, #0]
20000c40:	f000 fac2 	bl	200011c8 <__tud_event_hook_cb_veneer>
20000c44:	b006      	add	sp, #24
20000c46:	bd70      	pop	{r4, r5, r6, pc}
20000c48:	4a5a      	ldr	r2, [pc, #360]	@ (20000db4 <dcd_event_handler+0x208>)
20000c4a:	7813      	ldrb	r3, [r2, #0]
20000c4c:	3301      	adds	r3, #1
20000c4e:	7013      	strb	r3, [r2, #0]
20000c50:	e7c8      	b.n	20000be4 <dcd_event_handler+0x38>
20000c52:	2300      	movs	r3, #0
20000c54:	4a58      	ldr	r2, [pc, #352]	@ (20000db8 <dcd_event_handler+0x20c>)
20000c56:	7810      	ldrb	r0, [r2, #0]
20000c58:	461a      	mov	r2, r3
20000c5a:	e013      	b.n	20000c84 <dcd_event_handler+0xd8>
20000c5c:	4a57      	ldr	r2, [pc, #348]	@ (20000dbc <dcd_event_handler+0x210>)
20000c5e:	6812      	ldr	r2, [r2, #0]
20000c60:	eb12 1243 	adds.w	r2, r2, r3, lsl #5
20000c64:	d008      	beq.n	20000c78 <dcd_event_handler+0xcc>
20000c66:	69d2      	ldr	r2, [r2, #28]
20000c68:	b132      	cbz	r2, 20000c78 <dcd_event_handler+0xcc>
20000c6a:	7820      	ldrb	r0, [r4, #0]
20000c6c:	6861      	ldr	r1, [r4, #4]
20000c6e:	9301      	str	r3, [sp, #4]
20000c70:	4790      	blx	r2
20000c72:	4b51      	ldr	r3, [pc, #324]	@ (20000db8 <dcd_event_handler+0x20c>)
20000c74:	7818      	ldrb	r0, [r3, #0]
20000c76:	9b01      	ldr	r3, [sp, #4]
20000c78:	3301      	adds	r3, #1
20000c7a:	b2db      	uxtb	r3, r3
20000c7c:	1c41      	adds	r1, r0, #1
20000c7e:	4299      	cmp	r1, r3
20000c80:	461a      	mov	r2, r3
20000c82:	db18      	blt.n	20000cb6 <dcd_event_handler+0x10a>
20000c84:	4298      	cmp	r0, r3
20000c86:	d8e9      	bhi.n	20000c5c <dcd_event_handler+0xb0>
20000c88:	494d      	ldr	r1, [pc, #308]	@ (20000dc0 <dcd_event_handler+0x214>)
20000c8a:	1a12      	subs	r2, r2, r0
20000c8c:	eb01 1242 	add.w	r2, r1, r2, lsl #5
20000c90:	e7e9      	b.n	20000c66 <dcd_event_handler+0xba>
20000c92:	4b46      	ldr	r3, [pc, #280]	@ (20000dac <dcd_event_handler+0x200>)
20000c94:	781a      	ldrb	r2, [r3, #0]
20000c96:	07d2      	lsls	r2, r2, #31
20000c98:	d5d4      	bpl.n	20000c44 <dcd_event_handler+0x98>
20000c9a:	781a      	ldrb	r2, [r3, #0]
20000c9c:	f042 0204 	orr.w	r2, r2, #4
20000ca0:	701a      	strb	r2, [r3, #0]
20000ca2:	e79f      	b.n	20000be4 <dcd_event_handler+0x38>
20000ca4:	4b41      	ldr	r3, [pc, #260]	@ (20000dac <dcd_event_handler+0x200>)
20000ca6:	781a      	ldrb	r2, [r3, #0]
20000ca8:	07d5      	lsls	r5, r2, #31
20000caa:	d5cb      	bpl.n	20000c44 <dcd_event_handler+0x98>
20000cac:	781a      	ldrb	r2, [r3, #0]
20000cae:	f022 0204 	bic.w	r2, r2, #4
20000cb2:	701a      	strb	r2, [r3, #0]
20000cb4:	e796      	b.n	20000be4 <dcd_event_handler+0x38>
20000cb6:	4b3d      	ldr	r3, [pc, #244]	@ (20000dac <dcd_event_handler+0x200>)
20000cb8:	781a      	ldrb	r2, [r3, #0]
20000cba:	0750      	lsls	r0, r2, #29
20000cbc:	d433      	bmi.n	20000d26 <dcd_event_handler+0x17a>
20000cbe:	78db      	ldrb	r3, [r3, #3]
20000cc0:	07da      	lsls	r2, r3, #31
20000cc2:	d5bf      	bpl.n	20000c44 <dcd_event_handler+0x98>
20000cc4:	2203      	movs	r2, #3
20000cc6:	4b3a      	ldr	r3, [pc, #232]	@ (20000db0 <dcd_event_handler+0x204>)
20000cc8:	7820      	ldrb	r0, [r4, #0]
20000cca:	6861      	ldr	r1, [r4, #4]
20000ccc:	681b      	ldr	r3, [r3, #0]
20000cce:	f88d 000c 	strb.w	r0, [sp, #12]
20000cd2:	f88d 200d 	strb.w	r2, [sp, #13]
20000cd6:	695a      	ldr	r2, [r3, #20]
20000cd8:	9104      	str	r1, [sp, #16]
20000cda:	f3ef 8110 	mrs	r1, PRIMASK
20000cde:	b672      	cpsid	i
20000ce0:	e8d2 4fcf 	ldaexb	r4, [r2]
20000ce4:	2001      	movs	r0, #1
20000ce6:	2c00      	cmp	r4, #0
20000ce8:	d1fa      	bne.n	20000ce0 <dcd_event_handler+0x134>
20000cea:	e8c2 0f44 	strexb	r4, r0, [r2]
20000cee:	2c00      	cmp	r4, #0
20000cf0:	d1f6      	bne.n	20000ce0 <dcd_event_handler+0x134>
20000cf2:	f3bf 8f5f 	dmb	sy
20000cf6:	6199      	str	r1, [r3, #24]
20000cf8:	4618      	mov	r0, r3
20000cfa:	a903      	add	r1, sp, #12
20000cfc:	9301      	str	r3, [sp, #4]
20000cfe:	f000 fa6f 	bl	200011e0 <__tu_fifo_write_veneer>
20000d02:	9b01      	ldr	r3, [sp, #4]
20000d04:	2200      	movs	r2, #0
20000d06:	6959      	ldr	r1, [r3, #20]
20000d08:	e8c1 2f8f 	stlb	r2, [r1]
20000d0c:	699b      	ldr	r3, [r3, #24]
20000d0e:	f383 8810 	msr	PRIMASK, r3
20000d12:	2800      	cmp	r0, #0
20000d14:	d088      	beq.n	20000c28 <dcd_event_handler+0x7c>
20000d16:	4632      	mov	r2, r6
20000d18:	f89d 100d 	ldrb.w	r1, [sp, #13]
20000d1c:	f89d 000c 	ldrb.w	r0, [sp, #12]
20000d20:	f000 fa52 	bl	200011c8 <__tud_event_hook_cb_veneer>
20000d24:	e78e      	b.n	20000c44 <dcd_event_handler+0x98>
20000d26:	2500      	movs	r5, #0
20000d28:	2005      	movs	r0, #5
20000d2a:	7819      	ldrb	r1, [r3, #0]
20000d2c:	e9cd 5504 	strd	r5, r5, [sp, #16]
20000d30:	f021 0104 	bic.w	r1, r1, #4
20000d34:	9503      	str	r5, [sp, #12]
20000d36:	7019      	strb	r1, [r3, #0]
20000d38:	f88d 000d 	strb.w	r0, [sp, #13]
20000d3c:	4a1c      	ldr	r2, [pc, #112]	@ (20000db0 <dcd_event_handler+0x204>)
20000d3e:	7821      	ldrb	r1, [r4, #0]
20000d40:	6812      	ldr	r2, [r2, #0]
20000d42:	f88d 100c 	strb.w	r1, [sp, #12]
20000d46:	6951      	ldr	r1, [r2, #20]
20000d48:	f3ef 8010 	mrs	r0, PRIMASK
20000d4c:	b672      	cpsid	i
20000d4e:	e8d1 efcf 	ldaexb	lr, [r1]
20000d52:	f05f 0c01 	movs.w	ip, #1
20000d56:	f1be 0f00 	cmp.w	lr, #0
20000d5a:	d1f8      	bne.n	20000d4e <dcd_event_handler+0x1a2>
20000d5c:	e8c1 cf4e 	strexb	lr, ip, [r1]
20000d60:	f1be 0f00 	cmp.w	lr, #0
20000d64:	d1f3      	bne.n	20000d4e <dcd_event_handler+0x1a2>
20000d66:	f3bf 8f5f 	dmb	sy
20000d6a:	6190      	str	r0, [r2, #24]
20000d6c:	a903      	add	r1, sp, #12
20000d6e:	4610      	mov	r0, r2
20000d70:	9201      	str	r2, [sp, #4]
20000d72:	f000 fa35 	bl	200011e0 <__tu_fifo_write_veneer>
20000d76:	9a01      	ldr	r2, [sp, #4]
20000d78:	6951      	ldr	r1, [r2, #20]
20000d7a:	e8c1 5f8f 	stlb	r5, [r1]
20000d7e:	6992      	ldr	r2, [r2, #24]
20000d80:	f382 8810 	msr	PRIMASK, r2
20000d84:	4b09      	ldr	r3, [pc, #36]	@ (20000dac <dcd_event_handler+0x200>)
20000d86:	b938      	cbnz	r0, 20000d98 <dcd_event_handler+0x1ec>
20000d88:	f04f 22e0 	mov.w	r2, #3758153728	@ 0xe000e000
20000d8c:	f8d2 2df0 	ldr.w	r2, [r2, #3568]	@ 0xdf0
20000d90:	07d1      	lsls	r1, r2, #31
20000d92:	d594      	bpl.n	20000cbe <dcd_event_handler+0x112>
20000d94:	be00      	bkpt	0x0000
20000d96:	e792      	b.n	20000cbe <dcd_event_handler+0x112>
20000d98:	4632      	mov	r2, r6
20000d9a:	f89d 100d 	ldrb.w	r1, [sp, #13]
20000d9e:	f89d 000c 	ldrb.w	r0, [sp, #12]
20000da2:	f000 fa11 	bl	200011c8 <__tud_event_hook_cb_veneer>
20000da6:	4b01      	ldr	r3, [pc, #4]	@ (20000dac <dcd_event_handler+0x200>)
20000da8:	e789      	b.n	20000cbe <dcd_event_handler+0x112>
20000daa:	bf00      	nop
20000dac:	20001638 	.word	0x20001638
20000db0:	20001690 	.word	0x20001690
20000db4:	2002228e 	.word	0x2002228e
20000db8:	2002228c 	.word	0x2002228c
20000dbc:	20001530 	.word	0x20001530
20000dc0:	10006b34 	.word	0x10006b34

20000dc4 <__aeabi_ldivmod>:
20000dc4:	b97b      	cbnz	r3, 20000de6 <__aeabi_ldivmod+0x22>
20000dc6:	b972      	cbnz	r2, 20000de6 <__aeabi_ldivmod+0x22>
20000dc8:	2900      	cmp	r1, #0
20000dca:	bfbe      	ittt	lt
20000dcc:	2000      	movlt	r0, #0
20000dce:	f04f 4100 	movlt.w	r1, #2147483648	@ 0x80000000
20000dd2:	e006      	blt.n	20000de2 <__aeabi_ldivmod+0x1e>
20000dd4:	bf08      	it	eq
20000dd6:	2800      	cmpeq	r0, #0
20000dd8:	bf1c      	itt	ne
20000dda:	f06f 4100 	mvnne.w	r1, #2147483648	@ 0x80000000
20000dde:	f04f 30ff 	movne.w	r0, #4294967295
20000de2:	f000 b9df 	b.w	200011a4 <__aeabi_idiv0>
20000de6:	f1ad 0c08 	sub.w	ip, sp, #8
20000dea:	e96d ce04 	strd	ip, lr, [sp, #-16]!
20000dee:	2900      	cmp	r1, #0
20000df0:	db09      	blt.n	20000e06 <__aeabi_ldivmod+0x42>
20000df2:	2b00      	cmp	r3, #0
20000df4:	db1a      	blt.n	20000e2c <__aeabi_ldivmod+0x68>
20000df6:	f000 f835 	bl	20000e64 <__udivmoddi4>
20000dfa:	f8dd e004 	ldr.w	lr, [sp, #4]
20000dfe:	e9dd 2302 	ldrd	r2, r3, [sp, #8]
20000e02:	b004      	add	sp, #16
20000e04:	4770      	bx	lr
20000e06:	4240      	negs	r0, r0
20000e08:	eb61 0141 	sbc.w	r1, r1, r1, lsl #1
20000e0c:	2b00      	cmp	r3, #0
20000e0e:	db1b      	blt.n	20000e48 <__aeabi_ldivmod+0x84>
20000e10:	f000 f828 	bl	20000e64 <__udivmoddi4>
20000e14:	f8dd e004 	ldr.w	lr, [sp, #4]
20000e18:	e9dd 2302 	ldrd	r2, r3, [sp, #8]
20000e1c:	b004      	add	sp, #16
20000e1e:	4240      	negs	r0, r0
20000e20:	eb61 0141 	sbc.w	r1, r1, r1, lsl #1
20000e24:	4252      	negs	r2, r2
20000e26:	eb63 0343 	sbc.w	r3, r3, r3, lsl #1
20000e2a:	4770      	bx	lr
20000e2c:	4252      	negs	r2, r2
20000e2e:	eb63 0343 	sbc.w	r3, r3, r3, lsl #1
20000e32:	f000 f817 	bl	20000e64 <__udivmoddi4>
20000e36:	f8dd e004 	ldr.w	lr, [sp, #4]
20000e3a:	e9dd 2302 	ldrd	r2, r3, [sp, #8]
20000e3e:	b004      	add	sp, #16
20000e40:	4240      	negs	r0, r0
20000e42:	eb61 0141 	sbc.w	r1, r1, r1, lsl #1
20000e46:	4770      	bx	lr
20000e48:	4252      	negs	r2, r2
20000e4a:	eb63 0343 	sbc.w	r3, r3, r3, lsl #1
20000e4e:	f000 f809 	bl	20000e64 <__udivmoddi4>
20000e52:	f8dd e004 	ldr.w	lr, [sp, #4]
20000e56:	e9dd 2302 	ldrd	r2, r3, [sp, #8]
20000e5a:	b004      	add	sp, #16
20000e5c:	4252      	negs	r2, r2
20000e5e:	eb63 0343 	sbc.w	r3, r3, r3, lsl #1
20000e62:	4770      	bx	lr

20000e64 <__udivmoddi4>:
20000e64:	e92d 47f0 	stmdb	sp!, {r4, r5, r6, r7, r8, r9, sl, lr}
20000e68:	4606      	mov	r6, r0
20000e6a:	b082      	sub	sp, #8
20000e6c:	4617      	mov	r7, r2
20000e6e:	4608      	mov	r0, r1
20000e70:	9a0a      	ldr	r2, [sp, #40]	@ 0x28
20000e72:	46b4      	mov	ip, r6
20000e74:	460d      	mov	r5, r1
20000e76:	2b00      	cmp	r3, #0
20000e78:	d14d      	bne.n	20000f16 <__udivmoddi4+0xb2>
20000e7a:	428f      	cmp	r7, r1
20000e7c:	46be      	mov	lr, r7
20000e7e:	d965      	bls.n	20000f4c <__udivmoddi4+0xe8>
20000e80:	fab7 f187 	clz	r1, r7
20000e84:	b149      	cbz	r1, 20000e9a <__udivmoddi4+0x36>
20000e86:	f1c1 0320 	rsb	r3, r1, #32
20000e8a:	408d      	lsls	r5, r1
20000e8c:	fa07 fe01 	lsl.w	lr, r7, r1
20000e90:	fa06 fc01 	lsl.w	ip, r6, r1
20000e94:	fa26 f303 	lsr.w	r3, r6, r3
20000e98:	431d      	orrs	r5, r3
20000e9a:	ea4f 461e 	mov.w	r6, lr, lsr #16
20000e9e:	fa1f f08e 	uxth.w	r0, lr
20000ea2:	ea4f 431c 	mov.w	r3, ip, lsr #16
20000ea6:	fbb5 f4f6 	udiv	r4, r5, r6
20000eaa:	fb06 5514 	mls	r5, r6, r4, r5
20000eae:	ea43 4305 	orr.w	r3, r3, r5, lsl #16
20000eb2:	fb04 f500 	mul.w	r5, r4, r0
20000eb6:	429d      	cmp	r5, r3
20000eb8:	d906      	bls.n	20000ec8 <__udivmoddi4+0x64>
20000eba:	eb1e 0303 	adds.w	r3, lr, r3
20000ebe:	d202      	bcs.n	20000ec6 <__udivmoddi4+0x62>
20000ec0:	429d      	cmp	r5, r3
20000ec2:	f200 814c 	bhi.w	2000115e <__udivmoddi4+0x2fa>
20000ec6:	3c01      	subs	r4, #1
20000ec8:	1b5b      	subs	r3, r3, r5
20000eca:	fa1f fc8c 	uxth.w	ip, ip
20000ece:	fbb3 f5f6 	udiv	r5, r3, r6
20000ed2:	fb06 3315 	mls	r3, r6, r5, r3
20000ed6:	fb05 f000 	mul.w	r0, r5, r0
20000eda:	ea4c 4c03 	orr.w	ip, ip, r3, lsl #16
20000ede:	4560      	cmp	r0, ip
20000ee0:	d90a      	bls.n	20000ef8 <__udivmoddi4+0x94>
20000ee2:	eb1e 0c0c 	adds.w	ip, lr, ip
20000ee6:	bf2c      	ite	cs
20000ee8:	2301      	movcs	r3, #1
20000eea:	2300      	movcc	r3, #0
20000eec:	4560      	cmp	r0, ip
20000eee:	d902      	bls.n	20000ef6 <__udivmoddi4+0x92>
20000ef0:	2b00      	cmp	r3, #0
20000ef2:	f000 8137 	beq.w	20001164 <__udivmoddi4+0x300>
20000ef6:	3d01      	subs	r5, #1
20000ef8:	ebac 0c00 	sub.w	ip, ip, r0
20000efc:	ea45 4004 	orr.w	r0, r5, r4, lsl #16
20000f00:	2400      	movs	r4, #0
20000f02:	b122      	cbz	r2, 20000f0e <__udivmoddi4+0xaa>
20000f04:	fa2c f301 	lsr.w	r3, ip, r1
20000f08:	2100      	movs	r1, #0
20000f0a:	e9c2 3100 	strd	r3, r1, [r2]
20000f0e:	4621      	mov	r1, r4
20000f10:	b002      	add	sp, #8
20000f12:	e8bd 87f0 	ldmia.w	sp!, {r4, r5, r6, r7, r8, r9, sl, pc}
20000f16:	428b      	cmp	r3, r1
20000f18:	d908      	bls.n	20000f2c <__udivmoddi4+0xc8>
20000f1a:	b10a      	cbz	r2, 20000f20 <__udivmoddi4+0xbc>
20000f1c:	e9c2 6100 	strd	r6, r1, [r2]
20000f20:	2400      	movs	r4, #0
20000f22:	4620      	mov	r0, r4
20000f24:	4621      	mov	r1, r4
20000f26:	b002      	add	sp, #8
20000f28:	e8bd 87f0 	ldmia.w	sp!, {r4, r5, r6, r7, r8, r9, sl, pc}
20000f2c:	fab3 f483 	clz	r4, r3
20000f30:	2c00      	cmp	r4, #0
20000f32:	d14d      	bne.n	20000fd0 <__udivmoddi4+0x16c>
20000f34:	428b      	cmp	r3, r1
20000f36:	f0c0 8105 	bcc.w	20001144 <__udivmoddi4+0x2e0>
20000f3a:	42b7      	cmp	r7, r6
20000f3c:	f240 8102 	bls.w	20001144 <__udivmoddi4+0x2e0>
20000f40:	4620      	mov	r0, r4
20000f42:	2a00      	cmp	r2, #0
20000f44:	d0e3      	beq.n	20000f0e <__udivmoddi4+0xaa>
20000f46:	e9c2 c500 	strd	ip, r5, [r2]
20000f4a:	e7e0      	b.n	20000f0e <__udivmoddi4+0xaa>
20000f4c:	2f00      	cmp	r7, #0
20000f4e:	f000 80a2 	beq.w	20001096 <__udivmoddi4+0x232>
20000f52:	4619      	mov	r1, r3
20000f54:	fab7 f387 	clz	r3, r7
20000f58:	2b00      	cmp	r3, #0
20000f5a:	f040 80b4 	bne.w	200010c6 <__udivmoddi4+0x262>
20000f5e:	1bc3      	subs	r3, r0, r7
20000f60:	fa1f f88e 	uxth.w	r8, lr
20000f64:	0c3f      	lsrs	r7, r7, #16
20000f66:	2401      	movs	r4, #1
20000f68:	ea4f 401c 	mov.w	r0, ip, lsr #16
20000f6c:	fbb3 f5f7 	udiv	r5, r3, r7
20000f70:	fb07 3315 	mls	r3, r7, r5, r3
20000f74:	ea40 4303 	orr.w	r3, r0, r3, lsl #16
20000f78:	fb08 f005 	mul.w	r0, r8, r5
20000f7c:	4298      	cmp	r0, r3
20000f7e:	d90a      	bls.n	20000f96 <__udivmoddi4+0x132>
20000f80:	eb1e 0303 	adds.w	r3, lr, r3
20000f84:	bf2c      	ite	cs
20000f86:	2601      	movcs	r6, #1
20000f88:	2600      	movcc	r6, #0
20000f8a:	4298      	cmp	r0, r3
20000f8c:	d902      	bls.n	20000f94 <__udivmoddi4+0x130>
20000f8e:	2e00      	cmp	r6, #0
20000f90:	f000 80e2 	beq.w	20001158 <__udivmoddi4+0x2f4>
20000f94:	3d01      	subs	r5, #1
20000f96:	1a1b      	subs	r3, r3, r0
20000f98:	fa1f fc8c 	uxth.w	ip, ip
20000f9c:	fbb3 f0f7 	udiv	r0, r3, r7
20000fa0:	fb07 3310 	mls	r3, r7, r0, r3
20000fa4:	ea4c 4c03 	orr.w	ip, ip, r3, lsl #16
20000fa8:	fb08 f300 	mul.w	r3, r8, r0
20000fac:	4563      	cmp	r3, ip
20000fae:	d90a      	bls.n	20000fc6 <__udivmoddi4+0x162>
20000fb0:	eb1e 0c0c 	adds.w	ip, lr, ip
20000fb4:	bf2c      	ite	cs
20000fb6:	2601      	movcs	r6, #1
20000fb8:	2600      	movcc	r6, #0
20000fba:	4563      	cmp	r3, ip
20000fbc:	d902      	bls.n	20000fc4 <__udivmoddi4+0x160>
20000fbe:	2e00      	cmp	r6, #0
20000fc0:	f000 80c7 	beq.w	20001152 <__udivmoddi4+0x2ee>
20000fc4:	3801      	subs	r0, #1
20000fc6:	ebac 0c03 	sub.w	ip, ip, r3
20000fca:	ea40 4005 	orr.w	r0, r0, r5, lsl #16
20000fce:	e798      	b.n	20000f02 <__udivmoddi4+0x9e>
20000fd0:	f1c4 0820 	rsb	r8, r4, #32
20000fd4:	40a3      	lsls	r3, r4
20000fd6:	fa06 fa04 	lsl.w	sl, r6, r4
20000fda:	40a1      	lsls	r1, r4
20000fdc:	fa27 fc08 	lsr.w	ip, r7, r8
20000fe0:	fa20 f008 	lsr.w	r0, r0, r8
20000fe4:	fa07 f904 	lsl.w	r9, r7, r4
20000fe8:	ea4c 0c03 	orr.w	ip, ip, r3
20000fec:	fa26 f308 	lsr.w	r3, r6, r8
20000ff0:	ea4f 461c 	mov.w	r6, ip, lsr #16
20000ff4:	430b      	orrs	r3, r1
20000ff6:	fa1f fe8c 	uxth.w	lr, ip
20000ffa:	0c19      	lsrs	r1, r3, #16
20000ffc:	fbb0 f7f6 	udiv	r7, r0, r6
20001000:	fb06 0017 	mls	r0, r6, r7, r0
20001004:	ea41 4100 	orr.w	r1, r1, r0, lsl #16
20001008:	fb07 f00e 	mul.w	r0, r7, lr
2000100c:	4288      	cmp	r0, r1
2000100e:	d90a      	bls.n	20001026 <__udivmoddi4+0x1c2>
20001010:	eb1c 0101 	adds.w	r1, ip, r1
20001014:	bf2c      	ite	cs
20001016:	2501      	movcs	r5, #1
20001018:	2500      	movcc	r5, #0
2000101a:	4288      	cmp	r0, r1
2000101c:	d902      	bls.n	20001024 <__udivmoddi4+0x1c0>
2000101e:	2d00      	cmp	r5, #0
20001020:	f000 80b2 	beq.w	20001188 <__udivmoddi4+0x324>
20001024:	3f01      	subs	r7, #1
20001026:	1a09      	subs	r1, r1, r0
20001028:	b29b      	uxth	r3, r3
2000102a:	fbb1 f0f6 	udiv	r0, r1, r6
2000102e:	fb06 1110 	mls	r1, r6, r0, r1
20001032:	fb00 fe0e 	mul.w	lr, r0, lr
20001036:	ea43 4301 	orr.w	r3, r3, r1, lsl #16
2000103a:	459e      	cmp	lr, r3
2000103c:	d90a      	bls.n	20001054 <__udivmoddi4+0x1f0>
2000103e:	eb1c 0303 	adds.w	r3, ip, r3
20001042:	bf2c      	ite	cs
20001044:	2101      	movcs	r1, #1
20001046:	2100      	movcc	r1, #0
20001048:	459e      	cmp	lr, r3
2000104a:	d902      	bls.n	20001052 <__udivmoddi4+0x1ee>
2000104c:	2900      	cmp	r1, #0
2000104e:	f000 809e 	beq.w	2000118e <__udivmoddi4+0x32a>
20001052:	3801      	subs	r0, #1
20001054:	ea40 4007 	orr.w	r0, r0, r7, lsl #16
20001058:	eba3 030e 	sub.w	r3, r3, lr
2000105c:	fba0 e109 	umull	lr, r1, r0, r9
20001060:	428b      	cmp	r3, r1
20001062:	4676      	mov	r6, lr
20001064:	460f      	mov	r7, r1
20001066:	d302      	bcc.n	2000106e <__udivmoddi4+0x20a>
20001068:	d107      	bne.n	2000107a <__udivmoddi4+0x216>
2000106a:	45f2      	cmp	sl, lr
2000106c:	d205      	bcs.n	2000107a <__udivmoddi4+0x216>
2000106e:	ebbe 0609 	subs.w	r6, lr, r9
20001072:	eb61 010c 	sbc.w	r1, r1, ip
20001076:	3801      	subs	r0, #1
20001078:	460f      	mov	r7, r1
2000107a:	b152      	cbz	r2, 20001092 <__udivmoddi4+0x22e>
2000107c:	ebba 0106 	subs.w	r1, sl, r6
20001080:	eb63 0307 	sbc.w	r3, r3, r7
20001084:	fa03 f508 	lsl.w	r5, r3, r8
20001088:	40e1      	lsrs	r1, r4
2000108a:	40e3      	lsrs	r3, r4
2000108c:	430d      	orrs	r5, r1
2000108e:	e9c2 5300 	strd	r5, r3, [r2]
20001092:	2400      	movs	r4, #0
20001094:	e73b      	b.n	20000f0e <__udivmoddi4+0xaa>
20001096:	0873      	lsrs	r3, r6, #1
20001098:	46b8      	mov	r8, r7
2000109a:	0849      	lsrs	r1, r1, #1
2000109c:	9701      	str	r7, [sp, #4]
2000109e:	ea43 73c0 	orr.w	r3, r3, r0, lsl #31
200010a2:	ea4f 7cc6 	mov.w	ip, r6, lsl #31
200010a6:	0c1c      	lsrs	r4, r3, #16
200010a8:	b29b      	uxth	r3, r3
200010aa:	ea44 4401 	orr.w	r4, r4, r1, lsl #16
200010ae:	ea43 4304 	orr.w	r3, r3, r4, lsl #16
200010b2:	fbb4 f4f7 	udiv	r4, r4, r7
200010b6:	fbb1 f5f7 	udiv	r5, r1, r7
200010ba:	211f      	movs	r1, #31
200010bc:	9801      	ldr	r0, [sp, #4]
200010be:	ea44 4405 	orr.w	r4, r4, r5, lsl #16
200010c2:	1a1b      	subs	r3, r3, r0
200010c4:	e750      	b.n	20000f68 <__udivmoddi4+0x104>
200010c6:	4619      	mov	r1, r3
200010c8:	fa07 fe03 	lsl.w	lr, r7, r3
200010cc:	f1c3 0320 	rsb	r3, r3, #32
200010d0:	fa00 f401 	lsl.w	r4, r0, r1
200010d4:	ea4f 471e 	mov.w	r7, lr, lsr #16
200010d8:	40d8      	lsrs	r0, r3
200010da:	fa26 f303 	lsr.w	r3, r6, r3
200010de:	fa1f f88e 	uxth.w	r8, lr
200010e2:	fa06 fc01 	lsl.w	ip, r6, r1
200010e6:	4323      	orrs	r3, r4
200010e8:	fbb0 f5f7 	udiv	r5, r0, r7
200010ec:	0c1c      	lsrs	r4, r3, #16
200010ee:	fb07 0015 	mls	r0, r7, r5, r0
200010f2:	ea44 4000 	orr.w	r0, r4, r0, lsl #16
200010f6:	fb05 f408 	mul.w	r4, r5, r8
200010fa:	4284      	cmp	r4, r0
200010fc:	d94a      	bls.n	20001194 <__udivmoddi4+0x330>
200010fe:	eb1e 0000 	adds.w	r0, lr, r0
20001102:	bf2c      	ite	cs
20001104:	2601      	movcs	r6, #1
20001106:	2600      	movcc	r6, #0
20001108:	4284      	cmp	r4, r0
2000110a:	d900      	bls.n	2000110e <__udivmoddi4+0x2aa>
2000110c:	b38e      	cbz	r6, 20001172 <__udivmoddi4+0x30e>
2000110e:	1b00      	subs	r0, r0, r4
20001110:	3d01      	subs	r5, #1
20001112:	fbb0 f4f7 	udiv	r4, r0, r7
20001116:	fb04 f608 	mul.w	r6, r4, r8
2000111a:	46a1      	mov	r9, r4
2000111c:	9601      	str	r6, [sp, #4]
2000111e:	fb07 0019 	mls	r0, r7, r9, r0
20001122:	b29b      	uxth	r3, r3
20001124:	9e01      	ldr	r6, [sp, #4]
20001126:	ea43 4300 	orr.w	r3, r3, r0, lsl #16
2000112a:	42b3      	cmp	r3, r6
2000112c:	d2c6      	bcs.n	200010bc <__udivmoddi4+0x258>
2000112e:	eb1e 0303 	adds.w	r3, lr, r3
20001132:	bf2c      	ite	cs
20001134:	2001      	movcs	r0, #1
20001136:	2000      	movcc	r0, #0
20001138:	42b3      	cmp	r3, r6
2000113a:	d200      	bcs.n	2000113e <__udivmoddi4+0x2da>
2000113c:	b1a8      	cbz	r0, 2000116a <__udivmoddi4+0x306>
2000113e:	f109 34ff 	add.w	r4, r9, #4294967295
20001142:	e7bb      	b.n	200010bc <__udivmoddi4+0x258>
20001144:	ebb6 0c07 	subs.w	ip, r6, r7
20001148:	eb60 0303 	sbc.w	r3, r0, r3
2000114c:	2001      	movs	r0, #1
2000114e:	461d      	mov	r5, r3
20001150:	e6f7      	b.n	20000f42 <__udivmoddi4+0xde>
20001152:	44f4      	add	ip, lr
20001154:	3802      	subs	r0, #2
20001156:	e736      	b.n	20000fc6 <__udivmoddi4+0x162>
20001158:	3d02      	subs	r5, #2
2000115a:	4473      	add	r3, lr
2000115c:	e71b      	b.n	20000f96 <__udivmoddi4+0x132>
2000115e:	3c02      	subs	r4, #2
20001160:	4473      	add	r3, lr
20001162:	e6b1      	b.n	20000ec8 <__udivmoddi4+0x64>
20001164:	44f4      	add	ip, lr
20001166:	3d02      	subs	r5, #2
20001168:	e6c6      	b.n	20000ef8 <__udivmoddi4+0x94>
2000116a:	f1a9 0402 	sub.w	r4, r9, #2
2000116e:	4473      	add	r3, lr
20001170:	e7a4      	b.n	200010bc <__udivmoddi4+0x258>
20001172:	ebae 0404 	sub.w	r4, lr, r4
20001176:	3d02      	subs	r5, #2
20001178:	4420      	add	r0, r4
2000117a:	fbb0 f4f7 	udiv	r4, r0, r7
2000117e:	fb04 f608 	mul.w	r6, r4, r8
20001182:	46a1      	mov	r9, r4
20001184:	9601      	str	r6, [sp, #4]
20001186:	e7ca      	b.n	2000111e <__udivmoddi4+0x2ba>
20001188:	3f02      	subs	r7, #2
2000118a:	4461      	add	r1, ip
2000118c:	e74b      	b.n	20001026 <__udivmoddi4+0x1c2>
2000118e:	3802      	subs	r0, #2
20001190:	4463      	add	r3, ip
20001192:	e75f      	b.n	20001054 <__udivmoddi4+0x1f0>
20001194:	1b00      	subs	r0, r0, r4
20001196:	fbb0 f4f7 	udiv	r4, r0, r7
2000119a:	fb04 f608 	mul.w	r6, r4, r8
2000119e:	46a1      	mov	r9, r4
200011a0:	9601      	str	r6, [sp, #4]
200011a2:	e7bc      	b.n	2000111e <__udivmoddi4+0x2ba>

200011a4 <__aeabi_idiv0>:
200011a4:	4770      	bx	lr
200011a6:	bf00      	nop

200011a8 <__memset_veneer>:
200011a8:	f85f f000 	ldr.w	pc, [pc]	@ 200011ac <__memset_veneer+0x4>
200011ac:	10006551 	.word	0x10006551

200011b0 <__time_us_64_veneer>:
200011b0:	f85f f000 	ldr.w	pc, [pc]	@ 200011b4 <__time_us_64_veneer+0x4>
200011b4:	10003489 	.word	0x10003489

200011b8 <__vPortLockInternalSpinUnlockWithNotify_veneer>:
200011b8:	f85f f000 	ldr.w	pc, [pc]	@ 200011bc <__vPortLockInternalSpinUnlockWithNotify_veneer+0x4>
200011bc:	100007f9 	.word	0x100007f9

200011c0 <__xPortLockInternalSpinUnlockWithBestEffortWaitOrTimeout_veneer>:
200011c0:	f85f f000 	ldr.w	pc, [pc]	@ 200011c4 <__xPortLockInternalSpinUnlockWithBestEffortWaitOrTimeout_veneer+0x4>
200011c4:	100008f1 	.word	0x100008f1

200011c8 <__tud_event_hook_cb_veneer>:
200011c8:	f85f f000 	ldr.w	pc, [pc]	@ 200011cc <__tud_event_hook_cb_veneer+0x4>
200011cc:	1000482d 	.word	0x1000482d

200011d0 <__ulPortLockGetCurrentOwnerId_veneer>:
200011d0:	f85f f000 	ldr.w	pc, [pc]	@ 200011d4 <__ulPortLockGetCurrentOwnerId_veneer+0x4>
200011d4:	100007d1 	.word	0x100007d1

200011d8 <__panic_veneer>:
200011d8:	f85f f000 	ldr.w	pc, [pc]	@ 200011dc <__panic_veneer+0x4>
200011dc:	10002661 	.word	0x10002661

200011e0 <__tu_fifo_write_veneer>:
200011e0:	f85f f000 	ldr.w	pc, [pc]	@ 200011e4 <__tu_fifo_write_veneer+0x4>
200011e4:	100062e5 	.word	0x100062e5

200011e8 <cDoorbellNum>:
200011e8:	                                         .

200011e9 <ucPrimaryCoreNum>:
200011e9:	                                         ...

200011ec <ulCriticalNesting>:
200011ec:	aaaaaaaa                                ....

200011f0 <striped_spin_lock_num>:
200011f0:	00000010                                ....

200011f4 <irq_handler_chain_slots>:
200011f4:	00000000 	.word	0x00000000
200011f8:	00010000 	.word	0x00010000
	...
20001204:	00020000 	.word	0x00020000
	...
20001210:	00030000 	.word	0x00030000
	...
2000121c:	00ff0000 	.word	0x00ff0000
20001220:	00000000 	.word	0x00000000

20001224 <irq_handler_chain_first_slot>:
20001224:	b501      	push	{r0, lr}
20001226:	6848      	ldr	r0, [r1, #4]
20001228:	3101      	adds	r1, #1
2000122a:	468e      	mov	lr, r1
2000122c:	4700      	bx	r0

2000122e <irq_handler_chain_remove_tail>:
2000122e:	4670      	mov	r0, lr
20001230:	3809      	subs	r0, #9
20001232:	4901      	ldr	r1, [pc, #4]	@ (20001238 <irq_handler_chain_remove_tail+0xa>)
20001234:	4788      	blx	r1
20001236:	bd01      	pop	{r0, pc}
20001238:	10002b59 	.word	0x10002b59

2000123c <default_alarm_pool>:
	...
20001250:	20001368                                h.. 

20001254 <stdio_usb>:
20001254:	10004151 100040fd 10004075 10003fe5     QA...@..u@...?..
20001264:	00000000 00000100                       ........

2000126c <_usbd_qdef>:
2000126c:	20001694 000c0010 00000000 00000000     ... ............
	...

20001288 <_usbd_rhport>:
20001288:	000000ff                                ....

2000128c <malloc_mutex>:
	...

20001294 <print_mutex>:
	...
