
C:/Users/zhasanr/Desktop/your_project/build/your_app.elf:     file format elf32-littlearm

Sections:
Idx Name          Size      VMA       LMA       File off  Algn
  0 .text         000096ac  10000000  10000000  00001000  2**4
                  CONTENTS, ALLOC, LOAD, READONLY, CODE
  1 .rodata       0000044c  100096b0  100096b0  0000a6b0  2**3
                  CONTENTS, ALLOC, LOAD, READONLY, DATA
  2 .ARM.exidx    00000008  10009afc  10009afc  0000aafc  2**2
                  CONTENTS, ALLOC, LOAD, READONLY, DATA
  3 .binary_info  00000020  10009b04  10009b04  0000ab04  2**2
                  CONTENTS, ALLOC, LOAD, READONLY, DATA
  4 .ram_vector_table 00000110  20000000  20000000  0000d000  2**2
                  ALLOC
  5 .uninitialized_data 00000000  20000110  20000110  0000ccec  2**0
                  CONTENTS
  6 .data         000011b4  20000110  10009b24  0000b110  2**3
                  CONTENTS, ALLOC, LOAD, READONLY, CODE
  7 .tdata        00000000  200012c4  200012c4  0000ccec  2**0
                  CONTENTS, ALLOC, LOAD, DATA, THREAD_LOCAL
  8 .tbss         00000000  200012c4  200012c4  00000000  2**0
                  ALLOC, THREAD_LOCAL
  9 .bss          00021014  200012c8  1000acd8  0000d2c8  2**3
                  ALLOC
 10 .heap         00000800  200222dc  1000acd8  0000d2dc  2**2
                  ALLOC, READONLY
 11 .scratch_x    00000000  20080000  20080000  0000ccec  2**0
                  CONTENTS
 12 .scratch_y    00000000  20081000  20081000  0000ccec  2**0
                  CONTENTS
 13 .stack1_dummy 00000800  20080000  20080000  0000d000  2**2
                  ALLOC
 14 .stack_dummy  00000800  20081000  20081000  0000d000  2**5
                  ALLOC, READONLY
 15 .flash_end    00000014  1000acd8  1000acd8  0000ccd8  2**2
                  CONTENTS, ALLOC, LOAD, READONLY, DATA
 16 .ARM.attributes 00000034  00000000  00000000  0000ccec  2**0
                  CONTENTS, READONLY
 17 .comment      00000045  00000000  00000000  0000cd20  2**0
                  CONTENTS, READONLY
 18 .debug_info   000473fb  00000000  00000000  0000cd65  2**0
                  CONTENTS, READONLY, DEBUGGING, OCTETS
 19 .debug_abbrev 0000adec  00000000  00000000  00054160  2**0
                  CONTENTS, READONLY, DEBUGGING, OCTETS
 20 .debug_loclists 0002331c  00000000  00000000  0005ef4c  2**0
                  CONTENTS, READONLY, DEBUGGING, OCTETS
 21 .debug_aranges 000019a8  00000000  00000000  00082268  2**3
                  CONTENTS, READONLY, DEBUGGING, OCTETS
 22 .debug_rnglists 00006702  00000000  00000000  00083c10  2**0
                  CONTENTS, READONLY, DEBUGGING, OCTETS
 23 .debug_line   00033185  00000000  00000000  0008a312  2**0
                  CONTENTS, READONLY, DEBUGGING, OCTETS
 24 .debug_str    0000c20d  00000000  00000000  000bd497  2**0
                  CONTENTS, READONLY, DEBUGGING, OCTETS
 25 .debug_frame  00004a24  00000000  00000000  000c96a4  2**2
                  CONTENTS, READONLY, DEBUGGING, OCTETS
 26 .debug_line_str 0000028a  00000000  00000000  000ce0c8  2**0
                  CONTENTS, READONLY, DEBUGGING, OCTETS

C:/Users/zhasanr/Desktop/your_project/build/your_app.elf:     file format elf32-littlearm


Disassembly of section .text:

10000000 <__VECTOR_TABLE>:
10000000:	20082000 	.word	0x20082000
10000004:	1000015d 	.word	0x1000015d
10000008:	1000011b 	.word	0x1000011b
1000000c:	1000011d 	.word	0x1000011d
10000010:	10000111 	.word	0x10000111
10000014:	10000111 	.word	0x10000111
10000018:	10000111 	.word	0x10000111
1000001c:	10000111 	.word	0x10000111
10000020:	10000119 	.word	0x10000119
10000024:	10000119 	.word	0x10000119
10000028:	10000119 	.word	0x10000119
1000002c:	1000011f 	.word	0x1000011f
10000030:	10000111 	.word	0x10000111
10000034:	10000119 	.word	0x10000119
10000038:	10000121 	.word	0x10000121
1000003c:	10000123 	.word	0x10000123
10000040:	10000111 	.word	0x10000111
10000044:	10000111 	.word	0x10000111
10000048:	10000111 	.word	0x10000111
1000004c:	10000111 	.word	0x10000111
10000050:	10000111 	.word	0x10000111
10000054:	10000111 	.word	0x10000111
10000058:	10000111 	.word	0x10000111
1000005c:	10000111 	.word	0x10000111
10000060:	10000111 	.word	0x10000111
10000064:	10000111 	.word	0x10000111
10000068:	10000111 	.word	0x10000111
1000006c:	10000111 	.word	0x10000111
10000070:	10000111 	.word	0x10000111
10000074:	10000111 	.word	0x10000111
10000078:	10000111 	.word	0x10000111
1000007c:	10000111 	.word	0x10000111
10000080:	10000111 	.word	0x10000111
10000084:	10000111 	.word	0x10000111
10000088:	10000111 	.word	0x10000111
1000008c:	10000111 	.word	0x10000111
10000090:	10000111 	.word	0x10000111
10000094:	10000111 	.word	0x10000111
10000098:	10000111 	.word	0x10000111
1000009c:	10000111 	.word	0x10000111
100000a0:	10000111 	.word	0x10000111
100000a4:	10000111 	.word	0x10000111
100000a8:	10000111 	.word	0x10000111
100000ac:	10000111 	.word	0x10000111
100000b0:	10000111 	.word	0x10000111
100000b4:	10000111 	.word	0x10000111
100000b8:	10000111 	.word	0x10000111
100000bc:	10000111 	.word	0x10000111
100000c0:	10000111 	.word	0x10000111
100000c4:	10000111 	.word	0x10000111
100000c8:	10000111 	.word	0x10000111
100000cc:	10000111 	.word	0x10000111
100000d0:	10000111 	.word	0x10000111
100000d4:	10000111 	.word	0x10000111
100000d8:	10000111 	.word	0x10000111
100000dc:	10000111 	.word	0x10000111
100000e0:	10000111 	.word	0x10000111
100000e4:	10000111 	.word	0x10000111
100000e8:	10000111 	.word	0x10000111
100000ec:	10000111 	.word	0x10000111
100000f0:	10000111 	.word	0x10000111
100000f4:	10000111 	.word	0x10000111
100000f8:	10000111 	.word	0x10000111
100000fc:	10000111 	.word	0x10000111
10000100:	10000111 	.word	0x10000111
10000104:	10000111 	.word	0x10000111
10000108:	10000111 	.word	0x10000111
1000010c:	10000111 	.word	0x10000111

10000110 <__unhandled_user_irq>:
10000110:	f3ef 8005 	mrs	r0, IPSR
10000114:	3810      	subs	r0, #16

10000116 <unhandled_user_irq_num_in_r0>:
10000116:	be00      	bkpt	0x0000

10000118 <isr_invalid>:
10000118:	be00      	bkpt	0x0000

1000011a <isr_nmi>:
1000011a:	be00      	bkpt	0x0000

1000011c <isr_hardfault>:
1000011c:	be00      	bkpt	0x0000

1000011e <isr_svcall>:
1000011e:	be00      	bkpt	0x0000

10000120 <isr_pendsv>:
10000120:	be00      	bkpt	0x0000

10000122 <isr_systick>:
10000122:	be00      	bkpt	0x0000

10000124 <__default_isrs_end>:
10000124:	7188ebf2 	.word	0x7188ebf2
10000128:	10009b04 	.word	0x10009b04
1000012c:	10009b24 	.word	0x10009b24
10000130:	100001a0 	.word	0x100001a0
10000134:	e71aa390 	.word	0xe71aa390

10000138 <__binary_info_header_end>:
10000138:	ffffded3 	.word	0xffffded3
1000013c:	10210142 	.word	0x10210142
10000140:	000001ff 	.word	0x000001ff
10000144:	0000aba0 	.word	0x0000aba0
10000148:	ab123579 	.word	0xab123579

1000014c <_entry_point>:
1000014c:	f04f 0000 	mov.w	r0, #0

10000150 <_enter_vtable_in_r0>:
10000150:	491e      	ldr	r1, [pc, #120]	@ (100001cc <data_cpy_table+0x2c>)
10000152:	6008      	str	r0, [r1, #0]
10000154:	c806      	ldmia	r0!, {r1, r2}
10000156:	f381 8808 	msr	MSP, r1
1000015a:	4710      	bx	r2

1000015c <_reset_handler>:
1000015c:	f04f 4050 	mov.w	r0, #3489660928	@ 0xd0000000
10000160:	6800      	ldr	r0, [r0, #0]
10000162:	b110      	cbz	r0, 1000016a <hold_non_core0_in_bootrom+0x6>

10000164 <hold_non_core0_in_bootrom>:
10000164:	f04f 0000 	mov.w	r0, #0
10000168:	e7f2      	b.n	10000150 <_enter_vtable_in_r0>
1000016a:	a40d      	add	r4, pc, #52	@ (adr r4, 100001a0 <data_cpy_table>)
1000016c:	cc0e      	ldmia	r4!, {r1, r2, r3}
1000016e:	2900      	cmp	r1, #0
10000170:	d002      	beq.n	10000178 <hold_non_core0_in_bootrom+0x14>
10000172:	f000 f812 	bl	1000019a <data_cpy>
10000176:	e7f9      	b.n	1000016c <hold_non_core0_in_bootrom+0x8>
10000178:	4915      	ldr	r1, [pc, #84]	@ (100001d0 <data_cpy_table+0x30>)
1000017a:	4a16      	ldr	r2, [pc, #88]	@ (100001d4 <data_cpy_table+0x34>)
1000017c:	2000      	movs	r0, #0
1000017e:	e000      	b.n	10000182 <bss_fill_test>

10000180 <bss_fill_loop>:
10000180:	c101      	stmia	r1!, {r0}

10000182 <bss_fill_test>:
10000182:	4291      	cmp	r1, r2
10000184:	d1fc      	bne.n	10000180 <bss_fill_loop>

10000186 <platform_entry>:
10000186:	4914      	ldr	r1, [pc, #80]	@ (100001d8 <data_cpy_table+0x38>)
10000188:	4788      	blx	r1
1000018a:	4914      	ldr	r1, [pc, #80]	@ (100001dc <data_cpy_table+0x3c>)
1000018c:	4788      	blx	r1
1000018e:	4914      	ldr	r1, [pc, #80]	@ (100001e0 <data_cpy_table+0x40>)
10000190:	4788      	blx	r1
10000192:	be00      	bkpt	0x0000
10000194:	e7fd      	b.n	10000192 <platform_entry+0xc>

10000196 <data_cpy_loop>:
10000196:	c901      	ldmia	r1!, {r0}
10000198:	c201      	stmia	r2!, {r0}

1000019a <data_cpy>:
1000019a:	429a      	cmp	r2, r3
1000019c:	d3fb      	bcc.n	10000196 <data_cpy_loop>
1000019e:	4770      	bx	lr

100001a0 <data_cpy_table>:
100001a0:	10009b24 	.word	0x10009b24
100001a4:	20000110 	.word	0x20000110
100001a8:	200012c4 	.word	0x200012c4
100001ac:	1000acd8 	.word	0x1000acd8
100001b0:	20080000 	.word	0x20080000
100001b4:	20080000 	.word	0x20080000
100001b8:	1000acd8 	.word	0x1000acd8
100001bc:	20081000 	.word	0x20081000
100001c0:	20081000 	.word	0x20081000
100001c4:	00000000 	.word	0x00000000
100001c8:	4770      	bx	lr
100001ca:	0000      	.short	0x0000
100001cc:	e000ed08 	.word	0xe000ed08
100001d0:	200012c4 	.word	0x200012c4
100001d4:	200222dc 	.word	0x200222dc
100001d8:	1000682d 	.word	0x1000682d
100001dc:	100002ad 	.word	0x100002ad
100001e0:	10006825 	.word	0x10006825

100001e4 <_init>:
100001e4:	b5f8      	push	{r3, r4, r5, r6, r7, lr}
100001e6:	bf00      	nop

100001e8 <register_tm_clones>:
100001e8:	4b06      	ldr	r3, [pc, #24]	@ (10000204 <register_tm_clones+0x1c>)
100001ea:	4907      	ldr	r1, [pc, #28]	@ (10000208 <register_tm_clones+0x20>)
100001ec:	1ac9      	subs	r1, r1, r3
100001ee:	1089      	asrs	r1, r1, #2
100001f0:	bf48      	it	mi
100001f2:	3101      	addmi	r1, #1
100001f4:	1049      	asrs	r1, r1, #1
100001f6:	d003      	beq.n	10000200 <register_tm_clones+0x18>
100001f8:	4b04      	ldr	r3, [pc, #16]	@ (1000020c <register_tm_clones+0x24>)
100001fa:	b10b      	cbz	r3, 10000200 <register_tm_clones+0x18>
100001fc:	4801      	ldr	r0, [pc, #4]	@ (10000204 <register_tm_clones+0x1c>)
100001fe:	4718      	bx	r3
10000200:	4770      	bx	lr
10000202:	bf00      	nop
10000204:	200012c4 	.word	0x200012c4
10000208:	200012c4 	.word	0x200012c4
1000020c:	00000000 	.word	0x00000000

10000210 <frame_dummy>:
10000210:	b508      	push	{r3, lr}
10000212:	4b05      	ldr	r3, [pc, #20]	@ (10000228 <frame_dummy+0x18>)
10000214:	b11b      	cbz	r3, 1000021e <frame_dummy+0xe>
10000216:	4905      	ldr	r1, [pc, #20]	@ (1000022c <frame_dummy+0x1c>)
10000218:	4805      	ldr	r0, [pc, #20]	@ (10000230 <frame_dummy+0x20>)
1000021a:	f3af 8000 	nop.w
1000021e:	e8bd 4008 	ldmia.w	sp!, {r3, lr}
10000222:	f7ff bfe1 	b.w	100001e8 <register_tm_clones>
10000226:	bf00      	nop
10000228:	00000000 	.word	0x00000000
1000022c:	20001ec8 	.word	0x20001ec8
10000230:	100096ac 	.word	0x100096ac

10000234 <task2>:
10000234:	f04f 4550 	mov.w	r5, #3489660928	@ 0xd0000000
10000238:	b508      	push	{r3, lr}
1000023a:	4c0b      	ldr	r4, [pc, #44]	@ (10000268 <task2+0x34>)
1000023c:	f04f 31ff 	mov.w	r1, #4294967295
10000240:	6820      	ldr	r0, [r4, #0]
10000242:	f001 f8af 	bl	100013a4 <xQueueSemaphoreTake>
10000246:	682a      	ldr	r2, [r5, #0]
10000248:	2102      	movs	r1, #2
1000024a:	4808      	ldr	r0, [pc, #32]	@ (1000026c <task2+0x38>)
1000024c:	f006 fcde 	bl	10006c0c <__wrap_printf>
10000250:	2300      	movs	r3, #0
10000252:	6820      	ldr	r0, [r4, #0]
10000254:	461a      	mov	r2, r3
10000256:	4619      	mov	r1, r3
10000258:	f000 ff18 	bl	1000108c <xQueueGenericSend>
1000025c:	f44f 707a 	mov.w	r0, #1000	@ 0x3e8
10000260:	f002 ff42 	bl	100030e8 <vTaskDelay>
10000264:	e7ea      	b.n	1000023c <task2+0x8>
10000266:	bf00      	nop
10000268:	20001ec0 	.word	0x20001ec0
1000026c:	100096b0 	.word	0x100096b0

10000270 <task1>:
10000270:	f04f 4550 	mov.w	r5, #3489660928	@ 0xd0000000
10000274:	b508      	push	{r3, lr}
10000276:	4c0b      	ldr	r4, [pc, #44]	@ (100002a4 <task1+0x34>)
10000278:	f04f 31ff 	mov.w	r1, #4294967295
1000027c:	6820      	ldr	r0, [r4, #0]
1000027e:	f001 f891 	bl	100013a4 <xQueueSemaphoreTake>
10000282:	682a      	ldr	r2, [r5, #0]
10000284:	2101      	movs	r1, #1
10000286:	4808      	ldr	r0, [pc, #32]	@ (100002a8 <task1+0x38>)
10000288:	f006 fcc0 	bl	10006c0c <__wrap_printf>
1000028c:	2300      	movs	r3, #0
1000028e:	6820      	ldr	r0, [r4, #0]
10000290:	461a      	mov	r2, r3
10000292:	4619      	mov	r1, r3
10000294:	f000 fefa 	bl	1000108c <xQueueGenericSend>
10000298:	f44f 707a 	mov.w	r0, #1000	@ 0x3e8
1000029c:	f002 ff24 	bl	100030e8 <vTaskDelay>
100002a0:	e7ea      	b.n	10000278 <task1+0x8>
100002a2:	bf00      	nop
100002a4:	20001ec0 	.word	0x20001ec0
100002a8:	100096b0 	.word	0x100096b0

100002ac <main>:
100002ac:	b570      	push	{r4, r5, r6, lr}
100002ae:	b082      	sub	sp, #8
100002b0:	f006 fbea 	bl	10006a88 <stdio_init_all>
100002b4:	2001      	movs	r0, #1
100002b6:	f000 ff73 	bl	100011a0 <xQueueCreateMutex>
100002ba:	4684      	mov	ip, r0
100002bc:	2401      	movs	r4, #1
100002be:	4e12      	ldr	r6, [pc, #72]	@ (10000308 <main+0x5c>)
100002c0:	4d12      	ldr	r5, [pc, #72]	@ (1000030c <main+0x60>)
100002c2:	9601      	str	r6, [sp, #4]
100002c4:	f8c5 c000 	str.w	ip, [r5]
100002c8:	4d11      	ldr	r5, [pc, #68]	@ (10000310 <main+0x64>)
100002ca:	2300      	movs	r3, #0
100002cc:	f44f 7280 	mov.w	r2, #256	@ 0x100
100002d0:	4910      	ldr	r1, [pc, #64]	@ (10000314 <main+0x68>)
100002d2:	9400      	str	r4, [sp, #0]
100002d4:	4810      	ldr	r0, [pc, #64]	@ (10000318 <main+0x6c>)
100002d6:	f002 fda1 	bl	10002e1c <xTaskCreate>
100002da:	2300      	movs	r3, #0
100002dc:	f44f 7280 	mov.w	r2, #256	@ 0x100
100002e0:	e9cd 4500 	strd	r4, r5, [sp]
100002e4:	490d      	ldr	r1, [pc, #52]	@ (1000031c <main+0x70>)
100002e6:	480e      	ldr	r0, [pc, #56]	@ (10000320 <main+0x74>)
100002e8:	f002 fd98 	bl	10002e1c <xTaskCreate>
100002ec:	4621      	mov	r1, r4
100002ee:	6830      	ldr	r0, [r6, #0]
100002f0:	f001 fde4 	bl	10001ebc <vTaskCoreAffinitySet>
100002f4:	6828      	ldr	r0, [r5, #0]
100002f6:	2102      	movs	r1, #2
100002f8:	f001 fde0 	bl	10001ebc <vTaskCoreAffinitySet>
100002fc:	f002 fdb8 	bl	10002e70 <vTaskStartScheduler>
10000300:	2000      	movs	r0, #0
10000302:	b002      	add	sp, #8
10000304:	bd70      	pop	{r4, r5, r6, pc}
10000306:	bf00      	nop
10000308:	200021b8 	.word	0x200021b8
1000030c:	20001ec0 	.word	0x20001ec0
10000310:	200021bc 	.word	0x200021bc
10000314:	100096d0 	.word	0x100096d0
10000318:	10000271 	.word	0x10000271
1000031c:	100096dc 	.word	0x100096dc
10000320:	10000235 	.word	0x10000235

10000324 <pvPortMalloc>:
10000324:	b570      	push	{r4, r5, r6, lr}
10000326:	1e42      	subs	r2, r0, #1
10000328:	320a      	adds	r2, #10
1000032a:	b082      	sub	sp, #8
1000032c:	d84d      	bhi.n	100003ca <pvPortMalloc+0xa6>
1000032e:	4603      	mov	r3, r0
10000330:	f013 0207 	ands.w	r2, r3, #7
10000334:	f100 0008 	add.w	r0, r0, #8
10000338:	d152      	bne.n	100003e0 <pvPortMalloc+0xbc>
1000033a:	9001      	str	r0, [sp, #4]
1000033c:	f001 fe9e 	bl	1000207c <vTaskSuspendAll>
10000340:	4a43      	ldr	r2, [pc, #268]	@ (10000450 <pvPortMalloc+0x12c>)
10000342:	9801      	ldr	r0, [sp, #4]
10000344:	f8d2 e000 	ldr.w	lr, [r2]
10000348:	4684      	mov	ip, r0
1000034a:	f1be 0f00 	cmp.w	lr, #0
1000034e:	d05f      	beq.n	10000410 <pvPortMalloc+0xec>
10000350:	2800      	cmp	r0, #0
10000352:	db3f      	blt.n	100003d4 <pvPortMalloc+0xb0>
10000354:	4b3f      	ldr	r3, [pc, #252]	@ (10000454 <pvPortMalloc+0x130>)
10000356:	681b      	ldr	r3, [r3, #0]
10000358:	4283      	cmp	r3, r0
1000035a:	461e      	mov	r6, r3
1000035c:	d33a      	bcc.n	100003d4 <pvPortMalloc+0xb0>
1000035e:	4b3e      	ldr	r3, [pc, #248]	@ (10000458 <pvPortMalloc+0x134>)
10000360:	469c      	mov	ip, r3
10000362:	681b      	ldr	r3, [r3, #0]
10000364:	e003      	b.n	1000036e <pvPortMalloc+0x4a>
10000366:	681a      	ldr	r2, [r3, #0]
10000368:	b122      	cbz	r2, 10000374 <pvPortMalloc+0x50>
1000036a:	469c      	mov	ip, r3
1000036c:	4613      	mov	r3, r2
1000036e:	6859      	ldr	r1, [r3, #4]
10000370:	4281      	cmp	r1, r0
10000372:	d3f8      	bcc.n	10000366 <pvPortMalloc+0x42>
10000374:	4573      	cmp	r3, lr
10000376:	d02d      	beq.n	100003d4 <pvPortMalloc+0xb0>
10000378:	461c      	mov	r4, r3
1000037a:	eba1 0e00 	sub.w	lr, r1, r0
1000037e:	f854 2b08 	ldr.w	r2, [r4], #8
10000382:	f1be 0f10 	cmp.w	lr, #16
10000386:	f8cc 2000 	str.w	r2, [ip]
1000038a:	d906      	bls.n	1000039a <pvPortMalloc+0x76>
1000038c:	4601      	mov	r1, r0
1000038e:	181d      	adds	r5, r3, r0
10000390:	f8c5 e004 	str.w	lr, [r5, #4]
10000394:	501a      	str	r2, [r3, r0]
10000396:	f8cc 5000 	str.w	r5, [ip]
1000039a:	f04f 0c00 	mov.w	ip, #0
1000039e:	482d      	ldr	r0, [pc, #180]	@ (10000454 <pvPortMalloc+0x130>)
100003a0:	1a72      	subs	r2, r6, r1
100003a2:	6002      	str	r2, [r0, #0]
100003a4:	482d      	ldr	r0, [pc, #180]	@ (1000045c <pvPortMalloc+0x138>)
100003a6:	f041 4100 	orr.w	r1, r1, #2147483648	@ 0x80000000
100003aa:	6805      	ldr	r5, [r0, #0]
100003ac:	6059      	str	r1, [r3, #4]
100003ae:	42aa      	cmp	r2, r5
100003b0:	bf38      	it	cc
100003b2:	6002      	strcc	r2, [r0, #0]
100003b4:	482a      	ldr	r0, [pc, #168]	@ (10000460 <pvPortMalloc+0x13c>)
100003b6:	f8c3 c000 	str.w	ip, [r3]
100003ba:	6802      	ldr	r2, [r0, #0]
100003bc:	3201      	adds	r2, #1
100003be:	6002      	str	r2, [r0, #0]
100003c0:	f002 fe8a 	bl	100030d8 <xTaskResumeAll>
100003c4:	4620      	mov	r0, r4
100003c6:	b002      	add	sp, #8
100003c8:	bd70      	pop	{r4, r5, r6, pc}
100003ca:	f001 fe57 	bl	1000207c <vTaskSuspendAll>
100003ce:	4a20      	ldr	r2, [pc, #128]	@ (10000450 <pvPortMalloc+0x12c>)
100003d0:	6813      	ldr	r3, [r2, #0]
100003d2:	b1d3      	cbz	r3, 1000040a <pvPortMalloc+0xe6>
100003d4:	2400      	movs	r4, #0
100003d6:	f002 fe7f 	bl	100030d8 <xTaskResumeAll>
100003da:	4620      	mov	r0, r4
100003dc:	b002      	add	sp, #8
100003de:	bd70      	pop	{r4, r5, r6, pc}
100003e0:	f1a2 0109 	sub.w	r1, r2, #9
100003e4:	4281      	cmp	r1, r0
100003e6:	d3f0      	bcc.n	100003ca <pvPortMalloc+0xa6>
100003e8:	3310      	adds	r3, #16
100003ea:	1a98      	subs	r0, r3, r2
100003ec:	9001      	str	r0, [sp, #4]
100003ee:	f001 fe45 	bl	1000207c <vTaskSuspendAll>
100003f2:	4a17      	ldr	r2, [pc, #92]	@ (10000450 <pvPortMalloc+0x12c>)
100003f4:	9801      	ldr	r0, [sp, #4]
100003f6:	f8d2 e000 	ldr.w	lr, [r2]
100003fa:	4684      	mov	ip, r0
100003fc:	f1be 0f00 	cmp.w	lr, #0
10000400:	d006      	beq.n	10000410 <pvPortMalloc+0xec>
10000402:	f1bc 0f00 	cmp.w	ip, #0
10000406:	dca5      	bgt.n	10000354 <pvPortMalloc+0x30>
10000408:	e7e4      	b.n	100003d4 <pvPortMalloc+0xb0>
1000040a:	f04f 0c00 	mov.w	ip, #0
1000040e:	4660      	mov	r0, ip
10000410:	4b14      	ldr	r3, [pc, #80]	@ (10000464 <pvPortMalloc+0x140>)
10000412:	f8df e054 	ldr.w	lr, [pc, #84]	@ 10000468 <pvPortMalloc+0x144>
10000416:	0759      	lsls	r1, r3, #29
10000418:	bf1c      	itt	ne
1000041a:	3307      	addne	r3, #7
1000041c:	f023 0307 	bicne.w	r3, r3, #7
10000420:	461c      	mov	r4, r3
10000422:	2100      	movs	r1, #0
10000424:	f02e 0e07 	bic.w	lr, lr, #7
10000428:	f8c2 e000 	str.w	lr, [r2]
1000042c:	4a0a      	ldr	r2, [pc, #40]	@ (10000458 <pvPortMalloc+0x134>)
1000042e:	ebae 0303 	sub.w	r3, lr, r3
10000432:	e9c2 4100 	strd	r4, r1, [r2]
10000436:	4a09      	ldr	r2, [pc, #36]	@ (1000045c <pvPortMalloc+0x138>)
10000438:	f1bc 0f00 	cmp.w	ip, #0
1000043c:	6013      	str	r3, [r2, #0]
1000043e:	4a05      	ldr	r2, [pc, #20]	@ (10000454 <pvPortMalloc+0x130>)
10000440:	e9ce 1100 	strd	r1, r1, [lr]
10000444:	6013      	str	r3, [r2, #0]
10000446:	e9c4 e300 	strd	lr, r3, [r4]
1000044a:	dc83      	bgt.n	10000354 <pvPortMalloc+0x30>
1000044c:	e7c2      	b.n	100003d4 <pvPortMalloc+0xb0>
1000044e:	bf00      	nop
10000450:	20001f18 	.word	0x20001f18
10000454:	20022250 	.word	0x20022250
10000458:	20022290 	.word	0x20022290
1000045c:	20022260 	.word	0x20022260
10000460:	2002226c 	.word	0x2002226c
10000464:	200021c0 	.word	0x200021c0
10000468:	200221b8 	.word	0x200221b8

1000046c <vPortFree>:
1000046c:	b118      	cbz	r0, 10000476 <vPortFree+0xa>
1000046e:	f850 3c04 	ldr.w	r3, [r0, #-4]
10000472:	2b00      	cmp	r3, #0
10000474:	db00      	blt.n	10000478 <vPortFree+0xc>
10000476:	4770      	bx	lr
10000478:	f850 2c08 	ldr.w	r2, [r0, #-8]
1000047c:	2a00      	cmp	r2, #0
1000047e:	d1fa      	bne.n	10000476 <vPortFree+0xa>
10000480:	b510      	push	{r4, lr}
10000482:	f023 4300 	bic.w	r3, r3, #2147483648	@ 0x80000000
10000486:	b082      	sub	sp, #8
10000488:	f1a0 0208 	sub.w	r2, r0, #8
1000048c:	f840 3c04 	str.w	r3, [r0, #-4]
10000490:	e9cd 2000 	strd	r2, r0, [sp]
10000494:	f001 fdf2 	bl	1000207c <vTaskSuspendAll>
10000498:	f8df e08c 	ldr.w	lr, [pc, #140]	@ 10000528 <vPortFree+0xbc>
1000049c:	9801      	ldr	r0, [sp, #4]
1000049e:	f8de 1000 	ldr.w	r1, [lr]
100004a2:	f850 cc04 	ldr.w	ip, [r0, #-4]
100004a6:	4b1d      	ldr	r3, [pc, #116]	@ (1000051c <vPortFree+0xb0>)
100004a8:	4461      	add	r1, ip
100004aa:	9a00      	ldr	r2, [sp, #0]
100004ac:	f8ce 1000 	str.w	r1, [lr]
100004b0:	4619      	mov	r1, r3
100004b2:	681b      	ldr	r3, [r3, #0]
100004b4:	429a      	cmp	r2, r3
100004b6:	d8fb      	bhi.n	100004b0 <vPortFree+0x44>
100004b8:	f8d1 e004 	ldr.w	lr, [r1, #4]
100004bc:	eb01 040e 	add.w	r4, r1, lr
100004c0:	42a2      	cmp	r2, r4
100004c2:	d011      	beq.n	100004e8 <vPortFree+0x7c>
100004c4:	eb02 0e0c 	add.w	lr, r2, ip
100004c8:	4573      	cmp	r3, lr
100004ca:	d01f      	beq.n	1000050c <vPortFree+0xa0>
100004cc:	f840 3c08 	str.w	r3, [r0, #-8]
100004d0:	4291      	cmp	r1, r2
100004d2:	bf18      	it	ne
100004d4:	600a      	strne	r2, [r1, #0]
100004d6:	4a12      	ldr	r2, [pc, #72]	@ (10000520 <vPortFree+0xb4>)
100004d8:	6813      	ldr	r3, [r2, #0]
100004da:	3301      	adds	r3, #1
100004dc:	6013      	str	r3, [r2, #0]
100004de:	b002      	add	sp, #8
100004e0:	e8bd 4010 	ldmia.w	sp!, {r4, lr}
100004e4:	f002 bdf8 	b.w	100030d8 <xTaskResumeAll>
100004e8:	44f4      	add	ip, lr
100004ea:	eb01 020c 	add.w	r2, r1, ip
100004ee:	4293      	cmp	r3, r2
100004f0:	f8c1 c004 	str.w	ip, [r1, #4]
100004f4:	d1ef      	bne.n	100004d6 <vPortFree+0x6a>
100004f6:	4a0b      	ldr	r2, [pc, #44]	@ (10000524 <vPortFree+0xb8>)
100004f8:	6812      	ldr	r2, [r2, #0]
100004fa:	429a      	cmp	r2, r3
100004fc:	d0eb      	beq.n	100004d6 <vPortFree+0x6a>
100004fe:	460a      	mov	r2, r1
10000500:	e9d3 3000 	ldrd	r3, r0, [r3]
10000504:	4460      	add	r0, ip
10000506:	6013      	str	r3, [r2, #0]
10000508:	6050      	str	r0, [r2, #4]
1000050a:	e7e1      	b.n	100004d0 <vPortFree+0x64>
1000050c:	f8df e014 	ldr.w	lr, [pc, #20]	@ 10000524 <vPortFree+0xb8>
10000510:	f8de e000 	ldr.w	lr, [lr]
10000514:	4573      	cmp	r3, lr
10000516:	d1f3      	bne.n	10000500 <vPortFree+0x94>
10000518:	e7d8      	b.n	100004cc <vPortFree+0x60>
1000051a:	bf00      	nop
1000051c:	20022290 	.word	0x20022290
10000520:	20022270 	.word	0x20022270
10000524:	20001f18 	.word	0x20001f18
10000528:	20022250 	.word	0x20022250

1000052c <prvDoorbellInterruptHandler>:
1000052c:	4b0a      	ldr	r3, [pc, #40]	@ (10000558 <prvDoorbellInterruptHandler+0x2c>)
1000052e:	f993 2000 	ldrsb.w	r2, [r3]
10000532:	2a00      	cmp	r2, #0
10000534:	db0f      	blt.n	10000556 <prvDoorbellInterruptHandler+0x2a>
10000536:	f04f 4150 	mov.w	r1, #3489660928	@ 0xd0000000
1000053a:	2301      	movs	r3, #1
1000053c:	f8d1 0188 	ldr.w	r0, [r1, #392]	@ 0x188
10000540:	4093      	lsls	r3, r2
10000542:	4218      	tst	r0, r3
10000544:	d007      	beq.n	10000556 <prvDoorbellInterruptHandler+0x2a>
10000546:	f04f 22e0 	mov.w	r2, #3758153728	@ 0xe000e000
1000054a:	f04f 5080 	mov.w	r0, #268435456	@ 0x10000000
1000054e:	f8c1 318c 	str.w	r3, [r1, #396]	@ 0x18c
10000552:	f8c2 0d04 	str.w	r0, [r2, #3332]	@ 0xd04
10000556:	4770      	bx	lr
10000558:	20001218 	.word	0x20001218

1000055c <prvTaskExitError>:
1000055c:	2300      	movs	r3, #0
1000055e:	b500      	push	{lr}
10000560:	b083      	sub	sp, #12
10000562:	9301      	str	r3, [sp, #4]
10000564:	f000 fa60 	bl	10000a28 <ulSetInterruptMask>
10000568:	9b01      	ldr	r3, [sp, #4]
1000056a:	2b00      	cmp	r3, #0
1000056c:	d0fc      	beq.n	10000568 <prvTaskExitError+0xc>
1000056e:	b003      	add	sp, #12
10000570:	bd00      	pop	{pc}
10000572:	bf00      	nop

10000574 <SysTick_Handler>:
10000574:	b510      	push	{r4, lr}
10000576:	f002 fe89 	bl	1000328c <vTaskEnterCriticalFromISR>
1000057a:	4604      	mov	r4, r0
1000057c:	f001 fd92 	bl	100020a4 <xTaskIncrementTick>
10000580:	b128      	cbz	r0, 1000058e <SysTick_Handler+0x1a>
10000582:	f04f 23e0 	mov.w	r3, #3758153728	@ 0xe000e000
10000586:	f04f 5280 	mov.w	r2, #268435456	@ 0x10000000
1000058a:	f8c3 2d04 	str.w	r2, [r3, #3332]	@ 0xd04
1000058e:	4620      	mov	r0, r4
10000590:	e8bd 4010 	ldmia.w	sp!, {r4, lr}
10000594:	f002 bf16 	b.w	100033c4 <vTaskExitCriticalFromISR>

10000598 <vPortSetupTimerInterrupt>:
10000598:	b510      	push	{r4, lr}
1000059a:	2204      	movs	r2, #4
1000059c:	f04f 24e0 	mov.w	r4, #3758153728	@ 0xe000e000
100005a0:	2300      	movs	r3, #0
100005a2:	6122      	str	r2, [r4, #16]
100005a4:	2005      	movs	r0, #5
100005a6:	61a3      	str	r3, [r4, #24]
100005a8:	f003 f9e6 	bl	10003978 <clock_get_hz>
100005ac:	2207      	movs	r2, #7
100005ae:	4b04      	ldr	r3, [pc, #16]	@ (100005c0 <vPortSetupTimerInterrupt+0x28>)
100005b0:	fba3 3000 	umull	r3, r0, r3, r0
100005b4:	0980      	lsrs	r0, r0, #6
100005b6:	3801      	subs	r0, #1
100005b8:	6160      	str	r0, [r4, #20]
100005ba:	6122      	str	r2, [r4, #16]
100005bc:	bd10      	pop	{r4, pc}
100005be:	bf00      	nop
100005c0:	10624dd3 	.word	0x10624dd3

100005c4 <xPortStartSchedulerOnCore.isra.0>:
100005c4:	f04f 23e0 	mov.w	r3, #3758153728	@ 0xe000e000
100005c8:	f04f 427f 	mov.w	r2, #4278190080	@ 0xff000000
100005cc:	2100      	movs	r1, #0
100005ce:	b530      	push	{r4, r5, lr}
100005d0:	b085      	sub	sp, #20
100005d2:	9103      	str	r1, [sp, #12]
100005d4:	f8c3 2d1c 	str.w	r2, [r3, #3356]	@ 0xd1c
100005d8:	f8d3 3d1c 	ldr.w	r3, [r3, #3356]	@ 0xd1c
100005dc:	0e1b      	lsrs	r3, r3, #24
100005de:	f88d 3007 	strb.w	r3, [sp, #7]
100005e2:	f89d 3007 	ldrb.w	r3, [sp, #7]
100005e6:	f89d 3007 	ldrb.w	r3, [sp, #7]
100005ea:	061a      	lsls	r2, r3, #24
100005ec:	d50b      	bpl.n	10000606 <xPortStartSchedulerOnCore.isra.0+0x42>
100005ee:	9b03      	ldr	r3, [sp, #12]
100005f0:	3301      	adds	r3, #1
100005f2:	9303      	str	r3, [sp, #12]
100005f4:	f89d 3007 	ldrb.w	r3, [sp, #7]
100005f8:	005b      	lsls	r3, r3, #1
100005fa:	f88d 3007 	strb.w	r3, [sp, #7]
100005fe:	f89d 3007 	ldrb.w	r3, [sp, #7]
10000602:	061b      	lsls	r3, r3, #24
10000604:	d4f3      	bmi.n	100005ee <xPortStartSchedulerOnCore.isra.0+0x2a>
10000606:	9b03      	ldr	r3, [sp, #12]
10000608:	2b08      	cmp	r3, #8
1000060a:	d040      	beq.n	1000068e <xPortStartSchedulerOnCore.isra.0+0xca>
1000060c:	9b03      	ldr	r3, [sp, #12]
1000060e:	f1c3 0307 	rsb	r3, r3, #7
10000612:	021b      	lsls	r3, r3, #8
10000614:	f403 63e0 	and.w	r3, r3, #1792	@ 0x700
10000618:	f04f 4150 	mov.w	r1, #3489660928	@ 0xd0000000
1000061c:	4824      	ldr	r0, [pc, #144]	@ (100006b0 <xPortStartSchedulerOnCore.isra.0+0xec>)
1000061e:	4a25      	ldr	r2, [pc, #148]	@ (100006b4 <xPortStartSchedulerOnCore.isra.0+0xf0>)
10000620:	6003      	str	r3, [r0, #0]
10000622:	7812      	ldrb	r2, [r2, #0]
10000624:	680b      	ldr	r3, [r1, #0]
10000626:	429a      	cmp	r2, r3
10000628:	d033      	beq.n	10000692 <xPortStartSchedulerOnCore.isra.0+0xce>
1000062a:	f04f 23e0 	mov.w	r3, #3758153728	@ 0xe000e000
1000062e:	2400      	movs	r4, #0
10000630:	f04f 4550 	mov.w	r5, #3489660928	@ 0xd0000000
10000634:	f8d3 2d20 	ldr.w	r2, [r3, #3360]	@ 0xd20
10000638:	491f      	ldr	r1, [pc, #124]	@ (100006b8 <xPortStartSchedulerOnCore.isra.0+0xf4>)
1000063a:	f442 027f 	orr.w	r2, r2, #16711680	@ 0xff0000
1000063e:	f8c3 2d20 	str.w	r2, [r3, #3360]	@ 0xd20
10000642:	200e      	movs	r0, #14
10000644:	f8c3 4d1c 	str.w	r4, [r3, #3356]	@ 0xd1c
10000648:	f004 f9d2 	bl	100049f0 <exception_set_exclusive_handler>
1000064c:	491b      	ldr	r1, [pc, #108]	@ (100006bc <xPortStartSchedulerOnCore.isra.0+0xf8>)
1000064e:	200b      	movs	r0, #11
10000650:	f004 f9ce 	bl	100049f0 <exception_set_exclusive_handler>
10000654:	4b1a      	ldr	r3, [pc, #104]	@ (100006c0 <xPortStartSchedulerOnCore.isra.0+0xfc>)
10000656:	682a      	ldr	r2, [r5, #0]
10000658:	21ff      	movs	r1, #255	@ 0xff
1000065a:	201a      	movs	r0, #26
1000065c:	f843 4022 	str.w	r4, [r3, r2, lsl #2]
10000660:	f003 fc02 	bl	10003e68 <irq_set_priority>
10000664:	201a      	movs	r0, #26
10000666:	4917      	ldr	r1, [pc, #92]	@ (100006c4 <xPortStartSchedulerOnCore.isra.0+0x100>)
10000668:	f003 facc 	bl	10003c04 <irq_set_exclusive_handler>
1000066c:	2101      	movs	r1, #1
1000066e:	201a      	movs	r0, #26
10000670:	f003 fa86 	bl	10003b80 <irq_set_enabled>
10000674:	f000 f9d0 	bl	10000a18 <vStartFirstTask>
10000678:	6828      	ldr	r0, [r5, #0]
1000067a:	f001 fe31 	bl	100022e0 <vTaskSwitchContext>
1000067e:	9402      	str	r4, [sp, #8]
10000680:	f000 f9d2 	bl	10000a28 <ulSetInterruptMask>
10000684:	9b02      	ldr	r3, [sp, #8]
10000686:	2b00      	cmp	r3, #0
10000688:	d0fc      	beq.n	10000684 <xPortStartSchedulerOnCore.isra.0+0xc0>
1000068a:	b005      	add	sp, #20
1000068c:	bd30      	pop	{r4, r5, pc}
1000068e:	2300      	movs	r3, #0
10000690:	e7c2      	b.n	10000618 <xPortStartSchedulerOnCore.isra.0+0x54>
10000692:	f7ff ff81 	bl	10000598 <vPortSetupTimerInterrupt>
10000696:	f04f 22e0 	mov.w	r2, #3758153728	@ 0xe000e000
1000069a:	f8d2 3d20 	ldr.w	r3, [r2, #3360]	@ 0xd20
1000069e:	490a      	ldr	r1, [pc, #40]	@ (100006c8 <xPortStartSchedulerOnCore.isra.0+0x104>)
100006a0:	f043 437f 	orr.w	r3, r3, #4278190080	@ 0xff000000
100006a4:	f8c2 3d20 	str.w	r3, [r2, #3360]	@ 0xd20
100006a8:	200f      	movs	r0, #15
100006aa:	f004 f9a1 	bl	100049f0 <exception_set_exclusive_handler>
100006ae:	e7bc      	b.n	1000062a <xPortStartSchedulerOnCore.isra.0+0x66>
100006b0:	200221d0 	.word	0x200221d0
100006b4:	20001219 	.word	0x20001219
100006b8:	10000a51 	.word	0x10000a51
100006bc:	10000ae9 	.word	0x10000ae9
100006c0:	200221c8 	.word	0x200221c8
100006c4:	1000052d 	.word	0x1000052d
100006c8:	10000575 	.word	0x10000575

100006cc <prvDisableInterruptsAndPortStartSchedulerOnCore>:
100006cc:	b508      	push	{r3, lr}
100006ce:	f000 f9ab 	bl	10000a28 <ulSetInterruptMask>
100006d2:	e8bd 4008 	ldmia.w	sp!, {r3, lr}
100006d6:	f7ff bf75 	b.w	100005c4 <xPortStartSchedulerOnCore.isra.0>
100006da:	bf00      	nop

100006dc <vPortYield>:
100006dc:	f04f 23e0 	mov.w	r3, #3758153728	@ 0xe000e000
100006e0:	f04f 5280 	mov.w	r2, #268435456	@ 0x10000000
100006e4:	f8c3 2d04 	str.w	r2, [r3, #3332]	@ 0xd04
100006e8:	f3bf 8f4f 	dsb	sy
100006ec:	f3bf 8f6f 	isb	sy
100006f0:	4770      	bx	lr
100006f2:	bf00      	nop

100006f4 <vPortSVCHandler_C>:
100006f4:	6983      	ldr	r3, [r0, #24]
100006f6:	f813 3c02 	ldrb.w	r3, [r3, #-2]
100006fa:	2b66      	cmp	r3, #102	@ 0x66
100006fc:	d000      	beq.n	10000700 <vPortSVCHandler_C+0xc>
100006fe:	4770      	bx	lr
10000700:	f04f 23e0 	mov.w	r3, #3758153728	@ 0xe000e000
10000704:	f8d3 2d88 	ldr.w	r2, [r3, #3464]	@ 0xd88
10000708:	f442 0270 	orr.w	r2, r2, #15728640	@ 0xf00000
1000070c:	f8c3 2d88 	str.w	r2, [r3, #3464]	@ 0xd88
10000710:	f8d3 2f34 	ldr.w	r2, [r3, #3892]	@ 0xf34
10000714:	f042 4240 	orr.w	r2, r2, #3221225472	@ 0xc0000000
10000718:	f8c3 2f34 	str.w	r2, [r3, #3892]	@ 0xf34
1000071c:	f000 b960 	b.w	100009e0 <vRestoreContextOfFirstTask>

10000720 <pxPortInitialiseStack>:
10000720:	b500      	push	{lr}
10000722:	f04f 3c12 	mov.w	ip, #303174162	@ 0x12121212
10000726:	f04f 7e80 	mov.w	lr, #16777216	@ 0x1000000
1000072a:	f840 3c20 	str.w	r3, [r0, #-32]
1000072e:	4b1a      	ldr	r3, [pc, #104]	@ (10000798 <pxPortInitialiseStack+0x78>)
10000730:	f840 cc10 	str.w	ip, [r0, #-16]
10000734:	e940 3203 	strd	r3, r2, [r0, #-12]
10000738:	f840 ec04 	str.w	lr, [r0, #-4]
1000073c:	f04f 3c03 	mov.w	ip, #50529027	@ 0x3030303
10000740:	f04f 3202 	mov.w	r2, #33686018	@ 0x2020202
10000744:	f04f 3e01 	mov.w	lr, #16843009	@ 0x1010101
10000748:	e940 2c06 	strd	r2, ip, [r0, #-24]
1000074c:	f840 ec1c 	str.w	lr, [r0, #-28]
10000750:	f04f 3c11 	mov.w	ip, #286331153	@ 0x11111111
10000754:	f04f 3210 	mov.w	r2, #269488144	@ 0x10101010
10000758:	f04f 3e09 	mov.w	lr, #151587081	@ 0x9090909
1000075c:	e940 2c0a 	strd	r2, ip, [r0, #-40]	@ 0x28
10000760:	f840 ec2c 	str.w	lr, [r0, #-44]
10000764:	f04f 3c08 	mov.w	ip, #134744072	@ 0x8080808
10000768:	f04f 3207 	mov.w	r2, #117901063	@ 0x7070707
1000076c:	f04f 3e06 	mov.w	lr, #101058054	@ 0x6060606
10000770:	e940 2c0d 	strd	r2, ip, [r0, #-52]	@ 0x34
10000774:	f840 ec38 	str.w	lr, [r0, #-56]
10000778:	4603      	mov	r3, r0
1000077a:	f04f 3c05 	mov.w	ip, #84215045	@ 0x5050505
1000077e:	f04f 3204 	mov.w	r2, #67372036	@ 0x4040404
10000782:	f06f 0e02 	mvn.w	lr, #2
10000786:	e940 2c10 	strd	r2, ip, [r0, #-64]	@ 0x40
1000078a:	f840 ec44 	str.w	lr, [r0, #-68]
1000078e:	f843 1d48 	str.w	r1, [r3, #-72]!
10000792:	4618      	mov	r0, r3
10000794:	bd00      	pop	{pc}
10000796:	bf00      	nop
10000798:	1000055d 	.word	0x1000055d

1000079c <xPortStartScheduler>:
1000079c:	b538      	push	{r3, r4, r5, lr}
1000079e:	200e      	movs	r0, #14
100007a0:	f003 f99e 	bl	10003ae0 <spin_lock_claim>
100007a4:	200f      	movs	r0, #15
100007a6:	f003 f99b 	bl	10003ae0 <spin_lock_claim>
100007aa:	2101      	movs	r1, #1
100007ac:	2003      	movs	r0, #3
100007ae:	f004 f9c1 	bl	10004b34 <multicore_doorbell_claim_unused>
100007b2:	2301      	movs	r3, #1
100007b4:	f04f 4150 	mov.w	r1, #3489660928	@ 0xd0000000
100007b8:	2400      	movs	r4, #0
100007ba:	b242      	sxtb	r2, r0
100007bc:	f8df c028 	ldr.w	ip, [pc, #40]	@ 100007e8 <xPortStartScheduler+0x4c>
100007c0:	4093      	lsls	r3, r2
100007c2:	4d07      	ldr	r5, [pc, #28]	@ (100007e0 <xPortStartScheduler+0x44>)
100007c4:	f88c 2000 	strb.w	r2, [ip]
100007c8:	4806      	ldr	r0, [pc, #24]	@ (100007e4 <xPortStartScheduler+0x48>)
100007ca:	f8c1 318c 	str.w	r3, [r1, #396]	@ 0x18c
100007ce:	f8c1 3184 	str.w	r3, [r1, #388]	@ 0x184
100007d2:	702c      	strb	r4, [r5, #0]
100007d4:	f004 f98a 	bl	10004aec <multicore_launch_core1>
100007d8:	f7ff fef4 	bl	100005c4 <xPortStartSchedulerOnCore.isra.0>
100007dc:	4620      	mov	r0, r4
100007de:	bd38      	pop	{r3, r4, r5, pc}
100007e0:	20001219 	.word	0x20001219
100007e4:	100006cd 	.word	0x100006cd
100007e8:	20001218 	.word	0x20001218

100007ec <vPortValidateInterruptPriority>:
100007ec:	f3ef 8305 	mrs	r3, IPSR
100007f0:	2b0f      	cmp	r3, #15
100007f2:	bf84      	itt	hi
100007f4:	4a01      	ldrhi	r2, [pc, #4]	@ (100007fc <vPortValidateInterruptPriority+0x10>)
100007f6:	5c9b      	ldrbhi	r3, [r3, r2]
100007f8:	4770      	bx	lr
100007fa:	bf00      	nop
100007fc:	e000e3f0 	.word	0xe000e3f0

10000800 <ulPortLockGetCurrentOwnerId>:
10000800:	4b09      	ldr	r3, [pc, #36]	@ (10000828 <ulPortLockGetCurrentOwnerId+0x28>)
10000802:	781b      	ldrb	r3, [r3, #0]
10000804:	2bff      	cmp	r3, #255	@ 0xff
10000806:	d00b      	beq.n	10000820 <ulPortLockGetCurrentOwnerId+0x20>
10000808:	f3ef 8305 	mrs	r3, IPSR
1000080c:	b2db      	uxtb	r3, r3
1000080e:	b12b      	cbz	r3, 1000081c <ulPortLockGetCurrentOwnerId+0x1c>
10000810:	f04f 4250 	mov.w	r2, #3489660928	@ 0xd0000000
10000814:	6810      	ldr	r0, [r2, #0]
10000816:	eb00 0043 	add.w	r0, r0, r3, lsl #1
1000081a:	4770      	bx	lr
1000081c:	f002 b860 	b.w	100028e0 <xTaskGetCurrentTaskHandle>
10000820:	f04f 4350 	mov.w	r3, #3489660928	@ 0xd0000000
10000824:	6818      	ldr	r0, [r3, #0]
10000826:	4770      	bx	lr
10000828:	20001219 	.word	0x20001219

1000082c <vPortLockInternalSpinUnlockWithNotify>:
1000082c:	4b1f      	ldr	r3, [pc, #124]	@ (100008ac <vPortLockInternalSpinUnlockWithNotify+0x80>)
1000082e:	781b      	ldrb	r3, [r3, #0]
10000830:	2bff      	cmp	r3, #255	@ 0xff
10000832:	d033      	beq.n	1000089c <vPortLockInternalSpinUnlockWithNotify+0x70>
10000834:	f04f 0c01 	mov.w	ip, #1
10000838:	6802      	ldr	r2, [r0, #0]
1000083a:	4b1d      	ldr	r3, [pc, #116]	@ (100008b0 <vPortLockInternalSpinUnlockWithNotify+0x84>)
1000083c:	b500      	push	{lr}
1000083e:	1ad2      	subs	r2, r2, r3
10000840:	4b1c      	ldr	r3, [pc, #112]	@ (100008b4 <vPortLockInternalSpinUnlockWithNotify+0x88>)
10000842:	b083      	sub	sp, #12
10000844:	fba3 e302 	umull	lr, r3, r3, r2
10000848:	091b      	lsrs	r3, r3, #4
1000084a:	eb03 0343 	add.w	r3, r3, r3, lsl #1
1000084e:	eba2 02c3 	sub.w	r2, r2, r3, lsl #3
10000852:	fa0c f302 	lsl.w	r3, ip, r2
10000856:	bf40      	sev
10000858:	f04f 0c00 	mov.w	ip, #0
1000085c:	6802      	ldr	r2, [r0, #0]
1000085e:	e8c2 cf8f 	stlb	ip, [r2]
10000862:	f381 8810 	msr	PRIMASK, r1
10000866:	f3ef 8205 	mrs	r2, IPSR
1000086a:	4913      	ldr	r1, [pc, #76]	@ (100008b8 <vPortLockInternalSpinUnlockWithNotify+0x8c>)
1000086c:	b2d2      	uxtb	r2, r2
1000086e:	6808      	ldr	r0, [r1, #0]
10000870:	4619      	mov	r1, r3
10000872:	b922      	cbnz	r2, 1000087e <vPortLockInternalSpinUnlockWithNotify+0x52>
10000874:	b003      	add	sp, #12
10000876:	f85d eb04 	ldr.w	lr, [sp], #4
1000087a:	f000 b9df 	b.w	10000c3c <xEventGroupSetBits>
1000087e:	aa01      	add	r2, sp, #4
10000880:	f8cd c004 	str.w	ip, [sp, #4]
10000884:	f000 fa10 	bl	10000ca8 <xEventGroupSetBitsFromISR>
10000888:	9b01      	ldr	r3, [sp, #4]
1000088a:	b12b      	cbz	r3, 10000898 <vPortLockInternalSpinUnlockWithNotify+0x6c>
1000088c:	f04f 23e0 	mov.w	r3, #3758153728	@ 0xe000e000
10000890:	f04f 5280 	mov.w	r2, #268435456	@ 0x10000000
10000894:	f8c3 2d04 	str.w	r2, [r3, #3332]	@ 0xd04
10000898:	b003      	add	sp, #12
1000089a:	bd00      	pop	{pc}
1000089c:	bf40      	sev
1000089e:	2300      	movs	r3, #0
100008a0:	6802      	ldr	r2, [r0, #0]
100008a2:	e8c2 3f8f 	stlb	r3, [r2]
100008a6:	f381 8810 	msr	PRIMASK, r1
100008aa:	4770      	bx	lr
100008ac:	20001219 	.word	0x20001219
100008b0:	20001634 	.word	0x20001634
100008b4:	aaaaaaab 	.word	0xaaaaaaab
100008b8:	2002224c 	.word	0x2002224c

100008bc <xPortLockInternalSpinUnlockWithBestEffortWaitOrTimeout>:
100008bc:	e92d 41f0 	stmdb	sp!, {r4, r5, r6, r7, r8, lr}
100008c0:	4c37      	ldr	r4, [pc, #220]	@ (100009a0 <xPortLockInternalSpinUnlockWithBestEffortWaitOrTimeout+0xe4>)
100008c2:	b082      	sub	sp, #8
100008c4:	f894 c000 	ldrb.w	ip, [r4]
100008c8:	f1bc 0fff 	cmp.w	ip, #255	@ 0xff
100008cc:	d056      	beq.n	1000097c <xPortLockInternalSpinUnlockWithBestEffortWaitOrTimeout+0xc0>
100008ce:	461d      	mov	r5, r3
100008d0:	4614      	mov	r4, r2
100008d2:	4606      	mov	r6, r0
100008d4:	460f      	mov	r7, r1
100008d6:	4680      	mov	r8, r0
100008d8:	f003 ff72 	bl	100047c0 <time_us_64>
100008dc:	f240 33e7 	movw	r3, #999	@ 0x3e7
100008e0:	ebb4 0c00 	subs.w	ip, r4, r0
100008e4:	eb65 0101 	sbc.w	r1, r5, r1
100008e8:	eb1c 0003 	adds.w	r0, ip, r3
100008ec:	f141 0100 	adc.w	r1, r1, #0
100008f0:	6832      	ldr	r2, [r6, #0]
100008f2:	f5b0 7f7a 	cmp.w	r0, #1000	@ 0x3e8
100008f6:	f171 0300 	sbcs.w	r3, r1, #0
100008fa:	4616      	mov	r6, r2
100008fc:	da1d      	bge.n	1000093a <xPortLockInternalSpinUnlockWithBestEffortWaitOrTimeout+0x7e>
100008fe:	2300      	movs	r3, #0
10000900:	e8c6 3f8f 	stlb	r3, [r6]
10000904:	f387 8810 	msr	PRIMASK, r7
10000908:	4b26      	ldr	r3, [pc, #152]	@ (100009a4 <xPortLockInternalSpinUnlockWithBestEffortWaitOrTimeout+0xe8>)
1000090a:	6a5a      	ldr	r2, [r3, #36]	@ 0x24
1000090c:	4295      	cmp	r5, r2
1000090e:	d90d      	bls.n	1000092c <xPortLockInternalSpinUnlockWithBestEffortWaitOrTimeout+0x70>
10000910:	f04f 23e0 	mov.w	r3, #3758153728	@ 0xe000e000
10000914:	f04f 5280 	mov.w	r2, #268435456	@ 0x10000000
10000918:	f8c3 2d04 	str.w	r2, [r3, #3332]	@ 0xd04
1000091c:	f3bf 8f4f 	dsb	sy
10000920:	f3bf 8f6f 	isb	sy
10000924:	2000      	movs	r0, #0
10000926:	b002      	add	sp, #8
10000928:	e8bd 81f0 	ldmia.w	sp!, {r4, r5, r6, r7, r8, pc}
1000092c:	6a9b      	ldr	r3, [r3, #40]	@ 0x28
1000092e:	42a3      	cmp	r3, r4
10000930:	d331      	bcc.n	10000996 <xPortLockInternalSpinUnlockWithBestEffortWaitOrTimeout+0xda>
10000932:	2001      	movs	r0, #1
10000934:	b002      	add	sp, #8
10000936:	e8bd 81f0 	ldmia.w	sp!, {r4, r5, r6, r7, r8, pc}
1000093a:	f44f 727a 	mov.w	r2, #1000	@ 0x3e8
1000093e:	2300      	movs	r3, #0
10000940:	f008 fe7a 	bl	10009638 <____aeabi_ldivmod_veneer>
10000944:	2800      	cmp	r0, #0
10000946:	d0da      	beq.n	100008fe <xPortLockInternalSpinUnlockWithBestEffortWaitOrTimeout+0x42>
10000948:	2300      	movs	r3, #0
1000094a:	e8c6 3f8f 	stlb	r3, [r6]
1000094e:	f387 8810 	msr	PRIMASK, r7
10000952:	2201      	movs	r2, #1
10000954:	9000      	str	r0, [sp, #0]
10000956:	f8d8 1000 	ldr.w	r1, [r8]
1000095a:	4813      	ldr	r0, [pc, #76]	@ (100009a8 <xPortLockInternalSpinUnlockWithBestEffortWaitOrTimeout+0xec>)
1000095c:	1a09      	subs	r1, r1, r0
1000095e:	4813      	ldr	r0, [pc, #76]	@ (100009ac <xPortLockInternalSpinUnlockWithBestEffortWaitOrTimeout+0xf0>)
10000960:	fba0 c001 	umull	ip, r0, r0, r1
10000964:	0900      	lsrs	r0, r0, #4
10000966:	eb00 0040 	add.w	r0, r0, r0, lsl #1
1000096a:	eba1 01c0 	sub.w	r1, r1, r0, lsl #3
1000096e:	4810      	ldr	r0, [pc, #64]	@ (100009b0 <xPortLockInternalSpinUnlockWithBestEffortWaitOrTimeout+0xf4>)
10000970:	fa02 f101 	lsl.w	r1, r2, r1
10000974:	6800      	ldr	r0, [r0, #0]
10000976:	f000 f90b 	bl	10000b90 <xEventGroupWaitBits>
1000097a:	e7c5      	b.n	10000908 <xPortLockInternalSpinUnlockWithBestEffortWaitOrTimeout+0x4c>
1000097c:	2400      	movs	r4, #0
1000097e:	6800      	ldr	r0, [r0, #0]
10000980:	e8c0 4f8f 	stlb	r4, [r0]
10000984:	f381 8810 	msr	PRIMASK, r1
10000988:	4610      	mov	r0, r2
1000098a:	4619      	mov	r1, r3
1000098c:	b002      	add	sp, #8
1000098e:	e8bd 41f0 	ldmia.w	sp!, {r4, r5, r6, r7, r8, lr}
10000992:	f003 be7f 	b.w	10004694 <best_effort_wfe_or_timeout>
10000996:	4295      	cmp	r5, r2
10000998:	d0ba      	beq.n	10000910 <xPortLockInternalSpinUnlockWithBestEffortWaitOrTimeout+0x54>
1000099a:	2001      	movs	r0, #1
1000099c:	e7ca      	b.n	10000934 <xPortLockInternalSpinUnlockWithBestEffortWaitOrTimeout+0x78>
1000099e:	bf00      	nop
100009a0:	20001219 	.word	0x20001219
100009a4:	400b0000 	.word	0x400b0000
100009a8:	20001634 	.word	0x20001634
100009ac:	aaaaaaab 	.word	0xaaaaaaab
100009b0:	2002224c 	.word	0x2002224c

100009b4 <prvRuntimeInitializer>:
100009b4:	b508      	push	{r3, lr}
100009b6:	f000 f8d9 	bl	10000b6c <xEventGroupCreate>
100009ba:	4b01      	ldr	r3, [pc, #4]	@ (100009c0 <prvRuntimeInitializer+0xc>)
100009bc:	6018      	str	r0, [r3, #0]
100009be:	bd08      	pop	{r3, pc}
100009c0:	2002224c 	.word	0x2002224c

100009c4 <vYieldCore>:
100009c4:	2301      	movs	r3, #1
100009c6:	f04f 4250 	mov.w	r2, #3489660928	@ 0xd0000000
100009ca:	4903      	ldr	r1, [pc, #12]	@ (100009d8 <vYieldCore+0x14>)
100009cc:	f991 1000 	ldrsb.w	r1, [r1]
100009d0:	408b      	lsls	r3, r1
100009d2:	f8c2 3180 	str.w	r3, [r2, #384]	@ 0x180
100009d6:	4770      	bx	lr
100009d8:	20001218 	.word	0x20001218
100009dc:	00000000 	.word	0x00000000

100009e0 <vRestoreContextOfFirstTask>:
100009e0:	a10b      	add	r1, pc, #44	@ (adr r1, 10000a10 <ulAsmLocals>)
100009e2:	c90c      	ldmia	r1!, {r2, r3}
100009e4:	6812      	ldr	r2, [r2, #0]
100009e6:	f853 1022 	ldr.w	r1, [r3, r2, lsl #2]
100009ea:	6808      	ldr	r0, [r1, #0]
100009ec:	c806      	ldmia	r0!, {r1, r2}
100009ee:	f381 880b 	msr	PSPLIM, r1
100009f2:	2102      	movs	r1, #2
100009f4:	f381 8814 	msr	CONTROL, r1
100009f8:	3020      	adds	r0, #32
100009fa:	f380 8809 	msr	PSP, r0
100009fe:	f3bf 8f6f 	isb	sy
10000a02:	f04f 0000 	mov.w	r0, #0
10000a06:	f380 8811 	msr	BASEPRI, r0
10000a0a:	4710      	bx	r2
10000a0c:	f3af 8000 	nop.w

10000a10 <ulAsmLocals>:
10000a10:	d0000000 	.word	0xd0000000
10000a14:	20001f08 	.word	0x20001f08

10000a18 <vStartFirstTask>:
10000a18:	b662      	cpsie	i
10000a1a:	b661      	cpsie	f
10000a1c:	f3bf 8f4f 	dsb	sy
10000a20:	f3bf 8f6f 	isb	sy
10000a24:	df66      	svc	102	@ 0x66
10000a26:	bf00      	nop

10000a28 <ulSetInterruptMask>:
10000a28:	f3ef 8011 	mrs	r0, BASEPRI
10000a2c:	f04f 0110 	mov.w	r1, #16
10000a30:	f381 8811 	msr	BASEPRI, r1
10000a34:	f3bf 8f4f 	dsb	sy
10000a38:	f3bf 8f6f 	isb	sy
10000a3c:	4770      	bx	lr
10000a3e:	bf00      	nop

10000a40 <vClearInterruptMask>:
10000a40:	f380 8811 	msr	BASEPRI, r0
10000a44:	f3bf 8f4f 	dsb	sy
10000a48:	f3bf 8f6f 	isb	sy
10000a4c:	4770      	bx	lr
10000a4e:	bf00      	nop

10000a50 <PendSV_Handler>:
10000a50:	f3ef 8109 	mrs	r1, PSP
10000a54:	f01e 0f10 	tst.w	lr, #16
10000a58:	bf08      	it	eq
10000a5a:	ed21 8a10 	vstmdbeq	r1!, {s16-s31}
10000a5e:	f3ef 820b 	mrs	r2, PSPLIM
10000a62:	4673      	mov	r3, lr
10000a64:	e921 0ffc 	stmdb	r1!, {r2, r3, r4, r5, r6, r7, r8, r9, sl, fp}
10000a68:	fc55 4408 	dcp_pxmd r4, r5
10000a6c:	fc57 6409 	dcp_pymd r6, r7
10000a70:	fc59 840a 	dcp_pefd r8, r9
10000a74:	e901 03f0 	stmdb	r1, {r4, r5, r6, r7, r8, r9}
10000a78:	a019      	add	r0, pc, #100	@ (adr r0, 10000ae0 <ulAsmLocals2>)
10000a7a:	c80c      	ldmia	r0!, {r2, r3}
10000a7c:	6810      	ldr	r0, [r2, #0]
10000a7e:	f853 3020 	ldr.w	r3, [r3, r0, lsl #2]
10000a82:	6019      	str	r1, [r3, #0]
10000a84:	f04f 0110 	mov.w	r1, #16
10000a88:	f381 8811 	msr	BASEPRI, r1
10000a8c:	f3bf 8f4f 	dsb	sy
10000a90:	f3bf 8f6f 	isb	sy
10000a94:	f001 fc24 	bl	100022e0 <vTaskSwitchContext>
10000a98:	f04f 0000 	mov.w	r0, #0
10000a9c:	f380 8811 	msr	BASEPRI, r0
10000aa0:	a10f      	add	r1, pc, #60	@ (adr r1, 10000ae0 <ulAsmLocals2>)
10000aa2:	c90c      	ldmia	r1!, {r2, r3}
10000aa4:	6812      	ldr	r2, [r2, #0]
10000aa6:	f853 1022 	ldr.w	r1, [r3, r2, lsl #2]
10000aaa:	6808      	ldr	r0, [r1, #0]
10000aac:	3818      	subs	r0, #24
10000aae:	e8b0 03f0 	ldmia.w	r0!, {r4, r5, r6, r7, r8, r9}
10000ab2:	ec45 4400 	dcp_wxmd r4, r5
10000ab6:	ec47 6401 	dcp_wymd r6, r7
10000aba:	ec49 8402 	dcp_wefd r8, r9
10000abe:	e8b0 0ffc 	ldmia.w	r0!, {r2, r3, r4, r5, r6, r7, r8, r9, sl, fp}
10000ac2:	f013 0f10 	tst.w	r3, #16
10000ac6:	bf08      	it	eq
10000ac8:	ecb0 8a10 	vldmiaeq	r0!, {s16-s31}
10000acc:	f382 880b 	msr	PSPLIM, r2
10000ad0:	f380 8809 	msr	PSP, r0
10000ad4:	4718      	bx	r3
10000ad6:	bf00      	nop
10000ad8:	f3af 8000 	nop.w
10000adc:	f3af 8000 	nop.w

10000ae0 <ulAsmLocals2>:
10000ae0:	d0000000 	.word	0xd0000000
10000ae4:	20001f08 	.word	0x20001f08

10000ae8 <SVC_Handler>:
10000ae8:	f01e 0f04 	tst.w	lr, #4
10000aec:	bf0c      	ite	eq
10000aee:	f3ef 8008 	mrseq	r0, MSP
10000af2:	f3ef 8009 	mrsne	r0, PSP
10000af6:	4901      	ldr	r1, [pc, #4]	@ (10000afc <SVC_Handler+0x14>)
10000af8:	4708      	bx	r1
10000afa:	0000      	.short	0x0000
10000afc:	100006f5 	.word	0x100006f5

10000b00 <vEventGroupSetBitsCallback>:
10000b00:	b5f8      	push	{r3, r4, r5, r6, r7, lr}
10000b02:	4607      	mov	r7, r0
10000b04:	460e      	mov	r6, r1
10000b06:	f100 050c 	add.w	r5, r0, #12
10000b0a:	f001 fab7 	bl	1000207c <vTaskSuspendAll>
10000b0e:	f8d7 e000 	ldr.w	lr, [r7]
10000b12:	693c      	ldr	r4, [r7, #16]
10000b14:	ea46 030e 	orr.w	r3, r6, lr
10000b18:	42a5      	cmp	r5, r4
10000b1a:	603b      	str	r3, [r7, #0]
10000b1c:	d021      	beq.n	10000b62 <vEventGroupSetBitsCallback+0x62>
10000b1e:	469e      	mov	lr, r3
10000b20:	2600      	movs	r6, #0
10000b22:	e00b      	b.n	10000b3c <vEventGroupSetBitsCallback+0x3c>
10000b24:	b13b      	cbz	r3, 10000b36 <vEventGroupSetBitsCallback+0x36>
10000b26:	01d3      	lsls	r3, r2, #7
10000b28:	bf48      	it	mi
10000b2a:	ea46 060c 	orrmi.w	r6, r6, ip
10000b2e:	f002 fb09 	bl	10003144 <vTaskRemoveFromUnorderedEventList>
10000b32:	f8d7 e000 	ldr.w	lr, [r7]
10000b36:	42a5      	cmp	r5, r4
10000b38:	4673      	mov	r3, lr
10000b3a:	d010      	beq.n	10000b5e <vEventGroupSetBitsCallback+0x5e>
10000b3c:	4620      	mov	r0, r4
10000b3e:	6802      	ldr	r2, [r0, #0]
10000b40:	f043 7100 	orr.w	r1, r3, #33554432	@ 0x2000000
10000b44:	f022 4c7f 	bic.w	ip, r2, #4278190080	@ 0xff000000
10000b48:	f012 6f80 	tst.w	r2, #67108864	@ 0x4000000
10000b4c:	6864      	ldr	r4, [r4, #4]
10000b4e:	ea0c 0303 	and.w	r3, ip, r3
10000b52:	d0e7      	beq.n	10000b24 <vEventGroupSetBitsCallback+0x24>
10000b54:	459c      	cmp	ip, r3
10000b56:	d0e6      	beq.n	10000b26 <vEventGroupSetBitsCallback+0x26>
10000b58:	42a5      	cmp	r5, r4
10000b5a:	4673      	mov	r3, lr
10000b5c:	d1ee      	bne.n	10000b3c <vEventGroupSetBitsCallback+0x3c>
10000b5e:	ea2e 0306 	bic.w	r3, lr, r6
10000b62:	603b      	str	r3, [r7, #0]
10000b64:	e8bd 40f8 	ldmia.w	sp!, {r3, r4, r5, r6, r7, lr}
10000b68:	f002 bab6 	b.w	100030d8 <xTaskResumeAll>

10000b6c <xEventGroupCreate>:
10000b6c:	b500      	push	{lr}
10000b6e:	201c      	movs	r0, #28
10000b70:	b083      	sub	sp, #12
10000b72:	f7ff fbd7 	bl	10000324 <pvPortMalloc>
10000b76:	4603      	mov	r3, r0
10000b78:	b130      	cbz	r0, 10000b88 <xEventGroupCreate+0x1c>
10000b7a:	2200      	movs	r2, #0
10000b7c:	9001      	str	r0, [sp, #4]
10000b7e:	f840 2b04 	str.w	r2, [r0], #4
10000b82:	f000 f89d 	bl	10000cc0 <vListInitialise>
10000b86:	9b01      	ldr	r3, [sp, #4]
10000b88:	4618      	mov	r0, r3
10000b8a:	b003      	add	sp, #12
10000b8c:	bd00      	pop	{pc}
10000b8e:	bf00      	nop

10000b90 <xEventGroupWaitBits>:
10000b90:	b5f0      	push	{r4, r5, r6, r7, lr}
10000b92:	4605      	mov	r5, r0
10000b94:	460c      	mov	r4, r1
10000b96:	461e      	mov	r6, r3
10000b98:	b083      	sub	sp, #12
10000b9a:	4617      	mov	r7, r2
10000b9c:	f001 fa6e 	bl	1000207c <vTaskSuspendAll>
10000ba0:	682b      	ldr	r3, [r5, #0]
10000ba2:	ea03 0204 	and.w	r2, r3, r4
10000ba6:	b95e      	cbnz	r6, 10000bc0 <xEventGroupWaitBits+0x30>
10000ba8:	b322      	cbz	r2, 10000bf4 <xEventGroupWaitBits+0x64>
10000baa:	b32f      	cbz	r7, 10000bf8 <xEventGroupWaitBits+0x68>
10000bac:	ea23 0404 	bic.w	r4, r3, r4
10000bb0:	602c      	str	r4, [r5, #0]
10000bb2:	9301      	str	r3, [sp, #4]
10000bb4:	f002 fa90 	bl	100030d8 <xTaskResumeAll>
10000bb8:	9b01      	ldr	r3, [sp, #4]
10000bba:	4618      	mov	r0, r3
10000bbc:	b003      	add	sp, #12
10000bbe:	bdf0      	pop	{r4, r5, r6, r7, pc}
10000bc0:	4294      	cmp	r4, r2
10000bc2:	d0f2      	beq.n	10000baa <xEventGroupWaitBits+0x1a>
10000bc4:	9a08      	ldr	r2, [sp, #32]
10000bc6:	b1ba      	cbz	r2, 10000bf8 <xEventGroupWaitBits+0x68>
10000bc8:	1e39      	subs	r1, r7, #0
10000bca:	bf18      	it	ne
10000bcc:	2101      	movne	r1, #1
10000bce:	0609      	lsls	r1, r1, #24
10000bd0:	f041 6180 	orr.w	r1, r1, #67108864	@ 0x4000000
10000bd4:	4321      	orrs	r1, r4
10000bd6:	1d28      	adds	r0, r5, #4
10000bd8:	f001 fd54 	bl	10002684 <vTaskPlaceOnUnorderedEventList>
10000bdc:	f002 fa7c 	bl	100030d8 <xTaskResumeAll>
10000be0:	b330      	cbz	r0, 10000c30 <xEventGroupWaitBits+0xa0>
10000be2:	f002 fc1f 	bl	10003424 <uxTaskResetEventItemValue>
10000be6:	0183      	lsls	r3, r0, #6
10000be8:	d512      	bpl.n	10000c10 <xEventGroupWaitBits+0x80>
10000bea:	f020 437f 	bic.w	r3, r0, #4278190080	@ 0xff000000
10000bee:	4618      	mov	r0, r3
10000bf0:	b003      	add	sp, #12
10000bf2:	bdf0      	pop	{r4, r5, r6, r7, pc}
10000bf4:	9a08      	ldr	r2, [sp, #32]
10000bf6:	b932      	cbnz	r2, 10000c06 <xEventGroupWaitBits+0x76>
10000bf8:	9301      	str	r3, [sp, #4]
10000bfa:	f002 fa6d 	bl	100030d8 <xTaskResumeAll>
10000bfe:	9b01      	ldr	r3, [sp, #4]
10000c00:	4618      	mov	r0, r3
10000c02:	b003      	add	sp, #12
10000c04:	bdf0      	pop	{r4, r5, r6, r7, pc}
10000c06:	1e39      	subs	r1, r7, #0
10000c08:	bf18      	it	ne
10000c0a:	2101      	movne	r1, #1
10000c0c:	0609      	lsls	r1, r1, #24
10000c0e:	e7e1      	b.n	10000bd4 <xEventGroupWaitBits+0x44>
10000c10:	f001 fffa 	bl	10002c08 <vTaskEnterCritical>
10000c14:	6828      	ldr	r0, [r5, #0]
10000c16:	ea04 0300 	and.w	r3, r4, r0
10000c1a:	b966      	cbnz	r6, 10000c36 <xEventGroupWaitBits+0xa6>
10000c1c:	b11b      	cbz	r3, 10000c26 <xEventGroupWaitBits+0x96>
10000c1e:	b117      	cbz	r7, 10000c26 <xEventGroupWaitBits+0x96>
10000c20:	ea20 0404 	bic.w	r4, r0, r4
10000c24:	602c      	str	r4, [r5, #0]
10000c26:	9001      	str	r0, [sp, #4]
10000c28:	f002 fb80 	bl	1000332c <vTaskExitCritical>
10000c2c:	9801      	ldr	r0, [sp, #4]
10000c2e:	e7dc      	b.n	10000bea <xEventGroupWaitBits+0x5a>
10000c30:	f001 ffd8 	bl	10002be4 <vTaskYieldWithinAPI>
10000c34:	e7d5      	b.n	10000be2 <xEventGroupWaitBits+0x52>
10000c36:	429c      	cmp	r4, r3
10000c38:	d1f5      	bne.n	10000c26 <xEventGroupWaitBits+0x96>
10000c3a:	e7f0      	b.n	10000c1e <xEventGroupWaitBits+0x8e>

10000c3c <xEventGroupSetBits>:
10000c3c:	b5f8      	push	{r3, r4, r5, r6, r7, lr}
10000c3e:	4605      	mov	r5, r0
10000c40:	460e      	mov	r6, r1
10000c42:	f100 070c 	add.w	r7, r0, #12
10000c46:	f001 fa19 	bl	1000207c <vTaskSuspendAll>
10000c4a:	f8d5 e000 	ldr.w	lr, [r5]
10000c4e:	692c      	ldr	r4, [r5, #16]
10000c50:	ea46 030e 	orr.w	r3, r6, lr
10000c54:	42a7      	cmp	r7, r4
10000c56:	602b      	str	r3, [r5, #0]
10000c58:	d021      	beq.n	10000c9e <xEventGroupSetBits+0x62>
10000c5a:	469e      	mov	lr, r3
10000c5c:	2600      	movs	r6, #0
10000c5e:	e00b      	b.n	10000c78 <xEventGroupSetBits+0x3c>
10000c60:	b13b      	cbz	r3, 10000c72 <xEventGroupSetBits+0x36>
10000c62:	01d3      	lsls	r3, r2, #7
10000c64:	bf48      	it	mi
10000c66:	ea46 060c 	orrmi.w	r6, r6, ip
10000c6a:	f002 fa6b 	bl	10003144 <vTaskRemoveFromUnorderedEventList>
10000c6e:	f8d5 e000 	ldr.w	lr, [r5]
10000c72:	42a7      	cmp	r7, r4
10000c74:	4673      	mov	r3, lr
10000c76:	d010      	beq.n	10000c9a <xEventGroupSetBits+0x5e>
10000c78:	4620      	mov	r0, r4
10000c7a:	6802      	ldr	r2, [r0, #0]
10000c7c:	f043 7100 	orr.w	r1, r3, #33554432	@ 0x2000000
10000c80:	f022 4c7f 	bic.w	ip, r2, #4278190080	@ 0xff000000
10000c84:	f012 6f80 	tst.w	r2, #67108864	@ 0x4000000
10000c88:	6864      	ldr	r4, [r4, #4]
10000c8a:	ea0c 0303 	and.w	r3, ip, r3
10000c8e:	d0e7      	beq.n	10000c60 <xEventGroupSetBits+0x24>
10000c90:	459c      	cmp	ip, r3
10000c92:	d0e6      	beq.n	10000c62 <xEventGroupSetBits+0x26>
10000c94:	42a7      	cmp	r7, r4
10000c96:	4673      	mov	r3, lr
10000c98:	d1ee      	bne.n	10000c78 <xEventGroupSetBits+0x3c>
10000c9a:	ea2e 0306 	bic.w	r3, lr, r6
10000c9e:	602b      	str	r3, [r5, #0]
10000ca0:	f002 fa1a 	bl	100030d8 <xTaskResumeAll>
10000ca4:	6828      	ldr	r0, [r5, #0]
10000ca6:	bdf8      	pop	{r3, r4, r5, r6, r7, pc}

10000ca8 <xEventGroupSetBitsFromISR>:
10000ca8:	b500      	push	{lr}
10000caa:	4613      	mov	r3, r2
10000cac:	f85d eb04 	ldr.w	lr, [sp], #4
10000cb0:	460a      	mov	r2, r1
10000cb2:	4601      	mov	r1, r0
10000cb4:	4801      	ldr	r0, [pc, #4]	@ (10000cbc <xEventGroupSetBitsFromISR+0x14>)
10000cb6:	f002 bdd9 	b.w	1000386c <xTimerPendFunctionCallFromISR>
10000cba:	bf00      	nop
10000cbc:	10000b01 	.word	0x10000b01

10000cc0 <vListInitialise>:
10000cc0:	f04f 31ff 	mov.w	r1, #4294967295
10000cc4:	2200      	movs	r2, #0
10000cc6:	f100 0308 	add.w	r3, r0, #8
10000cca:	e9c0 3101 	strd	r3, r1, [r0, #4]
10000cce:	e9c0 3303 	strd	r3, r3, [r0, #12]
10000cd2:	6002      	str	r2, [r0, #0]
10000cd4:	4770      	bx	lr
10000cd6:	bf00      	nop

10000cd8 <vListInitialiseItem>:
10000cd8:	2300      	movs	r3, #0
10000cda:	6103      	str	r3, [r0, #16]
10000cdc:	4770      	bx	lr
10000cde:	bf00      	nop

10000ce0 <vListInsertEnd>:
10000ce0:	e9d0 3200 	ldrd	r3, r2, [r0]
10000ce4:	f8d2 c008 	ldr.w	ip, [r2, #8]
10000ce8:	3301      	adds	r3, #1
10000cea:	e9c1 2c01 	strd	r2, ip, [r1, #4]
10000cee:	f8cc 1004 	str.w	r1, [ip, #4]
10000cf2:	6091      	str	r1, [r2, #8]
10000cf4:	6108      	str	r0, [r1, #16]
10000cf6:	6003      	str	r3, [r0, #0]
10000cf8:	4770      	bx	lr
10000cfa:	bf00      	nop

10000cfc <vListInsert>:
10000cfc:	680a      	ldr	r2, [r1, #0]
10000cfe:	b410      	push	{r4}
10000d00:	1c53      	adds	r3, r2, #1
10000d02:	d012      	beq.n	10000d2a <vListInsert+0x2e>
10000d04:	f100 0308 	add.w	r3, r0, #8
10000d08:	469c      	mov	ip, r3
10000d0a:	685b      	ldr	r3, [r3, #4]
10000d0c:	681c      	ldr	r4, [r3, #0]
10000d0e:	4294      	cmp	r4, r2
10000d10:	d9fa      	bls.n	10000d08 <vListInsert+0xc>
10000d12:	bc10      	pop	{r4}
10000d14:	6802      	ldr	r2, [r0, #0]
10000d16:	604b      	str	r3, [r1, #4]
10000d18:	3201      	adds	r2, #1
10000d1a:	6099      	str	r1, [r3, #8]
10000d1c:	f8c1 c008 	str.w	ip, [r1, #8]
10000d20:	f8cc 1004 	str.w	r1, [ip, #4]
10000d24:	6108      	str	r0, [r1, #16]
10000d26:	6002      	str	r2, [r0, #0]
10000d28:	4770      	bx	lr
10000d2a:	f8d0 c010 	ldr.w	ip, [r0, #16]
10000d2e:	f8dc 3004 	ldr.w	r3, [ip, #4]
10000d32:	e7ee      	b.n	10000d12 <vListInsert+0x16>

10000d34 <uxListRemove>:
10000d34:	4603      	mov	r3, r0
10000d36:	6902      	ldr	r2, [r0, #16]
10000d38:	e9d0 0101 	ldrd	r0, r1, [r0, #4]
10000d3c:	f8d2 c004 	ldr.w	ip, [r2, #4]
10000d40:	6081      	str	r1, [r0, #8]
10000d42:	459c      	cmp	ip, r3
10000d44:	6048      	str	r0, [r1, #4]
10000d46:	bf08      	it	eq
10000d48:	6051      	streq	r1, [r2, #4]
10000d4a:	2100      	movs	r1, #0
10000d4c:	6810      	ldr	r0, [r2, #0]
10000d4e:	6119      	str	r1, [r3, #16]
10000d50:	3801      	subs	r0, #1
10000d52:	6010      	str	r0, [r2, #0]
10000d54:	4770      	bx	lr
10000d56:	bf00      	nop

10000d58 <prvCopyDataToQueue>:
10000d58:	b530      	push	{r4, r5, lr}
10000d5a:	4615      	mov	r5, r2
10000d5c:	6c02      	ldr	r2, [r0, #64]	@ 0x40
10000d5e:	4603      	mov	r3, r0
10000d60:	6b84      	ldr	r4, [r0, #56]	@ 0x38
10000d62:	b083      	sub	sp, #12
10000d64:	b93a      	cbnz	r2, 10000d76 <prvCopyDataToQueue+0x1e>
10000d66:	6802      	ldr	r2, [r0, #0]
10000d68:	2a00      	cmp	r2, #0
10000d6a:	d02a      	beq.n	10000dc2 <prvCopyDataToQueue+0x6a>
10000d6c:	2000      	movs	r0, #0
10000d6e:	3401      	adds	r4, #1
10000d70:	639c      	str	r4, [r3, #56]	@ 0x38
10000d72:	b003      	add	sp, #12
10000d74:	bd30      	pop	{r4, r5, pc}
10000d76:	b975      	cbnz	r5, 10000d96 <prvCopyDataToQueue+0x3e>
10000d78:	6840      	ldr	r0, [r0, #4]
10000d7a:	9300      	str	r3, [sp, #0]
10000d7c:	f008 fb9e 	bl	100094bc <memcpy>
10000d80:	9b00      	ldr	r3, [sp, #0]
10000d82:	685a      	ldr	r2, [r3, #4]
10000d84:	6c18      	ldr	r0, [r3, #64]	@ 0x40
10000d86:	6899      	ldr	r1, [r3, #8]
10000d88:	4402      	add	r2, r0
10000d8a:	428a      	cmp	r2, r1
10000d8c:	605a      	str	r2, [r3, #4]
10000d8e:	d3ed      	bcc.n	10000d6c <prvCopyDataToQueue+0x14>
10000d90:	681a      	ldr	r2, [r3, #0]
10000d92:	605a      	str	r2, [r3, #4]
10000d94:	e7ea      	b.n	10000d6c <prvCopyDataToQueue+0x14>
10000d96:	68c0      	ldr	r0, [r0, #12]
10000d98:	9300      	str	r3, [sp, #0]
10000d9a:	f008 fb8f 	bl	100094bc <memcpy>
10000d9e:	9b00      	ldr	r3, [sp, #0]
10000da0:	68da      	ldr	r2, [r3, #12]
10000da2:	6c19      	ldr	r1, [r3, #64]	@ 0x40
10000da4:	6818      	ldr	r0, [r3, #0]
10000da6:	1a52      	subs	r2, r2, r1
10000da8:	4282      	cmp	r2, r0
10000daa:	60da      	str	r2, [r3, #12]
10000dac:	d202      	bcs.n	10000db4 <prvCopyDataToQueue+0x5c>
10000dae:	689a      	ldr	r2, [r3, #8]
10000db0:	1a52      	subs	r2, r2, r1
10000db2:	60da      	str	r2, [r3, #12]
10000db4:	2d02      	cmp	r5, #2
10000db6:	d1d9      	bne.n	10000d6c <prvCopyDataToQueue+0x14>
10000db8:	2c00      	cmp	r4, #0
10000dba:	bf18      	it	ne
10000dbc:	3c01      	subne	r4, #1
10000dbe:	2000      	movs	r0, #0
10000dc0:	e7d5      	b.n	10000d6e <prvCopyDataToQueue+0x16>
10000dc2:	6880      	ldr	r0, [r0, #8]
10000dc4:	9201      	str	r2, [sp, #4]
10000dc6:	9300      	str	r3, [sp, #0]
10000dc8:	f001 fe30 	bl	10002a2c <xTaskPriorityDisinherit>
10000dcc:	e9dd 3200 	ldrd	r3, r2, [sp]
10000dd0:	609a      	str	r2, [r3, #8]
10000dd2:	e7cc      	b.n	10000d6e <prvCopyDataToQueue+0x16>

10000dd4 <prvUnlockQueue>:
10000dd4:	e92d 43f0 	stmdb	sp!, {r4, r5, r6, r7, r8, r9, lr}
10000dd8:	4606      	mov	r6, r0
10000dda:	b085      	sub	sp, #20
10000ddc:	f001 ff14 	bl	10002c08 <vTaskEnterCritical>
10000de0:	f896 4045 	ldrb.w	r4, [r6, #69]	@ 0x45
10000de4:	b264      	sxtb	r4, r4
10000de6:	2c00      	cmp	r4, #0
10000de8:	dd1a      	ble.n	10000e20 <prvUnlockQueue+0x4c>
10000dea:	f106 0724 	add.w	r7, r6, #36	@ 0x24
10000dee:	e007      	b.n	10000e00 <prvUnlockQueue+0x2c>
10000df0:	6baa      	ldr	r2, [r5, #56]	@ 0x38
10000df2:	6beb      	ldr	r3, [r5, #60]	@ 0x3c
10000df4:	9603      	str	r6, [sp, #12]
10000df6:	429a      	cmp	r2, r3
10000df8:	d338      	bcc.n	10000e6c <prvUnlockQueue+0x98>
10000dfa:	3c01      	subs	r4, #1
10000dfc:	b2e4      	uxtb	r4, r4
10000dfe:	b17c      	cbz	r4, 10000e20 <prvUnlockQueue+0x4c>
10000e00:	6cb5      	ldr	r5, [r6, #72]	@ 0x48
10000e02:	2d00      	cmp	r5, #0
10000e04:	d1f4      	bne.n	10000df0 <prvUnlockQueue+0x1c>
10000e06:	6a73      	ldr	r3, [r6, #36]	@ 0x24
10000e08:	b153      	cbz	r3, 10000e20 <prvUnlockQueue+0x4c>
10000e0a:	4638      	mov	r0, r7
10000e0c:	f001 fce0 	bl	100027d0 <xTaskRemoveFromEventList>
10000e10:	2800      	cmp	r0, #0
10000e12:	d0f2      	beq.n	10000dfa <prvUnlockQueue+0x26>
10000e14:	f001 fd5a 	bl	100028cc <vTaskMissedYield>
10000e18:	3c01      	subs	r4, #1
10000e1a:	b2e4      	uxtb	r4, r4
10000e1c:	2c00      	cmp	r4, #0
10000e1e:	d1ef      	bne.n	10000e00 <prvUnlockQueue+0x2c>
10000e20:	23ff      	movs	r3, #255	@ 0xff
10000e22:	f886 3045 	strb.w	r3, [r6, #69]	@ 0x45
10000e26:	f002 fa81 	bl	1000332c <vTaskExitCritical>
10000e2a:	f001 feed 	bl	10002c08 <vTaskEnterCritical>
10000e2e:	f896 4044 	ldrb.w	r4, [r6, #68]	@ 0x44
10000e32:	b264      	sxtb	r4, r4
10000e34:	2c00      	cmp	r4, #0
10000e36:	dc03      	bgt.n	10000e40 <prvUnlockQueue+0x6c>
10000e38:	e010      	b.n	10000e5c <prvUnlockQueue+0x88>
10000e3a:	3c01      	subs	r4, #1
10000e3c:	b2e4      	uxtb	r4, r4
10000e3e:	b16c      	cbz	r4, 10000e5c <prvUnlockQueue+0x88>
10000e40:	6933      	ldr	r3, [r6, #16]
10000e42:	b15b      	cbz	r3, 10000e5c <prvUnlockQueue+0x88>
10000e44:	f106 0010 	add.w	r0, r6, #16
10000e48:	f001 fcc2 	bl	100027d0 <xTaskRemoveFromEventList>
10000e4c:	2800      	cmp	r0, #0
10000e4e:	d0f4      	beq.n	10000e3a <prvUnlockQueue+0x66>
10000e50:	3c01      	subs	r4, #1
10000e52:	b2e4      	uxtb	r4, r4
10000e54:	f001 fd3a 	bl	100028cc <vTaskMissedYield>
10000e58:	2c00      	cmp	r4, #0
10000e5a:	d1f1      	bne.n	10000e40 <prvUnlockQueue+0x6c>
10000e5c:	23ff      	movs	r3, #255	@ 0xff
10000e5e:	f886 3044 	strb.w	r3, [r6, #68]	@ 0x44
10000e62:	b005      	add	sp, #20
10000e64:	e8bd 43f0 	ldmia.w	sp!, {r4, r5, r6, r7, r8, r9, lr}
10000e68:	f002 ba60 	b.w	1000332c <vTaskExitCritical>
10000e6c:	f895 8045 	ldrb.w	r8, [r5, #69]	@ 0x45
10000e70:	6c2a      	ldr	r2, [r5, #64]	@ 0x40
10000e72:	6bab      	ldr	r3, [r5, #56]	@ 0x38
10000e74:	fa4f f888 	sxtb.w	r8, r8
10000e78:	f103 0901 	add.w	r9, r3, #1
10000e7c:	b99a      	cbnz	r2, 10000ea6 <prvUnlockQueue+0xd2>
10000e7e:	682b      	ldr	r3, [r5, #0]
10000e80:	2b00      	cmp	r3, #0
10000e82:	d037      	beq.n	10000ef4 <prvUnlockQueue+0x120>
10000e84:	f1b8 3fff 	cmp.w	r8, #4294967295
10000e88:	f8c5 9038 	str.w	r9, [r5, #56]	@ 0x38
10000e8c:	d129      	bne.n	10000ee2 <prvUnlockQueue+0x10e>
10000e8e:	6a6b      	ldr	r3, [r5, #36]	@ 0x24
10000e90:	2b00      	cmp	r3, #0
10000e92:	d0b2      	beq.n	10000dfa <prvUnlockQueue+0x26>
10000e94:	f105 0024 	add.w	r0, r5, #36	@ 0x24
10000e98:	f001 fc9a 	bl	100027d0 <xTaskRemoveFromEventList>
10000e9c:	2800      	cmp	r0, #0
10000e9e:	d0ac      	beq.n	10000dfa <prvUnlockQueue+0x26>
10000ea0:	f001 fd14 	bl	100028cc <vTaskMissedYield>
10000ea4:	e7b8      	b.n	10000e18 <prvUnlockQueue+0x44>
10000ea6:	6868      	ldr	r0, [r5, #4]
10000ea8:	a903      	add	r1, sp, #12
10000eaa:	f008 fb07 	bl	100094bc <memcpy>
10000eae:	686b      	ldr	r3, [r5, #4]
10000eb0:	6c2a      	ldr	r2, [r5, #64]	@ 0x40
10000eb2:	f8c5 9038 	str.w	r9, [r5, #56]	@ 0x38
10000eb6:	4413      	add	r3, r2
10000eb8:	68aa      	ldr	r2, [r5, #8]
10000eba:	606b      	str	r3, [r5, #4]
10000ebc:	4293      	cmp	r3, r2
10000ebe:	d309      	bcc.n	10000ed4 <prvUnlockQueue+0x100>
10000ec0:	682b      	ldr	r3, [r5, #0]
10000ec2:	f1b8 3fff 	cmp.w	r8, #4294967295
10000ec6:	606b      	str	r3, [r5, #4]
10000ec8:	d0e1      	beq.n	10000e8e <prvUnlockQueue+0xba>
10000eca:	f001 f8e5 	bl	10002098 <uxTaskGetNumberOfTasks>
10000ece:	4540      	cmp	r0, r8
10000ed0:	d993      	bls.n	10000dfa <prvUnlockQueue+0x26>
10000ed2:	e00a      	b.n	10000eea <prvUnlockQueue+0x116>
10000ed4:	f1b8 3fff 	cmp.w	r8, #4294967295
10000ed8:	d1f7      	bne.n	10000eca <prvUnlockQueue+0xf6>
10000eda:	6a6b      	ldr	r3, [r5, #36]	@ 0x24
10000edc:	2b00      	cmp	r3, #0
10000ede:	d08c      	beq.n	10000dfa <prvUnlockQueue+0x26>
10000ee0:	e7d8      	b.n	10000e94 <prvUnlockQueue+0xc0>
10000ee2:	f001 f8d9 	bl	10002098 <uxTaskGetNumberOfTasks>
10000ee6:	4580      	cmp	r8, r0
10000ee8:	d287      	bcs.n	10000dfa <prvUnlockQueue+0x26>
10000eea:	f108 0801 	add.w	r8, r8, #1
10000eee:	f885 8045 	strb.w	r8, [r5, #69]	@ 0x45
10000ef2:	e782      	b.n	10000dfa <prvUnlockQueue+0x26>
10000ef4:	68a8      	ldr	r0, [r5, #8]
10000ef6:	9301      	str	r3, [sp, #4]
10000ef8:	f001 fd98 	bl	10002a2c <xTaskPriorityDisinherit>
10000efc:	9b01      	ldr	r3, [sp, #4]
10000efe:	f1b8 3fff 	cmp.w	r8, #4294967295
10000f02:	4602      	mov	r2, r0
10000f04:	60ab      	str	r3, [r5, #8]
10000f06:	f8c5 9038 	str.w	r9, [r5, #56]	@ 0x38
10000f0a:	d107      	bne.n	10000f1c <prvUnlockQueue+0x148>
10000f0c:	6a6b      	ldr	r3, [r5, #36]	@ 0x24
10000f0e:	b993      	cbnz	r3, 10000f36 <prvUnlockQueue+0x162>
10000f10:	2a00      	cmp	r2, #0
10000f12:	f43f af72 	beq.w	10000dfa <prvUnlockQueue+0x26>
10000f16:	f001 fcd9 	bl	100028cc <vTaskMissedYield>
10000f1a:	e77d      	b.n	10000e18 <prvUnlockQueue+0x44>
10000f1c:	9001      	str	r0, [sp, #4]
10000f1e:	f001 f8bb 	bl	10002098 <uxTaskGetNumberOfTasks>
10000f22:	9a01      	ldr	r2, [sp, #4]
10000f24:	4540      	cmp	r0, r8
10000f26:	bf84      	itt	hi
10000f28:	f108 0801 	addhi.w	r8, r8, #1
10000f2c:	f885 8045 	strbhi.w	r8, [r5, #69]	@ 0x45
10000f30:	2a00      	cmp	r2, #0
10000f32:	d1f0      	bne.n	10000f16 <prvUnlockQueue+0x142>
10000f34:	e761      	b.n	10000dfa <prvUnlockQueue+0x26>
10000f36:	9001      	str	r0, [sp, #4]
10000f38:	f105 0024 	add.w	r0, r5, #36	@ 0x24
10000f3c:	f001 fc48 	bl	100027d0 <xTaskRemoveFromEventList>
10000f40:	2800      	cmp	r0, #0
10000f42:	f47f af67 	bne.w	10000e14 <prvUnlockQueue+0x40>
10000f46:	9a01      	ldr	r2, [sp, #4]
10000f48:	2a00      	cmp	r2, #0
10000f4a:	d1e4      	bne.n	10000f16 <prvUnlockQueue+0x142>
10000f4c:	e755      	b.n	10000dfa <prvUnlockQueue+0x26>
10000f4e:	bf00      	nop

10000f50 <prvNotifyQueueSetContainer>:
10000f50:	b530      	push	{r4, r5, lr}
10000f52:	6c83      	ldr	r3, [r0, #72]	@ 0x48
10000f54:	b085      	sub	sp, #20
10000f56:	6b99      	ldr	r1, [r3, #56]	@ 0x38
10000f58:	6bda      	ldr	r2, [r3, #60]	@ 0x3c
10000f5a:	9003      	str	r0, [sp, #12]
10000f5c:	4291      	cmp	r1, r2
10000f5e:	d303      	bcc.n	10000f68 <prvNotifyQueueSetContainer+0x18>
10000f60:	2200      	movs	r2, #0
10000f62:	4610      	mov	r0, r2
10000f64:	b005      	add	sp, #20
10000f66:	bd30      	pop	{r4, r5, pc}
10000f68:	f893 1045 	ldrb.w	r1, [r3, #69]	@ 0x45
10000f6c:	6c1a      	ldr	r2, [r3, #64]	@ 0x40
10000f6e:	6b98      	ldr	r0, [r3, #56]	@ 0x38
10000f70:	b24c      	sxtb	r4, r1
10000f72:	4605      	mov	r5, r0
10000f74:	b302      	cbz	r2, 10000fb8 <prvNotifyQueueSetContainer+0x68>
10000f76:	6858      	ldr	r0, [r3, #4]
10000f78:	a903      	add	r1, sp, #12
10000f7a:	9301      	str	r3, [sp, #4]
10000f7c:	f008 fa9e 	bl	100094bc <memcpy>
10000f80:	9b01      	ldr	r3, [sp, #4]
10000f82:	685a      	ldr	r2, [r3, #4]
10000f84:	6c19      	ldr	r1, [r3, #64]	@ 0x40
10000f86:	440a      	add	r2, r1
10000f88:	6899      	ldr	r1, [r3, #8]
10000f8a:	605a      	str	r2, [r3, #4]
10000f8c:	428a      	cmp	r2, r1
10000f8e:	d301      	bcc.n	10000f94 <prvNotifyQueueSetContainer+0x44>
10000f90:	681a      	ldr	r2, [r3, #0]
10000f92:	605a      	str	r2, [r3, #4]
10000f94:	2200      	movs	r2, #0
10000f96:	1c69      	adds	r1, r5, #1
10000f98:	6399      	str	r1, [r3, #56]	@ 0x38
10000f9a:	1c61      	adds	r1, r4, #1
10000f9c:	d119      	bne.n	10000fd2 <prvNotifyQueueSetContainer+0x82>
10000f9e:	6a59      	ldr	r1, [r3, #36]	@ 0x24
10000fa0:	2900      	cmp	r1, #0
10000fa2:	d0de      	beq.n	10000f62 <prvNotifyQueueSetContainer+0x12>
10000fa4:	f103 0024 	add.w	r0, r3, #36	@ 0x24
10000fa8:	9201      	str	r2, [sp, #4]
10000faa:	f001 fc11 	bl	100027d0 <xTaskRemoveFromEventList>
10000fae:	2800      	cmp	r0, #0
10000fb0:	9a01      	ldr	r2, [sp, #4]
10000fb2:	bf18      	it	ne
10000fb4:	2201      	movne	r2, #1
10000fb6:	e7d4      	b.n	10000f62 <prvNotifyQueueSetContainer+0x12>
10000fb8:	681a      	ldr	r2, [r3, #0]
10000fba:	2a00      	cmp	r2, #0
10000fbc:	d1ea      	bne.n	10000f94 <prvNotifyQueueSetContainer+0x44>
10000fbe:	6898      	ldr	r0, [r3, #8]
10000fc0:	9202      	str	r2, [sp, #8]
10000fc2:	9301      	str	r3, [sp, #4]
10000fc4:	f001 fd32 	bl	10002a2c <xTaskPriorityDisinherit>
10000fc8:	e9dd 3201 	ldrd	r3, r2, [sp, #4]
10000fcc:	609a      	str	r2, [r3, #8]
10000fce:	4602      	mov	r2, r0
10000fd0:	e7e1      	b.n	10000f96 <prvNotifyQueueSetContainer+0x46>
10000fd2:	e9cd 2301 	strd	r2, r3, [sp, #4]
10000fd6:	f001 f85f 	bl	10002098 <uxTaskGetNumberOfTasks>
10000fda:	4284      	cmp	r4, r0
10000fdc:	9a01      	ldr	r2, [sp, #4]
10000fde:	d2c0      	bcs.n	10000f62 <prvNotifyQueueSetContainer+0x12>
10000fe0:	9b02      	ldr	r3, [sp, #8]
10000fe2:	1c61      	adds	r1, r4, #1
10000fe4:	f883 1045 	strb.w	r1, [r3, #69]	@ 0x45
10000fe8:	e7bb      	b.n	10000f62 <prvNotifyQueueSetContainer+0x12>
10000fea:	bf00      	nop

10000fec <xQueueGenericCreate>:
10000fec:	2800      	cmp	r0, #0
10000fee:	d044      	beq.n	1000107a <xQueueGenericCreate+0x8e>
10000ff0:	fba1 c300 	umull	ip, r3, r1, r0
10000ff4:	2b00      	cmp	r3, #0
10000ff6:	d140      	bne.n	1000107a <xQueueGenericCreate+0x8e>
10000ff8:	fb01 f300 	mul.w	r3, r1, r0
10000ffc:	f113 0f55 	cmn.w	r3, #85	@ 0x55
10001000:	d83b      	bhi.n	1000107a <xQueueGenericCreate+0x8e>
10001002:	b530      	push	{r4, r5, lr}
10001004:	4604      	mov	r4, r0
10001006:	b083      	sub	sp, #12
10001008:	f103 0054 	add.w	r0, r3, #84	@ 0x54
1000100c:	4615      	mov	r5, r2
1000100e:	9101      	str	r1, [sp, #4]
10001010:	f7ff f988 	bl	10000324 <pvPortMalloc>
10001014:	4603      	mov	r3, r0
10001016:	2800      	cmp	r0, #0
10001018:	d032      	beq.n	10001080 <xQueueGenericCreate+0x94>
1000101a:	9901      	ldr	r1, [sp, #4]
1000101c:	2900      	cmp	r1, #0
1000101e:	d033      	beq.n	10001088 <xQueueGenericCreate+0x9c>
10001020:	f100 0254 	add.w	r2, r0, #84	@ 0x54
10001024:	e9c3 410f 	strd	r4, r1, [r3, #60]	@ 0x3c
10001028:	601a      	str	r2, [r3, #0]
1000102a:	2400      	movs	r4, #0
1000102c:	9301      	str	r3, [sp, #4]
1000102e:	f001 fdeb 	bl	10002c08 <vTaskEnterCritical>
10001032:	22ff      	movs	r2, #255	@ 0xff
10001034:	9b01      	ldr	r3, [sp, #4]
10001036:	639c      	str	r4, [r3, #56]	@ 0x38
10001038:	6c18      	ldr	r0, [r3, #64]	@ 0x40
1000103a:	f883 2044 	strb.w	r2, [r3, #68]	@ 0x44
1000103e:	f883 2045 	strb.w	r2, [r3, #69]	@ 0x45
10001042:	6bda      	ldr	r2, [r3, #60]	@ 0x3c
10001044:	6819      	ldr	r1, [r3, #0]
10001046:	fb00 f202 	mul.w	r2, r0, r2
1000104a:	1a10      	subs	r0, r2, r0
1000104c:	6059      	str	r1, [r3, #4]
1000104e:	440a      	add	r2, r1
10001050:	4401      	add	r1, r0
10001052:	e9c3 2102 	strd	r2, r1, [r3, #8]
10001056:	f103 0010 	add.w	r0, r3, #16
1000105a:	f7ff fe31 	bl	10000cc0 <vListInitialise>
1000105e:	9b01      	ldr	r3, [sp, #4]
10001060:	f103 0024 	add.w	r0, r3, #36	@ 0x24
10001064:	f7ff fe2c 	bl	10000cc0 <vListInitialise>
10001068:	f002 f960 	bl	1000332c <vTaskExitCritical>
1000106c:	9b01      	ldr	r3, [sp, #4]
1000106e:	4618      	mov	r0, r3
10001070:	f883 5050 	strb.w	r5, [r3, #80]	@ 0x50
10001074:	649c      	str	r4, [r3, #72]	@ 0x48
10001076:	b003      	add	sp, #12
10001078:	bd30      	pop	{r4, r5, pc}
1000107a:	2300      	movs	r3, #0
1000107c:	4618      	mov	r0, r3
1000107e:	4770      	bx	lr
10001080:	2300      	movs	r3, #0
10001082:	4618      	mov	r0, r3
10001084:	b003      	add	sp, #12
10001086:	bd30      	pop	{r4, r5, pc}
10001088:	4602      	mov	r2, r0
1000108a:	e7cb      	b.n	10001024 <xQueueGenericCreate+0x38>

1000108c <xQueueGenericSend>:
1000108c:	e92d 41f0 	stmdb	sp!, {r4, r5, r6, r7, r8, lr}
10001090:	2b02      	cmp	r3, #2
10001092:	b084      	sub	sp, #16
10001094:	461f      	mov	r7, r3
10001096:	4688      	mov	r8, r1
10001098:	4604      	mov	r4, r0
1000109a:	9201      	str	r2, [sp, #4]
1000109c:	d049      	beq.n	10001132 <xQueueGenericSend+0xa6>
1000109e:	2500      	movs	r5, #0
100010a0:	462e      	mov	r6, r5
100010a2:	e007      	b.n	100010b4 <xQueueGenericSend+0x28>
100010a4:	f002 f942 	bl	1000332c <vTaskExitCritical>
100010a8:	4620      	mov	r0, r4
100010aa:	f7ff fe93 	bl	10000dd4 <prvUnlockQueue>
100010ae:	f002 f813 	bl	100030d8 <xTaskResumeAll>
100010b2:	2501      	movs	r5, #1
100010b4:	f001 fda8 	bl	10002c08 <vTaskEnterCritical>
100010b8:	6ba2      	ldr	r2, [r4, #56]	@ 0x38
100010ba:	6be3      	ldr	r3, [r4, #60]	@ 0x3c
100010bc:	429a      	cmp	r2, r3
100010be:	d34e      	bcc.n	1000115e <xQueueGenericSend+0xd2>
100010c0:	9b01      	ldr	r3, [sp, #4]
100010c2:	2b00      	cmp	r3, #0
100010c4:	d060      	beq.n	10001188 <xQueueGenericSend+0xfc>
100010c6:	b385      	cbz	r5, 1000112a <xQueueGenericSend+0x9e>
100010c8:	f002 f930 	bl	1000332c <vTaskExitCritical>
100010cc:	f000 ffd6 	bl	1000207c <vTaskSuspendAll>
100010d0:	f001 fd9a 	bl	10002c08 <vTaskEnterCritical>
100010d4:	f894 3044 	ldrb.w	r3, [r4, #68]	@ 0x44
100010d8:	2bff      	cmp	r3, #255	@ 0xff
100010da:	bf08      	it	eq
100010dc:	f884 6044 	strbeq.w	r6, [r4, #68]	@ 0x44
100010e0:	f894 3045 	ldrb.w	r3, [r4, #69]	@ 0x45
100010e4:	2bff      	cmp	r3, #255	@ 0xff
100010e6:	bf08      	it	eq
100010e8:	f884 6045 	strbeq.w	r6, [r4, #69]	@ 0x45
100010ec:	f002 f91e 	bl	1000332c <vTaskExitCritical>
100010f0:	a901      	add	r1, sp, #4
100010f2:	a802      	add	r0, sp, #8
100010f4:	f002 f876 	bl	100031e4 <xTaskCheckForTimeOut>
100010f8:	2800      	cmp	r0, #0
100010fa:	d14b      	bne.n	10001194 <xQueueGenericSend+0x108>
100010fc:	f001 fd84 	bl	10002c08 <vTaskEnterCritical>
10001100:	6ba2      	ldr	r2, [r4, #56]	@ 0x38
10001102:	6be3      	ldr	r3, [r4, #60]	@ 0x3c
10001104:	429a      	cmp	r2, r3
10001106:	d1cd      	bne.n	100010a4 <xQueueGenericSend+0x18>
10001108:	f002 f910 	bl	1000332c <vTaskExitCritical>
1000110c:	9901      	ldr	r1, [sp, #4]
1000110e:	f104 0010 	add.w	r0, r4, #16
10001112:	f001 fa9d 	bl	10002650 <vTaskPlaceOnEventList>
10001116:	4620      	mov	r0, r4
10001118:	f7ff fe5c 	bl	10000dd4 <prvUnlockQueue>
1000111c:	f001 ffdc 	bl	100030d8 <xTaskResumeAll>
10001120:	2800      	cmp	r0, #0
10001122:	d1c6      	bne.n	100010b2 <xQueueGenericSend+0x26>
10001124:	f001 fd5e 	bl	10002be4 <vTaskYieldWithinAPI>
10001128:	e7c3      	b.n	100010b2 <xQueueGenericSend+0x26>
1000112a:	a802      	add	r0, sp, #8
1000112c:	f001 fbc2 	bl	100028b4 <vTaskInternalSetTimeOutState>
10001130:	e7ca      	b.n	100010c8 <xQueueGenericSend+0x3c>
10001132:	f001 fd69 	bl	10002c08 <vTaskEnterCritical>
10001136:	463a      	mov	r2, r7
10001138:	4641      	mov	r1, r8
1000113a:	4620      	mov	r0, r4
1000113c:	6ba3      	ldr	r3, [r4, #56]	@ 0x38
1000113e:	6ba5      	ldr	r5, [r4, #56]	@ 0x38
10001140:	f7ff fe0a 	bl	10000d58 <prvCopyDataToQueue>
10001144:	6ca3      	ldr	r3, [r4, #72]	@ 0x48
10001146:	b19b      	cbz	r3, 10001170 <xQueueGenericSend+0xe4>
10001148:	b91d      	cbnz	r5, 10001152 <xQueueGenericSend+0xc6>
1000114a:	4620      	mov	r0, r4
1000114c:	f7ff ff00 	bl	10000f50 <prvNotifyQueueSetContainer>
10001150:	b9b8      	cbnz	r0, 10001182 <xQueueGenericSend+0xf6>
10001152:	f002 f8eb 	bl	1000332c <vTaskExitCritical>
10001156:	2001      	movs	r0, #1
10001158:	b004      	add	sp, #16
1000115a:	e8bd 81f0 	ldmia.w	sp!, {r4, r5, r6, r7, r8, pc}
1000115e:	463a      	mov	r2, r7
10001160:	4641      	mov	r1, r8
10001162:	4620      	mov	r0, r4
10001164:	6ba3      	ldr	r3, [r4, #56]	@ 0x38
10001166:	f7ff fdf7 	bl	10000d58 <prvCopyDataToQueue>
1000116a:	6ca3      	ldr	r3, [r4, #72]	@ 0x48
1000116c:	2b00      	cmp	r3, #0
1000116e:	d1ec      	bne.n	1000114a <xQueueGenericSend+0xbe>
10001170:	6a63      	ldr	r3, [r4, #36]	@ 0x24
10001172:	2b00      	cmp	r3, #0
10001174:	d0ec      	beq.n	10001150 <xQueueGenericSend+0xc4>
10001176:	f104 0024 	add.w	r0, r4, #36	@ 0x24
1000117a:	f001 fb29 	bl	100027d0 <xTaskRemoveFromEventList>
1000117e:	2800      	cmp	r0, #0
10001180:	d0e7      	beq.n	10001152 <xQueueGenericSend+0xc6>
10001182:	f001 fd2f 	bl	10002be4 <vTaskYieldWithinAPI>
10001186:	e7e4      	b.n	10001152 <xQueueGenericSend+0xc6>
10001188:	f002 f8d0 	bl	1000332c <vTaskExitCritical>
1000118c:	2000      	movs	r0, #0
1000118e:	b004      	add	sp, #16
10001190:	e8bd 81f0 	ldmia.w	sp!, {r4, r5, r6, r7, r8, pc}
10001194:	4620      	mov	r0, r4
10001196:	f7ff fe1d 	bl	10000dd4 <prvUnlockQueue>
1000119a:	f001 ff9d 	bl	100030d8 <xTaskResumeAll>
1000119e:	e7f5      	b.n	1000118c <xQueueGenericSend+0x100>

100011a0 <xQueueCreateMutex>:
100011a0:	b570      	push	{r4, r5, r6, lr}
100011a2:	4606      	mov	r6, r0
100011a4:	2054      	movs	r0, #84	@ 0x54
100011a6:	f7ff f8bd 	bl	10000324 <pvPortMalloc>
100011aa:	4604      	mov	r4, r0
100011ac:	b370      	cbz	r0, 1000120c <xQueueCreateMutex+0x6c>
100011ae:	2500      	movs	r5, #0
100011b0:	2301      	movs	r3, #1
100011b2:	6020      	str	r0, [r4, #0]
100011b4:	e9c0 350f 	strd	r3, r5, [r0, #60]	@ 0x3c
100011b8:	f001 fd26 	bl	10002c08 <vTaskEnterCritical>
100011bc:	23ff      	movs	r3, #255	@ 0xff
100011be:	63a5      	str	r5, [r4, #56]	@ 0x38
100011c0:	f884 3044 	strb.w	r3, [r4, #68]	@ 0x44
100011c4:	f884 3045 	strb.w	r3, [r4, #69]	@ 0x45
100011c8:	e9d4 230f 	ldrd	r2, r3, [r4, #60]	@ 0x3c
100011cc:	fb03 f202 	mul.w	r2, r3, r2
100011d0:	6821      	ldr	r1, [r4, #0]
100011d2:	eba2 0c03 	sub.w	ip, r2, r3
100011d6:	6061      	str	r1, [r4, #4]
100011d8:	440a      	add	r2, r1
100011da:	4461      	add	r1, ip
100011dc:	e9c4 2102 	strd	r2, r1, [r4, #8]
100011e0:	f104 0010 	add.w	r0, r4, #16
100011e4:	f7ff fd6c 	bl	10000cc0 <vListInitialise>
100011e8:	f104 0024 	add.w	r0, r4, #36	@ 0x24
100011ec:	f7ff fd68 	bl	10000cc0 <vListInitialise>
100011f0:	f002 f89c 	bl	1000332c <vTaskExitCritical>
100011f4:	462b      	mov	r3, r5
100011f6:	462a      	mov	r2, r5
100011f8:	4629      	mov	r1, r5
100011fa:	4620      	mov	r0, r4
100011fc:	f884 6050 	strb.w	r6, [r4, #80]	@ 0x50
10001200:	64a5      	str	r5, [r4, #72]	@ 0x48
10001202:	60a5      	str	r5, [r4, #8]
10001204:	6025      	str	r5, [r4, #0]
10001206:	60e5      	str	r5, [r4, #12]
10001208:	f7ff ff40 	bl	1000108c <xQueueGenericSend>
1000120c:	4620      	mov	r0, r4
1000120e:	bd70      	pop	{r4, r5, r6, pc}

10001210 <xQueueGenericSendFromISR>:
10001210:	e92d 43f8 	stmdb	sp!, {r3, r4, r5, r6, r7, r8, r9, lr}
10001214:	4604      	mov	r4, r0
10001216:	4691      	mov	r9, r2
10001218:	461d      	mov	r5, r3
1000121a:	460e      	mov	r6, r1
1000121c:	f7ff fae6 	bl	100007ec <vPortValidateInterruptPriority>
10001220:	f002 f834 	bl	1000328c <vTaskEnterCriticalFromISR>
10001224:	6ba2      	ldr	r2, [r4, #56]	@ 0x38
10001226:	6be3      	ldr	r3, [r4, #60]	@ 0x3c
10001228:	4680      	mov	r8, r0
1000122a:	429a      	cmp	r2, r3
1000122c:	d308      	bcc.n	10001240 <xQueueGenericSendFromISR+0x30>
1000122e:	2d02      	cmp	r5, #2
10001230:	d006      	beq.n	10001240 <xQueueGenericSendFromISR+0x30>
10001232:	2400      	movs	r4, #0
10001234:	4640      	mov	r0, r8
10001236:	f002 f8c5 	bl	100033c4 <vTaskExitCriticalFromISR>
1000123a:	4620      	mov	r0, r4
1000123c:	e8bd 83f8 	ldmia.w	sp!, {r3, r4, r5, r6, r7, r8, r9, pc}
10001240:	f894 3045 	ldrb.w	r3, [r4, #69]	@ 0x45
10001244:	4631      	mov	r1, r6
10001246:	462a      	mov	r2, r5
10001248:	b25e      	sxtb	r6, r3
1000124a:	4620      	mov	r0, r4
1000124c:	6ba7      	ldr	r7, [r4, #56]	@ 0x38
1000124e:	f7ff fd83 	bl	10000d58 <prvCopyDataToQueue>
10001252:	1c73      	adds	r3, r6, #1
10001254:	d115      	bne.n	10001282 <xQueueGenericSendFromISR+0x72>
10001256:	6ca3      	ldr	r3, [r4, #72]	@ 0x48
10001258:	b1e3      	cbz	r3, 10001294 <xQueueGenericSendFromISR+0x84>
1000125a:	2d02      	cmp	r5, #2
1000125c:	d100      	bne.n	10001260 <xQueueGenericSendFromISR+0x50>
1000125e:	b94f      	cbnz	r7, 10001274 <xQueueGenericSendFromISR+0x64>
10001260:	4620      	mov	r0, r4
10001262:	f7ff fe75 	bl	10000f50 <prvNotifyQueueSetContainer>
10001266:	b128      	cbz	r0, 10001274 <xQueueGenericSendFromISR+0x64>
10001268:	f1b9 0f00 	cmp.w	r9, #0
1000126c:	d002      	beq.n	10001274 <xQueueGenericSendFromISR+0x64>
1000126e:	2301      	movs	r3, #1
10001270:	f8c9 3000 	str.w	r3, [r9]
10001274:	2401      	movs	r4, #1
10001276:	4640      	mov	r0, r8
10001278:	f002 f8a4 	bl	100033c4 <vTaskExitCriticalFromISR>
1000127c:	4620      	mov	r0, r4
1000127e:	e8bd 83f8 	ldmia.w	sp!, {r3, r4, r5, r6, r7, r8, r9, pc}
10001282:	f000 ff09 	bl	10002098 <uxTaskGetNumberOfTasks>
10001286:	4286      	cmp	r6, r0
10001288:	d2f4      	bcs.n	10001274 <xQueueGenericSendFromISR+0x64>
1000128a:	1c73      	adds	r3, r6, #1
1000128c:	f884 3045 	strb.w	r3, [r4, #69]	@ 0x45
10001290:	2401      	movs	r4, #1
10001292:	e7f0      	b.n	10001276 <xQueueGenericSendFromISR+0x66>
10001294:	6a63      	ldr	r3, [r4, #36]	@ 0x24
10001296:	2b00      	cmp	r3, #0
10001298:	d0ec      	beq.n	10001274 <xQueueGenericSendFromISR+0x64>
1000129a:	f104 0024 	add.w	r0, r4, #36	@ 0x24
1000129e:	f001 fa97 	bl	100027d0 <xTaskRemoveFromEventList>
100012a2:	2800      	cmp	r0, #0
100012a4:	d1e0      	bne.n	10001268 <xQueueGenericSendFromISR+0x58>
100012a6:	e7e5      	b.n	10001274 <xQueueGenericSendFromISR+0x64>

100012a8 <xQueueReceive>:
100012a8:	b5f0      	push	{r4, r5, r6, r7, lr}
100012aa:	4604      	mov	r4, r0
100012ac:	b085      	sub	sp, #20
100012ae:	460f      	mov	r7, r1
100012b0:	9201      	str	r2, [sp, #4]
100012b2:	f001 fca9 	bl	10002c08 <vTaskEnterCritical>
100012b6:	6ba5      	ldr	r5, [r4, #56]	@ 0x38
100012b8:	2d00      	cmp	r5, #0
100012ba:	d153      	bne.n	10001364 <xQueueReceive+0xbc>
100012bc:	9b01      	ldr	r3, [sp, #4]
100012be:	b3a3      	cbz	r3, 1000132a <xQueueReceive+0x82>
100012c0:	a802      	add	r0, sp, #8
100012c2:	f001 faf7 	bl	100028b4 <vTaskInternalSetTimeOutState>
100012c6:	462e      	mov	r6, r5
100012c8:	f002 f830 	bl	1000332c <vTaskExitCritical>
100012cc:	f000 fed6 	bl	1000207c <vTaskSuspendAll>
100012d0:	f001 fc9a 	bl	10002c08 <vTaskEnterCritical>
100012d4:	f894 3044 	ldrb.w	r3, [r4, #68]	@ 0x44
100012d8:	2bff      	cmp	r3, #255	@ 0xff
100012da:	bf08      	it	eq
100012dc:	f884 6044 	strbeq.w	r6, [r4, #68]	@ 0x44
100012e0:	f894 3045 	ldrb.w	r3, [r4, #69]	@ 0x45
100012e4:	2bff      	cmp	r3, #255	@ 0xff
100012e6:	bf08      	it	eq
100012e8:	f884 6045 	strbeq.w	r6, [r4, #69]	@ 0x45
100012ec:	f002 f81e 	bl	1000332c <vTaskExitCritical>
100012f0:	a901      	add	r1, sp, #4
100012f2:	a802      	add	r0, sp, #8
100012f4:	f001 ff76 	bl	100031e4 <xTaskCheckForTimeOut>
100012f8:	b9e0      	cbnz	r0, 10001334 <xQueueReceive+0x8c>
100012fa:	f001 fc85 	bl	10002c08 <vTaskEnterCritical>
100012fe:	6ba3      	ldr	r3, [r4, #56]	@ 0x38
10001300:	bb2b      	cbnz	r3, 1000134e <xQueueReceive+0xa6>
10001302:	f002 f813 	bl	1000332c <vTaskExitCritical>
10001306:	9901      	ldr	r1, [sp, #4]
10001308:	f104 0024 	add.w	r0, r4, #36	@ 0x24
1000130c:	f001 f9a0 	bl	10002650 <vTaskPlaceOnEventList>
10001310:	4620      	mov	r0, r4
10001312:	f7ff fd5f 	bl	10000dd4 <prvUnlockQueue>
10001316:	f001 fedf 	bl	100030d8 <xTaskResumeAll>
1000131a:	b300      	cbz	r0, 1000135e <xQueueReceive+0xb6>
1000131c:	f001 fc74 	bl	10002c08 <vTaskEnterCritical>
10001320:	6ba5      	ldr	r5, [r4, #56]	@ 0x38
10001322:	b9fd      	cbnz	r5, 10001364 <xQueueReceive+0xbc>
10001324:	9b01      	ldr	r3, [sp, #4]
10001326:	2b00      	cmp	r3, #0
10001328:	d1ce      	bne.n	100012c8 <xQueueReceive+0x20>
1000132a:	f001 ffff 	bl	1000332c <vTaskExitCritical>
1000132e:	2000      	movs	r0, #0
10001330:	b005      	add	sp, #20
10001332:	bdf0      	pop	{r4, r5, r6, r7, pc}
10001334:	4620      	mov	r0, r4
10001336:	f7ff fd4d 	bl	10000dd4 <prvUnlockQueue>
1000133a:	f001 fecd 	bl	100030d8 <xTaskResumeAll>
1000133e:	f001 fc63 	bl	10002c08 <vTaskEnterCritical>
10001342:	6ba3      	ldr	r3, [r4, #56]	@ 0x38
10001344:	2b00      	cmp	r3, #0
10001346:	d0f0      	beq.n	1000132a <xQueueReceive+0x82>
10001348:	f001 fff0 	bl	1000332c <vTaskExitCritical>
1000134c:	e7e6      	b.n	1000131c <xQueueReceive+0x74>
1000134e:	f001 ffed 	bl	1000332c <vTaskExitCritical>
10001352:	4620      	mov	r0, r4
10001354:	f7ff fd3e 	bl	10000dd4 <prvUnlockQueue>
10001358:	f001 febe 	bl	100030d8 <xTaskResumeAll>
1000135c:	e7de      	b.n	1000131c <xQueueReceive+0x74>
1000135e:	f001 fc41 	bl	10002be4 <vTaskYieldWithinAPI>
10001362:	e7db      	b.n	1000131c <xQueueReceive+0x74>
10001364:	6c22      	ldr	r2, [r4, #64]	@ 0x40
10001366:	b15a      	cbz	r2, 10001380 <xQueueReceive+0xd8>
10001368:	68e1      	ldr	r1, [r4, #12]
1000136a:	68a3      	ldr	r3, [r4, #8]
1000136c:	4411      	add	r1, r2
1000136e:	4299      	cmp	r1, r3
10001370:	60e1      	str	r1, [r4, #12]
10001372:	bf28      	it	cs
10001374:	6821      	ldrcs	r1, [r4, #0]
10001376:	4638      	mov	r0, r7
10001378:	bf28      	it	cs
1000137a:	60e1      	strcs	r1, [r4, #12]
1000137c:	f008 f89e 	bl	100094bc <memcpy>
10001380:	6923      	ldr	r3, [r4, #16]
10001382:	3d01      	subs	r5, #1
10001384:	63a5      	str	r5, [r4, #56]	@ 0x38
10001386:	b923      	cbnz	r3, 10001392 <xQueueReceive+0xea>
10001388:	f001 ffd0 	bl	1000332c <vTaskExitCritical>
1000138c:	2001      	movs	r0, #1
1000138e:	b005      	add	sp, #20
10001390:	bdf0      	pop	{r4, r5, r6, r7, pc}
10001392:	f104 0010 	add.w	r0, r4, #16
10001396:	f001 fa1b 	bl	100027d0 <xTaskRemoveFromEventList>
1000139a:	2800      	cmp	r0, #0
1000139c:	d0f4      	beq.n	10001388 <xQueueReceive+0xe0>
1000139e:	f001 fc21 	bl	10002be4 <vTaskYieldWithinAPI>
100013a2:	e7f1      	b.n	10001388 <xQueueReceive+0xe0>

100013a4 <xQueueSemaphoreTake>:
100013a4:	b5f0      	push	{r4, r5, r6, r7, lr}
100013a6:	4604      	mov	r4, r0
100013a8:	b085      	sub	sp, #20
100013aa:	9101      	str	r1, [sp, #4]
100013ac:	f001 fc2c 	bl	10002c08 <vTaskEnterCritical>
100013b0:	6ba5      	ldr	r5, [r4, #56]	@ 0x38
100013b2:	2d00      	cmp	r5, #0
100013b4:	d174      	bne.n	100014a0 <xQueueSemaphoreTake+0xfc>
100013b6:	9b01      	ldr	r3, [sp, #4]
100013b8:	2b00      	cmp	r3, #0
100013ba:	d03a      	beq.n	10001432 <xQueueSemaphoreTake+0x8e>
100013bc:	a802      	add	r0, sp, #8
100013be:	f001 fa79 	bl	100028b4 <vTaskInternalSetTimeOutState>
100013c2:	462e      	mov	r6, r5
100013c4:	462f      	mov	r7, r5
100013c6:	f001 ffb1 	bl	1000332c <vTaskExitCritical>
100013ca:	f000 fe57 	bl	1000207c <vTaskSuspendAll>
100013ce:	f001 fc1b 	bl	10002c08 <vTaskEnterCritical>
100013d2:	f894 3044 	ldrb.w	r3, [r4, #68]	@ 0x44
100013d6:	2bff      	cmp	r3, #255	@ 0xff
100013d8:	bf08      	it	eq
100013da:	f884 7044 	strbeq.w	r7, [r4, #68]	@ 0x44
100013de:	f894 3045 	ldrb.w	r3, [r4, #69]	@ 0x45
100013e2:	2bff      	cmp	r3, #255	@ 0xff
100013e4:	bf08      	it	eq
100013e6:	f884 7045 	strbeq.w	r7, [r4, #69]	@ 0x45
100013ea:	f001 ff9f 	bl	1000332c <vTaskExitCritical>
100013ee:	a901      	add	r1, sp, #4
100013f0:	a802      	add	r0, sp, #8
100013f2:	f001 fef7 	bl	100031e4 <xTaskCheckForTimeOut>
100013f6:	b9f8      	cbnz	r0, 10001438 <xQueueSemaphoreTake+0x94>
100013f8:	f001 fc06 	bl	10002c08 <vTaskEnterCritical>
100013fc:	6ba3      	ldr	r3, [r4, #56]	@ 0x38
100013fe:	bb53      	cbnz	r3, 10001456 <xQueueSemaphoreTake+0xb2>
10001400:	f001 ff94 	bl	1000332c <vTaskExitCritical>
10001404:	6823      	ldr	r3, [r4, #0]
10001406:	2b00      	cmp	r3, #0
10001408:	d041      	beq.n	1000148e <xQueueSemaphoreTake+0xea>
1000140a:	9901      	ldr	r1, [sp, #4]
1000140c:	f104 0024 	add.w	r0, r4, #36	@ 0x24
10001410:	f001 f91e 	bl	10002650 <vTaskPlaceOnEventList>
10001414:	4620      	mov	r0, r4
10001416:	f7ff fcdd 	bl	10000dd4 <prvUnlockQueue>
1000141a:	f001 fe5d 	bl	100030d8 <xTaskResumeAll>
1000141e:	2800      	cmp	r0, #0
10001420:	d032      	beq.n	10001488 <xQueueSemaphoreTake+0xe4>
10001422:	f001 fbf1 	bl	10002c08 <vTaskEnterCritical>
10001426:	6ba5      	ldr	r5, [r4, #56]	@ 0x38
10001428:	2d00      	cmp	r5, #0
1000142a:	d139      	bne.n	100014a0 <xQueueSemaphoreTake+0xfc>
1000142c:	9b01      	ldr	r3, [sp, #4]
1000142e:	2b00      	cmp	r3, #0
10001430:	d1c9      	bne.n	100013c6 <xQueueSemaphoreTake+0x22>
10001432:	f001 ff7b 	bl	1000332c <vTaskExitCritical>
10001436:	e00b      	b.n	10001450 <xQueueSemaphoreTake+0xac>
10001438:	4620      	mov	r0, r4
1000143a:	f7ff fccb 	bl	10000dd4 <prvUnlockQueue>
1000143e:	f001 fe4b 	bl	100030d8 <xTaskResumeAll>
10001442:	f001 fbe1 	bl	10002c08 <vTaskEnterCritical>
10001446:	6ba3      	ldr	r3, [r4, #56]	@ 0x38
10001448:	b96b      	cbnz	r3, 10001466 <xQueueSemaphoreTake+0xc2>
1000144a:	f001 ff6f 	bl	1000332c <vTaskExitCritical>
1000144e:	b96e      	cbnz	r6, 1000146c <xQueueSemaphoreTake+0xc8>
10001450:	2000      	movs	r0, #0
10001452:	b005      	add	sp, #20
10001454:	bdf0      	pop	{r4, r5, r6, r7, pc}
10001456:	f001 ff69 	bl	1000332c <vTaskExitCritical>
1000145a:	4620      	mov	r0, r4
1000145c:	f7ff fcba 	bl	10000dd4 <prvUnlockQueue>
10001460:	f001 fe3a 	bl	100030d8 <xTaskResumeAll>
10001464:	e7dd      	b.n	10001422 <xQueueSemaphoreTake+0x7e>
10001466:	f001 ff61 	bl	1000332c <vTaskExitCritical>
1000146a:	e7da      	b.n	10001422 <xQueueSemaphoreTake+0x7e>
1000146c:	f001 fbcc 	bl	10002c08 <vTaskEnterCritical>
10001470:	6a61      	ldr	r1, [r4, #36]	@ 0x24
10001472:	b119      	cbz	r1, 1000147c <xQueueSemaphoreTake+0xd8>
10001474:	6b23      	ldr	r3, [r4, #48]	@ 0x30
10001476:	6819      	ldr	r1, [r3, #0]
10001478:	f1c1 0120 	rsb	r1, r1, #32
1000147c:	68a0      	ldr	r0, [r4, #8]
1000147e:	f001 fb3d 	bl	10002afc <vTaskPriorityDisinheritAfterTimeout>
10001482:	f001 ff53 	bl	1000332c <vTaskExitCritical>
10001486:	e7e3      	b.n	10001450 <xQueueSemaphoreTake+0xac>
10001488:	f001 fbac 	bl	10002be4 <vTaskYieldWithinAPI>
1000148c:	e7c9      	b.n	10001422 <xQueueSemaphoreTake+0x7e>
1000148e:	f001 fbbb 	bl	10002c08 <vTaskEnterCritical>
10001492:	68a0      	ldr	r0, [r4, #8]
10001494:	f001 fa34 	bl	10002900 <xTaskPriorityInherit>
10001498:	4606      	mov	r6, r0
1000149a:	f001 ff47 	bl	1000332c <vTaskExitCritical>
1000149e:	e7b4      	b.n	1000140a <xQueueSemaphoreTake+0x66>
100014a0:	6823      	ldr	r3, [r4, #0]
100014a2:	3d01      	subs	r5, #1
100014a4:	63a5      	str	r5, [r4, #56]	@ 0x38
100014a6:	b17b      	cbz	r3, 100014c8 <xQueueSemaphoreTake+0x124>
100014a8:	6923      	ldr	r3, [r4, #16]
100014aa:	b923      	cbnz	r3, 100014b6 <xQueueSemaphoreTake+0x112>
100014ac:	f001 ff3e 	bl	1000332c <vTaskExitCritical>
100014b0:	2001      	movs	r0, #1
100014b2:	b005      	add	sp, #20
100014b4:	bdf0      	pop	{r4, r5, r6, r7, pc}
100014b6:	f104 0010 	add.w	r0, r4, #16
100014ba:	f001 f989 	bl	100027d0 <xTaskRemoveFromEventList>
100014be:	2800      	cmp	r0, #0
100014c0:	d0f4      	beq.n	100014ac <xQueueSemaphoreTake+0x108>
100014c2:	f001 fb8f 	bl	10002be4 <vTaskYieldWithinAPI>
100014c6:	e7f1      	b.n	100014ac <xQueueSemaphoreTake+0x108>
100014c8:	f001 ffce 	bl	10003468 <pvTaskIncrementMutexHeldCount>
100014cc:	60a0      	str	r0, [r4, #8]
100014ce:	e7eb      	b.n	100014a8 <xQueueSemaphoreTake+0x104>

100014d0 <vQueueAddToRegistry>:
100014d0:	2900      	cmp	r1, #0
100014d2:	d053      	beq.n	1000157c <vQueueAddToRegistry+0xac>
100014d4:	4b43      	ldr	r3, [pc, #268]	@ (100015e4 <vQueueAddToRegistry+0x114>)
100014d6:	685a      	ldr	r2, [r3, #4]
100014d8:	4290      	cmp	r0, r2
100014da:	d070      	beq.n	100015be <vQueueAddToRegistry+0xee>
100014dc:	681a      	ldr	r2, [r3, #0]
100014de:	b410      	push	{r4}
100014e0:	2a00      	cmp	r2, #0
100014e2:	d02b      	beq.n	1000153c <vQueueAddToRegistry+0x6c>
100014e4:	68da      	ldr	r2, [r3, #12]
100014e6:	4290      	cmp	r0, r2
100014e8:	d079      	beq.n	100015de <vQueueAddToRegistry+0x10e>
100014ea:	689a      	ldr	r2, [r3, #8]
100014ec:	2a00      	cmp	r2, #0
100014ee:	d03f      	beq.n	10001570 <vQueueAddToRegistry+0xa0>
100014f0:	695a      	ldr	r2, [r3, #20]
100014f2:	4290      	cmp	r0, r2
100014f4:	d071      	beq.n	100015da <vQueueAddToRegistry+0x10a>
100014f6:	691a      	ldr	r2, [r3, #16]
100014f8:	2a00      	cmp	r2, #0
100014fa:	d040      	beq.n	1000157e <vQueueAddToRegistry+0xae>
100014fc:	69da      	ldr	r2, [r3, #28]
100014fe:	4290      	cmp	r0, r2
10001500:	d063      	beq.n	100015ca <vQueueAddToRegistry+0xfa>
10001502:	699a      	ldr	r2, [r3, #24]
10001504:	2a00      	cmp	r2, #0
10001506:	d040      	beq.n	1000158a <vQueueAddToRegistry+0xba>
10001508:	6a5a      	ldr	r2, [r3, #36]	@ 0x24
1000150a:	4290      	cmp	r0, r2
1000150c:	d042      	beq.n	10001594 <vQueueAddToRegistry+0xc4>
1000150e:	6a1a      	ldr	r2, [r3, #32]
10001510:	2a00      	cmp	r2, #0
10001512:	d043      	beq.n	1000159c <vQueueAddToRegistry+0xcc>
10001514:	6ada      	ldr	r2, [r3, #44]	@ 0x2c
10001516:	4290      	cmp	r0, r2
10001518:	d059      	beq.n	100015ce <vQueueAddToRegistry+0xfe>
1000151a:	6a9a      	ldr	r2, [r3, #40]	@ 0x28
1000151c:	2a00      	cmp	r2, #0
1000151e:	d042      	beq.n	100015a6 <vQueueAddToRegistry+0xd6>
10001520:	6b5a      	ldr	r2, [r3, #52]	@ 0x34
10001522:	4290      	cmp	r0, r2
10001524:	d055      	beq.n	100015d2 <vQueueAddToRegistry+0x102>
10001526:	6b1a      	ldr	r2, [r3, #48]	@ 0x30
10001528:	2a00      	cmp	r2, #0
1000152a:	d041      	beq.n	100015b0 <vQueueAddToRegistry+0xe0>
1000152c:	6bda      	ldr	r2, [r3, #60]	@ 0x3c
1000152e:	4290      	cmp	r0, r2
10001530:	d051      	beq.n	100015d6 <vQueueAddToRegistry+0x106>
10001532:	6b9b      	ldr	r3, [r3, #56]	@ 0x38
10001534:	2b00      	cmp	r3, #0
10001536:	d040      	beq.n	100015ba <vQueueAddToRegistry+0xea>
10001538:	bc10      	pop	{r4}
1000153a:	4770      	bx	lr
1000153c:	68da      	ldr	r2, [r3, #12]
1000153e:	4290      	cmp	r0, r2
10001540:	d04d      	beq.n	100015de <vQueueAddToRegistry+0x10e>
10001542:	695a      	ldr	r2, [r3, #20]
10001544:	4290      	cmp	r0, r2
10001546:	d048      	beq.n	100015da <vQueueAddToRegistry+0x10a>
10001548:	461a      	mov	r2, r3
1000154a:	69dc      	ldr	r4, [r3, #28]
1000154c:	42a0      	cmp	r0, r4
1000154e:	d03c      	beq.n	100015ca <vQueueAddToRegistry+0xfa>
10001550:	6a5c      	ldr	r4, [r3, #36]	@ 0x24
10001552:	42a0      	cmp	r0, r4
10001554:	d01e      	beq.n	10001594 <vQueueAddToRegistry+0xc4>
10001556:	6adc      	ldr	r4, [r3, #44]	@ 0x2c
10001558:	42a0      	cmp	r0, r4
1000155a:	d038      	beq.n	100015ce <vQueueAddToRegistry+0xfe>
1000155c:	6b5c      	ldr	r4, [r3, #52]	@ 0x34
1000155e:	42a0      	cmp	r0, r4
10001560:	d037      	beq.n	100015d2 <vQueueAddToRegistry+0x102>
10001562:	6bdc      	ldr	r4, [r3, #60]	@ 0x3c
10001564:	42a0      	cmp	r0, r4
10001566:	d036      	beq.n	100015d6 <vQueueAddToRegistry+0x106>
10001568:	bc10      	pop	{r4}
1000156a:	e9c2 1000 	strd	r1, r0, [r2]
1000156e:	4770      	bx	lr
10001570:	695a      	ldr	r2, [r3, #20]
10001572:	4290      	cmp	r0, r2
10001574:	d031      	beq.n	100015da <vQueueAddToRegistry+0x10a>
10001576:	f103 0208 	add.w	r2, r3, #8
1000157a:	e7e6      	b.n	1000154a <vQueueAddToRegistry+0x7a>
1000157c:	4770      	bx	lr
1000157e:	69da      	ldr	r2, [r3, #28]
10001580:	4290      	cmp	r0, r2
10001582:	d022      	beq.n	100015ca <vQueueAddToRegistry+0xfa>
10001584:	f103 0210 	add.w	r2, r3, #16
10001588:	e7e2      	b.n	10001550 <vQueueAddToRegistry+0x80>
1000158a:	6a5a      	ldr	r2, [r3, #36]	@ 0x24
1000158c:	4290      	cmp	r0, r2
1000158e:	d001      	beq.n	10001594 <vQueueAddToRegistry+0xc4>
10001590:	4a15      	ldr	r2, [pc, #84]	@ (100015e8 <vQueueAddToRegistry+0x118>)
10001592:	e7e0      	b.n	10001556 <vQueueAddToRegistry+0x86>
10001594:	2204      	movs	r2, #4
10001596:	eb03 02c2 	add.w	r2, r3, r2, lsl #3
1000159a:	e7e5      	b.n	10001568 <vQueueAddToRegistry+0x98>
1000159c:	6ada      	ldr	r2, [r3, #44]	@ 0x2c
1000159e:	4290      	cmp	r0, r2
100015a0:	d015      	beq.n	100015ce <vQueueAddToRegistry+0xfe>
100015a2:	4a12      	ldr	r2, [pc, #72]	@ (100015ec <vQueueAddToRegistry+0x11c>)
100015a4:	e7da      	b.n	1000155c <vQueueAddToRegistry+0x8c>
100015a6:	6b5a      	ldr	r2, [r3, #52]	@ 0x34
100015a8:	4290      	cmp	r0, r2
100015aa:	d012      	beq.n	100015d2 <vQueueAddToRegistry+0x102>
100015ac:	4a10      	ldr	r2, [pc, #64]	@ (100015f0 <vQueueAddToRegistry+0x120>)
100015ae:	e7d8      	b.n	10001562 <vQueueAddToRegistry+0x92>
100015b0:	6bda      	ldr	r2, [r3, #60]	@ 0x3c
100015b2:	4290      	cmp	r0, r2
100015b4:	d00f      	beq.n	100015d6 <vQueueAddToRegistry+0x106>
100015b6:	4a0f      	ldr	r2, [pc, #60]	@ (100015f4 <vQueueAddToRegistry+0x124>)
100015b8:	e7d6      	b.n	10001568 <vQueueAddToRegistry+0x98>
100015ba:	4a0f      	ldr	r2, [pc, #60]	@ (100015f8 <vQueueAddToRegistry+0x128>)
100015bc:	e7d4      	b.n	10001568 <vQueueAddToRegistry+0x98>
100015be:	2200      	movs	r2, #0
100015c0:	eb03 02c2 	add.w	r2, r3, r2, lsl #3
100015c4:	e9c2 1000 	strd	r1, r0, [r2]
100015c8:	4770      	bx	lr
100015ca:	2203      	movs	r2, #3
100015cc:	e7e3      	b.n	10001596 <vQueueAddToRegistry+0xc6>
100015ce:	2205      	movs	r2, #5
100015d0:	e7e1      	b.n	10001596 <vQueueAddToRegistry+0xc6>
100015d2:	2206      	movs	r2, #6
100015d4:	e7df      	b.n	10001596 <vQueueAddToRegistry+0xc6>
100015d6:	2207      	movs	r2, #7
100015d8:	e7dd      	b.n	10001596 <vQueueAddToRegistry+0xc6>
100015da:	2202      	movs	r2, #2
100015dc:	e7db      	b.n	10001596 <vQueueAddToRegistry+0xc6>
100015de:	2201      	movs	r2, #1
100015e0:	e7d9      	b.n	10001596 <vQueueAddToRegistry+0xc6>
100015e2:	bf00      	nop
100015e4:	20001518 	.word	0x20001518
100015e8:	20001530 	.word	0x20001530
100015ec:	20001538 	.word	0x20001538
100015f0:	20001540 	.word	0x20001540
100015f4:	20001548 	.word	0x20001548
100015f8:	20001550 	.word	0x20001550

100015fc <vQueueWaitForMessageRestricted>:
100015fc:	b570      	push	{r4, r5, r6, lr}
100015fe:	4604      	mov	r4, r0
10001600:	460d      	mov	r5, r1
10001602:	4616      	mov	r6, r2
10001604:	f001 fb00 	bl	10002c08 <vTaskEnterCritical>
10001608:	f894 3044 	ldrb.w	r3, [r4, #68]	@ 0x44
1000160c:	2bff      	cmp	r3, #255	@ 0xff
1000160e:	bf04      	itt	eq
10001610:	2300      	moveq	r3, #0
10001612:	f884 3044 	strbeq.w	r3, [r4, #68]	@ 0x44
10001616:	f894 3045 	ldrb.w	r3, [r4, #69]	@ 0x45
1000161a:	2bff      	cmp	r3, #255	@ 0xff
1000161c:	bf04      	itt	eq
1000161e:	2300      	moveq	r3, #0
10001620:	f884 3045 	strbeq.w	r3, [r4, #69]	@ 0x45
10001624:	f001 fe82 	bl	1000332c <vTaskExitCritical>
10001628:	6ba3      	ldr	r3, [r4, #56]	@ 0x38
1000162a:	b123      	cbz	r3, 10001636 <vQueueWaitForMessageRestricted+0x3a>
1000162c:	4620      	mov	r0, r4
1000162e:	e8bd 4070 	ldmia.w	sp!, {r4, r5, r6, lr}
10001632:	f7ff bbcf 	b.w	10000dd4 <prvUnlockQueue>
10001636:	f104 0024 	add.w	r0, r4, #36	@ 0x24
1000163a:	4632      	mov	r2, r6
1000163c:	4629      	mov	r1, r5
1000163e:	f001 f877 	bl	10002730 <vTaskPlaceOnEventListRestricted>
10001642:	4620      	mov	r0, r4
10001644:	e8bd 4070 	ldmia.w	sp!, {r4, r5, r6, lr}
10001648:	f7ff bbc4 	b.w	10000dd4 <prvUnlockQueue>

1000164c <prvPassiveIdleTask>:
1000164c:	4c06      	ldr	r4, [pc, #24]	@ (10001668 <prvPassiveIdleTask+0x1c>)
1000164e:	b508      	push	{r3, lr}
10001650:	f7ff f844 	bl	100006dc <vPortYield>
10001654:	6823      	ldr	r3, [r4, #0]
10001656:	2b02      	cmp	r3, #2
10001658:	d800      	bhi.n	1000165c <prvPassiveIdleTask+0x10>
1000165a:	e7fe      	b.n	1000165a <prvPassiveIdleTask+0xe>
1000165c:	f7ff f83e 	bl	100006dc <vPortYield>
10001660:	6823      	ldr	r3, [r4, #0]
10001662:	2b02      	cmp	r3, #2
10001664:	d8fa      	bhi.n	1000165c <prvPassiveIdleTask+0x10>
10001666:	e7f8      	b.n	1000165a <prvPassiveIdleTask+0xe>
10001668:	20001f24 	.word	0x20001f24

1000166c <prvYieldForTask>:
1000166c:	6b83      	ldr	r3, [r0, #56]	@ 0x38
1000166e:	2b00      	cmp	r3, #0
10001670:	db02      	blt.n	10001678 <prvYieldForTask+0xc>
10001672:	6b83      	ldr	r3, [r0, #56]	@ 0x38
10001674:	2b01      	cmp	r3, #1
10001676:	dd1d      	ble.n	100016b4 <prvYieldForTask+0x48>
10001678:	4b3d      	ldr	r3, [pc, #244]	@ (10001770 <prvYieldForTask+0x104>)
1000167a:	6b02      	ldr	r2, [r0, #48]	@ 0x30
1000167c:	b570      	push	{r4, r5, r6, lr}
1000167e:	1e51      	subs	r1, r2, #1
10001680:	f8d3 e000 	ldr.w	lr, [r3]
10001684:	681c      	ldr	r4, [r3, #0]
10001686:	681a      	ldr	r2, [r3, #0]
10001688:	b082      	sub	sp, #8
1000168a:	6b92      	ldr	r2, [r2, #56]	@ 0x38
1000168c:	2a00      	cmp	r2, #0
1000168e:	db03      	blt.n	10001698 <prvYieldForTask+0x2c>
10001690:	681a      	ldr	r2, [r3, #0]
10001692:	6b92      	ldr	r2, [r2, #56]	@ 0x38
10001694:	2a01      	cmp	r2, #1
10001696:	dd0e      	ble.n	100016b6 <prvYieldForTask+0x4a>
10001698:	685a      	ldr	r2, [r3, #4]
1000169a:	f8d3 e004 	ldr.w	lr, [r3, #4]
1000169e:	4614      	mov	r4, r2
100016a0:	685a      	ldr	r2, [r3, #4]
100016a2:	6b92      	ldr	r2, [r2, #56]	@ 0x38
100016a4:	2a00      	cmp	r2, #0
100016a6:	db03      	blt.n	100016b0 <prvYieldForTask+0x44>
100016a8:	685a      	ldr	r2, [r3, #4]
100016aa:	6b92      	ldr	r2, [r2, #56]	@ 0x38
100016ac:	2a01      	cmp	r2, #1
100016ae:	dd29      	ble.n	10001704 <prvYieldForTask+0x98>
100016b0:	b002      	add	sp, #8
100016b2:	bd70      	pop	{r4, r5, r6, pc}
100016b4:	4770      	bx	lr
100016b6:	f8df c0bc 	ldr.w	ip, [pc, #188]	@ 10001774 <prvYieldForTask+0x108>
100016ba:	f8dc 2000 	ldr.w	r2, [ip]
100016be:	2a00      	cmp	r2, #0
100016c0:	d1ea      	bne.n	10001698 <prvYieldForTask+0x2c>
100016c2:	6be4      	ldr	r4, [r4, #60]	@ 0x3c
100016c4:	f8de 5030 	ldr.w	r5, [lr, #48]	@ 0x30
100016c8:	f004 0e01 	and.w	lr, r4, #1
100016cc:	eba5 0e0e 	sub.w	lr, r5, lr
100016d0:	4571      	cmp	r1, lr
100016d2:	dbe1      	blt.n	10001698 <prvYieldForTask+0x2c>
100016d4:	6844      	ldr	r4, [r0, #4]
100016d6:	07e4      	lsls	r4, r4, #31
100016d8:	d5de      	bpl.n	10001698 <prvYieldForTask+0x2c>
100016da:	6859      	ldr	r1, [r3, #4]
100016dc:	460e      	mov	r6, r1
100016de:	6859      	ldr	r1, [r3, #4]
100016e0:	460c      	mov	r4, r1
100016e2:	6859      	ldr	r1, [r3, #4]
100016e4:	6b89      	ldr	r1, [r1, #56]	@ 0x38
100016e6:	2900      	cmp	r1, #0
100016e8:	db20      	blt.n	1000172c <prvYieldForTask+0xc0>
100016ea:	6859      	ldr	r1, [r3, #4]
100016ec:	6b89      	ldr	r1, [r1, #56]	@ 0x38
100016ee:	2901      	cmp	r1, #1
100016f0:	dc1c      	bgt.n	1000172c <prvYieldForTask+0xc0>
100016f2:	f8dc 1004 	ldr.w	r1, [ip, #4]
100016f6:	460d      	mov	r5, r1
100016f8:	b9c1      	cbnz	r1, 1000172c <prvYieldForTask+0xc0>
100016fa:	4671      	mov	r1, lr
100016fc:	6b32      	ldr	r2, [r6, #48]	@ 0x30
100016fe:	f8d4 e03c 	ldr.w	lr, [r4, #60]	@ 0x3c
10001702:	e00a      	b.n	1000171a <prvYieldForTask+0xae>
10001704:	f8df c06c 	ldr.w	ip, [pc, #108]	@ 10001774 <prvYieldForTask+0x108>
10001708:	f8dc 2004 	ldr.w	r2, [ip, #4]
1000170c:	2a00      	cmp	r2, #0
1000170e:	d1cf      	bne.n	100016b0 <prvYieldForTask+0x44>
10001710:	f04f 35ff 	mov.w	r5, #4294967295
10001714:	6b22      	ldr	r2, [r4, #48]	@ 0x30
10001716:	f8de e03c 	ldr.w	lr, [lr, #60]	@ 0x3c
1000171a:	f00e 0e01 	and.w	lr, lr, #1
1000171e:	eba2 020e 	sub.w	r2, r2, lr
10001722:	428a      	cmp	r2, r1
10001724:	dd1e      	ble.n	10001764 <prvYieldForTask+0xf8>
10001726:	3501      	adds	r5, #1
10001728:	d0c2      	beq.n	100016b0 <prvYieldForTask+0x44>
1000172a:	2200      	movs	r2, #0
1000172c:	f04f 4150 	mov.w	r1, #3489660928	@ 0xd0000000
10001730:	6809      	ldr	r1, [r1, #0]
10001732:	428a      	cmp	r2, r1
10001734:	d011      	beq.n	1000175a <prvYieldForTask+0xee>
10001736:	f853 1022 	ldr.w	r1, [r3, r2, lsl #2]
1000173a:	6b89      	ldr	r1, [r1, #56]	@ 0x38
1000173c:	3102      	adds	r1, #2
1000173e:	d0b7      	beq.n	100016b0 <prvYieldForTask+0x44>
10001740:	4610      	mov	r0, r2
10001742:	9201      	str	r2, [sp, #4]
10001744:	f7ff f93e 	bl	100009c4 <vYieldCore>
10001748:	f06f 0101 	mvn.w	r1, #1
1000174c:	9a01      	ldr	r2, [sp, #4]
1000174e:	4b08      	ldr	r3, [pc, #32]	@ (10001770 <prvYieldForTask+0x104>)
10001750:	f853 3022 	ldr.w	r3, [r3, r2, lsl #2]
10001754:	6399      	str	r1, [r3, #56]	@ 0x38
10001756:	b002      	add	sp, #8
10001758:	bd70      	pop	{r4, r5, r6, pc}
1000175a:	2301      	movs	r3, #1
1000175c:	f84c 3022 	str.w	r3, [ip, r2, lsl #2]
10001760:	b002      	add	sp, #8
10001762:	bd70      	pop	{r4, r5, r6, pc}
10001764:	6842      	ldr	r2, [r0, #4]
10001766:	0792      	lsls	r2, r2, #30
10001768:	d5dd      	bpl.n	10001726 <prvYieldForTask+0xba>
1000176a:	2201      	movs	r2, #1
1000176c:	e7de      	b.n	1000172c <prvYieldForTask+0xc0>
1000176e:	bf00      	nop
10001770:	20001f08 	.word	0x20001f08
10001774:	200222cc 	.word	0x200222cc

10001778 <vTaskExitCritical.part.0>:
10001778:	f04f 4150 	mov.w	r1, #3489660928	@ 0xd0000000
1000177c:	4b1b      	ldr	r3, [pc, #108]	@ (100017ec <vTaskExitCritical.part.0+0x74>)
1000177e:	680a      	ldr	r2, [r1, #0]
10001780:	f853 0022 	ldr.w	r0, [r3, r2, lsl #2]
10001784:	b360      	cbz	r0, 100017e0 <vTaskExitCritical.part.0+0x68>
10001786:	f853 0022 	ldr.w	r0, [r3, r2, lsl #2]
1000178a:	3801      	subs	r0, #1
1000178c:	f843 0022 	str.w	r0, [r3, r2, lsl #2]
10001790:	680a      	ldr	r2, [r1, #0]
10001792:	f853 3022 	ldr.w	r3, [r3, r2, lsl #2]
10001796:	bb1b      	cbnz	r3, 100017e0 <vTaskExitCritical.part.0+0x68>
10001798:	b510      	push	{r4, lr}
1000179a:	4b15      	ldr	r3, [pc, #84]	@ (100017f0 <vTaskExitCritical.part.0+0x78>)
1000179c:	4815      	ldr	r0, [pc, #84]	@ (100017f4 <vTaskExitCritical.part.0+0x7c>)
1000179e:	f853 3022 	ldr.w	r3, [r3, r2, lsl #2]
100017a2:	461c      	mov	r4, r3
100017a4:	7803      	ldrb	r3, [r0, #0]
100017a6:	3b01      	subs	r3, #1
100017a8:	b2db      	uxtb	r3, r3
100017aa:	7003      	strb	r3, [r0, #0]
100017ac:	b93b      	cbnz	r3, 100017be <vTaskExitCritical.part.0+0x46>
100017ae:	f8df c04c 	ldr.w	ip, [pc, #76]	@ 100017fc <vTaskExitCritical.part.0+0x84>
100017b2:	f80c 3012 	strb.w	r3, [ip, r2, lsl #1]
100017b6:	4a10      	ldr	r2, [pc, #64]	@ (100017f8 <vTaskExitCritical.part.0+0x80>)
100017b8:	e8c2 3f8f 	stlb	r3, [r2]
100017bc:	680a      	ldr	r2, [r1, #0]
100017be:	7843      	ldrb	r3, [r0, #1]
100017c0:	3b01      	subs	r3, #1
100017c2:	b2db      	uxtb	r3, r3
100017c4:	7043      	strb	r3, [r0, #1]
100017c6:	b933      	cbnz	r3, 100017d6 <vTaskExitCritical.part.0+0x5e>
100017c8:	490c      	ldr	r1, [pc, #48]	@ (100017fc <vTaskExitCritical.part.0+0x84>)
100017ca:	480d      	ldr	r0, [pc, #52]	@ (10001800 <vTaskExitCritical.part.0+0x88>)
100017cc:	eb01 0242 	add.w	r2, r1, r2, lsl #1
100017d0:	7053      	strb	r3, [r2, #1]
100017d2:	e8c0 3f8f 	stlb	r3, [r0]
100017d6:	2000      	movs	r0, #0
100017d8:	f7ff f932 	bl	10000a40 <vClearInterruptMask>
100017dc:	b90c      	cbnz	r4, 100017e2 <vTaskExitCritical.part.0+0x6a>
100017de:	bd10      	pop	{r4, pc}
100017e0:	4770      	bx	lr
100017e2:	e8bd 4010 	ldmia.w	sp!, {r4, lr}
100017e6:	f7fe bf79 	b.w	100006dc <vPortYield>
100017ea:	bf00      	nop
100017ec:	200221c8 	.word	0x200221c8
100017f0:	200222cc 	.word	0x200222cc
100017f4:	200221c4 	.word	0x200221c4
100017f8:	20001642 	.word	0x20001642
100017fc:	200221c0 	.word	0x200221c0
10001800:	20001643 	.word	0x20001643

10001804 <prvCreateTask>:
10001804:	e92d 43f8 	stmdb	sp!, {r3, r4, r5, r6, r7, r8, r9, lr}
10001808:	0095      	lsls	r5, r2, #2
1000180a:	4607      	mov	r7, r0
1000180c:	4628      	mov	r0, r5
1000180e:	460e      	mov	r6, r1
10001810:	4699      	mov	r9, r3
10001812:	f7fe fd87 	bl	10000324 <pvPortMalloc>
10001816:	2800      	cmp	r0, #0
10001818:	f000 8089 	beq.w	1000192e <prvCreateTask+0x12a>
1000181c:	4680      	mov	r8, r0
1000181e:	207c      	movs	r0, #124	@ 0x7c
10001820:	f7fe fd80 	bl	10000324 <pvPortMalloc>
10001824:	4604      	mov	r4, r0
10001826:	2800      	cmp	r0, #0
10001828:	d07e      	beq.n	10001928 <prvCreateTask+0x124>
1000182a:	227c      	movs	r2, #124	@ 0x7c
1000182c:	2100      	movs	r1, #0
1000182e:	f007 fe01 	bl	10009434 <memset>
10001832:	4640      	mov	r0, r8
10001834:	462a      	mov	r2, r5
10001836:	f8c4 8034 	str.w	r8, [r4, #52]	@ 0x34
1000183a:	21a5      	movs	r1, #165	@ 0xa5
1000183c:	f007 fdfa 	bl	10009434 <memset>
10001840:	6b63      	ldr	r3, [r4, #52]	@ 0x34
10001842:	3d04      	subs	r5, #4
10001844:	442b      	add	r3, r5
10001846:	f023 0807 	bic.w	r8, r3, #7
1000184a:	2e00      	cmp	r6, #0
1000184c:	d03e      	beq.n	100018cc <prvCreateTask+0xc8>
1000184e:	7833      	ldrb	r3, [r6, #0]
10001850:	f884 3040 	strb.w	r3, [r4, #64]	@ 0x40
10001854:	2b00      	cmp	r3, #0
10001856:	d036      	beq.n	100018c6 <prvCreateTask+0xc2>
10001858:	7873      	ldrb	r3, [r6, #1]
1000185a:	f884 3041 	strb.w	r3, [r4, #65]	@ 0x41
1000185e:	b393      	cbz	r3, 100018c6 <prvCreateTask+0xc2>
10001860:	78b3      	ldrb	r3, [r6, #2]
10001862:	f884 3042 	strb.w	r3, [r4, #66]	@ 0x42
10001866:	b373      	cbz	r3, 100018c6 <prvCreateTask+0xc2>
10001868:	78f3      	ldrb	r3, [r6, #3]
1000186a:	f884 3043 	strb.w	r3, [r4, #67]	@ 0x43
1000186e:	b353      	cbz	r3, 100018c6 <prvCreateTask+0xc2>
10001870:	7933      	ldrb	r3, [r6, #4]
10001872:	f884 3044 	strb.w	r3, [r4, #68]	@ 0x44
10001876:	b333      	cbz	r3, 100018c6 <prvCreateTask+0xc2>
10001878:	7973      	ldrb	r3, [r6, #5]
1000187a:	f884 3045 	strb.w	r3, [r4, #69]	@ 0x45
1000187e:	b313      	cbz	r3, 100018c6 <prvCreateTask+0xc2>
10001880:	79b3      	ldrb	r3, [r6, #6]
10001882:	f884 3046 	strb.w	r3, [r4, #70]	@ 0x46
10001886:	b1f3      	cbz	r3, 100018c6 <prvCreateTask+0xc2>
10001888:	79f3      	ldrb	r3, [r6, #7]
1000188a:	f884 3047 	strb.w	r3, [r4, #71]	@ 0x47
1000188e:	b1d3      	cbz	r3, 100018c6 <prvCreateTask+0xc2>
10001890:	7a33      	ldrb	r3, [r6, #8]
10001892:	f884 3048 	strb.w	r3, [r4, #72]	@ 0x48
10001896:	b1b3      	cbz	r3, 100018c6 <prvCreateTask+0xc2>
10001898:	7a73      	ldrb	r3, [r6, #9]
1000189a:	f884 3049 	strb.w	r3, [r4, #73]	@ 0x49
1000189e:	b193      	cbz	r3, 100018c6 <prvCreateTask+0xc2>
100018a0:	7ab3      	ldrb	r3, [r6, #10]
100018a2:	f884 304a 	strb.w	r3, [r4, #74]	@ 0x4a
100018a6:	b173      	cbz	r3, 100018c6 <prvCreateTask+0xc2>
100018a8:	7af3      	ldrb	r3, [r6, #11]
100018aa:	f884 304b 	strb.w	r3, [r4, #75]	@ 0x4b
100018ae:	b153      	cbz	r3, 100018c6 <prvCreateTask+0xc2>
100018b0:	7b33      	ldrb	r3, [r6, #12]
100018b2:	f884 304c 	strb.w	r3, [r4, #76]	@ 0x4c
100018b6:	b133      	cbz	r3, 100018c6 <prvCreateTask+0xc2>
100018b8:	7b73      	ldrb	r3, [r6, #13]
100018ba:	f884 304d 	strb.w	r3, [r4, #77]	@ 0x4d
100018be:	b113      	cbz	r3, 100018c6 <prvCreateTask+0xc2>
100018c0:	7bb3      	ldrb	r3, [r6, #14]
100018c2:	f884 304e 	strb.w	r3, [r4, #78]	@ 0x4e
100018c6:	2300      	movs	r3, #0
100018c8:	f884 304f 	strb.w	r3, [r4, #79]	@ 0x4f
100018cc:	9d08      	ldr	r5, [sp, #32]
100018ce:	f104 0008 	add.w	r0, r4, #8
100018d2:	2d1f      	cmp	r5, #31
100018d4:	bf28      	it	cs
100018d6:	251f      	movcs	r5, #31
100018d8:	6325      	str	r5, [r4, #48]	@ 0x30
100018da:	65a5      	str	r5, [r4, #88]	@ 0x58
100018dc:	f7ff f9fc 	bl	10000cd8 <vListInitialiseItem>
100018e0:	f1c5 0520 	rsb	r5, r5, #32
100018e4:	f104 001c 	add.w	r0, r4, #28
100018e8:	f7ff f9f6 	bl	10000cd8 <vListInitialiseItem>
100018ec:	464b      	mov	r3, r9
100018ee:	463a      	mov	r2, r7
100018f0:	4640      	mov	r0, r8
100018f2:	6b61      	ldr	r1, [r4, #52]	@ 0x34
100018f4:	61e5      	str	r5, [r4, #28]
100018f6:	6164      	str	r4, [r4, #20]
100018f8:	62a4      	str	r4, [r4, #40]	@ 0x28
100018fa:	f7fe ff11 	bl	10000720 <pxPortInitialiseStack>
100018fe:	f04f 32ff 	mov.w	r2, #4294967295
10001902:	4b0d      	ldr	r3, [pc, #52]	@ (10001938 <prvCreateTask+0x134>)
10001904:	6020      	str	r0, [r4, #0]
10001906:	429f      	cmp	r7, r3
10001908:	63a2      	str	r2, [r4, #56]	@ 0x38
1000190a:	d008      	beq.n	1000191e <prvCreateTask+0x11a>
1000190c:	4b0b      	ldr	r3, [pc, #44]	@ (1000193c <prvCreateTask+0x138>)
1000190e:	429f      	cmp	r7, r3
10001910:	d005      	beq.n	1000191e <prvCreateTask+0x11a>
10001912:	9b09      	ldr	r3, [sp, #36]	@ 0x24
10001914:	b103      	cbz	r3, 10001918 <prvCreateTask+0x114>
10001916:	601c      	str	r4, [r3, #0]
10001918:	4620      	mov	r0, r4
1000191a:	e8bd 83f8 	ldmia.w	sp!, {r3, r4, r5, r6, r7, r8, r9, pc}
1000191e:	6be3      	ldr	r3, [r4, #60]	@ 0x3c
10001920:	f043 0301 	orr.w	r3, r3, #1
10001924:	63e3      	str	r3, [r4, #60]	@ 0x3c
10001926:	e7f4      	b.n	10001912 <prvCreateTask+0x10e>
10001928:	4640      	mov	r0, r8
1000192a:	f7fe fd9f 	bl	1000046c <vPortFree>
1000192e:	2400      	movs	r4, #0
10001930:	4620      	mov	r0, r4
10001932:	e8bd 83f8 	ldmia.w	sp!, {r3, r4, r5, r6, r7, r8, r9, pc}
10001936:	bf00      	nop
10001938:	10001d51 	.word	0x10001d51
1000193c:	1000164d 	.word	0x1000164d

10001940 <prvCheckForRunStateChange>:
10001940:	f04f 4250 	mov.w	r2, #3489660928	@ 0xd0000000
10001944:	4b4f      	ldr	r3, [pc, #316]	@ (10001a84 <prvCheckForRunStateChange+0x144>)
10001946:	6812      	ldr	r2, [r2, #0]
10001948:	e92d 47f0 	stmdb	sp!, {r4, r5, r6, r7, r8, r9, sl, lr}
1000194c:	f8df 9140 	ldr.w	r9, [pc, #320]	@ 10001a90 <prvCheckForRunStateChange+0x150>
10001950:	4c4d      	ldr	r4, [pc, #308]	@ (10001a88 <prvCheckForRunStateChange+0x148>)
10001952:	f8df 8140 	ldr.w	r8, [pc, #320]	@ 10001a94 <prvCheckForRunStateChange+0x154>
10001956:	f853 6022 	ldr.w	r6, [r3, r2, lsl #2]
1000195a:	4d4c      	ldr	r5, [pc, #304]	@ (10001a8c <prvCheckForRunStateChange+0x14c>)
1000195c:	e040      	b.n	100019e0 <prvCheckForRunStateChange+0xa0>
1000195e:	f8df a138 	ldr.w	sl, [pc, #312]	@ 10001a98 <prvCheckForRunStateChange+0x158>
10001962:	2000      	movs	r0, #0
10001964:	f7ff f86c 	bl	10000a40 <vClearInterruptMask>
10001968:	f7ff f85e 	bl	10000a28 <ulSetInterruptMask>
1000196c:	f04f 4350 	mov.w	r3, #3489660928	@ 0xd0000000
10001970:	681b      	ldr	r3, [r3, #0]
10001972:	e8da 2fcf 	ldaexb	r2, [sl]
10001976:	2101      	movs	r1, #1
10001978:	2a00      	cmp	r2, #0
1000197a:	d101      	bne.n	10001980 <prvCheckForRunStateChange+0x40>
1000197c:	e8ca 1f42 	strexb	r2, r1, [sl]
10001980:	f3bf 8f5f 	dmb	sy
10001984:	2a00      	cmp	r2, #0
10001986:	d150      	bne.n	10001a2a <prvCheckForRunStateChange+0xea>
10001988:	005b      	lsls	r3, r3, #1
1000198a:	2201      	movs	r2, #1
1000198c:	4443      	add	r3, r8
1000198e:	7062      	strb	r2, [r4, #1]
10001990:	705a      	strb	r2, [r3, #1]
10001992:	f04f 4350 	mov.w	r3, #3489660928	@ 0xd0000000
10001996:	681a      	ldr	r2, [r3, #0]
10001998:	e8d5 3fcf 	ldaexb	r3, [r5]
1000199c:	2101      	movs	r1, #1
1000199e:	2b00      	cmp	r3, #0
100019a0:	d101      	bne.n	100019a6 <prvCheckForRunStateChange+0x66>
100019a2:	e8c5 1f43 	strexb	r3, r1, [r5]
100019a6:	f3bf 8f5f 	dmb	sy
100019aa:	b173      	cbz	r3, 100019ca <prvCheckForRunStateChange+0x8a>
100019ac:	f818 3012 	ldrb.w	r3, [r8, r2, lsl #1]
100019b0:	2b00      	cmp	r3, #0
100019b2:	d14b      	bne.n	10001a4c <prvCheckForRunStateChange+0x10c>
100019b4:	e8d5 1fcf 	ldaexb	r1, [r5]
100019b8:	2301      	movs	r3, #1
100019ba:	2900      	cmp	r1, #0
100019bc:	d1fa      	bne.n	100019b4 <prvCheckForRunStateChange+0x74>
100019be:	e8c5 3f41 	strexb	r1, r3, [r5]
100019c2:	2900      	cmp	r1, #0
100019c4:	d1f6      	bne.n	100019b4 <prvCheckForRunStateChange+0x74>
100019c6:	f3bf 8f5f 	dmb	sy
100019ca:	2301      	movs	r3, #1
100019cc:	7023      	strb	r3, [r4, #0]
100019ce:	f808 3012 	strb.w	r3, [r8, r2, lsl #1]
100019d2:	f04f 4350 	mov.w	r3, #3489660928	@ 0xd0000000
100019d6:	681a      	ldr	r2, [r3, #0]
100019d8:	f849 7022 	str.w	r7, [r9, r2, lsl #2]
100019dc:	2f00      	cmp	r7, #0
100019de:	d03f      	beq.n	10001a60 <prvCheckForRunStateChange+0x120>
100019e0:	6bb3      	ldr	r3, [r6, #56]	@ 0x38
100019e2:	3302      	adds	r3, #2
100019e4:	d14c      	bne.n	10001a80 <prvCheckForRunStateChange+0x140>
100019e6:	f04f 4150 	mov.w	r1, #3489660928	@ 0xd0000000
100019ea:	680a      	ldr	r2, [r1, #0]
100019ec:	f859 7022 	ldr.w	r7, [r9, r2, lsl #2]
100019f0:	b16f      	cbz	r7, 10001a0e <prvCheckForRunStateChange+0xce>
100019f2:	2300      	movs	r3, #0
100019f4:	f849 3022 	str.w	r3, [r9, r2, lsl #2]
100019f8:	7823      	ldrb	r3, [r4, #0]
100019fa:	680a      	ldr	r2, [r1, #0]
100019fc:	3b01      	subs	r3, #1
100019fe:	b2db      	uxtb	r3, r3
10001a00:	7023      	strb	r3, [r4, #0]
10001a02:	b923      	cbnz	r3, 10001a0e <prvCheckForRunStateChange+0xce>
10001a04:	f808 3012 	strb.w	r3, [r8, r2, lsl #1]
10001a08:	e8c5 3f8f 	stlb	r3, [r5]
10001a0c:	680a      	ldr	r2, [r1, #0]
10001a0e:	7863      	ldrb	r3, [r4, #1]
10001a10:	3b01      	subs	r3, #1
10001a12:	b2db      	uxtb	r3, r3
10001a14:	7063      	strb	r3, [r4, #1]
10001a16:	2b00      	cmp	r3, #0
10001a18:	d1a1      	bne.n	1000195e <prvCheckForRunStateChange+0x1e>
10001a1a:	eb08 0242 	add.w	r2, r8, r2, lsl #1
10001a1e:	f8df a078 	ldr.w	sl, [pc, #120]	@ 10001a98 <prvCheckForRunStateChange+0x158>
10001a22:	7053      	strb	r3, [r2, #1]
10001a24:	e8ca 3f8f 	stlb	r3, [sl]
10001a28:	e79b      	b.n	10001962 <prvCheckForRunStateChange+0x22>
10001a2a:	eb08 0243 	add.w	r2, r8, r3, lsl #1
10001a2e:	7852      	ldrb	r2, [r2, #1]
10001a30:	005b      	lsls	r3, r3, #1
10001a32:	bb0a      	cbnz	r2, 10001a78 <prvCheckForRunStateChange+0x138>
10001a34:	e8da 1fcf 	ldaexb	r1, [sl]
10001a38:	2201      	movs	r2, #1
10001a3a:	2900      	cmp	r1, #0
10001a3c:	d1fa      	bne.n	10001a34 <prvCheckForRunStateChange+0xf4>
10001a3e:	e8ca 2f41 	strexb	r1, r2, [sl]
10001a42:	2900      	cmp	r1, #0
10001a44:	d1f6      	bne.n	10001a34 <prvCheckForRunStateChange+0xf4>
10001a46:	f3bf 8f5f 	dmb	sy
10001a4a:	e79e      	b.n	1000198a <prvCheckForRunStateChange+0x4a>
10001a4c:	7823      	ldrb	r3, [r4, #0]
10001a4e:	3301      	adds	r3, #1
10001a50:	7023      	strb	r3, [r4, #0]
10001a52:	f04f 4350 	mov.w	r3, #3489660928	@ 0xd0000000
10001a56:	681a      	ldr	r2, [r3, #0]
10001a58:	f849 7022 	str.w	r7, [r9, r2, lsl #2]
10001a5c:	2f00      	cmp	r7, #0
10001a5e:	d1bf      	bne.n	100019e0 <prvCheckForRunStateChange+0xa0>
10001a60:	681a      	ldr	r2, [r3, #0]
10001a62:	7823      	ldrb	r3, [r4, #0]
10001a64:	3b01      	subs	r3, #1
10001a66:	b2db      	uxtb	r3, r3
10001a68:	7023      	strb	r3, [r4, #0]
10001a6a:	2b00      	cmp	r3, #0
10001a6c:	d1b8      	bne.n	100019e0 <prvCheckForRunStateChange+0xa0>
10001a6e:	f808 7012 	strb.w	r7, [r8, r2, lsl #1]
10001a72:	e8c5 7f8f 	stlb	r7, [r5]
10001a76:	e770      	b.n	1000195a <prvCheckForRunStateChange+0x1a>
10001a78:	7863      	ldrb	r3, [r4, #1]
10001a7a:	3301      	adds	r3, #1
10001a7c:	7063      	strb	r3, [r4, #1]
10001a7e:	e788      	b.n	10001992 <prvCheckForRunStateChange+0x52>
10001a80:	e8bd 87f0 	ldmia.w	sp!, {r4, r5, r6, r7, r8, r9, sl, pc}
10001a84:	20001f08 	.word	0x20001f08
10001a88:	200221c4 	.word	0x200221c4
10001a8c:	20001642 	.word	0x20001642
10001a90:	200221c8 	.word	0x200221c8
10001a94:	200221c0 	.word	0x200221c0
10001a98:	20001643 	.word	0x20001643

10001a9c <vTaskSuspendAll.part.0>:
10001a9c:	b530      	push	{r4, r5, lr}
10001a9e:	b083      	sub	sp, #12
10001aa0:	f7fe ffc2 	bl	10000a28 <ulSetInterruptMask>
10001aa4:	f04f 4250 	mov.w	r2, #3489660928	@ 0xd0000000
10001aa8:	4605      	mov	r5, r0
10001aaa:	4b40      	ldr	r3, [pc, #256]	@ (10001bac <vTaskSuspendAll.part.0+0x110>)
10001aac:	6812      	ldr	r2, [r2, #0]
10001aae:	e8d3 1fcf 	ldaexb	r1, [r3]
10001ab2:	2001      	movs	r0, #1
10001ab4:	2900      	cmp	r1, #0
10001ab6:	d101      	bne.n	10001abc <vTaskSuspendAll.part.0+0x20>
10001ab8:	e8c3 0f41 	strexb	r1, r0, [r3]
10001abc:	f3bf 8f5f 	dmb	sy
10001ac0:	483b      	ldr	r0, [pc, #236]	@ (10001bb0 <vTaskSuspendAll.part.0+0x114>)
10001ac2:	2900      	cmp	r1, #0
10001ac4:	d14b      	bne.n	10001b5e <vTaskSuspendAll.part.0+0xc2>
10001ac6:	0051      	lsls	r1, r2, #1
10001ac8:	2301      	movs	r3, #1
10001aca:	4a3a      	ldr	r2, [pc, #232]	@ (10001bb4 <vTaskSuspendAll.part.0+0x118>)
10001acc:	4401      	add	r1, r0
10001ace:	7053      	strb	r3, [r2, #1]
10001ad0:	704b      	strb	r3, [r1, #1]
10001ad2:	4b39      	ldr	r3, [pc, #228]	@ (10001bb8 <vTaskSuspendAll.part.0+0x11c>)
10001ad4:	6819      	ldr	r1, [r3, #0]
10001ad6:	2900      	cmp	r1, #0
10001ad8:	d054      	beq.n	10001b84 <vTaskSuspendAll.part.0+0xe8>
10001ada:	f04f 4c50 	mov.w	ip, #3489660928	@ 0xd0000000
10001ade:	4937      	ldr	r1, [pc, #220]	@ (10001bbc <vTaskSuspendAll.part.0+0x120>)
10001ae0:	f8dc e000 	ldr.w	lr, [ip]
10001ae4:	e8d1 cfcf 	ldaexb	ip, [r1]
10001ae8:	2401      	movs	r4, #1
10001aea:	f1bc 0f00 	cmp.w	ip, #0
10001aee:	d101      	bne.n	10001af4 <vTaskSuspendAll.part.0+0x58>
10001af0:	e8c1 4f4c 	strexb	ip, r4, [r1]
10001af4:	f3bf 8f5f 	dmb	sy
10001af8:	f1bc 0f00 	cmp.w	ip, #0
10001afc:	d010      	beq.n	10001b20 <vTaskSuspendAll.part.0+0x84>
10001afe:	f810 c01e 	ldrb.w	ip, [r0, lr, lsl #1]
10001b02:	f1bc 0f00 	cmp.w	ip, #0
10001b06:	d14a      	bne.n	10001b9e <vTaskSuspendAll.part.0+0x102>
10001b08:	e8d1 4fcf 	ldaexb	r4, [r1]
10001b0c:	f05f 0c01 	movs.w	ip, #1
10001b10:	2c00      	cmp	r4, #0
10001b12:	d1f9      	bne.n	10001b08 <vTaskSuspendAll.part.0+0x6c>
10001b14:	e8c1 cf44 	strexb	r4, ip, [r1]
10001b18:	2c00      	cmp	r4, #0
10001b1a:	d1f5      	bne.n	10001b08 <vTaskSuspendAll.part.0+0x6c>
10001b1c:	f3bf 8f5f 	dmb	sy
10001b20:	f04f 0c01 	mov.w	ip, #1
10001b24:	f882 c000 	strb.w	ip, [r2]
10001b28:	f800 c01e 	strb.w	ip, [r0, lr, lsl #1]
10001b2c:	f04f 4e50 	mov.w	lr, #3489660928	@ 0xd0000000
10001b30:	f8d3 c000 	ldr.w	ip, [r3]
10001b34:	f10c 0c01 	add.w	ip, ip, #1
10001b38:	f8c3 c000 	str.w	ip, [r3]
10001b3c:	7813      	ldrb	r3, [r2, #0]
10001b3e:	f8de c000 	ldr.w	ip, [lr]
10001b42:	3b01      	subs	r3, #1
10001b44:	b2db      	uxtb	r3, r3
10001b46:	7013      	strb	r3, [r2, #0]
10001b48:	b91b      	cbnz	r3, 10001b52 <vTaskSuspendAll.part.0+0xb6>
10001b4a:	f800 301c 	strb.w	r3, [r0, ip, lsl #1]
10001b4e:	e8c1 3f8f 	stlb	r3, [r1]
10001b52:	4628      	mov	r0, r5
10001b54:	b003      	add	sp, #12
10001b56:	e8bd 4030 	ldmia.w	sp!, {r4, r5, lr}
10001b5a:	f7fe bf71 	b.w	10000a40 <vClearInterruptMask>
10001b5e:	0051      	lsls	r1, r2, #1
10001b60:	eb00 0242 	add.w	r2, r0, r2, lsl #1
10001b64:	7852      	ldrb	r2, [r2, #1]
10001b66:	b9aa      	cbnz	r2, 10001b94 <vTaskSuspendAll.part.0+0xf8>
10001b68:	e8d3 cfcf 	ldaexb	ip, [r3]
10001b6c:	2201      	movs	r2, #1
10001b6e:	f1bc 0f00 	cmp.w	ip, #0
10001b72:	d1f9      	bne.n	10001b68 <vTaskSuspendAll.part.0+0xcc>
10001b74:	e8c3 2f4c 	strexb	ip, r2, [r3]
10001b78:	f1bc 0f00 	cmp.w	ip, #0
10001b7c:	d1f4      	bne.n	10001b68 <vTaskSuspendAll.part.0+0xcc>
10001b7e:	f3bf 8f5f 	dmb	sy
10001b82:	e7a1      	b.n	10001ac8 <vTaskSuspendAll.part.0+0x2c>
10001b84:	e9cd 2000 	strd	r2, r0, [sp]
10001b88:	f7ff feda 	bl	10001940 <prvCheckForRunStateChange>
10001b8c:	e9dd 2000 	ldrd	r2, r0, [sp]
10001b90:	4b09      	ldr	r3, [pc, #36]	@ (10001bb8 <vTaskSuspendAll.part.0+0x11c>)
10001b92:	e7a2      	b.n	10001ada <vTaskSuspendAll.part.0+0x3e>
10001b94:	4a07      	ldr	r2, [pc, #28]	@ (10001bb4 <vTaskSuspendAll.part.0+0x118>)
10001b96:	7853      	ldrb	r3, [r2, #1]
10001b98:	3301      	adds	r3, #1
10001b9a:	7053      	strb	r3, [r2, #1]
10001b9c:	e799      	b.n	10001ad2 <vTaskSuspendAll.part.0+0x36>
10001b9e:	f892 c000 	ldrb.w	ip, [r2]
10001ba2:	f10c 0c01 	add.w	ip, ip, #1
10001ba6:	f882 c000 	strb.w	ip, [r2]
10001baa:	e7bf      	b.n	10001b2c <vTaskSuspendAll.part.0+0x90>
10001bac:	20001643 	.word	0x20001643
10001bb0:	200221c0 	.word	0x200221c0
10001bb4:	200221c4 	.word	0x200221c4
10001bb8:	200221f0 	.word	0x200221f0
10001bbc:	20001642 	.word	0x20001642

10001bc0 <prvCheckTasksWaitingTermination>:
10001bc0:	e92d 43f8 	stmdb	sp!, {r3, r4, r5, r6, r7, r8, r9, lr}
10001bc4:	4c58      	ldr	r4, [pc, #352]	@ (10001d28 <prvCheckTasksWaitingTermination+0x168>)
10001bc6:	4e59      	ldr	r6, [pc, #356]	@ (10001d2c <prvCheckTasksWaitingTermination+0x16c>)
10001bc8:	4f59      	ldr	r7, [pc, #356]	@ (10001d30 <prvCheckTasksWaitingTermination+0x170>)
10001bca:	f8df 917c 	ldr.w	r9, [pc, #380]	@ 10001d48 <prvCheckTasksWaitingTermination+0x188>
10001bce:	f8df 817c 	ldr.w	r8, [pc, #380]	@ 10001d4c <prvCheckTasksWaitingTermination+0x18c>
10001bd2:	6823      	ldr	r3, [r4, #0]
10001bd4:	2b00      	cmp	r3, #0
10001bd6:	d037      	beq.n	10001c48 <prvCheckTasksWaitingTermination+0x88>
10001bd8:	f7fe ff26 	bl	10000a28 <ulSetInterruptMask>
10001bdc:	6833      	ldr	r3, [r6, #0]
10001bde:	b193      	cbz	r3, 10001c06 <prvCheckTasksWaitingTermination+0x46>
10001be0:	f04f 4350 	mov.w	r3, #3489660928	@ 0xd0000000
10001be4:	681b      	ldr	r3, [r3, #0]
10001be6:	f857 2023 	ldr.w	r2, [r7, r3, lsl #2]
10001bea:	2a00      	cmp	r2, #0
10001bec:	d03b      	beq.n	10001c66 <prvCheckTasksWaitingTermination+0xa6>
10001bee:	f04f 4150 	mov.w	r1, #3489660928	@ 0xd0000000
10001bf2:	f857 2023 	ldr.w	r2, [r7, r3, lsl #2]
10001bf6:	3201      	adds	r2, #1
10001bf8:	f847 2023 	str.w	r2, [r7, r3, lsl #2]
10001bfc:	680b      	ldr	r3, [r1, #0]
10001bfe:	f857 3023 	ldr.w	r3, [r7, r3, lsl #2]
10001c02:	2b01      	cmp	r3, #1
10001c04:	d028      	beq.n	10001c58 <prvCheckTasksWaitingTermination+0x98>
10001c06:	6823      	ldr	r3, [r4, #0]
10001c08:	b303      	cbz	r3, 10001c4c <prvCheckTasksWaitingTermination+0x8c>
10001c0a:	4b4a      	ldr	r3, [pc, #296]	@ (10001d34 <prvCheckTasksWaitingTermination+0x174>)
10001c0c:	68db      	ldr	r3, [r3, #12]
10001c0e:	68dd      	ldr	r5, [r3, #12]
10001c10:	6bab      	ldr	r3, [r5, #56]	@ 0x38
10001c12:	3301      	adds	r3, #1
10001c14:	f040 8081 	bne.w	10001d1a <prvCheckTasksWaitingTermination+0x15a>
10001c18:	f105 0008 	add.w	r0, r5, #8
10001c1c:	f7ff f88a 	bl	10000d34 <uxListRemove>
10001c20:	4a45      	ldr	r2, [pc, #276]	@ (10001d38 <prvCheckTasksWaitingTermination+0x178>)
10001c22:	6813      	ldr	r3, [r2, #0]
10001c24:	3b01      	subs	r3, #1
10001c26:	6013      	str	r3, [r2, #0]
10001c28:	6823      	ldr	r3, [r4, #0]
10001c2a:	3b01      	subs	r3, #1
10001c2c:	6023      	str	r3, [r4, #0]
10001c2e:	6833      	ldr	r3, [r6, #0]
10001c30:	b10b      	cbz	r3, 10001c36 <prvCheckTasksWaitingTermination+0x76>
10001c32:	f7ff fda1 	bl	10001778 <vTaskExitCritical.part.0>
10001c36:	6b68      	ldr	r0, [r5, #52]	@ 0x34
10001c38:	f7fe fc18 	bl	1000046c <vPortFree>
10001c3c:	4628      	mov	r0, r5
10001c3e:	f7fe fc15 	bl	1000046c <vPortFree>
10001c42:	6823      	ldr	r3, [r4, #0]
10001c44:	2b00      	cmp	r3, #0
10001c46:	d1c7      	bne.n	10001bd8 <prvCheckTasksWaitingTermination+0x18>
10001c48:	e8bd 83f8 	ldmia.w	sp!, {r3, r4, r5, r6, r7, r8, r9, pc}
10001c4c:	6833      	ldr	r3, [r6, #0]
10001c4e:	2b00      	cmp	r3, #0
10001c50:	d0bf      	beq.n	10001bd2 <prvCheckTasksWaitingTermination+0x12>
10001c52:	f7ff fd91 	bl	10001778 <vTaskExitCritical.part.0>
10001c56:	e7bc      	b.n	10001bd2 <prvCheckTasksWaitingTermination+0x12>
10001c58:	f8d9 3000 	ldr.w	r3, [r9]
10001c5c:	2b00      	cmp	r3, #0
10001c5e:	d1d2      	bne.n	10001c06 <prvCheckTasksWaitingTermination+0x46>
10001c60:	f7ff fe6e 	bl	10001940 <prvCheckForRunStateChange>
10001c64:	e7cf      	b.n	10001c06 <prvCheckTasksWaitingTermination+0x46>
10001c66:	e8d8 2fcf 	ldaexb	r2, [r8]
10001c6a:	2101      	movs	r1, #1
10001c6c:	2a00      	cmp	r2, #0
10001c6e:	d101      	bne.n	10001c74 <prvCheckTasksWaitingTermination+0xb4>
10001c70:	e8c8 1f42 	strexb	r2, r1, [r8]
10001c74:	f3bf 8f5f 	dmb	sy
10001c78:	2a00      	cmp	r2, #0
10001c7a:	d132      	bne.n	10001ce2 <prvCheckTasksWaitingTermination+0x122>
10001c7c:	4a2f      	ldr	r2, [pc, #188]	@ (10001d3c <prvCheckTasksWaitingTermination+0x17c>)
10001c7e:	0059      	lsls	r1, r3, #1
10001c80:	2301      	movs	r3, #1
10001c82:	482f      	ldr	r0, [pc, #188]	@ (10001d40 <prvCheckTasksWaitingTermination+0x180>)
10001c84:	4411      	add	r1, r2
10001c86:	7043      	strb	r3, [r0, #1]
10001c88:	704b      	strb	r3, [r1, #1]
10001c8a:	f04f 4550 	mov.w	r5, #3489660928	@ 0xd0000000
10001c8e:	4b2d      	ldr	r3, [pc, #180]	@ (10001d44 <prvCheckTasksWaitingTermination+0x184>)
10001c90:	6829      	ldr	r1, [r5, #0]
10001c92:	e8d3 cfcf 	ldaexb	ip, [r3]
10001c96:	f05f 0e01 	movs.w	lr, #1
10001c9a:	f1bc 0f00 	cmp.w	ip, #0
10001c9e:	d101      	bne.n	10001ca4 <prvCheckTasksWaitingTermination+0xe4>
10001ca0:	e8c3 ef4c 	strexb	ip, lr, [r3]
10001ca4:	f3bf 8f5f 	dmb	sy
10001ca8:	f1bc 0f00 	cmp.w	ip, #0
10001cac:	d011      	beq.n	10001cd2 <prvCheckTasksWaitingTermination+0x112>
10001cae:	f812 c011 	ldrb.w	ip, [r2, r1, lsl #1]
10001cb2:	f1bc 0f00 	cmp.w	ip, #0
10001cb6:	d126      	bne.n	10001d06 <prvCheckTasksWaitingTermination+0x146>
10001cb8:	e8d3 cfcf 	ldaexb	ip, [r3]
10001cbc:	2501      	movs	r5, #1
10001cbe:	f1bc 0f00 	cmp.w	ip, #0
10001cc2:	d1f9      	bne.n	10001cb8 <prvCheckTasksWaitingTermination+0xf8>
10001cc4:	e8c3 5f4c 	strexb	ip, r5, [r3]
10001cc8:	f1bc 0f00 	cmp.w	ip, #0
10001ccc:	d1f4      	bne.n	10001cb8 <prvCheckTasksWaitingTermination+0xf8>
10001cce:	f3bf 8f5f 	dmb	sy
10001cd2:	2301      	movs	r3, #1
10001cd4:	f04f 4550 	mov.w	r5, #3489660928	@ 0xd0000000
10001cd8:	7003      	strb	r3, [r0, #0]
10001cda:	f802 3011 	strb.w	r3, [r2, r1, lsl #1]
10001cde:	682b      	ldr	r3, [r5, #0]
10001ce0:	e785      	b.n	10001bee <prvCheckTasksWaitingTermination+0x2e>
10001ce2:	4a16      	ldr	r2, [pc, #88]	@ (10001d3c <prvCheckTasksWaitingTermination+0x17c>)
10001ce4:	0059      	lsls	r1, r3, #1
10001ce6:	eb02 0343 	add.w	r3, r2, r3, lsl #1
10001cea:	785b      	ldrb	r3, [r3, #1]
10001cec:	b983      	cbnz	r3, 10001d10 <prvCheckTasksWaitingTermination+0x150>
10001cee:	e8d8 0fcf 	ldaexb	r0, [r8]
10001cf2:	2301      	movs	r3, #1
10001cf4:	2800      	cmp	r0, #0
10001cf6:	d1fa      	bne.n	10001cee <prvCheckTasksWaitingTermination+0x12e>
10001cf8:	e8c8 3f40 	strexb	r0, r3, [r8]
10001cfc:	2800      	cmp	r0, #0
10001cfe:	d1f6      	bne.n	10001cee <prvCheckTasksWaitingTermination+0x12e>
10001d00:	f3bf 8f5f 	dmb	sy
10001d04:	e7bc      	b.n	10001c80 <prvCheckTasksWaitingTermination+0xc0>
10001d06:	7803      	ldrb	r3, [r0, #0]
10001d08:	3301      	adds	r3, #1
10001d0a:	7003      	strb	r3, [r0, #0]
10001d0c:	682b      	ldr	r3, [r5, #0]
10001d0e:	e76e      	b.n	10001bee <prvCheckTasksWaitingTermination+0x2e>
10001d10:	480b      	ldr	r0, [pc, #44]	@ (10001d40 <prvCheckTasksWaitingTermination+0x180>)
10001d12:	7843      	ldrb	r3, [r0, #1]
10001d14:	3301      	adds	r3, #1
10001d16:	7043      	strb	r3, [r0, #1]
10001d18:	e7b7      	b.n	10001c8a <prvCheckTasksWaitingTermination+0xca>
10001d1a:	6833      	ldr	r3, [r6, #0]
10001d1c:	2b00      	cmp	r3, #0
10001d1e:	d093      	beq.n	10001c48 <prvCheckTasksWaitingTermination+0x88>
10001d20:	e8bd 43f8 	ldmia.w	sp!, {r3, r4, r5, r6, r7, r8, r9, lr}
10001d24:	f7ff bd28 	b.w	10001778 <vTaskExitCritical.part.0>
10001d28:	200221ec 	.word	0x200221ec
10001d2c:	2002228c 	.word	0x2002228c
10001d30:	200221c8 	.word	0x200221c8
10001d34:	200222ac 	.word	0x200222ac
10001d38:	200221e8 	.word	0x200221e8
10001d3c:	200221c0 	.word	0x200221c0
10001d40:	200221c4 	.word	0x200221c4
10001d44:	20001642 	.word	0x20001642
10001d48:	200221f0 	.word	0x200221f0
10001d4c:	20001643 	.word	0x20001643

10001d50 <prvIdleTask>:
10001d50:	b508      	push	{r3, lr}
10001d52:	f7fe fcc3 	bl	100006dc <vPortYield>
10001d56:	4c04      	ldr	r4, [pc, #16]	@ (10001d68 <prvIdleTask+0x18>)
10001d58:	f7ff ff32 	bl	10001bc0 <prvCheckTasksWaitingTermination>
10001d5c:	6823      	ldr	r3, [r4, #0]
10001d5e:	2b02      	cmp	r3, #2
10001d60:	d9fa      	bls.n	10001d58 <prvIdleTask+0x8>
10001d62:	f7fe fcbb 	bl	100006dc <vPortYield>
10001d66:	e7f7      	b.n	10001d58 <prvIdleTask+0x8>
10001d68:	20001f24 	.word	0x20001f24

10001d6c <prvAddCurrentTaskToDelayedList>:
10001d6c:	e92d 4ff0 	stmdb	sp!, {r4, r5, r6, r7, r8, r9, sl, fp, lr}
10001d70:	f04f 4550 	mov.w	r5, #3489660928	@ 0xd0000000
10001d74:	4c4b      	ldr	r4, [pc, #300]	@ (10001ea4 <prvAddCurrentTaskToDelayedList+0x138>)
10001d76:	4a4c      	ldr	r2, [pc, #304]	@ (10001ea8 <prvAddCurrentTaskToDelayedList+0x13c>)
10001d78:	4b4c      	ldr	r3, [pc, #304]	@ (10001eac <prvAddCurrentTaskToDelayedList+0x140>)
10001d7a:	6824      	ldr	r4, [r4, #0]
10001d7c:	6812      	ldr	r2, [r2, #0]
10001d7e:	681b      	ldr	r3, [r3, #0]
10001d80:	b083      	sub	sp, #12
10001d82:	4692      	mov	sl, r2
10001d84:	4688      	mov	r8, r1
10001d86:	469b      	mov	fp, r3
10001d88:	4e49      	ldr	r6, [pc, #292]	@ (10001eb0 <prvAddCurrentTaskToDelayedList+0x144>)
10001d8a:	46a1      	mov	r9, r4
10001d8c:	4604      	mov	r4, r0
10001d8e:	f7fe fe4b 	bl	10000a28 <ulSetInterruptMask>
10001d92:	682b      	ldr	r3, [r5, #0]
10001d94:	f856 7023 	ldr.w	r7, [r6, r3, lsl #2]
10001d98:	f7fe fe52 	bl	10000a40 <vClearInterruptMask>
10001d9c:	2300      	movs	r3, #0
10001d9e:	f887 3079 	strb.w	r3, [r7, #121]	@ 0x79
10001da2:	f7fe fe41 	bl	10000a28 <ulSetInterruptMask>
10001da6:	682b      	ldr	r3, [r5, #0]
10001da8:	f856 7023 	ldr.w	r7, [r6, r3, lsl #2]
10001dac:	f7fe fe48 	bl	10000a40 <vClearInterruptMask>
10001db0:	f107 0008 	add.w	r0, r7, #8
10001db4:	f7fe ffbe 	bl	10000d34 <uxListRemove>
10001db8:	1c63      	adds	r3, r4, #1
10001dba:	d102      	bne.n	10001dc2 <prvAddCurrentTaskToDelayedList+0x56>
10001dbc:	f1b8 0f00 	cmp.w	r8, #0
10001dc0:	d134      	bne.n	10001e2c <prvAddCurrentTaskToDelayedList+0xc0>
10001dc2:	f04f 4550 	mov.w	r5, #3489660928	@ 0xd0000000
10001dc6:	eb19 0404 	adds.w	r4, r9, r4
10001dca:	bf2c      	ite	cs
10001dcc:	2701      	movcs	r7, #1
10001dce:	2700      	movcc	r7, #0
10001dd0:	f7fe fe2a 	bl	10000a28 <ulSetInterruptMask>
10001dd4:	682b      	ldr	r3, [r5, #0]
10001dd6:	f856 3023 	ldr.w	r3, [r6, r3, lsl #2]
10001dda:	9301      	str	r3, [sp, #4]
10001ddc:	f7fe fe30 	bl	10000a40 <vClearInterruptMask>
10001de0:	9b01      	ldr	r3, [sp, #4]
10001de2:	609c      	str	r4, [r3, #8]
10001de4:	b99f      	cbnz	r7, 10001e0e <prvAddCurrentTaskToDelayedList+0xa2>
10001de6:	f7fe fe1f 	bl	10000a28 <ulSetInterruptMask>
10001dea:	682b      	ldr	r3, [r5, #0]
10001dec:	f856 5023 	ldr.w	r5, [r6, r3, lsl #2]
10001df0:	f7fe fe26 	bl	10000a40 <vClearInterruptMask>
10001df4:	4650      	mov	r0, sl
10001df6:	f105 0108 	add.w	r1, r5, #8
10001dfa:	f7fe ff7f 	bl	10000cfc <vListInsert>
10001dfe:	4b2d      	ldr	r3, [pc, #180]	@ (10001eb4 <prvAddCurrentTaskToDelayedList+0x148>)
10001e00:	681a      	ldr	r2, [r3, #0]
10001e02:	42a2      	cmp	r2, r4
10001e04:	bf88      	it	hi
10001e06:	601c      	strhi	r4, [r3, #0]
10001e08:	b003      	add	sp, #12
10001e0a:	e8bd 8ff0 	ldmia.w	sp!, {r4, r5, r6, r7, r8, r9, sl, fp, pc}
10001e0e:	f7fe fe0b 	bl	10000a28 <ulSetInterruptMask>
10001e12:	682b      	ldr	r3, [r5, #0]
10001e14:	f856 4023 	ldr.w	r4, [r6, r3, lsl #2]
10001e18:	f7fe fe12 	bl	10000a40 <vClearInterruptMask>
10001e1c:	4658      	mov	r0, fp
10001e1e:	f104 0108 	add.w	r1, r4, #8
10001e22:	b003      	add	sp, #12
10001e24:	e8bd 4ff0 	ldmia.w	sp!, {r4, r5, r6, r7, r8, r9, sl, fp, lr}
10001e28:	f7fe bf68 	b.w	10000cfc <vListInsert>
10001e2c:	4c22      	ldr	r4, [pc, #136]	@ (10001eb8 <prvAddCurrentTaskToDelayedList+0x14c>)
10001e2e:	6867      	ldr	r7, [r4, #4]
10001e30:	f7fe fdfa 	bl	10000a28 <ulSetInterruptMask>
10001e34:	682b      	ldr	r3, [r5, #0]
10001e36:	f856 3023 	ldr.w	r3, [r6, r3, lsl #2]
10001e3a:	9301      	str	r3, [sp, #4]
10001e3c:	f7fe fe00 	bl	10000a40 <vClearInterruptMask>
10001e40:	9b01      	ldr	r3, [sp, #4]
10001e42:	60df      	str	r7, [r3, #12]
10001e44:	f7fe fdf0 	bl	10000a28 <ulSetInterruptMask>
10001e48:	682b      	ldr	r3, [r5, #0]
10001e4a:	f856 3023 	ldr.w	r3, [r6, r3, lsl #2]
10001e4e:	9301      	str	r3, [sp, #4]
10001e50:	f7fe fdf6 	bl	10000a40 <vClearInterruptMask>
10001e54:	68ba      	ldr	r2, [r7, #8]
10001e56:	9b01      	ldr	r3, [sp, #4]
10001e58:	611a      	str	r2, [r3, #16]
10001e5a:	f7fe fde5 	bl	10000a28 <ulSetInterruptMask>
10001e5e:	682b      	ldr	r3, [r5, #0]
10001e60:	f856 3023 	ldr.w	r3, [r6, r3, lsl #2]
10001e64:	9301      	str	r3, [sp, #4]
10001e66:	f7fe fdeb 	bl	10000a40 <vClearInterruptMask>
10001e6a:	9b01      	ldr	r3, [sp, #4]
10001e6c:	68ba      	ldr	r2, [r7, #8]
10001e6e:	3308      	adds	r3, #8
10001e70:	6053      	str	r3, [r2, #4]
10001e72:	f7fe fdd9 	bl	10000a28 <ulSetInterruptMask>
10001e76:	682b      	ldr	r3, [r5, #0]
10001e78:	f856 3023 	ldr.w	r3, [r6, r3, lsl #2]
10001e7c:	9301      	str	r3, [sp, #4]
10001e7e:	f7fe fddf 	bl	10000a40 <vClearInterruptMask>
10001e82:	9b01      	ldr	r3, [sp, #4]
10001e84:	3308      	adds	r3, #8
10001e86:	60bb      	str	r3, [r7, #8]
10001e88:	f7fe fdce 	bl	10000a28 <ulSetInterruptMask>
10001e8c:	682b      	ldr	r3, [r5, #0]
10001e8e:	f856 5023 	ldr.w	r5, [r6, r3, lsl #2]
10001e92:	f7fe fdd5 	bl	10000a40 <vClearInterruptMask>
10001e96:	6823      	ldr	r3, [r4, #0]
10001e98:	61ac      	str	r4, [r5, #24]
10001e9a:	3301      	adds	r3, #1
10001e9c:	6023      	str	r3, [r4, #0]
10001e9e:	b003      	add	sp, #12
10001ea0:	e8bd 8ff0 	ldmia.w	sp!, {r4, r5, r6, r7, r8, r9, sl, fp, pc}
10001ea4:	200222c0 	.word	0x200222c0
10001ea8:	20001f14 	.word	0x20001f14
10001eac:	20001f1c 	.word	0x20001f1c
10001eb0:	20001f08 	.word	0x20001f08
10001eb4:	20022264 	.word	0x20022264
10001eb8:	20022298 	.word	0x20022298

10001ebc <vTaskCoreAffinitySet>:
10001ebc:	e92d 43f8 	stmdb	sp!, {r3, r4, r5, r6, r7, r8, r9, lr}
10001ec0:	460d      	mov	r5, r1
10001ec2:	4604      	mov	r4, r0
10001ec4:	f7fe fdb0 	bl	10000a28 <ulSetInterruptMask>
10001ec8:	4b63      	ldr	r3, [pc, #396]	@ (10002058 <vTaskCoreAffinitySet+0x19c>)
10001eca:	681a      	ldr	r2, [r3, #0]
10001ecc:	b1a2      	cbz	r2, 10001ef8 <vTaskCoreAffinitySet+0x3c>
10001ece:	f04f 4250 	mov.w	r2, #3489660928	@ 0xd0000000
10001ed2:	4962      	ldr	r1, [pc, #392]	@ (1000205c <vTaskCoreAffinitySet+0x1a0>)
10001ed4:	6812      	ldr	r2, [r2, #0]
10001ed6:	f851 0022 	ldr.w	r0, [r1, r2, lsl #2]
10001eda:	2800      	cmp	r0, #0
10001edc:	d038      	beq.n	10001f50 <vTaskCoreAffinitySet+0x94>
10001ede:	f04f 4c50 	mov.w	ip, #3489660928	@ 0xd0000000
10001ee2:	f851 0022 	ldr.w	r0, [r1, r2, lsl #2]
10001ee6:	3001      	adds	r0, #1
10001ee8:	f841 0022 	str.w	r0, [r1, r2, lsl #2]
10001eec:	f8dc 2000 	ldr.w	r2, [ip]
10001ef0:	f851 2022 	ldr.w	r2, [r1, r2, lsl #2]
10001ef4:	2a01      	cmp	r2, #1
10001ef6:	d016      	beq.n	10001f26 <vTaskCoreAffinitySet+0x6a>
10001ef8:	b1f4      	cbz	r4, 10001f38 <vTaskCoreAffinitySet+0x7c>
10001efa:	681a      	ldr	r2, [r3, #0]
10001efc:	6861      	ldr	r1, [r4, #4]
10001efe:	6065      	str	r5, [r4, #4]
10001f00:	b14a      	cbz	r2, 10001f16 <vTaskCoreAffinitySet+0x5a>
10001f02:	6ba2      	ldr	r2, [r4, #56]	@ 0x38
10001f04:	2a00      	cmp	r2, #0
10001f06:	db02      	blt.n	10001f0e <vTaskCoreAffinitySet+0x52>
10001f08:	6ba2      	ldr	r2, [r4, #56]	@ 0x38
10001f0a:	2a01      	cmp	r2, #1
10001f0c:	dd66      	ble.n	10001fdc <vTaskCoreAffinitySet+0x120>
10001f0e:	ea25 0501 	bic.w	r5, r5, r1
10001f12:	07aa      	lsls	r2, r5, #30
10001f14:	d15d      	bne.n	10001fd2 <vTaskCoreAffinitySet+0x116>
10001f16:	681b      	ldr	r3, [r3, #0]
10001f18:	b11b      	cbz	r3, 10001f22 <vTaskCoreAffinitySet+0x66>
10001f1a:	e8bd 43f8 	ldmia.w	sp!, {r3, r4, r5, r6, r7, r8, r9, lr}
10001f1e:	f7ff bc2b 	b.w	10001778 <vTaskExitCritical.part.0>
10001f22:	e8bd 83f8 	ldmia.w	sp!, {r3, r4, r5, r6, r7, r8, r9, pc}
10001f26:	4a4e      	ldr	r2, [pc, #312]	@ (10002060 <vTaskCoreAffinitySet+0x1a4>)
10001f28:	6812      	ldr	r2, [r2, #0]
10001f2a:	2a00      	cmp	r2, #0
10001f2c:	d1e4      	bne.n	10001ef8 <vTaskCoreAffinitySet+0x3c>
10001f2e:	f7ff fd07 	bl	10001940 <prvCheckForRunStateChange>
10001f32:	4b49      	ldr	r3, [pc, #292]	@ (10002058 <vTaskCoreAffinitySet+0x19c>)
10001f34:	2c00      	cmp	r4, #0
10001f36:	d1e0      	bne.n	10001efa <vTaskCoreAffinitySet+0x3e>
10001f38:	f7fe fd76 	bl	10000a28 <ulSetInterruptMask>
10001f3c:	f04f 4150 	mov.w	r1, #3489660928	@ 0xd0000000
10001f40:	4a48      	ldr	r2, [pc, #288]	@ (10002064 <vTaskCoreAffinitySet+0x1a8>)
10001f42:	6809      	ldr	r1, [r1, #0]
10001f44:	f852 4021 	ldr.w	r4, [r2, r1, lsl #2]
10001f48:	f7fe fd7a 	bl	10000a40 <vClearInterruptMask>
10001f4c:	4b42      	ldr	r3, [pc, #264]	@ (10002058 <vTaskCoreAffinitySet+0x19c>)
10001f4e:	e7d4      	b.n	10001efa <vTaskCoreAffinitySet+0x3e>
10001f50:	4845      	ldr	r0, [pc, #276]	@ (10002068 <vTaskCoreAffinitySet+0x1ac>)
10001f52:	e8d0 cfcf 	ldaexb	ip, [r0]
10001f56:	f05f 0e01 	movs.w	lr, #1
10001f5a:	f1bc 0f00 	cmp.w	ip, #0
10001f5e:	d101      	bne.n	10001f64 <vTaskCoreAffinitySet+0xa8>
10001f60:	e8c0 ef4c 	strexb	ip, lr, [r0]
10001f64:	f3bf 8f5f 	dmb	sy
10001f68:	f1bc 0f00 	cmp.w	ip, #0
10001f6c:	d14f      	bne.n	1000200e <vTaskCoreAffinitySet+0x152>
10001f6e:	f8df c108 	ldr.w	ip, [pc, #264]	@ 10002078 <vTaskCoreAffinitySet+0x1bc>
10001f72:	ea4f 0e42 	mov.w	lr, r2, lsl #1
10001f76:	2201      	movs	r2, #1
10001f78:	483c      	ldr	r0, [pc, #240]	@ (1000206c <vTaskCoreAffinitySet+0x1b0>)
10001f7a:	44e6      	add	lr, ip
10001f7c:	7042      	strb	r2, [r0, #1]
10001f7e:	f88e 2001 	strb.w	r2, [lr, #1]
10001f82:	f04f 4e50 	mov.w	lr, #3489660928	@ 0xd0000000
10001f86:	f8de 6000 	ldr.w	r6, [lr]
10001f8a:	4a39      	ldr	r2, [pc, #228]	@ (10002070 <vTaskCoreAffinitySet+0x1b4>)
10001f8c:	46b1      	mov	r9, r6
10001f8e:	e8d2 7fcf 	ldaexb	r7, [r2]
10001f92:	f05f 0801 	movs.w	r8, #1
10001f96:	2f00      	cmp	r7, #0
10001f98:	d101      	bne.n	10001f9e <vTaskCoreAffinitySet+0xe2>
10001f9a:	e8c2 8f47 	strexb	r7, r8, [r2]
10001f9e:	f3bf 8f5f 	dmb	sy
10001fa2:	b177      	cbz	r7, 10001fc2 <vTaskCoreAffinitySet+0x106>
10001fa4:	f81c 6016 	ldrb.w	r6, [ip, r6, lsl #1]
10001fa8:	2e00      	cmp	r6, #0
10001faa:	d149      	bne.n	10002040 <vTaskCoreAffinitySet+0x184>
10001fac:	e8d2 7fcf 	ldaexb	r7, [r2]
10001fb0:	2601      	movs	r6, #1
10001fb2:	2f00      	cmp	r7, #0
10001fb4:	d1fa      	bne.n	10001fac <vTaskCoreAffinitySet+0xf0>
10001fb6:	e8c2 6f47 	strexb	r7, r6, [r2]
10001fba:	2f00      	cmp	r7, #0
10001fbc:	d1f6      	bne.n	10001fac <vTaskCoreAffinitySet+0xf0>
10001fbe:	f3bf 8f5f 	dmb	sy
10001fc2:	2201      	movs	r2, #1
10001fc4:	7002      	strb	r2, [r0, #0]
10001fc6:	f80c 2019 	strb.w	r2, [ip, r9, lsl #1]
10001fca:	f04f 4250 	mov.w	r2, #3489660928	@ 0xd0000000
10001fce:	6812      	ldr	r2, [r2, #0]
10001fd0:	e785      	b.n	10001ede <vTaskCoreAffinitySet+0x22>
10001fd2:	4620      	mov	r0, r4
10001fd4:	f7ff fb4a 	bl	1000166c <prvYieldForTask>
10001fd8:	4b1f      	ldr	r3, [pc, #124]	@ (10002058 <vTaskCoreAffinitySet+0x19c>)
10001fda:	e79c      	b.n	10001f16 <vTaskCoreAffinitySet+0x5a>
10001fdc:	6ba4      	ldr	r4, [r4, #56]	@ 0x38
10001fde:	40e5      	lsrs	r5, r4
10001fe0:	07e9      	lsls	r1, r5, #31
10001fe2:	d498      	bmi.n	10001f16 <vTaskCoreAffinitySet+0x5a>
10001fe4:	f04f 4250 	mov.w	r2, #3489660928	@ 0xd0000000
10001fe8:	6812      	ldr	r2, [r2, #0]
10001fea:	4294      	cmp	r4, r2
10001fec:	d023      	beq.n	10002036 <vTaskCoreAffinitySet+0x17a>
10001fee:	4d1d      	ldr	r5, [pc, #116]	@ (10002064 <vTaskCoreAffinitySet+0x1a8>)
10001ff0:	f855 2024 	ldr.w	r2, [r5, r4, lsl #2]
10001ff4:	6b92      	ldr	r2, [r2, #56]	@ 0x38
10001ff6:	3202      	adds	r2, #2
10001ff8:	d08d      	beq.n	10001f16 <vTaskCoreAffinitySet+0x5a>
10001ffa:	4620      	mov	r0, r4
10001ffc:	f7fe fce2 	bl	100009c4 <vYieldCore>
10002000:	f06f 0101 	mvn.w	r1, #1
10002004:	f855 2024 	ldr.w	r2, [r5, r4, lsl #2]
10002008:	4b13      	ldr	r3, [pc, #76]	@ (10002058 <vTaskCoreAffinitySet+0x19c>)
1000200a:	6391      	str	r1, [r2, #56]	@ 0x38
1000200c:	e783      	b.n	10001f16 <vTaskCoreAffinitySet+0x5a>
1000200e:	f8df c068 	ldr.w	ip, [pc, #104]	@ 10002078 <vTaskCoreAffinitySet+0x1bc>
10002012:	ea4f 0e42 	mov.w	lr, r2, lsl #1
10002016:	eb0c 0242 	add.w	r2, ip, r2, lsl #1
1000201a:	7852      	ldrb	r2, [r2, #1]
1000201c:	b9b2      	cbnz	r2, 1000204c <vTaskCoreAffinitySet+0x190>
1000201e:	e8d0 6fcf 	ldaexb	r6, [r0]
10002022:	2201      	movs	r2, #1
10002024:	2e00      	cmp	r6, #0
10002026:	d1fa      	bne.n	1000201e <vTaskCoreAffinitySet+0x162>
10002028:	e8c0 2f46 	strexb	r6, r2, [r0]
1000202c:	2e00      	cmp	r6, #0
1000202e:	d1f6      	bne.n	1000201e <vTaskCoreAffinitySet+0x162>
10002030:	f3bf 8f5f 	dmb	sy
10002034:	e79f      	b.n	10001f76 <vTaskCoreAffinitySet+0xba>
10002036:	2101      	movs	r1, #1
10002038:	4a0e      	ldr	r2, [pc, #56]	@ (10002074 <vTaskCoreAffinitySet+0x1b8>)
1000203a:	f842 1024 	str.w	r1, [r2, r4, lsl #2]
1000203e:	e76a      	b.n	10001f16 <vTaskCoreAffinitySet+0x5a>
10002040:	7802      	ldrb	r2, [r0, #0]
10002042:	3201      	adds	r2, #1
10002044:	7002      	strb	r2, [r0, #0]
10002046:	f8de 2000 	ldr.w	r2, [lr]
1000204a:	e748      	b.n	10001ede <vTaskCoreAffinitySet+0x22>
1000204c:	4807      	ldr	r0, [pc, #28]	@ (1000206c <vTaskCoreAffinitySet+0x1b0>)
1000204e:	7842      	ldrb	r2, [r0, #1]
10002050:	3201      	adds	r2, #1
10002052:	7042      	strb	r2, [r0, #1]
10002054:	e795      	b.n	10001f82 <vTaskCoreAffinitySet+0xc6>
10002056:	bf00      	nop
10002058:	2002228c 	.word	0x2002228c
1000205c:	200221c8 	.word	0x200221c8
10002060:	200221f0 	.word	0x200221f0
10002064:	20001f08 	.word	0x20001f08
10002068:	20001643 	.word	0x20001643
1000206c:	200221c4 	.word	0x200221c4
10002070:	20001642 	.word	0x20001642
10002074:	200222cc 	.word	0x200222cc
10002078:	200221c0 	.word	0x200221c0

1000207c <vTaskSuspendAll>:
1000207c:	4b02      	ldr	r3, [pc, #8]	@ (10002088 <vTaskSuspendAll+0xc>)
1000207e:	681b      	ldr	r3, [r3, #0]
10002080:	b903      	cbnz	r3, 10002084 <vTaskSuspendAll+0x8>
10002082:	4770      	bx	lr
10002084:	f7ff bd0a 	b.w	10001a9c <vTaskSuspendAll.part.0>
10002088:	2002228c 	.word	0x2002228c

1000208c <xTaskGetTickCount>:
1000208c:	4b01      	ldr	r3, [pc, #4]	@ (10002094 <xTaskGetTickCount+0x8>)
1000208e:	6818      	ldr	r0, [r3, #0]
10002090:	4770      	bx	lr
10002092:	bf00      	nop
10002094:	200222c0 	.word	0x200222c0

10002098 <uxTaskGetNumberOfTasks>:
10002098:	4b01      	ldr	r3, [pc, #4]	@ (100020a0 <uxTaskGetNumberOfTasks+0x8>)
1000209a:	6818      	ldr	r0, [r3, #0]
1000209c:	4770      	bx	lr
1000209e:	bf00      	nop
100020a0:	200221e8 	.word	0x200221e8

100020a4 <xTaskIncrementTick>:
100020a4:	4b83      	ldr	r3, [pc, #524]	@ (100022b4 <xTaskIncrementTick+0x210>)
100020a6:	e92d 47f0 	stmdb	sp!, {r4, r5, r6, r7, r8, r9, sl, lr}
100020aa:	681b      	ldr	r3, [r3, #0]
100020ac:	bb5b      	cbnz	r3, 10002106 <xTaskIncrementTick+0x62>
100020ae:	4b82      	ldr	r3, [pc, #520]	@ (100022b8 <xTaskIncrementTick+0x214>)
100020b0:	681d      	ldr	r5, [r3, #0]
100020b2:	3501      	adds	r5, #1
100020b4:	601d      	str	r5, [r3, #0]
100020b6:	b375      	cbz	r5, 10002116 <xTaskIncrementTick+0x72>
100020b8:	f8df a218 	ldr.w	sl, [pc, #536]	@ 100022d4 <xTaskIncrementTick+0x230>
100020bc:	f8da 3000 	ldr.w	r3, [sl]
100020c0:	42ab      	cmp	r3, r5
100020c2:	d93f      	bls.n	10002144 <xTaskIncrementTick+0xa0>
100020c4:	4c7d      	ldr	r4, [pc, #500]	@ (100022bc <xTaskIncrementTick+0x218>)
100020c6:	4d7e      	ldr	r5, [pc, #504]	@ (100022c0 <xTaskIncrementTick+0x21c>)
100020c8:	682b      	ldr	r3, [r5, #0]
100020ca:	6b1b      	ldr	r3, [r3, #48]	@ 0x30
100020cc:	eb03 0383 	add.w	r3, r3, r3, lsl #2
100020d0:	f854 3023 	ldr.w	r3, [r4, r3, lsl #2]
100020d4:	2b01      	cmp	r3, #1
100020d6:	686b      	ldr	r3, [r5, #4]
100020d8:	6b1b      	ldr	r3, [r3, #48]	@ 0x30
100020da:	eb03 0383 	add.w	r3, r3, r3, lsl #2
100020de:	f854 3023 	ldr.w	r3, [r4, r3, lsl #2]
100020e2:	f240 8094 	bls.w	1000220e <xTaskIncrementTick+0x16a>
100020e6:	2b01      	cmp	r3, #1
100020e8:	f04f 4350 	mov.w	r3, #3489660928	@ 0xd0000000
100020ec:	681e      	ldr	r6, [r3, #0]
100020ee:	f240 80a7 	bls.w	10002240 <xTaskIncrementTick+0x19c>
100020f2:	2e00      	cmp	r6, #0
100020f4:	f000 80cf 	beq.w	10002296 <xTaskIncrementTick+0x1f2>
100020f8:	682b      	ldr	r3, [r5, #0]
100020fa:	6b9b      	ldr	r3, [r3, #56]	@ 0x38
100020fc:	3302      	adds	r3, #2
100020fe:	f000 80b2 	beq.w	10002266 <xTaskIncrementTick+0x1c2>
10002102:	2401      	movs	r4, #1
10002104:	e0a2      	b.n	1000224c <xTaskIncrementTick+0x1a8>
10002106:	2400      	movs	r4, #0
10002108:	4a6e      	ldr	r2, [pc, #440]	@ (100022c4 <xTaskIncrementTick+0x220>)
1000210a:	6813      	ldr	r3, [r2, #0]
1000210c:	3301      	adds	r3, #1
1000210e:	6013      	str	r3, [r2, #0]
10002110:	4620      	mov	r0, r4
10002112:	e8bd 87f0 	ldmia.w	sp!, {r4, r5, r6, r7, r8, r9, sl, pc}
10002116:	4b6c      	ldr	r3, [pc, #432]	@ (100022c8 <xTaskIncrementTick+0x224>)
10002118:	4a6c      	ldr	r2, [pc, #432]	@ (100022cc <xTaskIncrementTick+0x228>)
1000211a:	6818      	ldr	r0, [r3, #0]
1000211c:	6811      	ldr	r1, [r2, #0]
1000211e:	6019      	str	r1, [r3, #0]
10002120:	496b      	ldr	r1, [pc, #428]	@ (100022d0 <xTaskIncrementTick+0x22c>)
10002122:	6010      	str	r0, [r2, #0]
10002124:	680a      	ldr	r2, [r1, #0]
10002126:	3201      	adds	r2, #1
10002128:	600a      	str	r2, [r1, #0]
1000212a:	681a      	ldr	r2, [r3, #0]
1000212c:	6812      	ldr	r2, [r2, #0]
1000212e:	2a00      	cmp	r2, #0
10002130:	d179      	bne.n	10002226 <xTaskIncrementTick+0x182>
10002132:	4a68      	ldr	r2, [pc, #416]	@ (100022d4 <xTaskIncrementTick+0x230>)
10002134:	f04f 33ff 	mov.w	r3, #4294967295
10002138:	4692      	mov	sl, r2
1000213a:	6013      	str	r3, [r2, #0]
1000213c:	f8da 3000 	ldr.w	r3, [sl]
10002140:	42ab      	cmp	r3, r5
10002142:	d8bf      	bhi.n	100020c4 <xTaskIncrementTick+0x20>
10002144:	4e60      	ldr	r6, [pc, #384]	@ (100022c8 <xTaskIncrementTick+0x224>)
10002146:	4c5d      	ldr	r4, [pc, #372]	@ (100022bc <xTaskIncrementTick+0x218>)
10002148:	6833      	ldr	r3, [r6, #0]
1000214a:	681b      	ldr	r3, [r3, #0]
1000214c:	2b00      	cmp	r3, #0
1000214e:	f000 80a4 	beq.w	1000229a <xTaskIncrementTick+0x1f6>
10002152:	f8df 9188 	ldr.w	r9, [pc, #392]	@ 100022dc <xTaskIncrementTick+0x238>
10002156:	e04d      	b.n	100021f4 <xTaskIncrementTick+0x150>
10002158:	f8d3 e018 	ldr.w	lr, [r3, #24]
1000215c:	e9d3 7203 	ldrd	r7, r2, [r3, #12]
10002160:	60ba      	str	r2, [r7, #8]
10002162:	68df      	ldr	r7, [r3, #12]
10002164:	4618      	mov	r0, r3
10002166:	6057      	str	r7, [r2, #4]
10002168:	f8de 2004 	ldr.w	r2, [lr, #4]
1000216c:	428a      	cmp	r2, r1
1000216e:	bf04      	itt	eq
10002170:	691a      	ldreq	r2, [r3, #16]
10002172:	f8ce 2004 	streq.w	r2, [lr, #4]
10002176:	f8de 2000 	ldr.w	r2, [lr]
1000217a:	3a01      	subs	r2, #1
1000217c:	f8ce 2000 	str.w	r2, [lr]
10002180:	f8d3 e02c 	ldr.w	lr, [r3, #44]	@ 0x2c
10002184:	f1be 0f00 	cmp.w	lr, #0
10002188:	d012      	beq.n	100021b0 <xTaskIncrementTick+0x10c>
1000218a:	e9d3 7208 	ldrd	r7, r2, [r3, #32]
1000218e:	60ba      	str	r2, [r7, #8]
10002190:	6a1f      	ldr	r7, [r3, #32]
10002192:	6057      	str	r7, [r2, #4]
10002194:	2700      	movs	r7, #0
10002196:	f8de 2004 	ldr.w	r2, [lr, #4]
1000219a:	4562      	cmp	r2, ip
1000219c:	bf04      	itt	eq
1000219e:	6a5a      	ldreq	r2, [r3, #36]	@ 0x24
100021a0:	f8ce 2004 	streq.w	r2, [lr, #4]
100021a4:	f8de 2000 	ldr.w	r2, [lr]
100021a8:	62df      	str	r7, [r3, #44]	@ 0x2c
100021aa:	3a01      	subs	r2, #1
100021ac:	f8ce 2000 	str.w	r2, [lr]
100021b0:	6b1a      	ldr	r2, [r3, #48]	@ 0x30
100021b2:	f8d9 e000 	ldr.w	lr, [r9]
100021b6:	eb02 0c82 	add.w	ip, r2, r2, lsl #2
100021ba:	4572      	cmp	r2, lr
100021bc:	eb04 0e8c 	add.w	lr, r4, ip, lsl #2
100021c0:	bf88      	it	hi
100021c2:	f8c9 2000 	strhi.w	r2, [r9]
100021c6:	f8de 2004 	ldr.w	r2, [lr, #4]
100021ca:	60da      	str	r2, [r3, #12]
100021cc:	f8d2 8008 	ldr.w	r8, [r2, #8]
100021d0:	f8c3 8010 	str.w	r8, [r3, #16]
100021d4:	f8c8 1004 	str.w	r1, [r8, #4]
100021d8:	6091      	str	r1, [r2, #8]
100021da:	f854 202c 	ldr.w	r2, [r4, ip, lsl #2]
100021de:	f8c3 e018 	str.w	lr, [r3, #24]
100021e2:	3201      	adds	r2, #1
100021e4:	f844 202c 	str.w	r2, [r4, ip, lsl #2]
100021e8:	f7ff fa40 	bl	1000166c <prvYieldForTask>
100021ec:	6833      	ldr	r3, [r6, #0]
100021ee:	681b      	ldr	r3, [r3, #0]
100021f0:	2b00      	cmp	r3, #0
100021f2:	d052      	beq.n	1000229a <xTaskIncrementTick+0x1f6>
100021f4:	6833      	ldr	r3, [r6, #0]
100021f6:	68db      	ldr	r3, [r3, #12]
100021f8:	68db      	ldr	r3, [r3, #12]
100021fa:	689a      	ldr	r2, [r3, #8]
100021fc:	f103 0108 	add.w	r1, r3, #8
10002200:	4295      	cmp	r5, r2
10002202:	f103 0c1c 	add.w	ip, r3, #28
10002206:	d2a7      	bcs.n	10002158 <xTaskIncrementTick+0xb4>
10002208:	f8ca 2000 	str.w	r2, [sl]
1000220c:	e75b      	b.n	100020c6 <xTaskIncrementTick+0x22>
1000220e:	2b01      	cmp	r3, #1
10002210:	d910      	bls.n	10002234 <xTaskIncrementTick+0x190>
10002212:	f04f 4250 	mov.w	r2, #3489660928	@ 0xd0000000
10002216:	4b30      	ldr	r3, [pc, #192]	@ (100022d8 <xTaskIncrementTick+0x234>)
10002218:	6816      	ldr	r6, [r2, #0]
1000221a:	681b      	ldr	r3, [r3, #0]
1000221c:	b31b      	cbz	r3, 10002266 <xTaskIncrementTick+0x1c2>
1000221e:	2e00      	cmp	r6, #0
10002220:	f47f af6a 	bne.w	100020f8 <xTaskIncrementTick+0x54>
10002224:	e037      	b.n	10002296 <xTaskIncrementTick+0x1f2>
10002226:	681b      	ldr	r3, [r3, #0]
10002228:	4a2a      	ldr	r2, [pc, #168]	@ (100022d4 <xTaskIncrementTick+0x230>)
1000222a:	68db      	ldr	r3, [r3, #12]
1000222c:	4692      	mov	sl, r2
1000222e:	681b      	ldr	r3, [r3, #0]
10002230:	6013      	str	r3, [r2, #0]
10002232:	e743      	b.n	100020bc <xTaskIncrementTick+0x18>
10002234:	f04f 4150 	mov.w	r1, #3489660928	@ 0xd0000000
10002238:	4b27      	ldr	r3, [pc, #156]	@ (100022d8 <xTaskIncrementTick+0x234>)
1000223a:	680e      	ldr	r6, [r1, #0]
1000223c:	681a      	ldr	r2, [r3, #0]
1000223e:	b172      	cbz	r2, 1000225e <xTaskIncrementTick+0x1ba>
10002240:	b336      	cbz	r6, 10002290 <xTaskIncrementTick+0x1ec>
10002242:	682b      	ldr	r3, [r5, #0]
10002244:	6b9b      	ldr	r3, [r3, #56]	@ 0x38
10002246:	3302      	adds	r3, #2
10002248:	d008      	beq.n	1000225c <xTaskIncrementTick+0x1b8>
1000224a:	2400      	movs	r4, #0
1000224c:	2000      	movs	r0, #0
1000224e:	f7fe fbb9 	bl	100009c4 <vYieldCore>
10002252:	f06f 0201 	mvn.w	r2, #1
10002256:	682b      	ldr	r3, [r5, #0]
10002258:	639a      	str	r2, [r3, #56]	@ 0x38
1000225a:	b924      	cbnz	r4, 10002266 <xTaskIncrementTick+0x1c2>
1000225c:	4b1e      	ldr	r3, [pc, #120]	@ (100022d8 <xTaskIncrementTick+0x234>)
1000225e:	685c      	ldr	r4, [r3, #4]
10002260:	2c00      	cmp	r4, #0
10002262:	f43f af55 	beq.w	10002110 <xTaskIncrementTick+0x6c>
10002266:	2e01      	cmp	r6, #1
10002268:	d01c      	beq.n	100022a4 <xTaskIncrementTick+0x200>
1000226a:	2400      	movs	r4, #0
1000226c:	f04f 4350 	mov.w	r3, #3489660928	@ 0xd0000000
10002270:	681b      	ldr	r3, [r3, #0]
10002272:	2b01      	cmp	r3, #1
10002274:	d01a      	beq.n	100022ac <xTaskIncrementTick+0x208>
10002276:	686b      	ldr	r3, [r5, #4]
10002278:	6b9b      	ldr	r3, [r3, #56]	@ 0x38
1000227a:	3302      	adds	r3, #2
1000227c:	f43f af48 	beq.w	10002110 <xTaskIncrementTick+0x6c>
10002280:	2001      	movs	r0, #1
10002282:	f7fe fb9f 	bl	100009c4 <vYieldCore>
10002286:	f06f 0201 	mvn.w	r2, #1
1000228a:	686b      	ldr	r3, [r5, #4]
1000228c:	639a      	str	r2, [r3, #56]	@ 0x38
1000228e:	e73f      	b.n	10002110 <xTaskIncrementTick+0x6c>
10002290:	4b11      	ldr	r3, [pc, #68]	@ (100022d8 <xTaskIncrementTick+0x234>)
10002292:	685b      	ldr	r3, [r3, #4]
10002294:	b133      	cbz	r3, 100022a4 <xTaskIncrementTick+0x200>
10002296:	2401      	movs	r4, #1
10002298:	e7e8      	b.n	1000226c <xTaskIncrementTick+0x1c8>
1000229a:	f04f 33ff 	mov.w	r3, #4294967295
1000229e:	f8ca 3000 	str.w	r3, [sl]
100022a2:	e710      	b.n	100020c6 <xTaskIncrementTick+0x22>
100022a4:	2401      	movs	r4, #1
100022a6:	4620      	mov	r0, r4
100022a8:	e8bd 87f0 	ldmia.w	sp!, {r4, r5, r6, r7, r8, r9, sl, pc}
100022ac:	4a0a      	ldr	r2, [pc, #40]	@ (100022d8 <xTaskIncrementTick+0x234>)
100022ae:	6053      	str	r3, [r2, #4]
100022b0:	e72e      	b.n	10002110 <xTaskIncrementTick+0x6c>
100022b2:	bf00      	nop
100022b4:	200221f0 	.word	0x200221f0
100022b8:	200222c0 	.word	0x200222c0
100022bc:	20001f24 	.word	0x20001f24
100022c0:	20001f08 	.word	0x20001f08
100022c4:	20022274 	.word	0x20022274
100022c8:	20001f14 	.word	0x20001f14
100022cc:	20001f1c 	.word	0x20001f1c
100022d0:	20022268 	.word	0x20022268
100022d4:	20022264 	.word	0x20022264
100022d8:	200222cc 	.word	0x200222cc
100022dc:	200221f8 	.word	0x200221f8

100022e0 <vTaskSwitchContext>:
100022e0:	f04f 4350 	mov.w	r3, #3489660928	@ 0xd0000000
100022e4:	e92d 47f0 	stmdb	sp!, {r4, r5, r6, r7, r8, r9, sl, lr}
100022e8:	4602      	mov	r2, r0
100022ea:	f8df 8234 	ldr.w	r8, [pc, #564]	@ 10002520 <vTaskSwitchContext+0x240>
100022ee:	681b      	ldr	r3, [r3, #0]
100022f0:	b082      	sub	sp, #8
100022f2:	e8d8 1fcf 	ldaexb	r1, [r8]
100022f6:	2001      	movs	r0, #1
100022f8:	2900      	cmp	r1, #0
100022fa:	d101      	bne.n	10002300 <vTaskSwitchContext+0x20>
100022fc:	e8c8 0f41 	strexb	r1, r0, [r8]
10002300:	f3bf 8f5f 	dmb	sy
10002304:	4e7f      	ldr	r6, [pc, #508]	@ (10002504 <vTaskSwitchContext+0x224>)
10002306:	2900      	cmp	r1, #0
10002308:	d14c      	bne.n	100023a4 <vTaskSwitchContext+0xc4>
1000230a:	0059      	lsls	r1, r3, #1
1000230c:	2001      	movs	r0, #1
1000230e:	4b7e      	ldr	r3, [pc, #504]	@ (10002508 <vTaskSwitchContext+0x228>)
10002310:	4431      	add	r1, r6
10002312:	7058      	strb	r0, [r3, #1]
10002314:	7048      	strb	r0, [r1, #1]
10002316:	f04f 4150 	mov.w	r1, #3489660928	@ 0xd0000000
1000231a:	f8df a208 	ldr.w	sl, [pc, #520]	@ 10002524 <vTaskSwitchContext+0x244>
1000231e:	6808      	ldr	r0, [r1, #0]
10002320:	e8da 1fcf 	ldaexb	r1, [sl]
10002324:	2401      	movs	r4, #1
10002326:	2900      	cmp	r1, #0
10002328:	d101      	bne.n	1000232e <vTaskSwitchContext+0x4e>
1000232a:	e8ca 4f41 	strexb	r1, r4, [sl]
1000232e:	f3bf 8f5f 	dmb	sy
10002332:	b179      	cbz	r1, 10002354 <vTaskSwitchContext+0x74>
10002334:	f816 1010 	ldrb.w	r1, [r6, r0, lsl #1]
10002338:	2900      	cmp	r1, #0
1000233a:	f040 80be 	bne.w	100024ba <vTaskSwitchContext+0x1da>
1000233e:	e8da 4fcf 	ldaexb	r4, [sl]
10002342:	2101      	movs	r1, #1
10002344:	2c00      	cmp	r4, #0
10002346:	d1fa      	bne.n	1000233e <vTaskSwitchContext+0x5e>
10002348:	e8ca 1f44 	strexb	r4, r1, [sl]
1000234c:	2c00      	cmp	r4, #0
1000234e:	d1f6      	bne.n	1000233e <vTaskSwitchContext+0x5e>
10002350:	f3bf 8f5f 	dmb	sy
10002354:	2101      	movs	r1, #1
10002356:	7019      	strb	r1, [r3, #0]
10002358:	f806 1010 	strb.w	r1, [r6, r0, lsl #1]
1000235c:	496b      	ldr	r1, [pc, #428]	@ (1000250c <vTaskSwitchContext+0x22c>)
1000235e:	6809      	ldr	r1, [r1, #0]
10002360:	2900      	cmp	r1, #0
10002362:	d032      	beq.n	100023ca <vTaskSwitchContext+0xea>
10002364:	2401      	movs	r4, #1
10002366:	f04f 4150 	mov.w	r1, #3489660928	@ 0xd0000000
1000236a:	4869      	ldr	r0, [pc, #420]	@ (10002510 <vTaskSwitchContext+0x230>)
1000236c:	f840 4022 	str.w	r4, [r0, r2, lsl #2]
10002370:	680d      	ldr	r5, [r1, #0]
10002372:	781a      	ldrb	r2, [r3, #0]
10002374:	3a01      	subs	r2, #1
10002376:	b2d2      	uxtb	r2, r2
10002378:	701a      	strb	r2, [r3, #0]
1000237a:	b932      	cbnz	r2, 1000238a <vTaskSwitchContext+0xaa>
1000237c:	f806 2015 	strb.w	r2, [r6, r5, lsl #1]
10002380:	e8ca 2f8f 	stlb	r2, [sl]
10002384:	f04f 4250 	mov.w	r2, #3489660928	@ 0xd0000000
10002388:	6815      	ldr	r5, [r2, #0]
1000238a:	785a      	ldrb	r2, [r3, #1]
1000238c:	3a01      	subs	r2, #1
1000238e:	b2d2      	uxtb	r2, r2
10002390:	705a      	strb	r2, [r3, #1]
10002392:	b922      	cbnz	r2, 1000239e <vTaskSwitchContext+0xbe>
10002394:	eb06 0545 	add.w	r5, r6, r5, lsl #1
10002398:	706a      	strb	r2, [r5, #1]
1000239a:	e8c8 2f8f 	stlb	r2, [r8]
1000239e:	b002      	add	sp, #8
100023a0:	e8bd 87f0 	ldmia.w	sp!, {r4, r5, r6, r7, r8, r9, sl, pc}
100023a4:	0059      	lsls	r1, r3, #1
100023a6:	eb06 0343 	add.w	r3, r6, r3, lsl #1
100023aa:	785b      	ldrb	r3, [r3, #1]
100023ac:	2b00      	cmp	r3, #0
100023ae:	f040 8088 	bne.w	100024c2 <vTaskSwitchContext+0x1e2>
100023b2:	e8d8 0fcf 	ldaexb	r0, [r8]
100023b6:	2301      	movs	r3, #1
100023b8:	2800      	cmp	r0, #0
100023ba:	d1fa      	bne.n	100023b2 <vTaskSwitchContext+0xd2>
100023bc:	e8c8 3f40 	strexb	r0, r3, [r8]
100023c0:	2800      	cmp	r0, #0
100023c2:	d1f6      	bne.n	100023b2 <vTaskSwitchContext+0xd2>
100023c4:	f3bf 8f5f 	dmb	sy
100023c8:	e7a0      	b.n	1000230c <vTaskSwitchContext+0x2c>
100023ca:	4851      	ldr	r0, [pc, #324]	@ (10002510 <vTaskSwitchContext+0x230>)
100023cc:	4c51      	ldr	r4, [pc, #324]	@ (10002514 <vTaskSwitchContext+0x234>)
100023ce:	f8df 9158 	ldr.w	r9, [pc, #344]	@ 10002528 <vTaskSwitchContext+0x248>
100023d2:	f840 1022 	str.w	r1, [r0, r2, lsl #2]
100023d6:	f8d9 5000 	ldr.w	r5, [r9]
100023da:	f854 1022 	ldr.w	r1, [r4, r2, lsl #2]
100023de:	4f4e      	ldr	r7, [pc, #312]	@ (10002518 <vTaskSwitchContext+0x238>)
100023e0:	6988      	ldr	r0, [r1, #24]
100023e2:	f854 1022 	ldr.w	r1, [r4, r2, lsl #2]
100023e6:	6b09      	ldr	r1, [r1, #48]	@ 0x30
100023e8:	eb01 0181 	add.w	r1, r1, r1, lsl #2
100023ec:	eb07 0181 	add.w	r1, r7, r1, lsl #2
100023f0:	4288      	cmp	r0, r1
100023f2:	d070      	beq.n	100024d6 <vTaskSwitchContext+0x1f6>
100023f4:	4849      	ldr	r0, [pc, #292]	@ (1000251c <vTaskSwitchContext+0x23c>)
100023f6:	eb05 0185 	add.w	r1, r5, r5, lsl #2
100023fa:	eb00 0081 	add.w	r0, r0, r1, lsl #2
100023fe:	f850 1c08 	ldr.w	r1, [r0, #-8]
10002402:	b961      	cbnz	r1, 1000241e <vTaskSwitchContext+0x13e>
10002404:	f8d9 1000 	ldr.w	r1, [r9]
10002408:	3814      	subs	r0, #20
1000240a:	3901      	subs	r1, #1
1000240c:	f8c9 1000 	str.w	r1, [r9]
10002410:	2d00      	cmp	r5, #0
10002412:	d05c      	beq.n	100024ce <vTaskSwitchContext+0x1ee>
10002414:	f850 1c08 	ldr.w	r1, [r0, #-8]
10002418:	3d01      	subs	r5, #1
1000241a:	2900      	cmp	r1, #0
1000241c:	d0f2      	beq.n	10002404 <vTaskSwitchContext+0x124>
1000241e:	f04f 0c01 	mov.w	ip, #1
10002422:	4686      	mov	lr, r0
10002424:	4699      	mov	r9, r3
10002426:	fa0c fc02 	lsl.w	ip, ip, r2
1000242a:	f8de 1004 	ldr.w	r1, [lr, #4]
1000242e:	4571      	cmp	r1, lr
10002430:	d107      	bne.n	10002442 <vTaskSwitchContext+0x162>
10002432:	e02e      	b.n	10002492 <vTaskSwitchContext+0x1b2>
10002434:	f854 3022 	ldr.w	r3, [r4, r2, lsl #2]
10002438:	4298      	cmp	r0, r3
1000243a:	d033      	beq.n	100024a4 <vTaskSwitchContext+0x1c4>
1000243c:	6849      	ldr	r1, [r1, #4]
1000243e:	4571      	cmp	r1, lr
10002440:	d027      	beq.n	10002492 <vTaskSwitchContext+0x1b2>
10002442:	68c8      	ldr	r0, [r1, #12]
10002444:	6b83      	ldr	r3, [r0, #56]	@ 0x38
10002446:	1c5f      	adds	r7, r3, #1
10002448:	d1f4      	bne.n	10002434 <vTaskSwitchContext+0x154>
1000244a:	6847      	ldr	r7, [r0, #4]
1000244c:	ea1c 0f07 	tst.w	ip, r7
10002450:	d0f4      	beq.n	1000243c <vTaskSwitchContext+0x15c>
10002452:	4619      	mov	r1, r3
10002454:	4686      	mov	lr, r0
10002456:	f04f 4550 	mov.w	r5, #3489660928	@ 0xd0000000
1000245a:	f854 0022 	ldr.w	r0, [r4, r2, lsl #2]
1000245e:	464b      	mov	r3, r9
10002460:	6381      	str	r1, [r0, #56]	@ 0x38
10002462:	f854 c022 	ldr.w	ip, [r4, r2, lsl #2]
10002466:	f8ce 2038 	str.w	r2, [lr, #56]	@ 0x38
1000246a:	682d      	ldr	r5, [r5, #0]
1000246c:	f844 e022 	str.w	lr, [r4, r2, lsl #2]
10002470:	f1bc 0f00 	cmp.w	ip, #0
10002474:	d00a      	beq.n	1000248c <vTaskSwitchContext+0x1ac>
10002476:	f8dc e030 	ldr.w	lr, [ip, #48]	@ 0x30
1000247a:	4f27      	ldr	r7, [pc, #156]	@ (10002518 <vTaskSwitchContext+0x238>)
1000247c:	eb0e 008e 	add.w	r0, lr, lr, lsl #2
10002480:	eb07 0080 	add.w	r0, r7, r0, lsl #2
10002484:	f8dc 7018 	ldr.w	r7, [ip, #24]
10002488:	4287      	cmp	r7, r0
1000248a:	d04f      	beq.n	1000252c <vTaskSwitchContext+0x24c>
1000248c:	f854 2025 	ldr.w	r2, [r4, r5, lsl #2]
10002490:	e76f      	b.n	10002372 <vTaskSwitchContext+0x92>
10002492:	f1ae 0e14 	sub.w	lr, lr, #20
10002496:	b1cd      	cbz	r5, 100024cc <vTaskSwitchContext+0x1ec>
10002498:	f85e 3c08 	ldr.w	r3, [lr, #-8]
1000249c:	3d01      	subs	r5, #1
1000249e:	2b00      	cmp	r3, #0
100024a0:	d0f7      	beq.n	10002492 <vTaskSwitchContext+0x1b2>
100024a2:	e7c2      	b.n	1000242a <vTaskSwitchContext+0x14a>
100024a4:	6843      	ldr	r3, [r0, #4]
100024a6:	ea1c 0f03 	tst.w	ip, r3
100024aa:	d0c7      	beq.n	1000243c <vTaskSwitchContext+0x15c>
100024ac:	6382      	str	r2, [r0, #56]	@ 0x38
100024ae:	f04f 4250 	mov.w	r2, #3489660928	@ 0xd0000000
100024b2:	4686      	mov	lr, r0
100024b4:	464b      	mov	r3, r9
100024b6:	6815      	ldr	r5, [r2, #0]
100024b8:	e7e8      	b.n	1000248c <vTaskSwitchContext+0x1ac>
100024ba:	7819      	ldrb	r1, [r3, #0]
100024bc:	3101      	adds	r1, #1
100024be:	7019      	strb	r1, [r3, #0]
100024c0:	e74c      	b.n	1000235c <vTaskSwitchContext+0x7c>
100024c2:	4b11      	ldr	r3, [pc, #68]	@ (10002508 <vTaskSwitchContext+0x228>)
100024c4:	7859      	ldrb	r1, [r3, #1]
100024c6:	3101      	adds	r1, #1
100024c8:	7059      	strb	r1, [r3, #1]
100024ca:	e724      	b.n	10002316 <vTaskSwitchContext+0x36>
100024cc:	464b      	mov	r3, r9
100024ce:	f04f 4250 	mov.w	r2, #3489660928	@ 0xd0000000
100024d2:	6815      	ldr	r5, [r2, #0]
100024d4:	e7da      	b.n	1000248c <vTaskSwitchContext+0x1ac>
100024d6:	f854 0022 	ldr.w	r0, [r4, r2, lsl #2]
100024da:	9301      	str	r3, [sp, #4]
100024dc:	3008      	adds	r0, #8
100024de:	9200      	str	r2, [sp, #0]
100024e0:	f7fe fc28 	bl	10000d34 <uxListRemove>
100024e4:	9a00      	ldr	r2, [sp, #0]
100024e6:	f854 1022 	ldr.w	r1, [r4, r2, lsl #2]
100024ea:	6b08      	ldr	r0, [r1, #48]	@ 0x30
100024ec:	f854 1022 	ldr.w	r1, [r4, r2, lsl #2]
100024f0:	eb00 0080 	add.w	r0, r0, r0, lsl #2
100024f4:	eb07 0080 	add.w	r0, r7, r0, lsl #2
100024f8:	3108      	adds	r1, #8
100024fa:	f7fe fbf1 	bl	10000ce0 <vListInsertEnd>
100024fe:	e9dd 2300 	ldrd	r2, r3, [sp]
10002502:	e777      	b.n	100023f4 <vTaskSwitchContext+0x114>
10002504:	200221c0 	.word	0x200221c0
10002508:	200221c4 	.word	0x200221c4
1000250c:	200221f0 	.word	0x200221f0
10002510:	200222cc 	.word	0x200222cc
10002514:	20001f08 	.word	0x20001f08
10002518:	20001f24 	.word	0x20001f24
1000251c:	20001f2c 	.word	0x20001f2c
10002520:	20001643 	.word	0x20001643
10002524:	20001642 	.word	0x20001642
10002528:	200221f8 	.word	0x200221f8
1000252c:	f8dc 9004 	ldr.w	r9, [ip, #4]
10002530:	f8dc 003c 	ldr.w	r0, [ip, #60]	@ 0x3c
10002534:	fa29 fc02 	lsr.w	ip, r9, r2
10002538:	f000 0001 	and.w	r0, r0, #1
1000253c:	f01c 0f01 	tst.w	ip, #1
10002540:	ebae 0000 	sub.w	r0, lr, r0
10002544:	d004      	beq.n	10002550 <vTaskSwitchContext+0x270>
10002546:	f854 2022 	ldr.w	r2, [r4, r2, lsl #2]
1000254a:	6852      	ldr	r2, [r2, #4]
1000254c:	ea29 0902 	bic.w	r9, r9, r2
10002550:	f019 0f02 	tst.w	r9, #2
10002554:	f009 0203 	and.w	r2, r9, #3
10002558:	d068      	beq.n	1000262c <vTaskSwitchContext+0x34c>
1000255a:	6862      	ldr	r2, [r4, #4]
1000255c:	f8d4 c004 	ldr.w	ip, [r4, #4]
10002560:	6b12      	ldr	r2, [r2, #48]	@ 0x30
10002562:	f8dc c03c 	ldr.w	ip, [ip, #60]	@ 0x3c
10002566:	f009 0e01 	and.w	lr, r9, #1
1000256a:	f00c 0c01 	and.w	ip, ip, #1
1000256e:	eba2 020c 	sub.w	r2, r2, ip
10002572:	4290      	cmp	r0, r2
10002574:	dd0d      	ble.n	10002592 <vTaskSwitchContext+0x2b2>
10002576:	f8d4 c004 	ldr.w	ip, [r4, #4]
1000257a:	f8dc c038 	ldr.w	ip, [ip, #56]	@ 0x38
1000257e:	f1bc 0f00 	cmp.w	ip, #0
10002582:	db06      	blt.n	10002592 <vTaskSwitchContext+0x2b2>
10002584:	f8d4 c004 	ldr.w	ip, [r4, #4]
10002588:	f8dc c038 	ldr.w	ip, [ip, #56]	@ 0x38
1000258c:	f1bc 0f01 	cmp.w	ip, #1
10002590:	dd34      	ble.n	100025fc <vTaskSwitchContext+0x31c>
10002592:	f1be 0f00 	cmp.w	lr, #0
10002596:	f43f af79 	beq.w	1000248c <vTaskSwitchContext+0x1ac>
1000259a:	6822      	ldr	r2, [r4, #0]
1000259c:	f8d4 c000 	ldr.w	ip, [r4]
100025a0:	6b12      	ldr	r2, [r2, #48]	@ 0x30
100025a2:	f8dc c03c 	ldr.w	ip, [ip, #60]	@ 0x3c
100025a6:	f00c 0c01 	and.w	ip, ip, #1
100025aa:	eba2 020c 	sub.w	r2, r2, ip
100025ae:	4290      	cmp	r0, r2
100025b0:	f77f af6c 	ble.w	1000248c <vTaskSwitchContext+0x1ac>
100025b4:	6822      	ldr	r2, [r4, #0]
100025b6:	6b92      	ldr	r2, [r2, #56]	@ 0x38
100025b8:	2a00      	cmp	r2, #0
100025ba:	f6ff af67 	blt.w	1000248c <vTaskSwitchContext+0x1ac>
100025be:	6822      	ldr	r2, [r4, #0]
100025c0:	6b92      	ldr	r2, [r2, #56]	@ 0x38
100025c2:	2a01      	cmp	r2, #1
100025c4:	dd3a      	ble.n	1000263c <vTaskSwitchContext+0x35c>
100025c6:	3101      	adds	r1, #1
100025c8:	f43f af60 	beq.w	1000248c <vTaskSwitchContext+0x1ac>
100025cc:	f04f 0901 	mov.w	r9, #1
100025d0:	45a9      	cmp	r9, r5
100025d2:	d02e      	beq.n	10002632 <vTaskSwitchContext+0x352>
100025d4:	f854 2029 	ldr.w	r2, [r4, r9, lsl #2]
100025d8:	6b92      	ldr	r2, [r2, #56]	@ 0x38
100025da:	3202      	adds	r2, #2
100025dc:	f43f af56 	beq.w	1000248c <vTaskSwitchContext+0x1ac>
100025e0:	f06f 0501 	mvn.w	r5, #1
100025e4:	4648      	mov	r0, r9
100025e6:	9300      	str	r3, [sp, #0]
100025e8:	f7fe f9ec 	bl	100009c4 <vYieldCore>
100025ec:	f04f 4250 	mov.w	r2, #3489660928	@ 0xd0000000
100025f0:	f854 1029 	ldr.w	r1, [r4, r9, lsl #2]
100025f4:	9b00      	ldr	r3, [sp, #0]
100025f6:	638d      	str	r5, [r1, #56]	@ 0x38
100025f8:	6815      	ldr	r5, [r2, #0]
100025fa:	e747      	b.n	1000248c <vTaskSwitchContext+0x1ac>
100025fc:	4f13      	ldr	r7, [pc, #76]	@ (1000264c <vTaskSwitchContext+0x36c>)
100025fe:	f8d7 c004 	ldr.w	ip, [r7, #4]
10002602:	f1bc 0f00 	cmp.w	ip, #0
10002606:	d1c4      	bne.n	10002592 <vTaskSwitchContext+0x2b2>
10002608:	f1be 0f00 	cmp.w	lr, #0
1000260c:	d0de      	beq.n	100025cc <vTaskSwitchContext+0x2ec>
1000260e:	6821      	ldr	r1, [r4, #0]
10002610:	6820      	ldr	r0, [r4, #0]
10002612:	6b09      	ldr	r1, [r1, #48]	@ 0x30
10002614:	6bc0      	ldr	r0, [r0, #60]	@ 0x3c
10002616:	f000 0001 	and.w	r0, r0, #1
1000261a:	1a09      	subs	r1, r1, r0
1000261c:	428a      	cmp	r2, r1
1000261e:	ddd5      	ble.n	100025cc <vTaskSwitchContext+0x2ec>
10002620:	6822      	ldr	r2, [r4, #0]
10002622:	6b92      	ldr	r2, [r2, #56]	@ 0x38
10002624:	2a00      	cmp	r2, #0
10002626:	dbd1      	blt.n	100025cc <vTaskSwitchContext+0x2ec>
10002628:	2101      	movs	r1, #1
1000262a:	e7c8      	b.n	100025be <vTaskSwitchContext+0x2de>
1000262c:	2a00      	cmp	r2, #0
1000262e:	d1b4      	bne.n	1000259a <vTaskSwitchContext+0x2ba>
10002630:	e72c      	b.n	1000248c <vTaskSwitchContext+0x1ac>
10002632:	2201      	movs	r2, #1
10002634:	4905      	ldr	r1, [pc, #20]	@ (1000264c <vTaskSwitchContext+0x36c>)
10002636:	f841 2025 	str.w	r2, [r1, r5, lsl #2]
1000263a:	e748      	b.n	100024ce <vTaskSwitchContext+0x1ee>
1000263c:	4a03      	ldr	r2, [pc, #12]	@ (1000264c <vTaskSwitchContext+0x36c>)
1000263e:	f8d2 9000 	ldr.w	r9, [r2]
10002642:	f1b9 0f00 	cmp.w	r9, #0
10002646:	d0c3      	beq.n	100025d0 <vTaskSwitchContext+0x2f0>
10002648:	e7bd      	b.n	100025c6 <vTaskSwitchContext+0x2e6>
1000264a:	bf00      	nop
1000264c:	200222cc 	.word	0x200222cc

10002650 <vTaskPlaceOnEventList>:
10002650:	b570      	push	{r4, r5, r6, lr}
10002652:	460d      	mov	r5, r1
10002654:	4606      	mov	r6, r0
10002656:	f7fe f9e7 	bl	10000a28 <ulSetInterruptMask>
1000265a:	f04f 4250 	mov.w	r2, #3489660928	@ 0xd0000000
1000265e:	4b08      	ldr	r3, [pc, #32]	@ (10002680 <vTaskPlaceOnEventList+0x30>)
10002660:	6812      	ldr	r2, [r2, #0]
10002662:	f853 4022 	ldr.w	r4, [r3, r2, lsl #2]
10002666:	f7fe f9eb 	bl	10000a40 <vClearInterruptMask>
1000266a:	4630      	mov	r0, r6
1000266c:	f104 011c 	add.w	r1, r4, #28
10002670:	f7fe fb44 	bl	10000cfc <vListInsert>
10002674:	4628      	mov	r0, r5
10002676:	e8bd 4070 	ldmia.w	sp!, {r4, r5, r6, lr}
1000267a:	2101      	movs	r1, #1
1000267c:	f7ff bb76 	b.w	10001d6c <prvAddCurrentTaskToDelayedList>
10002680:	20001f08 	.word	0x20001f08

10002684 <vTaskPlaceOnUnorderedEventList>:
10002684:	b5f0      	push	{r4, r5, r6, r7, lr}
10002686:	f04f 4550 	mov.w	r5, #3489660928	@ 0xd0000000
1000268a:	460f      	mov	r7, r1
1000268c:	4606      	mov	r6, r0
1000268e:	b083      	sub	sp, #12
10002690:	9201      	str	r2, [sp, #4]
10002692:	4c26      	ldr	r4, [pc, #152]	@ (1000272c <vTaskPlaceOnUnorderedEventList+0xa8>)
10002694:	f7fe f9c8 	bl	10000a28 <ulSetInterruptMask>
10002698:	682b      	ldr	r3, [r5, #0]
1000269a:	f047 4700 	orr.w	r7, r7, #2147483648	@ 0x80000000
1000269e:	f854 3023 	ldr.w	r3, [r4, r3, lsl #2]
100026a2:	9300      	str	r3, [sp, #0]
100026a4:	f7fe f9cc 	bl	10000a40 <vClearInterruptMask>
100026a8:	9b00      	ldr	r3, [sp, #0]
100026aa:	61df      	str	r7, [r3, #28]
100026ac:	6877      	ldr	r7, [r6, #4]
100026ae:	f7fe f9bb 	bl	10000a28 <ulSetInterruptMask>
100026b2:	682b      	ldr	r3, [r5, #0]
100026b4:	f854 3023 	ldr.w	r3, [r4, r3, lsl #2]
100026b8:	9300      	str	r3, [sp, #0]
100026ba:	f7fe f9c1 	bl	10000a40 <vClearInterruptMask>
100026be:	9b00      	ldr	r3, [sp, #0]
100026c0:	621f      	str	r7, [r3, #32]
100026c2:	f7fe f9b1 	bl	10000a28 <ulSetInterruptMask>
100026c6:	682b      	ldr	r3, [r5, #0]
100026c8:	f854 3023 	ldr.w	r3, [r4, r3, lsl #2]
100026cc:	9300      	str	r3, [sp, #0]
100026ce:	f7fe f9b7 	bl	10000a40 <vClearInterruptMask>
100026d2:	68b9      	ldr	r1, [r7, #8]
100026d4:	9b00      	ldr	r3, [sp, #0]
100026d6:	6259      	str	r1, [r3, #36]	@ 0x24
100026d8:	f7fe f9a6 	bl	10000a28 <ulSetInterruptMask>
100026dc:	682b      	ldr	r3, [r5, #0]
100026de:	f854 3023 	ldr.w	r3, [r4, r3, lsl #2]
100026e2:	9300      	str	r3, [sp, #0]
100026e4:	f7fe f9ac 	bl	10000a40 <vClearInterruptMask>
100026e8:	9b00      	ldr	r3, [sp, #0]
100026ea:	68b9      	ldr	r1, [r7, #8]
100026ec:	331c      	adds	r3, #28
100026ee:	604b      	str	r3, [r1, #4]
100026f0:	f7fe f99a 	bl	10000a28 <ulSetInterruptMask>
100026f4:	682b      	ldr	r3, [r5, #0]
100026f6:	f854 3023 	ldr.w	r3, [r4, r3, lsl #2]
100026fa:	9300      	str	r3, [sp, #0]
100026fc:	f7fe f9a0 	bl	10000a40 <vClearInterruptMask>
10002700:	9b00      	ldr	r3, [sp, #0]
10002702:	331c      	adds	r3, #28
10002704:	60bb      	str	r3, [r7, #8]
10002706:	f7fe f98f 	bl	10000a28 <ulSetInterruptMask>
1000270a:	682b      	ldr	r3, [r5, #0]
1000270c:	f854 4023 	ldr.w	r4, [r4, r3, lsl #2]
10002710:	f7fe f996 	bl	10000a40 <vClearInterruptMask>
10002714:	2101      	movs	r1, #1
10002716:	6833      	ldr	r3, [r6, #0]
10002718:	9801      	ldr	r0, [sp, #4]
1000271a:	440b      	add	r3, r1
1000271c:	62e6      	str	r6, [r4, #44]	@ 0x2c
1000271e:	6033      	str	r3, [r6, #0]
10002720:	b003      	add	sp, #12
10002722:	e8bd 40f0 	ldmia.w	sp!, {r4, r5, r6, r7, lr}
10002726:	f7ff bb21 	b.w	10001d6c <prvAddCurrentTaskToDelayedList>
1000272a:	bf00      	nop
1000272c:	20001f08 	.word	0x20001f08

10002730 <vTaskPlaceOnEventListRestricted>:
10002730:	e92d 41f0 	stmdb	sp!, {r4, r5, r6, r7, r8, lr}
10002734:	f04f 4550 	mov.w	r5, #3489660928	@ 0xd0000000
10002738:	b082      	sub	sp, #8
1000273a:	9201      	str	r2, [sp, #4]
1000273c:	4688      	mov	r8, r1
1000273e:	6847      	ldr	r7, [r0, #4]
10002740:	4606      	mov	r6, r0
10002742:	4c22      	ldr	r4, [pc, #136]	@ (100027cc <vTaskPlaceOnEventListRestricted+0x9c>)
10002744:	f7fe f970 	bl	10000a28 <ulSetInterruptMask>
10002748:	682b      	ldr	r3, [r5, #0]
1000274a:	f854 3023 	ldr.w	r3, [r4, r3, lsl #2]
1000274e:	9300      	str	r3, [sp, #0]
10002750:	f7fe f976 	bl	10000a40 <vClearInterruptMask>
10002754:	9b00      	ldr	r3, [sp, #0]
10002756:	621f      	str	r7, [r3, #32]
10002758:	f7fe f966 	bl	10000a28 <ulSetInterruptMask>
1000275c:	682b      	ldr	r3, [r5, #0]
1000275e:	f854 3023 	ldr.w	r3, [r4, r3, lsl #2]
10002762:	9300      	str	r3, [sp, #0]
10002764:	f7fe f96c 	bl	10000a40 <vClearInterruptMask>
10002768:	68b9      	ldr	r1, [r7, #8]
1000276a:	9b00      	ldr	r3, [sp, #0]
1000276c:	6259      	str	r1, [r3, #36]	@ 0x24
1000276e:	f7fe f95b 	bl	10000a28 <ulSetInterruptMask>
10002772:	682b      	ldr	r3, [r5, #0]
10002774:	f854 3023 	ldr.w	r3, [r4, r3, lsl #2]
10002778:	9300      	str	r3, [sp, #0]
1000277a:	f7fe f961 	bl	10000a40 <vClearInterruptMask>
1000277e:	9b00      	ldr	r3, [sp, #0]
10002780:	68b9      	ldr	r1, [r7, #8]
10002782:	331c      	adds	r3, #28
10002784:	604b      	str	r3, [r1, #4]
10002786:	f7fe f94f 	bl	10000a28 <ulSetInterruptMask>
1000278a:	682b      	ldr	r3, [r5, #0]
1000278c:	f854 3023 	ldr.w	r3, [r4, r3, lsl #2]
10002790:	9300      	str	r3, [sp, #0]
10002792:	f7fe f955 	bl	10000a40 <vClearInterruptMask>
10002796:	9b00      	ldr	r3, [sp, #0]
10002798:	331c      	adds	r3, #28
1000279a:	60bb      	str	r3, [r7, #8]
1000279c:	f7fe f944 	bl	10000a28 <ulSetInterruptMask>
100027a0:	682b      	ldr	r3, [r5, #0]
100027a2:	f854 4023 	ldr.w	r4, [r4, r3, lsl #2]
100027a6:	f7fe f94b 	bl	10000a40 <vClearInterruptMask>
100027aa:	9a01      	ldr	r2, [sp, #4]
100027ac:	6833      	ldr	r3, [r6, #0]
100027ae:	2a00      	cmp	r2, #0
100027b0:	4611      	mov	r1, r2
100027b2:	bf0c      	ite	eq
100027b4:	4640      	moveq	r0, r8
100027b6:	f04f 30ff 	movne.w	r0, #4294967295
100027ba:	3301      	adds	r3, #1
100027bc:	62e6      	str	r6, [r4, #44]	@ 0x2c
100027be:	6033      	str	r3, [r6, #0]
100027c0:	b002      	add	sp, #8
100027c2:	e8bd 41f0 	ldmia.w	sp!, {r4, r5, r6, r7, r8, lr}
100027c6:	f7ff bad1 	b.w	10001d6c <prvAddCurrentTaskToDelayedList>
100027ca:	bf00      	nop
100027cc:	20001f08 	.word	0x20001f08

100027d0 <xTaskRemoveFromEventList>:
100027d0:	b538      	push	{r3, r4, r5, lr}
100027d2:	f04f 0e00 	mov.w	lr, #0
100027d6:	68c3      	ldr	r3, [r0, #12]
100027d8:	68d8      	ldr	r0, [r3, #12]
100027da:	6ac3      	ldr	r3, [r0, #44]	@ 0x2c
100027dc:	e9d0 1208 	ldrd	r1, r2, [r0, #32]
100027e0:	608a      	str	r2, [r1, #8]
100027e2:	f8d3 c004 	ldr.w	ip, [r3, #4]
100027e6:	6a04      	ldr	r4, [r0, #32]
100027e8:	f100 011c 	add.w	r1, r0, #28
100027ec:	6054      	str	r4, [r2, #4]
100027ee:	458c      	cmp	ip, r1
100027f0:	bf04      	itt	eq
100027f2:	6a42      	ldreq	r2, [r0, #36]	@ 0x24
100027f4:	605a      	streq	r2, [r3, #4]
100027f6:	4a2a      	ldr	r2, [pc, #168]	@ (100028a0 <xTaskRemoveFromEventList+0xd0>)
100027f8:	f8d2 c000 	ldr.w	ip, [r2]
100027fc:	681a      	ldr	r2, [r3, #0]
100027fe:	f8c0 e02c 	str.w	lr, [r0, #44]	@ 0x2c
10002802:	3a01      	subs	r2, #1
10002804:	601a      	str	r2, [r3, #0]
10002806:	f1bc 0f00 	cmp.w	ip, #0
1000280a:	d138      	bne.n	1000287e <xTaskRemoveFromEventList+0xae>
1000280c:	e9d0 1203 	ldrd	r1, r2, [r0, #12]
10002810:	6983      	ldr	r3, [r0, #24]
10002812:	608a      	str	r2, [r1, #8]
10002814:	68c4      	ldr	r4, [r0, #12]
10002816:	6859      	ldr	r1, [r3, #4]
10002818:	f100 0e08 	add.w	lr, r0, #8
1000281c:	6054      	str	r4, [r2, #4]
1000281e:	4571      	cmp	r1, lr
10002820:	bf08      	it	eq
10002822:	6902      	ldreq	r2, [r0, #16]
10002824:	491f      	ldr	r1, [pc, #124]	@ (100028a4 <xTaskRemoveFromEventList+0xd4>)
10002826:	bf08      	it	eq
10002828:	605a      	streq	r2, [r3, #4]
1000282a:	681a      	ldr	r2, [r3, #0]
1000282c:	3a01      	subs	r2, #1
1000282e:	601a      	str	r2, [r3, #0]
10002830:	6b03      	ldr	r3, [r0, #48]	@ 0x30
10002832:	680a      	ldr	r2, [r1, #0]
10002834:	4293      	cmp	r3, r2
10002836:	4a1c      	ldr	r2, [pc, #112]	@ (100028a8 <xTaskRemoveFromEventList+0xd8>)
10002838:	bf88      	it	hi
1000283a:	600b      	strhi	r3, [r1, #0]
1000283c:	eb03 0383 	add.w	r3, r3, r3, lsl #2
10002840:	eb02 0183 	add.w	r1, r2, r3, lsl #2
10002844:	f8d1 c004 	ldr.w	ip, [r1, #4]
10002848:	f852 4023 	ldr.w	r4, [r2, r3, lsl #2]
1000284c:	f8c0 c00c 	str.w	ip, [r0, #12]
10002850:	1c65      	adds	r5, r4, #1
10002852:	f8dc 4008 	ldr.w	r4, [ip, #8]
10002856:	6104      	str	r4, [r0, #16]
10002858:	f8c4 e004 	str.w	lr, [r4, #4]
1000285c:	f8cc e008 	str.w	lr, [ip, #8]
10002860:	6181      	str	r1, [r0, #24]
10002862:	f842 5023 	str.w	r5, [r2, r3, lsl #2]
10002866:	f7fe ff01 	bl	1000166c <prvYieldForTask>
1000286a:	f04f 4250 	mov.w	r2, #3489660928	@ 0xd0000000
1000286e:	4b0f      	ldr	r3, [pc, #60]	@ (100028ac <xTaskRemoveFromEventList+0xdc>)
10002870:	6812      	ldr	r2, [r2, #0]
10002872:	f853 0022 	ldr.w	r0, [r3, r2, lsl #2]
10002876:	3800      	subs	r0, #0
10002878:	bf18      	it	ne
1000287a:	2001      	movne	r0, #1
1000287c:	bd38      	pop	{r3, r4, r5, pc}
1000287e:	4b0c      	ldr	r3, [pc, #48]	@ (100028b0 <xTaskRemoveFromEventList+0xe0>)
10002880:	f8d3 c004 	ldr.w	ip, [r3, #4]
10002884:	f8c0 c020 	str.w	ip, [r0, #32]
10002888:	f8dc 2008 	ldr.w	r2, [ip, #8]
1000288c:	6242      	str	r2, [r0, #36]	@ 0x24
1000288e:	6051      	str	r1, [r2, #4]
10002890:	681a      	ldr	r2, [r3, #0]
10002892:	f8cc 1008 	str.w	r1, [ip, #8]
10002896:	3201      	adds	r2, #1
10002898:	62c3      	str	r3, [r0, #44]	@ 0x2c
1000289a:	601a      	str	r2, [r3, #0]
1000289c:	e7e3      	b.n	10002866 <xTaskRemoveFromEventList+0x96>
1000289e:	bf00      	nop
100028a0:	200221f0 	.word	0x200221f0
100028a4:	200221f8 	.word	0x200221f8
100028a8:	20001f24 	.word	0x20001f24
100028ac:	200222cc 	.word	0x200222cc
100028b0:	20022278 	.word	0x20022278

100028b4 <vTaskInternalSetTimeOutState>:
100028b4:	4a03      	ldr	r2, [pc, #12]	@ (100028c4 <vTaskInternalSetTimeOutState+0x10>)
100028b6:	4b04      	ldr	r3, [pc, #16]	@ (100028c8 <vTaskInternalSetTimeOutState+0x14>)
100028b8:	6812      	ldr	r2, [r2, #0]
100028ba:	681b      	ldr	r3, [r3, #0]
100028bc:	e9c0 2300 	strd	r2, r3, [r0]
100028c0:	4770      	bx	lr
100028c2:	bf00      	nop
100028c4:	20022268 	.word	0x20022268
100028c8:	200222c0 	.word	0x200222c0

100028cc <vTaskMissedYield>:
100028cc:	f04f 4250 	mov.w	r2, #3489660928	@ 0xd0000000
100028d0:	2101      	movs	r1, #1
100028d2:	4b02      	ldr	r3, [pc, #8]	@ (100028dc <vTaskMissedYield+0x10>)
100028d4:	6812      	ldr	r2, [r2, #0]
100028d6:	f843 1022 	str.w	r1, [r3, r2, lsl #2]
100028da:	4770      	bx	lr
100028dc:	200222cc 	.word	0x200222cc

100028e0 <xTaskGetCurrentTaskHandle>:
100028e0:	b510      	push	{r4, lr}
100028e2:	f7fe f8a1 	bl	10000a28 <ulSetInterruptMask>
100028e6:	f04f 4250 	mov.w	r2, #3489660928	@ 0xd0000000
100028ea:	4b04      	ldr	r3, [pc, #16]	@ (100028fc <xTaskGetCurrentTaskHandle+0x1c>)
100028ec:	6812      	ldr	r2, [r2, #0]
100028ee:	f853 3022 	ldr.w	r3, [r3, r2, lsl #2]
100028f2:	461c      	mov	r4, r3
100028f4:	f7fe f8a4 	bl	10000a40 <vClearInterruptMask>
100028f8:	4620      	mov	r0, r4
100028fa:	bd10      	pop	{r4, pc}
100028fc:	20001f08 	.word	0x20001f08

10002900 <xTaskPriorityInherit>:
10002900:	b530      	push	{r4, r5, lr}
10002902:	4604      	mov	r4, r0
10002904:	b083      	sub	sp, #12
10002906:	2800      	cmp	r0, #0
10002908:	d03b      	beq.n	10002982 <xTaskPriorityInherit+0x82>
1000290a:	6b01      	ldr	r1, [r0, #48]	@ 0x30
1000290c:	4d44      	ldr	r5, [pc, #272]	@ (10002a20 <xTaskPriorityInherit+0x120>)
1000290e:	9101      	str	r1, [sp, #4]
10002910:	f7fe f88a 	bl	10000a28 <ulSetInterruptMask>
10002914:	f04f 4350 	mov.w	r3, #3489660928	@ 0xd0000000
10002918:	681a      	ldr	r2, [r3, #0]
1000291a:	f855 2022 	ldr.w	r2, [r5, r2, lsl #2]
1000291e:	9200      	str	r2, [sp, #0]
10002920:	f7fe f88e 	bl	10000a40 <vClearInterruptMask>
10002924:	9a00      	ldr	r2, [sp, #0]
10002926:	9901      	ldr	r1, [sp, #4]
10002928:	6b12      	ldr	r2, [r2, #48]	@ 0x30
1000292a:	4291      	cmp	r1, r2
1000292c:	d22b      	bcs.n	10002986 <xTaskPriorityInherit+0x86>
1000292e:	69e2      	ldr	r2, [r4, #28]
10002930:	2a00      	cmp	r2, #0
10002932:	db0e      	blt.n	10002952 <xTaskPriorityInherit+0x52>
10002934:	f7fe f878 	bl	10000a28 <ulSetInterruptMask>
10002938:	f04f 4350 	mov.w	r3, #3489660928	@ 0xd0000000
1000293c:	681b      	ldr	r3, [r3, #0]
1000293e:	f855 3023 	ldr.w	r3, [r5, r3, lsl #2]
10002942:	9300      	str	r3, [sp, #0]
10002944:	f7fe f87c 	bl	10000a40 <vClearInterruptMask>
10002948:	9b00      	ldr	r3, [sp, #0]
1000294a:	6b1b      	ldr	r3, [r3, #48]	@ 0x30
1000294c:	f1c3 0320 	rsb	r3, r3, #32
10002950:	61e3      	str	r3, [r4, #28]
10002952:	6b23      	ldr	r3, [r4, #48]	@ 0x30
10002954:	4a33      	ldr	r2, [pc, #204]	@ (10002a24 <xTaskPriorityInherit+0x124>)
10002956:	69a1      	ldr	r1, [r4, #24]
10002958:	eb03 0383 	add.w	r3, r3, r3, lsl #2
1000295c:	eb02 0383 	add.w	r3, r2, r3, lsl #2
10002960:	4299      	cmp	r1, r3
10002962:	d024      	beq.n	100029ae <xTaskPriorityInherit+0xae>
10002964:	f7fe f860 	bl	10000a28 <ulSetInterruptMask>
10002968:	f04f 4350 	mov.w	r3, #3489660928	@ 0xd0000000
1000296c:	4a2c      	ldr	r2, [pc, #176]	@ (10002a20 <xTaskPriorityInherit+0x120>)
1000296e:	681b      	ldr	r3, [r3, #0]
10002970:	f852 3023 	ldr.w	r3, [r2, r3, lsl #2]
10002974:	9300      	str	r3, [sp, #0]
10002976:	f7fe f863 	bl	10000a40 <vClearInterruptMask>
1000297a:	9b00      	ldr	r3, [sp, #0]
1000297c:	6b1b      	ldr	r3, [r3, #48]	@ 0x30
1000297e:	6323      	str	r3, [r4, #48]	@ 0x30
10002980:	2001      	movs	r0, #1
10002982:	b003      	add	sp, #12
10002984:	bd30      	pop	{r4, r5, pc}
10002986:	6da4      	ldr	r4, [r4, #88]	@ 0x58
10002988:	f7fe f84e 	bl	10000a28 <ulSetInterruptMask>
1000298c:	f04f 4350 	mov.w	r3, #3489660928	@ 0xd0000000
10002990:	4a23      	ldr	r2, [pc, #140]	@ (10002a20 <xTaskPriorityInherit+0x120>)
10002992:	681b      	ldr	r3, [r3, #0]
10002994:	f852 3023 	ldr.w	r3, [r2, r3, lsl #2]
10002998:	9300      	str	r3, [sp, #0]
1000299a:	f7fe f851 	bl	10000a40 <vClearInterruptMask>
1000299e:	9b00      	ldr	r3, [sp, #0]
100029a0:	6b18      	ldr	r0, [r3, #48]	@ 0x30
100029a2:	4284      	cmp	r4, r0
100029a4:	bf2c      	ite	cs
100029a6:	2000      	movcs	r0, #0
100029a8:	2001      	movcc	r0, #1
100029aa:	b003      	add	sp, #12
100029ac:	bd30      	pop	{r4, r5, pc}
100029ae:	f104 0008 	add.w	r0, r4, #8
100029b2:	f7fe f9bf 	bl	10000d34 <uxListRemove>
100029b6:	f7fe f837 	bl	10000a28 <ulSetInterruptMask>
100029ba:	f04f 4350 	mov.w	r3, #3489660928	@ 0xd0000000
100029be:	4a18      	ldr	r2, [pc, #96]	@ (10002a20 <xTaskPriorityInherit+0x120>)
100029c0:	681b      	ldr	r3, [r3, #0]
100029c2:	f104 0508 	add.w	r5, r4, #8
100029c6:	f852 3023 	ldr.w	r3, [r2, r3, lsl #2]
100029ca:	9300      	str	r3, [sp, #0]
100029cc:	f7fe f838 	bl	10000a40 <vClearInterruptMask>
100029d0:	4915      	ldr	r1, [pc, #84]	@ (10002a28 <xTaskPriorityInherit+0x128>)
100029d2:	9b00      	ldr	r3, [sp, #0]
100029d4:	6808      	ldr	r0, [r1, #0]
100029d6:	6b1b      	ldr	r3, [r3, #48]	@ 0x30
100029d8:	4a12      	ldr	r2, [pc, #72]	@ (10002a24 <xTaskPriorityInherit+0x124>)
100029da:	4283      	cmp	r3, r0
100029dc:	6323      	str	r3, [r4, #48]	@ 0x30
100029de:	bf88      	it	hi
100029e0:	600b      	strhi	r3, [r1, #0]
100029e2:	eb03 0383 	add.w	r3, r3, r3, lsl #2
100029e6:	eb02 0c83 	add.w	ip, r2, r3, lsl #2
100029ea:	f8dc 0004 	ldr.w	r0, [ip, #4]
100029ee:	f852 1023 	ldr.w	r1, [r2, r3, lsl #2]
100029f2:	60e0      	str	r0, [r4, #12]
100029f4:	f8d0 e008 	ldr.w	lr, [r0, #8]
100029f8:	3101      	adds	r1, #1
100029fa:	f8c4 e010 	str.w	lr, [r4, #16]
100029fe:	f8ce 5004 	str.w	r5, [lr, #4]
10002a02:	6085      	str	r5, [r0, #8]
10002a04:	f8c4 c018 	str.w	ip, [r4, #24]
10002a08:	f842 1023 	str.w	r1, [r2, r3, lsl #2]
10002a0c:	6ba3      	ldr	r3, [r4, #56]	@ 0x38
10002a0e:	2b00      	cmp	r3, #0
10002a10:	db02      	blt.n	10002a18 <xTaskPriorityInherit+0x118>
10002a12:	6ba3      	ldr	r3, [r4, #56]	@ 0x38
10002a14:	2b01      	cmp	r3, #1
10002a16:	ddb3      	ble.n	10002980 <xTaskPriorityInherit+0x80>
10002a18:	4620      	mov	r0, r4
10002a1a:	f7fe fe27 	bl	1000166c <prvYieldForTask>
10002a1e:	e7af      	b.n	10002980 <xTaskPriorityInherit+0x80>
10002a20:	20001f08 	.word	0x20001f08
10002a24:	20001f24 	.word	0x20001f24
10002a28:	200221f8 	.word	0x200221f8

10002a2c <xTaskPriorityDisinherit>:
10002a2c:	b140      	cbz	r0, 10002a40 <xTaskPriorityDisinherit+0x14>
10002a2e:	4603      	mov	r3, r0
10002a30:	6dc2      	ldr	r2, [r0, #92]	@ 0x5c
10002a32:	6d99      	ldr	r1, [r3, #88]	@ 0x58
10002a34:	6b00      	ldr	r0, [r0, #48]	@ 0x30
10002a36:	3a01      	subs	r2, #1
10002a38:	4288      	cmp	r0, r1
10002a3a:	65da      	str	r2, [r3, #92]	@ 0x5c
10002a3c:	d000      	beq.n	10002a40 <xTaskPriorityDisinherit+0x14>
10002a3e:	b10a      	cbz	r2, 10002a44 <xTaskPriorityDisinherit+0x18>
10002a40:	2000      	movs	r0, #0
10002a42:	4770      	bx	lr
10002a44:	b530      	push	{r4, r5, lr}
10002a46:	f103 0008 	add.w	r0, r3, #8
10002a4a:	b083      	sub	sp, #12
10002a4c:	f103 0408 	add.w	r4, r3, #8
10002a50:	9301      	str	r3, [sp, #4]
10002a52:	f7fe f96f 	bl	10000d34 <uxListRemove>
10002a56:	9b01      	ldr	r3, [sp, #4]
10002a58:	4924      	ldr	r1, [pc, #144]	@ (10002aec <xTaskPriorityDisinherit+0xc0>)
10002a5a:	6d9a      	ldr	r2, [r3, #88]	@ 0x58
10002a5c:	6808      	ldr	r0, [r1, #0]
10002a5e:	631a      	str	r2, [r3, #48]	@ 0x30
10002a60:	4282      	cmp	r2, r0
10002a62:	bf88      	it	hi
10002a64:	600a      	strhi	r2, [r1, #0]
10002a66:	4922      	ldr	r1, [pc, #136]	@ (10002af0 <xTaskPriorityDisinherit+0xc4>)
10002a68:	f1c2 0c20 	rsb	ip, r2, #32
10002a6c:	eb02 0282 	add.w	r2, r2, r2, lsl #2
10002a70:	eb01 0e82 	add.w	lr, r1, r2, lsl #2
10002a74:	f8c3 c01c 	str.w	ip, [r3, #28]
10002a78:	f8de c004 	ldr.w	ip, [lr, #4]
10002a7c:	f851 0022 	ldr.w	r0, [r1, r2, lsl #2]
10002a80:	f8c3 c00c 	str.w	ip, [r3, #12]
10002a84:	1c45      	adds	r5, r0, #1
10002a86:	f8dc 0008 	ldr.w	r0, [ip, #8]
10002a8a:	6118      	str	r0, [r3, #16]
10002a8c:	6044      	str	r4, [r0, #4]
10002a8e:	f8cc 4008 	str.w	r4, [ip, #8]
10002a92:	f8c3 e018 	str.w	lr, [r3, #24]
10002a96:	f841 5022 	str.w	r5, [r1, r2, lsl #2]
10002a9a:	6b9a      	ldr	r2, [r3, #56]	@ 0x38
10002a9c:	2a00      	cmp	r2, #0
10002a9e:	db02      	blt.n	10002aa6 <xTaskPriorityDisinherit+0x7a>
10002aa0:	6b9a      	ldr	r2, [r3, #56]	@ 0x38
10002aa2:	2a01      	cmp	r2, #1
10002aa4:	dd02      	ble.n	10002aac <xTaskPriorityDisinherit+0x80>
10002aa6:	2001      	movs	r0, #1
10002aa8:	b003      	add	sp, #12
10002aaa:	bd30      	pop	{r4, r5, pc}
10002aac:	f04f 4250 	mov.w	r2, #3489660928	@ 0xd0000000
10002ab0:	6b99      	ldr	r1, [r3, #56]	@ 0x38
10002ab2:	6812      	ldr	r2, [r2, #0]
10002ab4:	4291      	cmp	r1, r2
10002ab6:	d013      	beq.n	10002ae0 <xTaskPriorityDisinherit+0xb4>
10002ab8:	6b99      	ldr	r1, [r3, #56]	@ 0x38
10002aba:	4a0e      	ldr	r2, [pc, #56]	@ (10002af4 <xTaskPriorityDisinherit+0xc8>)
10002abc:	f852 1021 	ldr.w	r1, [r2, r1, lsl #2]
10002ac0:	6b89      	ldr	r1, [r1, #56]	@ 0x38
10002ac2:	3102      	adds	r1, #2
10002ac4:	d0ef      	beq.n	10002aa6 <xTaskPriorityDisinherit+0x7a>
10002ac6:	6b98      	ldr	r0, [r3, #56]	@ 0x38
10002ac8:	9301      	str	r3, [sp, #4]
10002aca:	f7fd ff7b 	bl	100009c4 <vYieldCore>
10002ace:	f06f 0101 	mvn.w	r1, #1
10002ad2:	9b01      	ldr	r3, [sp, #4]
10002ad4:	4a07      	ldr	r2, [pc, #28]	@ (10002af4 <xTaskPriorityDisinherit+0xc8>)
10002ad6:	6b9b      	ldr	r3, [r3, #56]	@ 0x38
10002ad8:	f852 3023 	ldr.w	r3, [r2, r3, lsl #2]
10002adc:	6399      	str	r1, [r3, #56]	@ 0x38
10002ade:	e7e2      	b.n	10002aa6 <xTaskPriorityDisinherit+0x7a>
10002ae0:	2101      	movs	r1, #1
10002ae2:	6b9a      	ldr	r2, [r3, #56]	@ 0x38
10002ae4:	4b04      	ldr	r3, [pc, #16]	@ (10002af8 <xTaskPriorityDisinherit+0xcc>)
10002ae6:	f843 1022 	str.w	r1, [r3, r2, lsl #2]
10002aea:	e7dc      	b.n	10002aa6 <xTaskPriorityDisinherit+0x7a>
10002aec:	200221f8 	.word	0x200221f8
10002af0:	20001f24 	.word	0x20001f24
10002af4:	20001f08 	.word	0x20001f08
10002af8:	200222cc 	.word	0x200222cc

10002afc <vTaskPriorityDisinheritAfterTimeout>:
10002afc:	b150      	cbz	r0, 10002b14 <vTaskPriorityDisinheritAfterTimeout+0x18>
10002afe:	4603      	mov	r3, r0
10002b00:	6d80      	ldr	r0, [r0, #88]	@ 0x58
10002b02:	6b1a      	ldr	r2, [r3, #48]	@ 0x30
10002b04:	4281      	cmp	r1, r0
10002b06:	bf38      	it	cc
10002b08:	4601      	movcc	r1, r0
10002b0a:	428a      	cmp	r2, r1
10002b0c:	d002      	beq.n	10002b14 <vTaskPriorityDisinheritAfterTimeout+0x18>
10002b0e:	6dd8      	ldr	r0, [r3, #92]	@ 0x5c
10002b10:	2801      	cmp	r0, #1
10002b12:	d000      	beq.n	10002b16 <vTaskPriorityDisinheritAfterTimeout+0x1a>
10002b14:	4770      	bx	lr
10002b16:	69d8      	ldr	r0, [r3, #28]
10002b18:	6319      	str	r1, [r3, #48]	@ 0x30
10002b1a:	2800      	cmp	r0, #0
10002b1c:	bfa4      	itt	ge
10002b1e:	f1c1 0120 	rsbge	r1, r1, #32
10002b22:	61d9      	strge	r1, [r3, #28]
10002b24:	492b      	ldr	r1, [pc, #172]	@ (10002bd4 <vTaskPriorityDisinheritAfterTimeout+0xd8>)
10002b26:	6998      	ldr	r0, [r3, #24]
10002b28:	eb02 0282 	add.w	r2, r2, r2, lsl #2
10002b2c:	eb01 0282 	add.w	r2, r1, r2, lsl #2
10002b30:	4290      	cmp	r0, r2
10002b32:	d1ef      	bne.n	10002b14 <vTaskPriorityDisinheritAfterTimeout+0x18>
10002b34:	b530      	push	{r4, r5, lr}
10002b36:	f103 0008 	add.w	r0, r3, #8
10002b3a:	b083      	sub	sp, #12
10002b3c:	f103 0408 	add.w	r4, r3, #8
10002b40:	9301      	str	r3, [sp, #4]
10002b42:	f7fe f8f7 	bl	10000d34 <uxListRemove>
10002b46:	9b01      	ldr	r3, [sp, #4]
10002b48:	4823      	ldr	r0, [pc, #140]	@ (10002bd8 <vTaskPriorityDisinheritAfterTimeout+0xdc>)
10002b4a:	6b1a      	ldr	r2, [r3, #48]	@ 0x30
10002b4c:	f8d0 c000 	ldr.w	ip, [r0]
10002b50:	4920      	ldr	r1, [pc, #128]	@ (10002bd4 <vTaskPriorityDisinheritAfterTimeout+0xd8>)
10002b52:	4562      	cmp	r2, ip
10002b54:	bf88      	it	hi
10002b56:	6002      	strhi	r2, [r0, #0]
10002b58:	eb02 0282 	add.w	r2, r2, r2, lsl #2
10002b5c:	eb01 0e82 	add.w	lr, r1, r2, lsl #2
10002b60:	f8de c004 	ldr.w	ip, [lr, #4]
10002b64:	f851 0022 	ldr.w	r0, [r1, r2, lsl #2]
10002b68:	f8c3 c00c 	str.w	ip, [r3, #12]
10002b6c:	1c45      	adds	r5, r0, #1
10002b6e:	f8dc 0008 	ldr.w	r0, [ip, #8]
10002b72:	6118      	str	r0, [r3, #16]
10002b74:	6044      	str	r4, [r0, #4]
10002b76:	f8cc 4008 	str.w	r4, [ip, #8]
10002b7a:	f8c3 e018 	str.w	lr, [r3, #24]
10002b7e:	f841 5022 	str.w	r5, [r1, r2, lsl #2]
10002b82:	6b9a      	ldr	r2, [r3, #56]	@ 0x38
10002b84:	2a00      	cmp	r2, #0
10002b86:	db02      	blt.n	10002b8e <vTaskPriorityDisinheritAfterTimeout+0x92>
10002b88:	6b9a      	ldr	r2, [r3, #56]	@ 0x38
10002b8a:	2a01      	cmp	r2, #1
10002b8c:	dd01      	ble.n	10002b92 <vTaskPriorityDisinheritAfterTimeout+0x96>
10002b8e:	b003      	add	sp, #12
10002b90:	bd30      	pop	{r4, r5, pc}
10002b92:	f04f 4250 	mov.w	r2, #3489660928	@ 0xd0000000
10002b96:	6b99      	ldr	r1, [r3, #56]	@ 0x38
10002b98:	6812      	ldr	r2, [r2, #0]
10002b9a:	4291      	cmp	r1, r2
10002b9c:	d013      	beq.n	10002bc6 <vTaskPriorityDisinheritAfterTimeout+0xca>
10002b9e:	6b99      	ldr	r1, [r3, #56]	@ 0x38
10002ba0:	4a0e      	ldr	r2, [pc, #56]	@ (10002bdc <vTaskPriorityDisinheritAfterTimeout+0xe0>)
10002ba2:	f852 1021 	ldr.w	r1, [r2, r1, lsl #2]
10002ba6:	6b89      	ldr	r1, [r1, #56]	@ 0x38
10002ba8:	3102      	adds	r1, #2
10002baa:	d0f0      	beq.n	10002b8e <vTaskPriorityDisinheritAfterTimeout+0x92>
10002bac:	6b98      	ldr	r0, [r3, #56]	@ 0x38
10002bae:	9301      	str	r3, [sp, #4]
10002bb0:	f7fd ff08 	bl	100009c4 <vYieldCore>
10002bb4:	f06f 0101 	mvn.w	r1, #1
10002bb8:	9b01      	ldr	r3, [sp, #4]
10002bba:	4a08      	ldr	r2, [pc, #32]	@ (10002bdc <vTaskPriorityDisinheritAfterTimeout+0xe0>)
10002bbc:	6b9b      	ldr	r3, [r3, #56]	@ 0x38
10002bbe:	f852 3023 	ldr.w	r3, [r2, r3, lsl #2]
10002bc2:	6399      	str	r1, [r3, #56]	@ 0x38
10002bc4:	e7e3      	b.n	10002b8e <vTaskPriorityDisinheritAfterTimeout+0x92>
10002bc6:	2101      	movs	r1, #1
10002bc8:	6b9a      	ldr	r2, [r3, #56]	@ 0x38
10002bca:	4b05      	ldr	r3, [pc, #20]	@ (10002be0 <vTaskPriorityDisinheritAfterTimeout+0xe4>)
10002bcc:	f843 1022 	str.w	r1, [r3, r2, lsl #2]
10002bd0:	e7dd      	b.n	10002b8e <vTaskPriorityDisinheritAfterTimeout+0x92>
10002bd2:	bf00      	nop
10002bd4:	20001f24 	.word	0x20001f24
10002bd8:	200221f8 	.word	0x200221f8
10002bdc:	20001f08 	.word	0x20001f08
10002be0:	200222cc 	.word	0x200222cc

10002be4 <vTaskYieldWithinAPI>:
10002be4:	f04f 4350 	mov.w	r3, #3489660928	@ 0xd0000000
10002be8:	4a05      	ldr	r2, [pc, #20]	@ (10002c00 <vTaskYieldWithinAPI+0x1c>)
10002bea:	681b      	ldr	r3, [r3, #0]
10002bec:	f852 2023 	ldr.w	r2, [r2, r3, lsl #2]
10002bf0:	b122      	cbz	r2, 10002bfc <vTaskYieldWithinAPI+0x18>
10002bf2:	2101      	movs	r1, #1
10002bf4:	4a03      	ldr	r2, [pc, #12]	@ (10002c04 <vTaskYieldWithinAPI+0x20>)
10002bf6:	f842 1023 	str.w	r1, [r2, r3, lsl #2]
10002bfa:	4770      	bx	lr
10002bfc:	f7fd bd6e 	b.w	100006dc <vPortYield>
10002c00:	200221c8 	.word	0x200221c8
10002c04:	200222cc 	.word	0x200222cc

10002c08 <vTaskEnterCritical>:
10002c08:	b538      	push	{r3, r4, r5, lr}
10002c0a:	f7fd ff0d 	bl	10000a28 <ulSetInterruptMask>
10002c0e:	4b3e      	ldr	r3, [pc, #248]	@ (10002d08 <vTaskEnterCritical+0x100>)
10002c10:	681b      	ldr	r3, [r3, #0]
10002c12:	b193      	cbz	r3, 10002c3a <vTaskEnterCritical+0x32>
10002c14:	f04f 4350 	mov.w	r3, #3489660928	@ 0xd0000000
10002c18:	4a3c      	ldr	r2, [pc, #240]	@ (10002d0c <vTaskEnterCritical+0x104>)
10002c1a:	681b      	ldr	r3, [r3, #0]
10002c1c:	f852 1023 	ldr.w	r1, [r2, r3, lsl #2]
10002c20:	b1a1      	cbz	r1, 10002c4c <vTaskEnterCritical+0x44>
10002c22:	f04f 4050 	mov.w	r0, #3489660928	@ 0xd0000000
10002c26:	f852 1023 	ldr.w	r1, [r2, r3, lsl #2]
10002c2a:	3101      	adds	r1, #1
10002c2c:	f842 1023 	str.w	r1, [r2, r3, lsl #2]
10002c30:	6803      	ldr	r3, [r0, #0]
10002c32:	f852 3023 	ldr.w	r3, [r2, r3, lsl #2]
10002c36:	2b01      	cmp	r3, #1
10002c38:	d000      	beq.n	10002c3c <vTaskEnterCritical+0x34>
10002c3a:	bd38      	pop	{r3, r4, r5, pc}
10002c3c:	4b34      	ldr	r3, [pc, #208]	@ (10002d10 <vTaskEnterCritical+0x108>)
10002c3e:	681b      	ldr	r3, [r3, #0]
10002c40:	2b00      	cmp	r3, #0
10002c42:	d1fa      	bne.n	10002c3a <vTaskEnterCritical+0x32>
10002c44:	e8bd 4038 	ldmia.w	sp!, {r3, r4, r5, lr}
10002c48:	f7fe be7a 	b.w	10001940 <prvCheckForRunStateChange>
10002c4c:	4931      	ldr	r1, [pc, #196]	@ (10002d14 <vTaskEnterCritical+0x10c>)
10002c4e:	e8d1 0fcf 	ldaexb	r0, [r1]
10002c52:	f05f 0c01 	movs.w	ip, #1
10002c56:	2800      	cmp	r0, #0
10002c58:	d101      	bne.n	10002c5e <vTaskEnterCritical+0x56>
10002c5a:	e8c1 cf40 	strexb	r0, ip, [r1]
10002c5e:	f3bf 8f5f 	dmb	sy
10002c62:	2800      	cmp	r0, #0
10002c64:	d130      	bne.n	10002cc8 <vTaskEnterCritical+0xc0>
10002c66:	482c      	ldr	r0, [pc, #176]	@ (10002d18 <vTaskEnterCritical+0x110>)
10002c68:	ea4f 0c43 	mov.w	ip, r3, lsl #1
10002c6c:	2301      	movs	r3, #1
10002c6e:	492b      	ldr	r1, [pc, #172]	@ (10002d1c <vTaskEnterCritical+0x114>)
10002c70:	4484      	add	ip, r0
10002c72:	704b      	strb	r3, [r1, #1]
10002c74:	f88c 3001 	strb.w	r3, [ip, #1]
10002c78:	f04f 4e50 	mov.w	lr, #3489660928	@ 0xd0000000
10002c7c:	4b28      	ldr	r3, [pc, #160]	@ (10002d20 <vTaskEnterCritical+0x118>)
10002c7e:	f8de c000 	ldr.w	ip, [lr]
10002c82:	e8d3 4fcf 	ldaexb	r4, [r3]
10002c86:	2501      	movs	r5, #1
10002c88:	2c00      	cmp	r4, #0
10002c8a:	d101      	bne.n	10002c90 <vTaskEnterCritical+0x88>
10002c8c:	e8c3 5f44 	strexb	r4, r5, [r3]
10002c90:	f3bf 8f5f 	dmb	sy
10002c94:	b17c      	cbz	r4, 10002cb6 <vTaskEnterCritical+0xae>
10002c96:	f810 401c 	ldrb.w	r4, [r0, ip, lsl #1]
10002c9a:	2c00      	cmp	r4, #0
10002c9c:	d129      	bne.n	10002cf2 <vTaskEnterCritical+0xea>
10002c9e:	e8d3 4fcf 	ldaexb	r4, [r3]
10002ca2:	f05f 0e01 	movs.w	lr, #1
10002ca6:	2c00      	cmp	r4, #0
10002ca8:	d1f9      	bne.n	10002c9e <vTaskEnterCritical+0x96>
10002caa:	e8c3 ef44 	strexb	r4, lr, [r3]
10002cae:	2c00      	cmp	r4, #0
10002cb0:	d1f5      	bne.n	10002c9e <vTaskEnterCritical+0x96>
10002cb2:	f3bf 8f5f 	dmb	sy
10002cb6:	2301      	movs	r3, #1
10002cb8:	f04f 4e50 	mov.w	lr, #3489660928	@ 0xd0000000
10002cbc:	700b      	strb	r3, [r1, #0]
10002cbe:	f800 301c 	strb.w	r3, [r0, ip, lsl #1]
10002cc2:	f8de 3000 	ldr.w	r3, [lr]
10002cc6:	e7ac      	b.n	10002c22 <vTaskEnterCritical+0x1a>
10002cc8:	4813      	ldr	r0, [pc, #76]	@ (10002d18 <vTaskEnterCritical+0x110>)
10002cca:	ea4f 0c43 	mov.w	ip, r3, lsl #1
10002cce:	eb00 0343 	add.w	r3, r0, r3, lsl #1
10002cd2:	785b      	ldrb	r3, [r3, #1]
10002cd4:	b99b      	cbnz	r3, 10002cfe <vTaskEnterCritical+0xf6>
10002cd6:	e8d1 efcf 	ldaexb	lr, [r1]
10002cda:	2301      	movs	r3, #1
10002cdc:	f1be 0f00 	cmp.w	lr, #0
10002ce0:	d1f9      	bne.n	10002cd6 <vTaskEnterCritical+0xce>
10002ce2:	e8c1 3f4e 	strexb	lr, r3, [r1]
10002ce6:	f1be 0f00 	cmp.w	lr, #0
10002cea:	d1f4      	bne.n	10002cd6 <vTaskEnterCritical+0xce>
10002cec:	f3bf 8f5f 	dmb	sy
10002cf0:	e7bc      	b.n	10002c6c <vTaskEnterCritical+0x64>
10002cf2:	780b      	ldrb	r3, [r1, #0]
10002cf4:	3301      	adds	r3, #1
10002cf6:	700b      	strb	r3, [r1, #0]
10002cf8:	f8de 3000 	ldr.w	r3, [lr]
10002cfc:	e791      	b.n	10002c22 <vTaskEnterCritical+0x1a>
10002cfe:	4907      	ldr	r1, [pc, #28]	@ (10002d1c <vTaskEnterCritical+0x114>)
10002d00:	784b      	ldrb	r3, [r1, #1]
10002d02:	3301      	adds	r3, #1
10002d04:	704b      	strb	r3, [r1, #1]
10002d06:	e7b7      	b.n	10002c78 <vTaskEnterCritical+0x70>
10002d08:	2002228c 	.word	0x2002228c
10002d0c:	200221c8 	.word	0x200221c8
10002d10:	200221f0 	.word	0x200221f0
10002d14:	20001643 	.word	0x20001643
10002d18:	200221c0 	.word	0x200221c0
10002d1c:	200221c4 	.word	0x200221c4
10002d20:	20001642 	.word	0x20001642

10002d24 <prvAddNewTaskToReadyList>:
10002d24:	e92d 41f0 	stmdb	sp!, {r4, r5, r6, r7, r8, lr}
10002d28:	4605      	mov	r5, r0
10002d2a:	f7ff ff6d 	bl	10002c08 <vTaskEnterCritical>
10002d2e:	4a2f      	ldr	r2, [pc, #188]	@ (10002dec <prvAddNewTaskToReadyList+0xc8>)
10002d30:	4f2f      	ldr	r7, [pc, #188]	@ (10002df0 <prvAddNewTaskToReadyList+0xcc>)
10002d32:	6813      	ldr	r3, [r2, #0]
10002d34:	3301      	adds	r3, #1
10002d36:	6013      	str	r3, [r2, #0]
10002d38:	683b      	ldr	r3, [r7, #0]
10002d3a:	b35b      	cbz	r3, 10002d94 <prvAddNewTaskToReadyList+0x70>
10002d3c:	4e2d      	ldr	r6, [pc, #180]	@ (10002df4 <prvAddNewTaskToReadyList+0xd0>)
10002d3e:	4b2e      	ldr	r3, [pc, #184]	@ (10002df8 <prvAddNewTaskToReadyList+0xd4>)
10002d40:	f105 0408 	add.w	r4, r5, #8
10002d44:	681a      	ldr	r2, [r3, #0]
10002d46:	3201      	adds	r2, #1
10002d48:	652a      	str	r2, [r5, #80]	@ 0x50
10002d4a:	601a      	str	r2, [r3, #0]
10002d4c:	4a2b      	ldr	r2, [pc, #172]	@ (10002dfc <prvAddNewTaskToReadyList+0xd8>)
10002d4e:	6b2b      	ldr	r3, [r5, #48]	@ 0x30
10002d50:	6811      	ldr	r1, [r2, #0]
10002d52:	428b      	cmp	r3, r1
10002d54:	bf88      	it	hi
10002d56:	6013      	strhi	r3, [r2, #0]
10002d58:	eb03 0383 	add.w	r3, r3, r3, lsl #2
10002d5c:	eb06 0083 	add.w	r0, r6, r3, lsl #2
10002d60:	6841      	ldr	r1, [r0, #4]
10002d62:	f856 2023 	ldr.w	r2, [r6, r3, lsl #2]
10002d66:	60e9      	str	r1, [r5, #12]
10002d68:	f8d1 c008 	ldr.w	ip, [r1, #8]
10002d6c:	f8d7 e000 	ldr.w	lr, [r7]
10002d70:	3201      	adds	r2, #1
10002d72:	f8c5 c010 	str.w	ip, [r5, #16]
10002d76:	f8cc 4004 	str.w	r4, [ip, #4]
10002d7a:	608c      	str	r4, [r1, #8]
10002d7c:	61a8      	str	r0, [r5, #24]
10002d7e:	f846 2023 	str.w	r2, [r6, r3, lsl #2]
10002d82:	f1be 0f00 	cmp.w	lr, #0
10002d86:	d12c      	bne.n	10002de2 <prvAddNewTaskToReadyList+0xbe>
10002d88:	683b      	ldr	r3, [r7, #0]
10002d8a:	b343      	cbz	r3, 10002dde <prvAddNewTaskToReadyList+0xba>
10002d8c:	e8bd 41f0 	ldmia.w	sp!, {r4, r5, r6, r7, r8, lr}
10002d90:	f7fe bcf2 	b.w	10001778 <vTaskExitCritical.part.0>
10002d94:	6813      	ldr	r3, [r2, #0]
10002d96:	4e17      	ldr	r6, [pc, #92]	@ (10002df4 <prvAddNewTaskToReadyList+0xd0>)
10002d98:	2b01      	cmp	r3, #1
10002d9a:	d1d0      	bne.n	10002d3e <prvAddNewTaskToReadyList+0x1a>
10002d9c:	4634      	mov	r4, r6
10002d9e:	f506 7820 	add.w	r8, r6, #640	@ 0x280
10002da2:	4620      	mov	r0, r4
10002da4:	3414      	adds	r4, #20
10002da6:	f7fd ff8b 	bl	10000cc0 <vListInitialise>
10002daa:	45a0      	cmp	r8, r4
10002dac:	d1f9      	bne.n	10002da2 <prvAddNewTaskToReadyList+0x7e>
10002dae:	f8df 8068 	ldr.w	r8, [pc, #104]	@ 10002e18 <prvAddNewTaskToReadyList+0xf4>
10002db2:	4c13      	ldr	r4, [pc, #76]	@ (10002e00 <prvAddNewTaskToReadyList+0xdc>)
10002db4:	4640      	mov	r0, r8
10002db6:	f7fd ff83 	bl	10000cc0 <vListInitialise>
10002dba:	4620      	mov	r0, r4
10002dbc:	f7fd ff80 	bl	10000cc0 <vListInitialise>
10002dc0:	4810      	ldr	r0, [pc, #64]	@ (10002e04 <prvAddNewTaskToReadyList+0xe0>)
10002dc2:	f7fd ff7d 	bl	10000cc0 <vListInitialise>
10002dc6:	4810      	ldr	r0, [pc, #64]	@ (10002e08 <prvAddNewTaskToReadyList+0xe4>)
10002dc8:	f7fd ff7a 	bl	10000cc0 <vListInitialise>
10002dcc:	480f      	ldr	r0, [pc, #60]	@ (10002e0c <prvAddNewTaskToReadyList+0xe8>)
10002dce:	f7fd ff77 	bl	10000cc0 <vListInitialise>
10002dd2:	4b0f      	ldr	r3, [pc, #60]	@ (10002e10 <prvAddNewTaskToReadyList+0xec>)
10002dd4:	f8c3 8000 	str.w	r8, [r3]
10002dd8:	4b0e      	ldr	r3, [pc, #56]	@ (10002e14 <prvAddNewTaskToReadyList+0xf0>)
10002dda:	601c      	str	r4, [r3, #0]
10002ddc:	e7af      	b.n	10002d3e <prvAddNewTaskToReadyList+0x1a>
10002dde:	e8bd 81f0 	ldmia.w	sp!, {r4, r5, r6, r7, r8, pc}
10002de2:	4628      	mov	r0, r5
10002de4:	f7fe fc42 	bl	1000166c <prvYieldForTask>
10002de8:	e7ce      	b.n	10002d88 <prvAddNewTaskToReadyList+0x64>
10002dea:	bf00      	nop
10002dec:	200221e8 	.word	0x200221e8
10002df0:	2002228c 	.word	0x2002228c
10002df4:	20001f24 	.word	0x20001f24
10002df8:	200221f4 	.word	0x200221f4
10002dfc:	200221f8 	.word	0x200221f8
10002e00:	20022238 	.word	0x20022238
10002e04:	20022278 	.word	0x20022278
10002e08:	200222ac 	.word	0x200222ac
10002e0c:	20022298 	.word	0x20022298
10002e10:	20001f14 	.word	0x20001f14
10002e14:	20001f1c 	.word	0x20001f1c
10002e18:	20022224 	.word	0x20022224

10002e1c <xTaskCreate>:
10002e1c:	b510      	push	{r4, lr}
10002e1e:	b082      	sub	sp, #8
10002e20:	9c04      	ldr	r4, [sp, #16]
10002e22:	9400      	str	r4, [sp, #0]
10002e24:	9c05      	ldr	r4, [sp, #20]
10002e26:	9401      	str	r4, [sp, #4]
10002e28:	f7fe fcec 	bl	10001804 <prvCreateTask>
10002e2c:	b138      	cbz	r0, 10002e3e <xTaskCreate+0x22>
10002e2e:	f04f 32ff 	mov.w	r2, #4294967295
10002e32:	6042      	str	r2, [r0, #4]
10002e34:	f7ff ff76 	bl	10002d24 <prvAddNewTaskToReadyList>
10002e38:	2001      	movs	r0, #1
10002e3a:	b002      	add	sp, #8
10002e3c:	bd10      	pop	{r4, pc}
10002e3e:	f04f 30ff 	mov.w	r0, #4294967295
10002e42:	b002      	add	sp, #8
10002e44:	bd10      	pop	{r4, pc}
10002e46:	bf00      	nop

10002e48 <xTaskCreateAffinitySet>:
10002e48:	b510      	push	{r4, lr}
10002e4a:	b082      	sub	sp, #8
10002e4c:	9c04      	ldr	r4, [sp, #16]
10002e4e:	9400      	str	r4, [sp, #0]
10002e50:	9c06      	ldr	r4, [sp, #24]
10002e52:	9401      	str	r4, [sp, #4]
10002e54:	f7fe fcd6 	bl	10001804 <prvCreateTask>
10002e58:	b130      	cbz	r0, 10002e68 <xTaskCreateAffinitySet+0x20>
10002e5a:	9a05      	ldr	r2, [sp, #20]
10002e5c:	6042      	str	r2, [r0, #4]
10002e5e:	f7ff ff61 	bl	10002d24 <prvAddNewTaskToReadyList>
10002e62:	2001      	movs	r0, #1
10002e64:	b002      	add	sp, #8
10002e66:	bd10      	pop	{r4, pc}
10002e68:	f04f 30ff 	mov.w	r0, #4294967295
10002e6c:	b002      	add	sp, #8
10002e6e:	bd10      	pop	{r4, pc}

10002e70 <vTaskStartScheduler>:
10002e70:	e92d 41f0 	stmdb	sp!, {r4, r5, r6, r7, r8, lr}
10002e74:	2330      	movs	r3, #48	@ 0x30
10002e76:	2400      	movs	r4, #0
10002e78:	4e25      	ldr	r6, [pc, #148]	@ (10002f10 <vTaskStartScheduler+0xa0>)
10002e7a:	4a26      	ldr	r2, [pc, #152]	@ (10002f14 <vTaskStartScheduler+0xa4>)
10002e7c:	b086      	sub	sp, #24
10002e7e:	e9cd 6201 	strd	r6, r2, [sp, #4]
10002e82:	f8ad 300c 	strh.w	r3, [sp, #12]
10002e86:	f44f 7200 	mov.w	r2, #512	@ 0x200
10002e8a:	4623      	mov	r3, r4
10002e8c:	4822      	ldr	r0, [pc, #136]	@ (10002f18 <vTaskStartScheduler+0xa8>)
10002e8e:	a902      	add	r1, sp, #8
10002e90:	9400      	str	r4, [sp, #0]
10002e92:	f7fe fcb7 	bl	10001804 <prvCreateTask>
10002e96:	4635      	mov	r5, r6
10002e98:	4f20      	ldr	r7, [pc, #128]	@ (10002f1c <vTaskStartScheduler+0xac>)
10002e9a:	b310      	cbz	r0, 10002ee2 <vTaskStartScheduler+0x72>
10002e9c:	f04f 38ff 	mov.w	r8, #4294967295
10002ea0:	f8c0 8004 	str.w	r8, [r0, #4]
10002ea4:	f7ff ff3e 	bl	10002d24 <prvAddNewTaskToReadyList>
10002ea8:	682b      	ldr	r3, [r5, #0]
10002eaa:	639c      	str	r4, [r3, #56]	@ 0x38
10002eac:	f847 3024 	str.w	r3, [r7, r4, lsl #2]
10002eb0:	b9e4      	cbnz	r4, 10002eec <vTaskStartScheduler+0x7c>
10002eb2:	3504      	adds	r5, #4
10002eb4:	2300      	movs	r3, #0
10002eb6:	2431      	movs	r4, #49	@ 0x31
10002eb8:	f44f 7200 	mov.w	r2, #512	@ 0x200
10002ebc:	4818      	ldr	r0, [pc, #96]	@ (10002f20 <vTaskStartScheduler+0xb0>)
10002ebe:	9501      	str	r5, [sp, #4]
10002ec0:	a902      	add	r1, sp, #8
10002ec2:	9300      	str	r3, [sp, #0]
10002ec4:	f8ad 400c 	strh.w	r4, [sp, #12]
10002ec8:	f7fe fc9c 	bl	10001804 <prvCreateTask>
10002ecc:	2401      	movs	r4, #1
10002ece:	2800      	cmp	r0, #0
10002ed0:	d1e4      	bne.n	10002e9c <vTaskStartScheduler+0x2c>
10002ed2:	6873      	ldr	r3, [r6, #4]
10002ed4:	639c      	str	r4, [r3, #56]	@ 0x38
10002ed6:	607b      	str	r3, [r7, #4]
10002ed8:	4b12      	ldr	r3, [pc, #72]	@ (10002f24 <vTaskStartScheduler+0xb4>)
10002eda:	681b      	ldr	r3, [r3, #0]
10002edc:	b006      	add	sp, #24
10002ede:	e8bd 81f0 	ldmia.w	sp!, {r4, r5, r6, r7, r8, pc}
10002ee2:	f855 3b04 	ldr.w	r3, [r5], #4
10002ee6:	6398      	str	r0, [r3, #56]	@ 0x38
10002ee8:	603b      	str	r3, [r7, #0]
10002eea:	e7e3      	b.n	10002eb4 <vTaskStartScheduler+0x44>
10002eec:	f000 fc78 	bl	100037e0 <xTimerCreateTimerTask>
10002ef0:	2801      	cmp	r0, #1
10002ef2:	d1f1      	bne.n	10002ed8 <vTaskStartScheduler+0x68>
10002ef4:	f7fd fd98 	bl	10000a28 <ulSetInterruptMask>
10002ef8:	2200      	movs	r2, #0
10002efa:	490b      	ldr	r1, [pc, #44]	@ (10002f28 <vTaskStartScheduler+0xb8>)
10002efc:	4b0b      	ldr	r3, [pc, #44]	@ (10002f2c <vTaskStartScheduler+0xbc>)
10002efe:	480c      	ldr	r0, [pc, #48]	@ (10002f30 <vTaskStartScheduler+0xc0>)
10002f00:	f8c0 8000 	str.w	r8, [r0]
10002f04:	600c      	str	r4, [r1, #0]
10002f06:	601a      	str	r2, [r3, #0]
10002f08:	f7fd fc48 	bl	1000079c <xPortStartScheduler>
10002f0c:	e7e4      	b.n	10002ed8 <vTaskStartScheduler+0x68>
10002f0e:	bf00      	nop
10002f10:	20022254 	.word	0x20022254
10002f14:	454c4449 	.word	0x454c4449
10002f18:	10001d51 	.word	0x10001d51
10002f1c:	20001f08 	.word	0x20001f08
10002f20:	1000164d 	.word	0x1000164d
10002f24:	10009898 	.word	0x10009898
10002f28:	2002228c 	.word	0x2002228c
10002f2c:	200222c0 	.word	0x200222c0
10002f30:	20022264 	.word	0x20022264

10002f34 <xTaskResumeAll.part.0>:
10002f34:	e92d 4ff8 	stmdb	sp!, {r3, r4, r5, r6, r7, r8, r9, sl, fp, lr}
10002f38:	f7ff fe66 	bl	10002c08 <vTaskEnterCritical>
10002f3c:	f04f 4050 	mov.w	r0, #3489660928	@ 0xd0000000
10002f40:	4a58      	ldr	r2, [pc, #352]	@ (100030a4 <xTaskResumeAll.part.0+0x170>)
10002f42:	4959      	ldr	r1, [pc, #356]	@ (100030a8 <xTaskResumeAll.part.0+0x174>)
10002f44:	6813      	ldr	r3, [r2, #0]
10002f46:	6804      	ldr	r4, [r0, #0]
10002f48:	3b01      	subs	r3, #1
10002f4a:	6013      	str	r3, [r2, #0]
10002f4c:	784b      	ldrb	r3, [r1, #1]
10002f4e:	6800      	ldr	r0, [r0, #0]
10002f50:	3b01      	subs	r3, #1
10002f52:	b2db      	uxtb	r3, r3
10002f54:	46a3      	mov	fp, r4
10002f56:	704b      	strb	r3, [r1, #1]
10002f58:	b933      	cbnz	r3, 10002f68 <xTaskResumeAll.part.0+0x34>
10002f5a:	4954      	ldr	r1, [pc, #336]	@ (100030ac <xTaskResumeAll.part.0+0x178>)
10002f5c:	eb01 0140 	add.w	r1, r1, r0, lsl #1
10002f60:	704b      	strb	r3, [r1, #1]
10002f62:	4953      	ldr	r1, [pc, #332]	@ (100030b0 <xTaskResumeAll.part.0+0x17c>)
10002f64:	e8c1 3f8f 	stlb	r3, [r1]
10002f68:	6814      	ldr	r4, [r2, #0]
10002f6a:	2c00      	cmp	r4, #0
10002f6c:	d16b      	bne.n	10003046 <xTaskResumeAll.part.0+0x112>
10002f6e:	4b51      	ldr	r3, [pc, #324]	@ (100030b4 <xTaskResumeAll.part.0+0x180>)
10002f70:	6818      	ldr	r0, [r3, #0]
10002f72:	2800      	cmp	r0, #0
10002f74:	d070      	beq.n	10003058 <xTaskResumeAll.part.0+0x124>
10002f76:	f8df e158 	ldr.w	lr, [pc, #344]	@ 100030d0 <xTaskResumeAll.part.0+0x19c>
10002f7a:	f8de 3000 	ldr.w	r3, [lr]
10002f7e:	2b00      	cmp	r3, #0
10002f80:	d053      	beq.n	1000302a <xTaskResumeAll.part.0+0xf6>
10002f82:	f8df a150 	ldr.w	sl, [pc, #336]	@ 100030d4 <xTaskResumeAll.part.0+0x1a0>
10002f86:	494c      	ldr	r1, [pc, #304]	@ (100030b8 <xTaskResumeAll.part.0+0x184>)
10002f88:	f8de 300c 	ldr.w	r3, [lr, #12]
10002f8c:	68db      	ldr	r3, [r3, #12]
10002f8e:	6ada      	ldr	r2, [r3, #44]	@ 0x2c
10002f90:	e9d3 0608 	ldrd	r0, r6, [r3, #32]
10002f94:	6086      	str	r6, [r0, #8]
10002f96:	6a1d      	ldr	r5, [r3, #32]
10002f98:	6850      	ldr	r0, [r2, #4]
10002f9a:	f103 071c 	add.w	r7, r3, #28
10002f9e:	6075      	str	r5, [r6, #4]
10002fa0:	42b8      	cmp	r0, r7
10002fa2:	bf04      	itt	eq
10002fa4:	6a58      	ldreq	r0, [r3, #36]	@ 0x24
10002fa6:	6050      	streq	r0, [r2, #4]
10002fa8:	6810      	ldr	r0, [r2, #0]
10002faa:	62dc      	str	r4, [r3, #44]	@ 0x2c
10002fac:	3801      	subs	r0, #1
10002fae:	6010      	str	r0, [r2, #0]
10002fb0:	699a      	ldr	r2, [r3, #24]
10002fb2:	e9d3 0703 	ldrd	r0, r7, [r3, #12]
10002fb6:	6087      	str	r7, [r0, #8]
10002fb8:	68d8      	ldr	r0, [r3, #12]
10002fba:	f8d2 c004 	ldr.w	ip, [r2, #4]
10002fbe:	6078      	str	r0, [r7, #4]
10002fc0:	6817      	ldr	r7, [r2, #0]
10002fc2:	f103 0008 	add.w	r0, r3, #8
10002fc6:	4584      	cmp	ip, r0
10002fc8:	bf08      	it	eq
10002fca:	691d      	ldreq	r5, [r3, #16]
10002fcc:	f107 37ff 	add.w	r7, r7, #4294967295
10002fd0:	6017      	str	r7, [r2, #0]
10002fd2:	bf08      	it	eq
10002fd4:	6055      	streq	r5, [r2, #4]
10002fd6:	f8da 6000 	ldr.w	r6, [sl]
10002fda:	6b1a      	ldr	r2, [r3, #48]	@ 0x30
10002fdc:	eb02 0782 	add.w	r7, r2, r2, lsl #2
10002fe0:	42b2      	cmp	r2, r6
10002fe2:	46bc      	mov	ip, r7
10002fe4:	eb01 0987 	add.w	r9, r1, r7, lsl #2
10002fe8:	d938      	bls.n	1000305c <xTaskResumeAll.part.0+0x128>
10002fea:	f8d9 6004 	ldr.w	r6, [r9, #4]
10002fee:	f8ca 2000 	str.w	r2, [sl]
10002ff2:	60de      	str	r6, [r3, #12]
10002ff4:	f8d6 c008 	ldr.w	ip, [r6, #8]
10002ff8:	f851 2027 	ldr.w	r2, [r1, r7, lsl #2]
10002ffc:	f8c3 c010 	str.w	ip, [r3, #16]
10003000:	f8cc 0004 	str.w	r0, [ip, #4]
10003004:	60b0      	str	r0, [r6, #8]
10003006:	f8c3 9018 	str.w	r9, [r3, #24]
1000300a:	f8de 3000 	ldr.w	r3, [lr]
1000300e:	3201      	adds	r2, #1
10003010:	f841 2027 	str.w	r2, [r1, r7, lsl #2]
10003014:	2b00      	cmp	r3, #0
10003016:	d1b7      	bne.n	10002f88 <xTaskResumeAll.part.0+0x54>
10003018:	4b28      	ldr	r3, [pc, #160]	@ (100030bc <xTaskResumeAll.part.0+0x188>)
1000301a:	681a      	ldr	r2, [r3, #0]
1000301c:	6812      	ldr	r2, [r2, #0]
1000301e:	2a00      	cmp	r2, #0
10003020:	d13a      	bne.n	10003098 <xTaskResumeAll.part.0+0x164>
10003022:	f04f 32ff 	mov.w	r2, #4294967295
10003026:	4b26      	ldr	r3, [pc, #152]	@ (100030c0 <xTaskResumeAll.part.0+0x18c>)
10003028:	601a      	str	r2, [r3, #0]
1000302a:	4f26      	ldr	r7, [pc, #152]	@ (100030c4 <xTaskResumeAll.part.0+0x190>)
1000302c:	683c      	ldr	r4, [r7, #0]
1000302e:	b364      	cbz	r4, 1000308a <xTaskResumeAll.part.0+0x156>
10003030:	2601      	movs	r6, #1
10003032:	4d25      	ldr	r5, [pc, #148]	@ (100030c8 <xTaskResumeAll.part.0+0x194>)
10003034:	f7ff f836 	bl	100020a4 <xTaskIncrementTick>
10003038:	b108      	cbz	r0, 1000303e <xTaskResumeAll.part.0+0x10a>
1000303a:	f845 602b 	str.w	r6, [r5, fp, lsl #2]
1000303e:	3c01      	subs	r4, #1
10003040:	d1f8      	bne.n	10003034 <xTaskResumeAll.part.0+0x100>
10003042:	603c      	str	r4, [r7, #0]
10003044:	e022      	b.n	1000308c <xTaskResumeAll.part.0+0x158>
10003046:	2400      	movs	r4, #0
10003048:	4b20      	ldr	r3, [pc, #128]	@ (100030cc <xTaskResumeAll.part.0+0x198>)
1000304a:	681b      	ldr	r3, [r3, #0]
1000304c:	b10b      	cbz	r3, 10003052 <xTaskResumeAll.part.0+0x11e>
1000304e:	f7fe fb93 	bl	10001778 <vTaskExitCritical.part.0>
10003052:	4620      	mov	r0, r4
10003054:	e8bd 8ff8 	ldmia.w	sp!, {r3, r4, r5, r6, r7, r8, r9, sl, fp, pc}
10003058:	4604      	mov	r4, r0
1000305a:	e7f5      	b.n	10003048 <xTaskResumeAll.part.0+0x114>
1000305c:	f8d9 6004 	ldr.w	r6, [r9, #4]
10003060:	f851 2027 	ldr.w	r2, [r1, r7, lsl #2]
10003064:	60de      	str	r6, [r3, #12]
10003066:	68b7      	ldr	r7, [r6, #8]
10003068:	3201      	adds	r2, #1
1000306a:	611f      	str	r7, [r3, #16]
1000306c:	6078      	str	r0, [r7, #4]
1000306e:	60b0      	str	r0, [r6, #8]
10003070:	f8c3 9018 	str.w	r9, [r3, #24]
10003074:	f8de 3000 	ldr.w	r3, [lr]
10003078:	f841 202c 	str.w	r2, [r1, ip, lsl #2]
1000307c:	2b00      	cmp	r3, #0
1000307e:	d183      	bne.n	10002f88 <xTaskResumeAll.part.0+0x54>
10003080:	4b0e      	ldr	r3, [pc, #56]	@ (100030bc <xTaskResumeAll.part.0+0x188>)
10003082:	681a      	ldr	r2, [r3, #0]
10003084:	6812      	ldr	r2, [r2, #0]
10003086:	b93a      	cbnz	r2, 10003098 <xTaskResumeAll.part.0+0x164>
10003088:	e7cb      	b.n	10003022 <xTaskResumeAll.part.0+0xee>
1000308a:	4d0f      	ldr	r5, [pc, #60]	@ (100030c8 <xTaskResumeAll.part.0+0x194>)
1000308c:	f855 402b 	ldr.w	r4, [r5, fp, lsl #2]
10003090:	3c00      	subs	r4, #0
10003092:	bf18      	it	ne
10003094:	2401      	movne	r4, #1
10003096:	e7d7      	b.n	10003048 <xTaskResumeAll.part.0+0x114>
10003098:	681a      	ldr	r2, [r3, #0]
1000309a:	4b09      	ldr	r3, [pc, #36]	@ (100030c0 <xTaskResumeAll.part.0+0x18c>)
1000309c:	68d2      	ldr	r2, [r2, #12]
1000309e:	6812      	ldr	r2, [r2, #0]
100030a0:	601a      	str	r2, [r3, #0]
100030a2:	e7c2      	b.n	1000302a <xTaskResumeAll.part.0+0xf6>
100030a4:	200221f0 	.word	0x200221f0
100030a8:	200221c4 	.word	0x200221c4
100030ac:	200221c0 	.word	0x200221c0
100030b0:	20001643 	.word	0x20001643
100030b4:	200221e8 	.word	0x200221e8
100030b8:	20001f24 	.word	0x20001f24
100030bc:	20001f14 	.word	0x20001f14
100030c0:	20022264 	.word	0x20022264
100030c4:	20022274 	.word	0x20022274
100030c8:	200222cc 	.word	0x200222cc
100030cc:	2002228c 	.word	0x2002228c
100030d0:	20022278 	.word	0x20022278
100030d4:	200221f8 	.word	0x200221f8

100030d8 <xTaskResumeAll>:
100030d8:	4b02      	ldr	r3, [pc, #8]	@ (100030e4 <xTaskResumeAll+0xc>)
100030da:	6818      	ldr	r0, [r3, #0]
100030dc:	b900      	cbnz	r0, 100030e0 <xTaskResumeAll+0x8>
100030de:	4770      	bx	lr
100030e0:	f7ff bf28 	b.w	10002f34 <xTaskResumeAll.part.0>
100030e4:	2002228c 	.word	0x2002228c

100030e8 <vTaskDelay>:
100030e8:	b500      	push	{lr}
100030ea:	b083      	sub	sp, #12
100030ec:	b140      	cbz	r0, 10003100 <vTaskDelay+0x18>
100030ee:	4b12      	ldr	r3, [pc, #72]	@ (10003138 <vTaskDelay+0x50>)
100030f0:	681a      	ldr	r2, [r3, #0]
100030f2:	b9e2      	cbnz	r2, 1000312e <vTaskDelay+0x46>
100030f4:	2100      	movs	r1, #0
100030f6:	f7fe fe39 	bl	10001d6c <prvAddCurrentTaskToDelayedList>
100030fa:	4b0f      	ldr	r3, [pc, #60]	@ (10003138 <vTaskDelay+0x50>)
100030fc:	681b      	ldr	r3, [r3, #0]
100030fe:	b98b      	cbnz	r3, 10003124 <vTaskDelay+0x3c>
10003100:	f04f 4350 	mov.w	r3, #3489660928	@ 0xd0000000
10003104:	4a0d      	ldr	r2, [pc, #52]	@ (1000313c <vTaskDelay+0x54>)
10003106:	681b      	ldr	r3, [r3, #0]
10003108:	f852 2023 	ldr.w	r2, [r2, r3, lsl #2]
1000310c:	b12a      	cbz	r2, 1000311a <vTaskDelay+0x32>
1000310e:	2101      	movs	r1, #1
10003110:	4a0b      	ldr	r2, [pc, #44]	@ (10003140 <vTaskDelay+0x58>)
10003112:	f842 1023 	str.w	r1, [r2, r3, lsl #2]
10003116:	b003      	add	sp, #12
10003118:	bd00      	pop	{pc}
1000311a:	b003      	add	sp, #12
1000311c:	f85d eb04 	ldr.w	lr, [sp], #4
10003120:	f7fd badc 	b.w	100006dc <vPortYield>
10003124:	f7ff ff06 	bl	10002f34 <xTaskResumeAll.part.0>
10003128:	2800      	cmp	r0, #0
1000312a:	d0e9      	beq.n	10003100 <vTaskDelay+0x18>
1000312c:	e7f3      	b.n	10003116 <vTaskDelay+0x2e>
1000312e:	9001      	str	r0, [sp, #4]
10003130:	f7fe fcb4 	bl	10001a9c <vTaskSuspendAll.part.0>
10003134:	9801      	ldr	r0, [sp, #4]
10003136:	e7dd      	b.n	100030f4 <vTaskDelay+0xc>
10003138:	2002228c 	.word	0x2002228c
1000313c:	200221c8 	.word	0x200221c8
10003140:	200222cc 	.word	0x200222cc

10003144 <vTaskRemoveFromUnorderedEventList>:
10003144:	f041 4100 	orr.w	r1, r1, #2147483648	@ 0x80000000
10003148:	b538      	push	{r3, r4, r5, lr}
1000314a:	e9d0 5201 	ldrd	r5, r2, [r0, #4]
1000314e:	68c4      	ldr	r4, [r0, #12]
10003150:	6903      	ldr	r3, [r0, #16]
10003152:	6001      	str	r1, [r0, #0]
10003154:	60aa      	str	r2, [r5, #8]
10003156:	6055      	str	r5, [r2, #4]
10003158:	2500      	movs	r5, #0
1000315a:	6859      	ldr	r1, [r3, #4]
1000315c:	f104 0c08 	add.w	ip, r4, #8
10003160:	4281      	cmp	r1, r0
10003162:	bf08      	it	eq
10003164:	605a      	streq	r2, [r3, #4]
10003166:	681a      	ldr	r2, [r3, #0]
10003168:	e9d4 e103 	ldrd	lr, r1, [r4, #12]
1000316c:	3a01      	subs	r2, #1
1000316e:	6105      	str	r5, [r0, #16]
10003170:	601a      	str	r2, [r3, #0]
10003172:	69a3      	ldr	r3, [r4, #24]
10003174:	f8ce 1008 	str.w	r1, [lr, #8]
10003178:	68e2      	ldr	r2, [r4, #12]
1000317a:	604a      	str	r2, [r1, #4]
1000317c:	685a      	ldr	r2, [r3, #4]
1000317e:	4916      	ldr	r1, [pc, #88]	@ (100031d8 <vTaskRemoveFromUnorderedEventList+0x94>)
10003180:	4562      	cmp	r2, ip
10003182:	bf04      	itt	eq
10003184:	6922      	ldreq	r2, [r4, #16]
10003186:	605a      	streq	r2, [r3, #4]
10003188:	681a      	ldr	r2, [r3, #0]
1000318a:	3a01      	subs	r2, #1
1000318c:	601a      	str	r2, [r3, #0]
1000318e:	6b23      	ldr	r3, [r4, #48]	@ 0x30
10003190:	680a      	ldr	r2, [r1, #0]
10003192:	4293      	cmp	r3, r2
10003194:	4a11      	ldr	r2, [pc, #68]	@ (100031dc <vTaskRemoveFromUnorderedEventList+0x98>)
10003196:	bf88      	it	hi
10003198:	600b      	strhi	r3, [r1, #0]
1000319a:	eb03 0383 	add.w	r3, r3, r3, lsl #2
1000319e:	eb02 0083 	add.w	r0, r2, r3, lsl #2
100031a2:	6841      	ldr	r1, [r0, #4]
100031a4:	60e1      	str	r1, [r4, #12]
100031a6:	688d      	ldr	r5, [r1, #8]
100031a8:	6125      	str	r5, [r4, #16]
100031aa:	f8c5 c004 	str.w	ip, [r5, #4]
100031ae:	f8c1 c008 	str.w	ip, [r1, #8]
100031b2:	f852 1023 	ldr.w	r1, [r2, r3, lsl #2]
100031b6:	61a0      	str	r0, [r4, #24]
100031b8:	3101      	adds	r1, #1
100031ba:	f842 1023 	str.w	r1, [r2, r3, lsl #2]
100031be:	f7ff fd23 	bl	10002c08 <vTaskEnterCritical>
100031c2:	4620      	mov	r0, r4
100031c4:	f7fe fa52 	bl	1000166c <prvYieldForTask>
100031c8:	4b05      	ldr	r3, [pc, #20]	@ (100031e0 <vTaskRemoveFromUnorderedEventList+0x9c>)
100031ca:	681b      	ldr	r3, [r3, #0]
100031cc:	b11b      	cbz	r3, 100031d6 <vTaskRemoveFromUnorderedEventList+0x92>
100031ce:	e8bd 4038 	ldmia.w	sp!, {r3, r4, r5, lr}
100031d2:	f7fe bad1 	b.w	10001778 <vTaskExitCritical.part.0>
100031d6:	bd38      	pop	{r3, r4, r5, pc}
100031d8:	200221f8 	.word	0x200221f8
100031dc:	20001f24 	.word	0x20001f24
100031e0:	2002228c 	.word	0x2002228c

100031e4 <xTaskCheckForTimeOut>:
100031e4:	e92d 43f0 	stmdb	sp!, {r4, r5, r6, r7, r8, r9, lr}
100031e8:	4604      	mov	r4, r0
100031ea:	f04f 4650 	mov.w	r6, #3489660928	@ 0xd0000000
100031ee:	4f23      	ldr	r7, [pc, #140]	@ (1000327c <xTaskCheckForTimeOut+0x98>)
100031f0:	b083      	sub	sp, #12
100031f2:	9101      	str	r1, [sp, #4]
100031f4:	f7ff fd08 	bl	10002c08 <vTaskEnterCritical>
100031f8:	683b      	ldr	r3, [r7, #0]
100031fa:	4d21      	ldr	r5, [pc, #132]	@ (10003280 <xTaskCheckForTimeOut+0x9c>)
100031fc:	4698      	mov	r8, r3
100031fe:	6863      	ldr	r3, [r4, #4]
10003200:	4699      	mov	r9, r3
10003202:	f7fd fc11 	bl	10000a28 <ulSetInterruptMask>
10003206:	6833      	ldr	r3, [r6, #0]
10003208:	f855 3023 	ldr.w	r3, [r5, r3, lsl #2]
1000320c:	9300      	str	r3, [sp, #0]
1000320e:	f7fd fc17 	bl	10000a40 <vClearInterruptMask>
10003212:	9b00      	ldr	r3, [sp, #0]
10003214:	9901      	ldr	r1, [sp, #4]
10003216:	f893 3079 	ldrb.w	r3, [r3, #121]	@ 0x79
1000321a:	bb23      	cbnz	r3, 10003266 <xTaskCheckForTimeOut+0x82>
1000321c:	680b      	ldr	r3, [r1, #0]
1000321e:	1c5a      	adds	r2, r3, #1
10003220:	d017      	beq.n	10003252 <xTaskCheckForTimeOut+0x6e>
10003222:	4a18      	ldr	r2, [pc, #96]	@ (10003284 <xTaskCheckForTimeOut+0xa0>)
10003224:	6820      	ldr	r0, [r4, #0]
10003226:	6815      	ldr	r5, [r2, #0]
10003228:	42a8      	cmp	r0, r5
1000322a:	d006      	beq.n	1000323a <xTaskCheckForTimeOut+0x56>
1000322c:	6860      	ldr	r0, [r4, #4]
1000322e:	4540      	cmp	r0, r8
10003230:	d803      	bhi.n	1000323a <xTaskCheckForTimeOut+0x56>
10003232:	2300      	movs	r3, #0
10003234:	600b      	str	r3, [r1, #0]
10003236:	2401      	movs	r4, #1
10003238:	e00c      	b.n	10003254 <xTaskCheckForTimeOut+0x70>
1000323a:	eba8 0009 	sub.w	r0, r8, r9
1000323e:	4283      	cmp	r3, r0
10003240:	d9f7      	bls.n	10003232 <xTaskCheckForTimeOut+0x4e>
10003242:	6810      	ldr	r0, [r2, #0]
10003244:	eba3 0308 	sub.w	r3, r3, r8
10003248:	683a      	ldr	r2, [r7, #0]
1000324a:	444b      	add	r3, r9
1000324c:	600b      	str	r3, [r1, #0]
1000324e:	e9c4 0200 	strd	r0, r2, [r4]
10003252:	2400      	movs	r4, #0
10003254:	4b0c      	ldr	r3, [pc, #48]	@ (10003288 <xTaskCheckForTimeOut+0xa4>)
10003256:	681b      	ldr	r3, [r3, #0]
10003258:	b10b      	cbz	r3, 1000325e <xTaskCheckForTimeOut+0x7a>
1000325a:	f7fe fa8d 	bl	10001778 <vTaskExitCritical.part.0>
1000325e:	4620      	mov	r0, r4
10003260:	b003      	add	sp, #12
10003262:	e8bd 83f0 	ldmia.w	sp!, {r4, r5, r6, r7, r8, r9, pc}
10003266:	f7fd fbdf 	bl	10000a28 <ulSetInterruptMask>
1000326a:	6833      	ldr	r3, [r6, #0]
1000326c:	f855 4023 	ldr.w	r4, [r5, r3, lsl #2]
10003270:	f7fd fbe6 	bl	10000a40 <vClearInterruptMask>
10003274:	2300      	movs	r3, #0
10003276:	f884 3079 	strb.w	r3, [r4, #121]	@ 0x79
1000327a:	e7dc      	b.n	10003236 <xTaskCheckForTimeOut+0x52>
1000327c:	200222c0 	.word	0x200222c0
10003280:	20001f08 	.word	0x20001f08
10003284:	20022268 	.word	0x20022268
10003288:	2002228c 	.word	0x2002228c

1000328c <vTaskEnterCriticalFromISR>:
1000328c:	4b22      	ldr	r3, [pc, #136]	@ (10003318 <vTaskEnterCriticalFromISR+0x8c>)
1000328e:	6818      	ldr	r0, [r3, #0]
10003290:	b900      	cbnz	r0, 10003294 <vTaskEnterCriticalFromISR+0x8>
10003292:	4770      	bx	lr
10003294:	b510      	push	{r4, lr}
10003296:	f7fd fbc7 	bl	10000a28 <ulSetInterruptMask>
1000329a:	f04f 4250 	mov.w	r2, #3489660928	@ 0xd0000000
1000329e:	f8df c084 	ldr.w	ip, [pc, #132]	@ 10003324 <vTaskEnterCriticalFromISR+0x98>
100032a2:	6813      	ldr	r3, [r2, #0]
100032a4:	f85c 1023 	ldr.w	r1, [ip, r3, lsl #2]
100032a8:	b129      	cbz	r1, 100032b6 <vTaskEnterCriticalFromISR+0x2a>
100032aa:	f85c 2023 	ldr.w	r2, [ip, r3, lsl #2]
100032ae:	3201      	adds	r2, #1
100032b0:	f84c 2023 	str.w	r2, [ip, r3, lsl #2]
100032b4:	bd10      	pop	{r4, pc}
100032b6:	4919      	ldr	r1, [pc, #100]	@ (1000331c <vTaskEnterCriticalFromISR+0x90>)
100032b8:	e8d1 efcf 	ldaexb	lr, [r1]
100032bc:	2401      	movs	r4, #1
100032be:	f1be 0f00 	cmp.w	lr, #0
100032c2:	d101      	bne.n	100032c8 <vTaskEnterCriticalFromISR+0x3c>
100032c4:	e8c1 4f4e 	strexb	lr, r4, [r1]
100032c8:	f3bf 8f5f 	dmb	sy
100032cc:	f1be 0f00 	cmp.w	lr, #0
100032d0:	d10a      	bne.n	100032e8 <vTaskEnterCriticalFromISR+0x5c>
100032d2:	f8df e054 	ldr.w	lr, [pc, #84]	@ 10003328 <vTaskEnterCriticalFromISR+0x9c>
100032d6:	2201      	movs	r2, #1
100032d8:	4911      	ldr	r1, [pc, #68]	@ (10003320 <vTaskEnterCriticalFromISR+0x94>)
100032da:	700a      	strb	r2, [r1, #0]
100032dc:	f80e 2013 	strb.w	r2, [lr, r3, lsl #1]
100032e0:	f04f 4350 	mov.w	r3, #3489660928	@ 0xd0000000
100032e4:	681b      	ldr	r3, [r3, #0]
100032e6:	e7e0      	b.n	100032aa <vTaskEnterCriticalFromISR+0x1e>
100032e8:	f8df e03c 	ldr.w	lr, [pc, #60]	@ 10003328 <vTaskEnterCriticalFromISR+0x9c>
100032ec:	f81e 4013 	ldrb.w	r4, [lr, r3, lsl #1]
100032f0:	b95c      	cbnz	r4, 1000330a <vTaskEnterCriticalFromISR+0x7e>
100032f2:	e8d1 4fcf 	ldaexb	r4, [r1]
100032f6:	2201      	movs	r2, #1
100032f8:	2c00      	cmp	r4, #0
100032fa:	d1fa      	bne.n	100032f2 <vTaskEnterCriticalFromISR+0x66>
100032fc:	e8c1 2f44 	strexb	r4, r2, [r1]
10003300:	2c00      	cmp	r4, #0
10003302:	d1f6      	bne.n	100032f2 <vTaskEnterCriticalFromISR+0x66>
10003304:	f3bf 8f5f 	dmb	sy
10003308:	e7e5      	b.n	100032d6 <vTaskEnterCriticalFromISR+0x4a>
1000330a:	4905      	ldr	r1, [pc, #20]	@ (10003320 <vTaskEnterCriticalFromISR+0x94>)
1000330c:	780b      	ldrb	r3, [r1, #0]
1000330e:	3301      	adds	r3, #1
10003310:	700b      	strb	r3, [r1, #0]
10003312:	6813      	ldr	r3, [r2, #0]
10003314:	e7c9      	b.n	100032aa <vTaskEnterCriticalFromISR+0x1e>
10003316:	bf00      	nop
10003318:	2002228c 	.word	0x2002228c
1000331c:	20001642 	.word	0x20001642
10003320:	200221c4 	.word	0x200221c4
10003324:	200221c8 	.word	0x200221c8
10003328:	200221c0 	.word	0x200221c0

1000332c <vTaskExitCritical>:
1000332c:	4b1e      	ldr	r3, [pc, #120]	@ (100033a8 <vTaskExitCritical+0x7c>)
1000332e:	681b      	ldr	r3, [r3, #0]
10003330:	2b00      	cmp	r3, #0
10003332:	d033      	beq.n	1000339c <vTaskExitCritical+0x70>
10003334:	f04f 4150 	mov.w	r1, #3489660928	@ 0xd0000000
10003338:	4b1c      	ldr	r3, [pc, #112]	@ (100033ac <vTaskExitCritical+0x80>)
1000333a:	680a      	ldr	r2, [r1, #0]
1000333c:	f853 0022 	ldr.w	r0, [r3, r2, lsl #2]
10003340:	b360      	cbz	r0, 1000339c <vTaskExitCritical+0x70>
10003342:	f853 0022 	ldr.w	r0, [r3, r2, lsl #2]
10003346:	3801      	subs	r0, #1
10003348:	f843 0022 	str.w	r0, [r3, r2, lsl #2]
1000334c:	680a      	ldr	r2, [r1, #0]
1000334e:	f853 3022 	ldr.w	r3, [r3, r2, lsl #2]
10003352:	bb1b      	cbnz	r3, 1000339c <vTaskExitCritical+0x70>
10003354:	b510      	push	{r4, lr}
10003356:	4b16      	ldr	r3, [pc, #88]	@ (100033b0 <vTaskExitCritical+0x84>)
10003358:	4816      	ldr	r0, [pc, #88]	@ (100033b4 <vTaskExitCritical+0x88>)
1000335a:	f853 3022 	ldr.w	r3, [r3, r2, lsl #2]
1000335e:	461c      	mov	r4, r3
10003360:	7803      	ldrb	r3, [r0, #0]
10003362:	3b01      	subs	r3, #1
10003364:	b2db      	uxtb	r3, r3
10003366:	7003      	strb	r3, [r0, #0]
10003368:	b93b      	cbnz	r3, 1000337a <vTaskExitCritical+0x4e>
1000336a:	f8df c050 	ldr.w	ip, [pc, #80]	@ 100033bc <vTaskExitCritical+0x90>
1000336e:	f80c 3012 	strb.w	r3, [ip, r2, lsl #1]
10003372:	4a11      	ldr	r2, [pc, #68]	@ (100033b8 <vTaskExitCritical+0x8c>)
10003374:	e8c2 3f8f 	stlb	r3, [r2]
10003378:	680a      	ldr	r2, [r1, #0]
1000337a:	7843      	ldrb	r3, [r0, #1]
1000337c:	3b01      	subs	r3, #1
1000337e:	b2db      	uxtb	r3, r3
10003380:	7043      	strb	r3, [r0, #1]
10003382:	b933      	cbnz	r3, 10003392 <vTaskExitCritical+0x66>
10003384:	490d      	ldr	r1, [pc, #52]	@ (100033bc <vTaskExitCritical+0x90>)
10003386:	480e      	ldr	r0, [pc, #56]	@ (100033c0 <vTaskExitCritical+0x94>)
10003388:	eb01 0242 	add.w	r2, r1, r2, lsl #1
1000338c:	7053      	strb	r3, [r2, #1]
1000338e:	e8c0 3f8f 	stlb	r3, [r0]
10003392:	2000      	movs	r0, #0
10003394:	f7fd fb54 	bl	10000a40 <vClearInterruptMask>
10003398:	b90c      	cbnz	r4, 1000339e <vTaskExitCritical+0x72>
1000339a:	bd10      	pop	{r4, pc}
1000339c:	4770      	bx	lr
1000339e:	e8bd 4010 	ldmia.w	sp!, {r4, lr}
100033a2:	f7fd b99b 	b.w	100006dc <vPortYield>
100033a6:	bf00      	nop
100033a8:	2002228c 	.word	0x2002228c
100033ac:	200221c8 	.word	0x200221c8
100033b0:	200222cc 	.word	0x200222cc
100033b4:	200221c4 	.word	0x200221c4
100033b8:	20001642 	.word	0x20001642
100033bc:	200221c0 	.word	0x200221c0
100033c0:	20001643 	.word	0x20001643

100033c4 <vTaskExitCriticalFromISR>:
100033c4:	4b12      	ldr	r3, [pc, #72]	@ (10003410 <vTaskExitCriticalFromISR+0x4c>)
100033c6:	681b      	ldr	r3, [r3, #0]
100033c8:	b30b      	cbz	r3, 1000340e <vTaskExitCriticalFromISR+0x4a>
100033ca:	f04f 4150 	mov.w	r1, #3489660928	@ 0xd0000000
100033ce:	4b11      	ldr	r3, [pc, #68]	@ (10003414 <vTaskExitCriticalFromISR+0x50>)
100033d0:	680a      	ldr	r2, [r1, #0]
100033d2:	f853 c022 	ldr.w	ip, [r3, r2, lsl #2]
100033d6:	f1bc 0f00 	cmp.w	ip, #0
100033da:	d018      	beq.n	1000340e <vTaskExitCriticalFromISR+0x4a>
100033dc:	f853 c022 	ldr.w	ip, [r3, r2, lsl #2]
100033e0:	f10c 3cff 	add.w	ip, ip, #4294967295
100033e4:	f843 c022 	str.w	ip, [r3, r2, lsl #2]
100033e8:	680a      	ldr	r2, [r1, #0]
100033ea:	f853 3022 	ldr.w	r3, [r3, r2, lsl #2]
100033ee:	b973      	cbnz	r3, 1000340e <vTaskExitCriticalFromISR+0x4a>
100033f0:	4909      	ldr	r1, [pc, #36]	@ (10003418 <vTaskExitCriticalFromISR+0x54>)
100033f2:	780b      	ldrb	r3, [r1, #0]
100033f4:	3b01      	subs	r3, #1
100033f6:	b2db      	uxtb	r3, r3
100033f8:	700b      	strb	r3, [r1, #0]
100033fa:	b933      	cbnz	r3, 1000340a <vTaskExitCriticalFromISR+0x46>
100033fc:	f8df c020 	ldr.w	ip, [pc, #32]	@ 10003420 <vTaskExitCriticalFromISR+0x5c>
10003400:	4906      	ldr	r1, [pc, #24]	@ (1000341c <vTaskExitCriticalFromISR+0x58>)
10003402:	f80c 3012 	strb.w	r3, [ip, r2, lsl #1]
10003406:	e8c1 3f8f 	stlb	r3, [r1]
1000340a:	f7fd bb19 	b.w	10000a40 <vClearInterruptMask>
1000340e:	4770      	bx	lr
10003410:	2002228c 	.word	0x2002228c
10003414:	200221c8 	.word	0x200221c8
10003418:	200221c4 	.word	0x200221c4
1000341c:	20001642 	.word	0x20001642
10003420:	200221c0 	.word	0x200221c0

10003424 <uxTaskResetEventItemValue>:
10003424:	b5f8      	push	{r3, r4, r5, r6, r7, lr}
10003426:	f04f 4650 	mov.w	r6, #3489660928	@ 0xd0000000
1000342a:	f7fd fafd 	bl	10000a28 <ulSetInterruptMask>
1000342e:	4d0d      	ldr	r5, [pc, #52]	@ (10003464 <uxTaskResetEventItemValue+0x40>)
10003430:	6833      	ldr	r3, [r6, #0]
10003432:	f855 4023 	ldr.w	r4, [r5, r3, lsl #2]
10003436:	f7fd fb03 	bl	10000a40 <vClearInterruptMask>
1000343a:	69e7      	ldr	r7, [r4, #28]
1000343c:	f7fd faf4 	bl	10000a28 <ulSetInterruptMask>
10003440:	6833      	ldr	r3, [r6, #0]
10003442:	f855 4023 	ldr.w	r4, [r5, r3, lsl #2]
10003446:	f7fd fafb 	bl	10000a40 <vClearInterruptMask>
1000344a:	6b24      	ldr	r4, [r4, #48]	@ 0x30
1000344c:	f7fd faec 	bl	10000a28 <ulSetInterruptMask>
10003450:	6833      	ldr	r3, [r6, #0]
10003452:	f1c4 0420 	rsb	r4, r4, #32
10003456:	f855 5023 	ldr.w	r5, [r5, r3, lsl #2]
1000345a:	f7fd faf1 	bl	10000a40 <vClearInterruptMask>
1000345e:	4638      	mov	r0, r7
10003460:	61ec      	str	r4, [r5, #28]
10003462:	bdf8      	pop	{r3, r4, r5, r6, r7, pc}
10003464:	20001f08 	.word	0x20001f08

10003468 <pvTaskIncrementMutexHeldCount>:
10003468:	b510      	push	{r4, lr}
1000346a:	f7fd fadd 	bl	10000a28 <ulSetInterruptMask>
1000346e:	f04f 4250 	mov.w	r2, #3489660928	@ 0xd0000000
10003472:	4b06      	ldr	r3, [pc, #24]	@ (1000348c <pvTaskIncrementMutexHeldCount+0x24>)
10003474:	6812      	ldr	r2, [r2, #0]
10003476:	f853 4022 	ldr.w	r4, [r3, r2, lsl #2]
1000347a:	f7fd fae1 	bl	10000a40 <vClearInterruptMask>
1000347e:	b114      	cbz	r4, 10003486 <pvTaskIncrementMutexHeldCount+0x1e>
10003480:	6de3      	ldr	r3, [r4, #92]	@ 0x5c
10003482:	3301      	adds	r3, #1
10003484:	65e3      	str	r3, [r4, #92]	@ 0x5c
10003486:	4620      	mov	r0, r4
10003488:	bd10      	pop	{r4, pc}
1000348a:	bf00      	nop
1000348c:	20001f08 	.word	0x20001f08

10003490 <prvTimerTask>:
10003490:	e92d 4ff0 	stmdb	sp!, {r4, r5, r6, r7, r8, r9, sl, fp, lr}
10003494:	4fac      	ldr	r7, [pc, #688]	@ (10003748 <prvTimerTask+0x2b8>)
10003496:	f8df b2b8 	ldr.w	fp, [pc, #696]	@ 10003750 <prvTimerTask+0x2c0>
1000349a:	f8df 82b8 	ldr.w	r8, [pc, #696]	@ 10003754 <prvTimerTask+0x2c4>
1000349e:	4dab      	ldr	r5, [pc, #684]	@ (1000374c <prvTimerTask+0x2bc>)
100034a0:	b087      	sub	sp, #28
100034a2:	683b      	ldr	r3, [r7, #0]
100034a4:	681c      	ldr	r4, [r3, #0]
100034a6:	2c00      	cmp	r4, #0
100034a8:	f040 811d 	bne.w	100036e6 <prvTimerTask+0x256>
100034ac:	f7fe fde6 	bl	1000207c <vTaskSuspendAll>
100034b0:	f7fe fdec 	bl	1000208c <xTaskGetTickCount>
100034b4:	f8db 3000 	ldr.w	r3, [fp]
100034b8:	4681      	mov	r9, r0
100034ba:	4283      	cmp	r3, r0
100034bc:	d847      	bhi.n	1000354e <prvTimerTask+0xbe>
100034be:	f8d8 3000 	ldr.w	r3, [r8]
100034c2:	f8cb 0000 	str.w	r0, [fp]
100034c6:	681a      	ldr	r2, [r3, #0]
100034c8:	fab2 f282 	clz	r2, r2
100034cc:	0952      	lsrs	r2, r2, #5
100034ce:	6828      	ldr	r0, [r5, #0]
100034d0:	eba4 0109 	sub.w	r1, r4, r9
100034d4:	f7fe f892 	bl	100015fc <vQueueWaitForMessageRestricted>
100034d8:	f7ff fdfe 	bl	100030d8 <xTaskResumeAll>
100034dc:	2800      	cmp	r0, #0
100034de:	f000 8124 	beq.w	1000372a <prvTimerTask+0x29a>
100034e2:	2300      	movs	r3, #0
100034e4:	e9cd 3302 	strd	r3, r3, [sp, #8]
100034e8:	e9cd 3304 	strd	r3, r3, [sp, #16]
100034ec:	2200      	movs	r2, #0
100034ee:	6828      	ldr	r0, [r5, #0]
100034f0:	a902      	add	r1, sp, #8
100034f2:	f7fd fed9 	bl	100012a8 <xQueueReceive>
100034f6:	2800      	cmp	r0, #0
100034f8:	d0d3      	beq.n	100034a2 <prvTimerTask+0x12>
100034fa:	9b02      	ldr	r3, [sp, #8]
100034fc:	2b00      	cmp	r3, #0
100034fe:	f2c0 80e9 	blt.w	100036d4 <prvTimerTask+0x244>
10003502:	f8dd a010 	ldr.w	sl, [sp, #16]
10003506:	f8da 3014 	ldr.w	r3, [sl, #20]
1000350a:	b11b      	cbz	r3, 10003514 <prvTimerTask+0x84>
1000350c:	f10a 0004 	add.w	r0, sl, #4
10003510:	f7fd fc10 	bl	10000d34 <uxListRemove>
10003514:	f7fe fdba 	bl	1000208c <xTaskGetTickCount>
10003518:	f8db 3000 	ldr.w	r3, [fp]
1000351c:	9001      	str	r0, [sp, #4]
1000351e:	4298      	cmp	r0, r3
10003520:	d343      	bcc.n	100035aa <prvTimerTask+0x11a>
10003522:	e9dd 2301 	ldrd	r2, r3, [sp, #4]
10003526:	3b01      	subs	r3, #1
10003528:	f8cb 2000 	str.w	r2, [fp]
1000352c:	2b08      	cmp	r3, #8
1000352e:	d8dd      	bhi.n	100034ec <prvTimerTask+0x5c>
10003530:	e8df f003 	tbb	[pc, r3]
10003534:	a5c06161 	.word	0xa5c06161
10003538:	c06161c7 	.word	0xc06161c7
1000353c:	a5          	.byte	0xa5
1000353d:	00          	.byte	0x00
1000353e:	f022 0201 	bic.w	r2, r2, #1
10003542:	f88a 2028 	strb.w	r2, [sl, #40]	@ 0x28
10003546:	4650      	mov	r0, sl
10003548:	f8da 3020 	ldr.w	r3, [sl, #32]
1000354c:	4798      	blx	r3
1000354e:	683b      	ldr	r3, [r7, #0]
10003550:	681a      	ldr	r2, [r3, #0]
10003552:	2a00      	cmp	r2, #0
10003554:	f000 80d9 	beq.w	1000370a <prvTimerTask+0x27a>
10003558:	68da      	ldr	r2, [r3, #12]
1000355a:	f8d2 a00c 	ldr.w	sl, [r2, #12]
1000355e:	6814      	ldr	r4, [r2, #0]
10003560:	f10a 0604 	add.w	r6, sl, #4
10003564:	4630      	mov	r0, r6
10003566:	f7fd fbe5 	bl	10000d34 <uxListRemove>
1000356a:	f89a 2028 	ldrb.w	r2, [sl, #40]	@ 0x28
1000356e:	0751      	lsls	r1, r2, #29
10003570:	d5e5      	bpl.n	1000353e <prvTimerTask+0xae>
10003572:	e003      	b.n	1000357c <prvTimerTask+0xec>
10003574:	4650      	mov	r0, sl
10003576:	f8da 2020 	ldr.w	r2, [sl, #32]
1000357a:	4790      	blx	r2
1000357c:	f8da 2018 	ldr.w	r2, [sl, #24]
10003580:	f8ca a010 	str.w	sl, [sl, #16]
10003584:	1911      	adds	r1, r2, r4
10003586:	18a4      	adds	r4, r4, r2
10003588:	f8ca 1004 	str.w	r1, [sl, #4]
1000358c:	d3f2      	bcc.n	10003574 <prvTimerTask+0xe4>
1000358e:	4631      	mov	r1, r6
10003590:	f8d8 0000 	ldr.w	r0, [r8]
10003594:	f7fd fbb2 	bl	10000cfc <vListInsert>
10003598:	e7d5      	b.n	10003546 <prvTimerTask+0xb6>
1000359a:	f021 0101 	bic.w	r1, r1, #1
1000359e:	f889 1028 	strb.w	r1, [r9, #40]	@ 0x28
100035a2:	4648      	mov	r0, r9
100035a4:	f8d9 3020 	ldr.w	r3, [r9, #32]
100035a8:	4798      	blx	r3
100035aa:	683b      	ldr	r3, [r7, #0]
100035ac:	6819      	ldr	r1, [r3, #0]
100035ae:	2900      	cmp	r1, #0
100035b0:	f000 80b5 	beq.w	1000371e <prvTimerTask+0x28e>
100035b4:	68d9      	ldr	r1, [r3, #12]
100035b6:	f8d1 900c 	ldr.w	r9, [r1, #12]
100035ba:	680c      	ldr	r4, [r1, #0]
100035bc:	f109 0604 	add.w	r6, r9, #4
100035c0:	4630      	mov	r0, r6
100035c2:	f7fd fbb7 	bl	10000d34 <uxListRemove>
100035c6:	f899 1028 	ldrb.w	r1, [r9, #40]	@ 0x28
100035ca:	0748      	lsls	r0, r1, #29
100035cc:	d5e5      	bpl.n	1000359a <prvTimerTask+0x10a>
100035ce:	e003      	b.n	100035d8 <prvTimerTask+0x148>
100035d0:	4648      	mov	r0, r9
100035d2:	f8d9 1020 	ldr.w	r1, [r9, #32]
100035d6:	4788      	blx	r1
100035d8:	f8d9 1018 	ldr.w	r1, [r9, #24]
100035dc:	f8c9 9010 	str.w	r9, [r9, #16]
100035e0:	1908      	adds	r0, r1, r4
100035e2:	1864      	adds	r4, r4, r1
100035e4:	f8c9 0004 	str.w	r0, [r9, #4]
100035e8:	d3f2      	bcc.n	100035d0 <prvTimerTask+0x140>
100035ea:	4631      	mov	r1, r6
100035ec:	f8d8 0000 	ldr.w	r0, [r8]
100035f0:	f7fd fb84 	bl	10000cfc <vListInsert>
100035f4:	e7d5      	b.n	100035a2 <prvTimerTask+0x112>
100035f6:	f89a 0028 	ldrb.w	r0, [sl, #40]	@ 0x28
100035fa:	9903      	ldr	r1, [sp, #12]
100035fc:	f8da 4018 	ldr.w	r4, [sl, #24]
10003600:	9a01      	ldr	r2, [sp, #4]
10003602:	190b      	adds	r3, r1, r4
10003604:	f040 0601 	orr.w	r6, r0, #1
10003608:	f88a 6028 	strb.w	r6, [sl, #40]	@ 0x28
1000360c:	bf2c      	ite	cs
1000360e:	2601      	movcs	r6, #1
10003610:	2600      	movcc	r6, #0
10003612:	4293      	cmp	r3, r2
10003614:	f8ca 3004 	str.w	r3, [sl, #4]
10003618:	f8ca a010 	str.w	sl, [sl, #16]
1000361c:	f200 8088 	bhi.w	10003730 <prvTimerTask+0x2a0>
10003620:	1a51      	subs	r1, r2, r1
10003622:	428c      	cmp	r4, r1
10003624:	d83f      	bhi.n	100036a6 <prvTimerTask+0x216>
10003626:	0741      	lsls	r1, r0, #29
10003628:	d412      	bmi.n	10003650 <prvTimerTask+0x1c0>
1000362a:	f020 0001 	bic.w	r0, r0, #1
1000362e:	f88a 0028 	strb.w	r0, [sl, #40]	@ 0x28
10003632:	4650      	mov	r0, sl
10003634:	f8da 3020 	ldr.w	r3, [sl, #32]
10003638:	4798      	blx	r3
1000363a:	e757      	b.n	100034ec <prvTimerTask+0x5c>
1000363c:	428c      	cmp	r4, r1
1000363e:	f200 80c7 	bhi.w	100037d0 <prvTimerTask+0x340>
10003642:	f8da 3020 	ldr.w	r3, [sl, #32]
10003646:	4650      	mov	r0, sl
10003648:	4798      	blx	r3
1000364a:	4633      	mov	r3, r6
1000364c:	f8da 4018 	ldr.w	r4, [sl, #24]
10003650:	9a01      	ldr	r2, [sp, #4]
10003652:	18e6      	adds	r6, r4, r3
10003654:	bf2c      	ite	cs
10003656:	2001      	movcs	r0, #1
10003658:	2000      	movcc	r0, #0
1000365a:	42b2      	cmp	r2, r6
1000365c:	eba2 0103 	sub.w	r1, r2, r3
10003660:	f8ca 6004 	str.w	r6, [sl, #4]
10003664:	f8ca a010 	str.w	sl, [sl, #16]
10003668:	d2e8      	bcs.n	1000363c <prvTimerTask+0x1ac>
1000366a:	429a      	cmp	r2, r3
1000366c:	d201      	bcs.n	10003672 <prvTimerTask+0x1e2>
1000366e:	2800      	cmp	r0, #0
10003670:	d0e7      	beq.n	10003642 <prvTimerTask+0x1b2>
10003672:	6838      	ldr	r0, [r7, #0]
10003674:	f10a 0104 	add.w	r1, sl, #4
10003678:	f7fd fb40 	bl	10000cfc <vListInsert>
1000367c:	e7d9      	b.n	10003632 <prvTimerTask+0x1a2>
1000367e:	9903      	ldr	r1, [sp, #12]
10003680:	9a01      	ldr	r2, [sp, #4]
10003682:	f89a 3028 	ldrb.w	r3, [sl, #40]	@ 0x28
10003686:	1888      	adds	r0, r1, r2
10003688:	f043 0301 	orr.w	r3, r3, #1
1000368c:	4290      	cmp	r0, r2
1000368e:	f88a 3028 	strb.w	r3, [sl, #40]	@ 0x28
10003692:	f8ca 1018 	str.w	r1, [sl, #24]
10003696:	f8ca 0004 	str.w	r0, [sl, #4]
1000369a:	f8ca a010 	str.w	sl, [sl, #16]
1000369e:	d84c      	bhi.n	1000373a <prvTimerTask+0x2aa>
100036a0:	2900      	cmp	r1, #0
100036a2:	f43f af23 	beq.w	100034ec <prvTimerTask+0x5c>
100036a6:	f8d8 0000 	ldr.w	r0, [r8]
100036aa:	f10a 0104 	add.w	r1, sl, #4
100036ae:	f7fd fb25 	bl	10000cfc <vListInsert>
100036b2:	e71b      	b.n	100034ec <prvTimerTask+0x5c>
100036b4:	f89a 3028 	ldrb.w	r3, [sl, #40]	@ 0x28
100036b8:	f023 0301 	bic.w	r3, r3, #1
100036bc:	f88a 3028 	strb.w	r3, [sl, #40]	@ 0x28
100036c0:	e714      	b.n	100034ec <prvTimerTask+0x5c>
100036c2:	f89a 3028 	ldrb.w	r3, [sl, #40]	@ 0x28
100036c6:	079a      	lsls	r2, r3, #30
100036c8:	d578      	bpl.n	100037bc <prvTimerTask+0x32c>
100036ca:	f023 0301 	bic.w	r3, r3, #1
100036ce:	f88a 3028 	strb.w	r3, [sl, #40]	@ 0x28
100036d2:	e70b      	b.n	100034ec <prvTimerTask+0x5c>
100036d4:	9b03      	ldr	r3, [sp, #12]
100036d6:	e9dd 0104 	ldrd	r0, r1, [sp, #16]
100036da:	4798      	blx	r3
100036dc:	9b02      	ldr	r3, [sp, #8]
100036de:	2b00      	cmp	r3, #0
100036e0:	f6ff af04 	blt.w	100034ec <prvTimerTask+0x5c>
100036e4:	e70d      	b.n	10003502 <prvTimerTask+0x72>
100036e6:	68db      	ldr	r3, [r3, #12]
100036e8:	681c      	ldr	r4, [r3, #0]
100036ea:	f7fe fcc7 	bl	1000207c <vTaskSuspendAll>
100036ee:	f7fe fccd 	bl	1000208c <xTaskGetTickCount>
100036f2:	f8db 3000 	ldr.w	r3, [fp]
100036f6:	4681      	mov	r9, r0
100036f8:	4283      	cmp	r3, r0
100036fa:	f63f af28 	bhi.w	1000354e <prvTimerTask+0xbe>
100036fe:	4284      	cmp	r4, r0
10003700:	f8cb 0000 	str.w	r0, [fp]
10003704:	d928      	bls.n	10003758 <prvTimerTask+0x2c8>
10003706:	2200      	movs	r2, #0
10003708:	e6e1      	b.n	100034ce <prvTimerTask+0x3e>
1000370a:	f8d8 2000 	ldr.w	r2, [r8]
1000370e:	f8cb 9000 	str.w	r9, [fp]
10003712:	603a      	str	r2, [r7, #0]
10003714:	f8c8 3000 	str.w	r3, [r8]
10003718:	f7ff fcde 	bl	100030d8 <xTaskResumeAll>
1000371c:	e6e1      	b.n	100034e2 <prvTimerTask+0x52>
1000371e:	f8d8 1000 	ldr.w	r1, [r8]
10003722:	f8c8 3000 	str.w	r3, [r8]
10003726:	6039      	str	r1, [r7, #0]
10003728:	e6fb      	b.n	10003522 <prvTimerTask+0x92>
1000372a:	f7ff fa5b 	bl	10002be4 <vTaskYieldWithinAPI>
1000372e:	e6d8      	b.n	100034e2 <prvTimerTask+0x52>
10003730:	4291      	cmp	r1, r2
10003732:	d902      	bls.n	1000373a <prvTimerTask+0x2aa>
10003734:	2e00      	cmp	r6, #0
10003736:	f43f af76 	beq.w	10003626 <prvTimerTask+0x196>
1000373a:	6838      	ldr	r0, [r7, #0]
1000373c:	f10a 0104 	add.w	r1, sl, #4
10003740:	f7fd fadc 	bl	10000cfc <vListInsert>
10003744:	e6d2      	b.n	100034ec <prvTimerTask+0x5c>
10003746:	bf00      	nop
10003748:	20001f10 	.word	0x20001f10
1000374c:	200222c4 	.word	0x200222c4
10003750:	2002225c 	.word	0x2002225c
10003754:	20001f20 	.word	0x20001f20
10003758:	f7ff fcbe 	bl	100030d8 <xTaskResumeAll>
1000375c:	683b      	ldr	r3, [r7, #0]
1000375e:	68db      	ldr	r3, [r3, #12]
10003760:	68de      	ldr	r6, [r3, #12]
10003762:	1d33      	adds	r3, r6, #4
10003764:	4618      	mov	r0, r3
10003766:	9301      	str	r3, [sp, #4]
10003768:	f7fd fae4 	bl	10000d34 <uxListRemove>
1000376c:	f896 2028 	ldrb.w	r2, [r6, #40]	@ 0x28
10003770:	0753      	lsls	r3, r2, #29
10003772:	d40d      	bmi.n	10003790 <prvTimerTask+0x300>
10003774:	f022 0201 	bic.w	r2, r2, #1
10003778:	f886 2028 	strb.w	r2, [r6, #40]	@ 0x28
1000377c:	4630      	mov	r0, r6
1000377e:	6a33      	ldr	r3, [r6, #32]
10003780:	4798      	blx	r3
10003782:	e6ae      	b.n	100034e2 <prvTimerTask+0x52>
10003784:	4281      	cmp	r1, r0
10003786:	d81d      	bhi.n	100037c4 <prvTimerTask+0x334>
10003788:	4630      	mov	r0, r6
1000378a:	6a31      	ldr	r1, [r6, #32]
1000378c:	4788      	blx	r1
1000378e:	4654      	mov	r4, sl
10003790:	69b1      	ldr	r1, [r6, #24]
10003792:	eba9 0004 	sub.w	r0, r9, r4
10003796:	eb14 0a01 	adds.w	sl, r4, r1
1000379a:	bf2c      	ite	cs
1000379c:	2301      	movcs	r3, #1
1000379e:	2300      	movcc	r3, #0
100037a0:	45ca      	cmp	sl, r9
100037a2:	f8c6 a004 	str.w	sl, [r6, #4]
100037a6:	6136      	str	r6, [r6, #16]
100037a8:	d9ec      	bls.n	10003784 <prvTimerTask+0x2f4>
100037aa:	454c      	cmp	r4, r9
100037ac:	d901      	bls.n	100037b2 <prvTimerTask+0x322>
100037ae:	2b00      	cmp	r3, #0
100037b0:	d0ea      	beq.n	10003788 <prvTimerTask+0x2f8>
100037b2:	9901      	ldr	r1, [sp, #4]
100037b4:	6838      	ldr	r0, [r7, #0]
100037b6:	f7fd faa1 	bl	10000cfc <vListInsert>
100037ba:	e7df      	b.n	1000377c <prvTimerTask+0x2ec>
100037bc:	4650      	mov	r0, sl
100037be:	f7fc fe55 	bl	1000046c <vPortFree>
100037c2:	e693      	b.n	100034ec <prvTimerTask+0x5c>
100037c4:	9901      	ldr	r1, [sp, #4]
100037c6:	f8d8 0000 	ldr.w	r0, [r8]
100037ca:	f7fd fa97 	bl	10000cfc <vListInsert>
100037ce:	e7d5      	b.n	1000377c <prvTimerTask+0x2ec>
100037d0:	f8d8 0000 	ldr.w	r0, [r8]
100037d4:	f10a 0104 	add.w	r1, sl, #4
100037d8:	f7fd fa90 	bl	10000cfc <vListInsert>
100037dc:	e729      	b.n	10003632 <prvTimerTask+0x1a2>
100037de:	bf00      	nop

100037e0 <xTimerCreateTimerTask>:
100037e0:	b510      	push	{r4, lr}
100037e2:	4c19      	ldr	r4, [pc, #100]	@ (10003848 <xTimerCreateTimerTask+0x68>)
100037e4:	b086      	sub	sp, #24
100037e6:	f7ff fa0f 	bl	10002c08 <vTaskEnterCritical>
100037ea:	6822      	ldr	r2, [r4, #0]
100037ec:	b19a      	cbz	r2, 10003816 <xTimerCreateTimerTask+0x36>
100037ee:	f7ff fd9d 	bl	1000332c <vTaskExitCritical>
100037f2:	6820      	ldr	r0, [r4, #0]
100037f4:	b168      	cbz	r0, 10003812 <xTimerCreateTimerTask+0x32>
100037f6:	f04f 3cff 	mov.w	ip, #4294967295
100037fa:	241f      	movs	r4, #31
100037fc:	4913      	ldr	r1, [pc, #76]	@ (1000384c <xTimerCreateTimerTask+0x6c>)
100037fe:	2300      	movs	r3, #0
10003800:	9102      	str	r1, [sp, #8]
10003802:	f44f 6280 	mov.w	r2, #1024	@ 0x400
10003806:	e9cd 4c00 	strd	r4, ip, [sp]
1000380a:	4911      	ldr	r1, [pc, #68]	@ (10003850 <xTimerCreateTimerTask+0x70>)
1000380c:	4811      	ldr	r0, [pc, #68]	@ (10003854 <xTimerCreateTimerTask+0x74>)
1000380e:	f7ff fb1b 	bl	10002e48 <xTaskCreateAffinitySet>
10003812:	b006      	add	sp, #24
10003814:	bd10      	pop	{r4, pc}
10003816:	4810      	ldr	r0, [pc, #64]	@ (10003858 <xTimerCreateTimerTask+0x78>)
10003818:	9205      	str	r2, [sp, #20]
1000381a:	f7fd fa51 	bl	10000cc0 <vListInitialise>
1000381e:	480f      	ldr	r0, [pc, #60]	@ (1000385c <xTimerCreateTimerTask+0x7c>)
10003820:	f7fd fa4e 	bl	10000cc0 <vListInitialise>
10003824:	490e      	ldr	r1, [pc, #56]	@ (10003860 <xTimerCreateTimerTask+0x80>)
10003826:	480d      	ldr	r0, [pc, #52]	@ (1000385c <xTimerCreateTimerTask+0x7c>)
10003828:	4b0e      	ldr	r3, [pc, #56]	@ (10003864 <xTimerCreateTimerTask+0x84>)
1000382a:	6008      	str	r0, [r1, #0]
1000382c:	480a      	ldr	r0, [pc, #40]	@ (10003858 <xTimerCreateTimerTask+0x78>)
1000382e:	2110      	movs	r1, #16
10003830:	6018      	str	r0, [r3, #0]
10003832:	9a05      	ldr	r2, [sp, #20]
10003834:	200a      	movs	r0, #10
10003836:	f7fd fbd9 	bl	10000fec <xQueueGenericCreate>
1000383a:	6020      	str	r0, [r4, #0]
1000383c:	2800      	cmp	r0, #0
1000383e:	d0d6      	beq.n	100037ee <xTimerCreateTimerTask+0xe>
10003840:	4909      	ldr	r1, [pc, #36]	@ (10003868 <xTimerCreateTimerTask+0x88>)
10003842:	f7fd fe45 	bl	100014d0 <vQueueAddToRegistry>
10003846:	e7d2      	b.n	100037ee <xTimerCreateTimerTask+0xe>
10003848:	200222c4 	.word	0x200222c4
1000384c:	200222c8 	.word	0x200222c8
10003850:	100096ec 	.word	0x100096ec
10003854:	10003491 	.word	0x10003491
10003858:	200221fc 	.word	0x200221fc
1000385c:	20022210 	.word	0x20022210
10003860:	20001f20 	.word	0x20001f20
10003864:	20001f10 	.word	0x20001f10
10003868:	100096e4 	.word	0x100096e4

1000386c <xTimerPendFunctionCallFromISR>:
1000386c:	b570      	push	{r4, r5, r6, lr}
1000386e:	f06f 0c01 	mvn.w	ip, #1
10003872:	4696      	mov	lr, r2
10003874:	4604      	mov	r4, r0
10003876:	460d      	mov	r5, r1
10003878:	461a      	mov	r2, r3
1000387a:	4b07      	ldr	r3, [pc, #28]	@ (10003898 <xTimerPendFunctionCallFromISR+0x2c>)
1000387c:	b084      	sub	sp, #16
1000387e:	4669      	mov	r1, sp
10003880:	6818      	ldr	r0, [r3, #0]
10003882:	2300      	movs	r3, #0
10003884:	e9cd 4501 	strd	r4, r5, [sp, #4]
10003888:	f8cd e00c 	str.w	lr, [sp, #12]
1000388c:	f8cd c000 	str.w	ip, [sp]
10003890:	f7fd fcbe 	bl	10001210 <xQueueGenericSendFromISR>
10003894:	b004      	add	sp, #16
10003896:	bd70      	pop	{r4, r5, r6, pc}
10003898:	200222c4 	.word	0x200222c4

1000389c <clock_configure_undivided>:
1000389c:	eb00 0c40 	add.w	ip, r0, r0, lsl #1
100038a0:	ea4f 0c8c 	mov.w	ip, ip, lsl #2
100038a4:	f10c 4c80 	add.w	ip, ip, #1073741824	@ 0x40000000
100038a8:	f50c 3c80 	add.w	ip, ip, #65536	@ 0x10000
100038ac:	b570      	push	{r4, r5, r6, lr}
100038ae:	461e      	mov	r6, r3
100038b0:	f8dc 3004 	ldr.w	r3, [ip, #4]
100038b4:	1f04      	subs	r4, r0, #4
100038b6:	f5b3 3f80 	cmp.w	r3, #65536	@ 0x10000
100038ba:	bf38      	it	cc
100038bc:	f44f 3380 	movcc.w	r3, #65536	@ 0x10000
100038c0:	b2e4      	uxtb	r4, r4
100038c2:	bf38      	it	cc
100038c4:	f8cc 3004 	strcc.w	r3, [ip, #4]
100038c8:	2c01      	cmp	r4, #1
100038ca:	d92e      	bls.n	1000392a <clock_configure_undivided+0x8e>
100038cc:	f44f 6500 	mov.w	r5, #2048	@ 0x800
100038d0:	4b28      	ldr	r3, [pc, #160]	@ (10003974 <clock_configure_undivided+0xd8>)
100038d2:	f50c 5e40 	add.w	lr, ip, #12288	@ 0x3000
100038d6:	f8ce 5000 	str.w	r5, [lr]
100038da:	f853 e020 	ldr.w	lr, [r3, r0, lsl #2]
100038de:	f1be 0f00 	cmp.w	lr, #0
100038e2:	d117      	bne.n	10003914 <clock_configure_undivided+0x78>
100038e4:	f8dc e000 	ldr.w	lr, [ip]
100038e8:	2c01      	cmp	r4, #1
100038ea:	ea8e 1242 	eor.w	r2, lr, r2, lsl #5
100038ee:	f002 02e0 	and.w	r2, r2, #224	@ 0xe0
100038f2:	f50c 5e80 	add.w	lr, ip, #4096	@ 0x1000
100038f6:	f8ce 2000 	str.w	r2, [lr]
100038fa:	d92b      	bls.n	10003954 <clock_configure_undivided+0xb8>
100038fc:	f44f 6100 	mov.w	r1, #2048	@ 0x800
10003900:	f843 6020 	str.w	r6, [r3, r0, lsl #2]
10003904:	f44f 3380 	mov.w	r3, #65536	@ 0x10000
10003908:	f50c 5200 	add.w	r2, ip, #8192	@ 0x2000
1000390c:	6011      	str	r1, [r2, #0]
1000390e:	f8cc 3004 	str.w	r3, [ip, #4]
10003912:	bd70      	pop	{r4, r5, r6, pc}
10003914:	695d      	ldr	r5, [r3, #20]
10003916:	fbb5 fefe 	udiv	lr, r5, lr
1000391a:	f10e 0e01 	add.w	lr, lr, #1
1000391e:	eb0e 0e4e 	add.w	lr, lr, lr, lsl #1
10003922:	f1be 0e03 	subs.w	lr, lr, #3
10003926:	d2fc      	bcs.n	10003922 <clock_configure_undivided+0x86>
10003928:	e7dc      	b.n	100038e4 <clock_configure_undivided+0x48>
1000392a:	2901      	cmp	r1, #1
1000392c:	d1ce      	bne.n	100038cc <clock_configure_undivided+0x30>
1000392e:	2403      	movs	r4, #3
10003930:	f50c 5340 	add.w	r3, ip, #12288	@ 0x3000
10003934:	601c      	str	r4, [r3, #0]
10003936:	f8dc 3008 	ldr.w	r3, [ip, #8]
1000393a:	07db      	lsls	r3, r3, #31
1000393c:	d5fb      	bpl.n	10003936 <clock_configure_undivided+0x9a>
1000393e:	f8dc 3000 	ldr.w	r3, [ip]
10003942:	f50c 5e80 	add.w	lr, ip, #4096	@ 0x1000
10003946:	ea83 1342 	eor.w	r3, r3, r2, lsl #5
1000394a:	f003 03e0 	and.w	r3, r3, #224	@ 0xe0
1000394e:	f8ce 3000 	str.w	r3, [lr]
10003952:	4b08      	ldr	r3, [pc, #32]	@ (10003974 <clock_configure_undivided+0xd8>)
10003954:	2201      	movs	r2, #1
10003956:	f8dc 4000 	ldr.w	r4, [ip]
1000395a:	404c      	eors	r4, r1
1000395c:	f004 0403 	and.w	r4, r4, #3
10003960:	f8ce 4000 	str.w	r4, [lr]
10003964:	fa02 f101 	lsl.w	r1, r2, r1
10003968:	f8dc 2008 	ldr.w	r2, [ip, #8]
1000396c:	420a      	tst	r2, r1
1000396e:	d0fb      	beq.n	10003968 <clock_configure_undivided+0xcc>
10003970:	e7c4      	b.n	100038fc <clock_configure_undivided+0x60>
10003972:	bf00      	nop
10003974:	20001a58 	.word	0x20001a58

10003978 <clock_get_hz>:
10003978:	4b01      	ldr	r3, [pc, #4]	@ (10003980 <clock_get_hz+0x8>)
1000397a:	f853 0020 	ldr.w	r0, [r3, r0, lsl #2]
1000397e:	4770      	bx	lr
10003980:	20001a58 	.word	0x20001a58

10003984 <panic>:
10003984:	b40f      	push	{r0, r1, r2, r3}
10003986:	b500      	push	{lr}
10003988:	4808      	ldr	r0, [pc, #32]	@ (100039ac <panic+0x28>)
1000398a:	b083      	sub	sp, #12
1000398c:	f003 f8c0 	bl	10006b10 <__wrap_puts>
10003990:	9b04      	ldr	r3, [sp, #16]
10003992:	b13b      	cbz	r3, 100039a4 <panic+0x20>
10003994:	a905      	add	r1, sp, #20
10003996:	4618      	mov	r0, r3
10003998:	9101      	str	r1, [sp, #4]
1000399a:	f002 ff29 	bl	100067f0 <weak_raw_vprintf>
1000399e:	4804      	ldr	r0, [pc, #16]	@ (100039b0 <panic+0x2c>)
100039a0:	f003 f8b6 	bl	10006b10 <__wrap_puts>
100039a4:	2001      	movs	r0, #1
100039a6:	f002 ff3b 	bl	10006820 <_exit>
100039aa:	bf00      	nop
100039ac:	100096f4 	.word	0x100096f4
100039b0:	10009704 	.word	0x10009704

100039b4 <hw_claim_lock>:
100039b4:	f3ef 8010 	mrs	r0, PRIMASK
100039b8:	b672      	cpsid	i
100039ba:	4b06      	ldr	r3, [pc, #24]	@ (100039d4 <hw_claim_lock+0x20>)
100039bc:	e8d3 1fcf 	ldaexb	r1, [r3]
100039c0:	2201      	movs	r2, #1
100039c2:	2900      	cmp	r1, #0
100039c4:	d1fa      	bne.n	100039bc <hw_claim_lock+0x8>
100039c6:	e8c3 2f41 	strexb	r1, r2, [r3]
100039ca:	2900      	cmp	r1, #0
100039cc:	d1f6      	bne.n	100039bc <hw_claim_lock+0x8>
100039ce:	f3bf 8f5f 	dmb	sy
100039d2:	4770      	bx	lr
100039d4:	2000163f 	.word	0x2000163f

100039d8 <hw_claim_unlock>:
100039d8:	2300      	movs	r3, #0
100039da:	4a03      	ldr	r2, [pc, #12]	@ (100039e8 <hw_claim_unlock+0x10>)
100039dc:	e8c2 3f8f 	stlb	r3, [r2]
100039e0:	f380 8810 	msr	PRIMASK, r0
100039e4:	4770      	bx	lr
100039e6:	bf00      	nop
100039e8:	2000163f 	.word	0x2000163f

100039ec <hw_claim_or_assert>:
100039ec:	b570      	push	{r4, r5, r6, lr}
100039ee:	4616      	mov	r6, r2
100039f0:	f3ef 8410 	mrs	r4, PRIMASK
100039f4:	b672      	cpsid	i
100039f6:	f8df e048 	ldr.w	lr, [pc, #72]	@ 10003a40 <hw_claim_or_assert+0x54>
100039fa:	e8de 2fcf 	ldaexb	r2, [lr]
100039fe:	2301      	movs	r3, #1
10003a00:	2a00      	cmp	r2, #0
10003a02:	d1fa      	bne.n	100039fa <hw_claim_or_assert+0xe>
10003a04:	e8ce 3f42 	strexb	r2, r3, [lr]
10003a08:	2a00      	cmp	r2, #0
10003a0a:	d1f6      	bne.n	100039fa <hw_claim_or_assert+0xe>
10003a0c:	f3bf 8f5f 	dmb	sy
10003a10:	2301      	movs	r3, #1
10003a12:	f001 0c07 	and.w	ip, r1, #7
10003a16:	08ca      	lsrs	r2, r1, #3
10003a18:	fa03 f30c 	lsl.w	r3, r3, ip
10003a1c:	f810 c002 	ldrb.w	ip, [r0, r2]
10003a20:	ea1c 0503 	ands.w	r5, ip, r3
10003a24:	d108      	bne.n	10003a38 <hw_claim_or_assert+0x4c>
10003a26:	ea4c 0c03 	orr.w	ip, ip, r3
10003a2a:	f800 c002 	strb.w	ip, [r0, r2]
10003a2e:	e8ce 5f8f 	stlb	r5, [lr]
10003a32:	f384 8810 	msr	PRIMASK, r4
10003a36:	bd70      	pop	{r4, r5, r6, pc}
10003a38:	4630      	mov	r0, r6
10003a3a:	f7ff ffa3 	bl	10003984 <panic>
10003a3e:	bf00      	nop
10003a40:	2000163f 	.word	0x2000163f

10003a44 <hw_claim_unused_from_range>:
10003a44:	b5f8      	push	{r3, r4, r5, r6, r7, lr}
10003a46:	460f      	mov	r7, r1
10003a48:	4619      	mov	r1, r3
10003a4a:	f3ef 8610 	mrs	r6, PRIMASK
10003a4e:	b672      	cpsid	i
10003a50:	4d1c      	ldr	r5, [pc, #112]	@ (10003ac4 <hw_claim_unused_from_range+0x80>)
10003a52:	e8d5 4fcf 	ldaexb	r4, [r5]
10003a56:	2301      	movs	r3, #1
10003a58:	2c00      	cmp	r4, #0
10003a5a:	d1fa      	bne.n	10003a52 <hw_claim_unused_from_range+0xe>
10003a5c:	e8c5 3f44 	strexb	r4, r3, [r5]
10003a60:	2c00      	cmp	r4, #0
10003a62:	d1f6      	bne.n	10003a52 <hw_claim_unused_from_range+0xe>
10003a64:	f3bf 8f5f 	dmb	sy
10003a68:	428a      	cmp	r2, r1
10003a6a:	d81b      	bhi.n	10003aa4 <hw_claim_unused_from_range+0x60>
10003a6c:	2401      	movs	r4, #1
10003a6e:	e002      	b.n	10003a76 <hw_claim_unused_from_range+0x32>
10003a70:	3201      	adds	r2, #1
10003a72:	4291      	cmp	r1, r2
10003a74:	d322      	bcc.n	10003abc <hw_claim_unused_from_range+0x78>
10003a76:	08d3      	lsrs	r3, r2, #3
10003a78:	f810 e003 	ldrb.w	lr, [r0, r3]
10003a7c:	f002 0c07 	and.w	ip, r2, #7
10003a80:	fa04 fc0c 	lsl.w	ip, r4, ip
10003a84:	ea1e 0f0c 	tst.w	lr, ip
10003a88:	d1f2      	bne.n	10003a70 <hw_claim_unused_from_range+0x2c>
10003a8a:	ea4e 0e0c 	orr.w	lr, lr, ip
10003a8e:	f800 e003 	strb.w	lr, [r0, r3]
10003a92:	4610      	mov	r0, r2
10003a94:	2300      	movs	r3, #0
10003a96:	e8c5 3f8f 	stlb	r3, [r5]
10003a9a:	f386 8810 	msr	PRIMASK, r6
10003a9e:	4298      	cmp	r0, r3
10003aa0:	db07      	blt.n	10003ab2 <hw_claim_unused_from_range+0x6e>
10003aa2:	bdf8      	pop	{r3, r4, r5, r6, r7, pc}
10003aa4:	2300      	movs	r3, #0
10003aa6:	e8c5 3f8f 	stlb	r3, [r5]
10003aaa:	f386 8810 	msr	PRIMASK, r6
10003aae:	f04f 30ff 	mov.w	r0, #4294967295
10003ab2:	2f00      	cmp	r7, #0
10003ab4:	d0f5      	beq.n	10003aa2 <hw_claim_unused_from_range+0x5e>
10003ab6:	9806      	ldr	r0, [sp, #24]
10003ab8:	f7ff ff64 	bl	10003984 <panic>
10003abc:	f04f 30ff 	mov.w	r0, #4294967295
10003ac0:	e7e8      	b.n	10003a94 <hw_claim_unused_from_range+0x50>
10003ac2:	bf00      	nop
10003ac4:	2000163f 	.word	0x2000163f

10003ac8 <next_striped_spin_lock_num>:
10003ac8:	4a04      	ldr	r2, [pc, #16]	@ (10003adc <next_striped_spin_lock_num+0x14>)
10003aca:	7810      	ldrb	r0, [r2, #0]
10003acc:	1c43      	adds	r3, r0, #1
10003ace:	b2db      	uxtb	r3, r3
10003ad0:	2b18      	cmp	r3, #24
10003ad2:	bf28      	it	cs
10003ad4:	2310      	movcs	r3, #16
10003ad6:	7013      	strb	r3, [r2, #0]
10003ad8:	4770      	bx	lr
10003ada:	bf00      	nop
10003adc:	2000121a 	.word	0x2000121a

10003ae0 <spin_lock_claim>:
10003ae0:	4601      	mov	r1, r0
10003ae2:	4a02      	ldr	r2, [pc, #8]	@ (10003aec <spin_lock_claim+0xc>)
10003ae4:	4802      	ldr	r0, [pc, #8]	@ (10003af0 <spin_lock_claim+0x10>)
10003ae6:	f7ff bf81 	b.w	100039ec <hw_claim_or_assert>
10003aea:	bf00      	nop
10003aec:	10009708 	.word	0x10009708
10003af0:	20001a50 	.word	0x20001a50

10003af4 <spin_lock_claim_unused>:
10003af4:	b500      	push	{lr}
10003af6:	f8df c01c 	ldr.w	ip, [pc, #28]	@ 10003b14 <spin_lock_claim_unused+0x20>
10003afa:	b083      	sub	sp, #12
10003afc:	4601      	mov	r1, r0
10003afe:	231f      	movs	r3, #31
10003b00:	2218      	movs	r2, #24
10003b02:	f8cd c000 	str.w	ip, [sp]
10003b06:	4802      	ldr	r0, [pc, #8]	@ (10003b10 <spin_lock_claim_unused+0x1c>)
10003b08:	f7ff ff9c 	bl	10003a44 <hw_claim_unused_from_range>
10003b0c:	b003      	add	sp, #12
10003b0e:	bd00      	pop	{pc}
10003b10:	20001a50 	.word	0x20001a50
10003b14:	10009728 	.word	0x10009728

10003b18 <spinlock_set_extexclall>:
10003b18:	f04f 22e0 	mov.w	r2, #3758153728	@ 0xe000e000
10003b1c:	6893      	ldr	r3, [r2, #8]
10003b1e:	f043 5300 	orr.w	r3, r3, #536870912	@ 0x20000000
10003b22:	6093      	str	r3, [r2, #8]
10003b24:	4770      	bx	lr
10003b26:	bf00      	nop

10003b28 <spin_locks_reset>:
10003b28:	2100      	movs	r1, #0
10003b2a:	4b04      	ldr	r3, [pc, #16]	@ (10003b3c <spin_locks_reset+0x14>)
10003b2c:	f103 0220 	add.w	r2, r3, #32
10003b30:	e8c3 1f8f 	stlb	r1, [r3]
10003b34:	3301      	adds	r3, #1
10003b36:	4293      	cmp	r3, r2
10003b38:	d1fa      	bne.n	10003b30 <spin_locks_reset+0x8>
10003b3a:	4770      	bx	lr
10003b3c:	20001634 	.word	0x20001634

10003b40 <runtime_init_per_core_irq_priorities>:
10003b40:	f04f 23e0 	mov.w	r3, #3758153728	@ 0xe000e000
10003b44:	f04f 3280 	mov.w	r2, #2155905152	@ 0x80808080
10003b48:	f8c3 2400 	str.w	r2, [r3, #1024]	@ 0x400
10003b4c:	f8c3 2404 	str.w	r2, [r3, #1028]	@ 0x404
10003b50:	f8c3 2408 	str.w	r2, [r3, #1032]	@ 0x408
10003b54:	f8c3 240c 	str.w	r2, [r3, #1036]	@ 0x40c
10003b58:	f8c3 2410 	str.w	r2, [r3, #1040]	@ 0x410
10003b5c:	f8c3 2414 	str.w	r2, [r3, #1044]	@ 0x414
10003b60:	f8c3 2418 	str.w	r2, [r3, #1048]	@ 0x418
10003b64:	f8c3 241c 	str.w	r2, [r3, #1052]	@ 0x41c
10003b68:	f8c3 2420 	str.w	r2, [r3, #1056]	@ 0x420
10003b6c:	f8c3 2424 	str.w	r2, [r3, #1060]	@ 0x424
10003b70:	f8c3 2428 	str.w	r2, [r3, #1064]	@ 0x428
10003b74:	f8c3 242c 	str.w	r2, [r3, #1068]	@ 0x42c
10003b78:	f8c3 2430 	str.w	r2, [r3, #1072]	@ 0x430
10003b7c:	b662      	cpsie	i
10003b7e:	4770      	bx	lr

10003b80 <irq_set_enabled>:
10003b80:	2301      	movs	r3, #1
10003b82:	f000 021f 	and.w	r2, r0, #31
10003b86:	4093      	lsls	r3, r2
10003b88:	0940      	lsrs	r0, r0, #5
10003b8a:	b141      	cbz	r1, 10003b9e <irq_set_enabled+0x1e>
10003b8c:	0080      	lsls	r0, r0, #2
10003b8e:	f100 4060 	add.w	r0, r0, #3758096384	@ 0xe0000000
10003b92:	f500 4061 	add.w	r0, r0, #57600	@ 0xe100
10003b96:	f8c0 3180 	str.w	r3, [r0, #384]	@ 0x180
10003b9a:	6003      	str	r3, [r0, #0]
10003b9c:	4770      	bx	lr
10003b9e:	4a02      	ldr	r2, [pc, #8]	@ (10003ba8 <irq_set_enabled+0x28>)
10003ba0:	3020      	adds	r0, #32
10003ba2:	f842 3020 	str.w	r3, [r2, r0, lsl #2]
10003ba6:	4770      	bx	lr
10003ba8:	e000e100 	.word	0xe000e100

10003bac <irq_is_enabled>:
10003bac:	2301      	movs	r3, #1
10003bae:	4a06      	ldr	r2, [pc, #24]	@ (10003bc8 <irq_is_enabled+0x1c>)
10003bb0:	0941      	lsrs	r1, r0, #5
10003bb2:	f852 2021 	ldr.w	r2, [r2, r1, lsl #2]
10003bb6:	f000 001f 	and.w	r0, r0, #31
10003bba:	4083      	lsls	r3, r0
10003bbc:	4213      	tst	r3, r2
10003bbe:	bf14      	ite	ne
10003bc0:	2001      	movne	r0, #1
10003bc2:	2000      	moveq	r0, #0
10003bc4:	4770      	bx	lr
10003bc6:	bf00      	nop
10003bc8:	e000e100 	.word	0xe000e100

10003bcc <irq_set_pending>:
10003bcc:	2201      	movs	r2, #1
10003bce:	0943      	lsrs	r3, r0, #5
10003bd0:	4903      	ldr	r1, [pc, #12]	@ (10003be0 <irq_set_pending+0x14>)
10003bd2:	f000 001f 	and.w	r0, r0, #31
10003bd6:	4082      	lsls	r2, r0
10003bd8:	3340      	adds	r3, #64	@ 0x40
10003bda:	f841 2023 	str.w	r2, [r1, r3, lsl #2]
10003bde:	4770      	bx	lr
10003be0:	e000e100 	.word	0xe000e100

10003be4 <irq_has_shared_handler>:
10003be4:	4a05      	ldr	r2, [pc, #20]	@ (10003bfc <irq_has_shared_handler+0x18>)
10003be6:	3010      	adds	r0, #16
10003be8:	6892      	ldr	r2, [r2, #8]
10003bea:	4b05      	ldr	r3, [pc, #20]	@ (10003c00 <irq_has_shared_handler+0x1c>)
10003bec:	f852 0020 	ldr.w	r0, [r2, r0, lsl #2]
10003bf0:	1ac0      	subs	r0, r0, r3
10003bf2:	282f      	cmp	r0, #47	@ 0x2f
10003bf4:	bf8c      	ite	hi
10003bf6:	2000      	movhi	r0, #0
10003bf8:	2001      	movls	r0, #1
10003bfa:	4770      	bx	lr
10003bfc:	e000ed00 	.word	0xe000ed00
10003c00:	2000121c 	.word	0x2000121c

10003c04 <irq_set_exclusive_handler>:
10003c04:	b510      	push	{r4, lr}
10003c06:	b082      	sub	sp, #8
10003c08:	f3ef 8410 	mrs	r4, PRIMASK
10003c0c:	b672      	cpsid	i
10003c0e:	4b16      	ldr	r3, [pc, #88]	@ (10003c68 <irq_set_exclusive_handler+0x64>)
10003c10:	e8d3 cfcf 	ldaexb	ip, [r3]
10003c14:	2201      	movs	r2, #1
10003c16:	f1bc 0f00 	cmp.w	ip, #0
10003c1a:	d1f9      	bne.n	10003c10 <irq_set_exclusive_handler+0xc>
10003c1c:	e8c3 2f4c 	strexb	ip, r2, [r3]
10003c20:	f1bc 0f00 	cmp.w	ip, #0
10003c24:	d1f4      	bne.n	10003c10 <irq_set_exclusive_handler+0xc>
10003c26:	f3bf 8f5f 	dmb	sy
10003c2a:	4a10      	ldr	r2, [pc, #64]	@ (10003c6c <irq_set_exclusive_handler+0x68>)
10003c2c:	3010      	adds	r0, #16
10003c2e:	6892      	ldr	r2, [r2, #8]
10003c30:	f8df c03c 	ldr.w	ip, [pc, #60]	@ 10003c70 <irq_set_exclusive_handler+0x6c>
10003c34:	f852 2020 	ldr.w	r2, [r2, r0, lsl #2]
10003c38:	4562      	cmp	r2, ip
10003c3a:	d008      	beq.n	10003c4e <irq_set_exclusive_handler+0x4a>
10003c3c:	4291      	cmp	r1, r2
10003c3e:	d006      	beq.n	10003c4e <irq_set_exclusive_handler+0x4a>
10003c40:	e9cd 0100 	strd	r0, r1, [sp]
10003c44:	f000 fff4 	bl	10004c30 <hard_assertion_failure>
10003c48:	9901      	ldr	r1, [sp, #4]
10003c4a:	4b07      	ldr	r3, [pc, #28]	@ (10003c68 <irq_set_exclusive_handler+0x64>)
10003c4c:	9800      	ldr	r0, [sp, #0]
10003c4e:	4a07      	ldr	r2, [pc, #28]	@ (10003c6c <irq_set_exclusive_handler+0x68>)
10003c50:	6892      	ldr	r2, [r2, #8]
10003c52:	f842 1020 	str.w	r1, [r2, r0, lsl #2]
10003c56:	f3bf 8f5f 	dmb	sy
10003c5a:	2200      	movs	r2, #0
10003c5c:	e8c3 2f8f 	stlb	r2, [r3]
10003c60:	f384 8810 	msr	PRIMASK, r4
10003c64:	b002      	add	sp, #8
10003c66:	bd10      	pop	{r4, pc}
10003c68:	2000163d 	.word	0x2000163d
10003c6c:	e000ed00 	.word	0xe000ed00
10003c70:	10000111 	.word	0x10000111

10003c74 <irq_add_shared_handler>:
10003c74:	e92d 4ff0 	stmdb	sp!, {r4, r5, r6, r7, r8, r9, sl, fp, lr}
10003c78:	4606      	mov	r6, r0
10003c7a:	468a      	mov	sl, r1
10003c7c:	4615      	mov	r5, r2
10003c7e:	b083      	sub	sp, #12
10003c80:	f3ef 8810 	mrs	r8, PRIMASK
10003c84:	b672      	cpsid	i
10003c86:	4f71      	ldr	r7, [pc, #452]	@ (10003e4c <irq_add_shared_handler+0x1d8>)
10003c88:	e8d7 2fcf 	ldaexb	r2, [r7]
10003c8c:	2301      	movs	r3, #1
10003c8e:	2a00      	cmp	r2, #0
10003c90:	d1fa      	bne.n	10003c88 <irq_add_shared_handler+0x14>
10003c92:	e8c7 3f42 	strexb	r2, r3, [r7]
10003c96:	2a00      	cmp	r2, #0
10003c98:	d1f6      	bne.n	10003c88 <irq_add_shared_handler+0x14>
10003c9a:	f3bf 8f5f 	dmb	sy
10003c9e:	496c      	ldr	r1, [pc, #432]	@ (10003e50 <irq_add_shared_handler+0x1dc>)
10003ca0:	f991 2000 	ldrsb.w	r2, [r1]
10003ca4:	2a00      	cmp	r2, #0
10003ca6:	db7b      	blt.n	10003da0 <irq_add_shared_handler+0x12c>
10003ca8:	486a      	ldr	r0, [pc, #424]	@ (10003e54 <irq_add_shared_handler+0x1e0>)
10003caa:	eb02 0442 	add.w	r4, r2, r2, lsl #1
10003cae:	eb00 0384 	add.w	r3, r0, r4, lsl #2
10003cb2:	f893 c006 	ldrb.w	ip, [r3, #6]
10003cb6:	3610      	adds	r6, #16
10003cb8:	f881 c000 	strb.w	ip, [r1]
10003cbc:	4966      	ldr	r1, [pc, #408]	@ (10003e58 <irq_add_shared_handler+0x1e4>)
10003cbe:	00a4      	lsls	r4, r4, #2
10003cc0:	6889      	ldr	r1, [r1, #8]
10003cc2:	ea4f 0b42 	mov.w	fp, r2, lsl #1
10003cc6:	f851 e026 	ldr.w	lr, [r1, r6, lsl #2]
10003cca:	ebae 0100 	sub.w	r1, lr, r0
10003cce:	292f      	cmp	r1, #47	@ 0x2f
10003cd0:	d92e      	bls.n	10003d30 <irq_add_shared_handler+0xbc>
10003cd2:	4962      	ldr	r1, [pc, #392]	@ (10003e5c <irq_add_shared_handler+0x1e8>)
10003cd4:	458e      	cmp	lr, r1
10003cd6:	f040 8084 	bne.w	10003de2 <irq_add_shared_handler+0x16e>
10003cda:	f043 0e01 	orr.w	lr, r3, #1
10003cde:	4b60      	ldr	r3, [pc, #384]	@ (10003e60 <irq_add_shared_handler+0x1ec>)
10003ce0:	3402      	adds	r4, #2
10003ce2:	4404      	add	r4, r0
10003ce4:	3b04      	subs	r3, #4
10003ce6:	1b1b      	subs	r3, r3, r4
10003ce8:	f3c3 034a 	ubfx	r3, r3, #1, #11
10003cec:	ea6f 43c3 	mvn.w	r3, r3, lsl #19
10003cf0:	f44f 4121 	mov.w	r1, #41216	@ 0xa100
10003cf4:	ea6f 43d3 	mvn.w	r3, r3, lsr #19
10003cf8:	445a      	add	r2, fp
10003cfa:	f820 1022 	strh.w	r1, [r0, r2, lsl #2]
10003cfe:	eb00 0282 	add.w	r2, r0, r2, lsl #2
10003d02:	8053      	strh	r3, [r2, #2]
10003d04:	f64b 5301 	movw	r3, #48385	@ 0xbd01
10003d08:	8093      	strh	r3, [r2, #4]
10003d0a:	23ff      	movs	r3, #255	@ 0xff
10003d0c:	71d5      	strb	r5, [r2, #7]
10003d0e:	f8c2 a008 	str.w	sl, [r2, #8]
10003d12:	7193      	strb	r3, [r2, #6]
10003d14:	4b50      	ldr	r3, [pc, #320]	@ (10003e58 <irq_add_shared_handler+0x1e4>)
10003d16:	689b      	ldr	r3, [r3, #8]
10003d18:	f843 e026 	str.w	lr, [r3, r6, lsl #2]
10003d1c:	f3bf 8f5f 	dmb	sy
10003d20:	2300      	movs	r3, #0
10003d22:	e8c7 3f8f 	stlb	r3, [r7]
10003d26:	f388 8810 	msr	PRIMASK, r8
10003d2a:	b003      	add	sp, #12
10003d2c:	e8bd 8ff0 	ldmia.w	sp!, {r4, r5, r6, r7, r8, r9, sl, fp, pc}
10003d30:	f02e 0c01 	bic.w	ip, lr, #1
10003d34:	f89c 1007 	ldrb.w	r1, [ip, #7]
10003d38:	42a9      	cmp	r1, r5
10003d3a:	d95a      	bls.n	10003df2 <irq_add_shared_handler+0x17e>
10003d3c:	46b1      	mov	r9, r6
10003d3e:	9401      	str	r4, [sp, #4]
10003d40:	461e      	mov	r6, r3
10003d42:	e003      	b.n	10003d4c <irq_add_shared_handler+0xd8>
10003d44:	79cb      	ldrb	r3, [r1, #7]
10003d46:	42ab      	cmp	r3, r5
10003d48:	d930      	bls.n	10003dac <irq_add_shared_handler+0x138>
10003d4a:	468c      	mov	ip, r1
10003d4c:	f99c 4006 	ldrsb.w	r4, [ip, #6]
10003d50:	eb04 0144 	add.w	r1, r4, r4, lsl #1
10003d54:	2c00      	cmp	r4, #0
10003d56:	eb00 0181 	add.w	r1, r0, r1, lsl #2
10003d5a:	daf3      	bge.n	10003d44 <irq_add_shared_handler+0xd0>
10003d5c:	9400      	str	r4, [sp, #0]
10003d5e:	f64b 5401 	movw	r4, #48385	@ 0xbd01
10003d62:	4633      	mov	r3, r6
10003d64:	464e      	mov	r6, r9
10003d66:	f10c 0904 	add.w	r9, ip, #4
10003d6a:	3b04      	subs	r3, #4
10003d6c:	eba3 0309 	sub.w	r3, r3, r9
10003d70:	f3c3 034a 	ubfx	r3, r3, #1, #11
10003d74:	ea6f 43c3 	mvn.w	r3, r3, lsl #19
10003d78:	ea6f 43d3 	mvn.w	r3, r3, lsr #19
10003d7c:	f8ac 3004 	strh.w	r3, [ip, #4]
10003d80:	4b38      	ldr	r3, [pc, #224]	@ (10003e64 <irq_add_shared_handler+0x1f0>)
10003d82:	eb0b 0102 	add.w	r1, fp, r2
10003d86:	f88c 2006 	strb.w	r2, [ip, #6]
10003d8a:	f840 3021 	str.w	r3, [r0, r1, lsl #2]
10003d8e:	9b00      	ldr	r3, [sp, #0]
10003d90:	eb00 0281 	add.w	r2, r0, r1, lsl #2
10003d94:	8094      	strh	r4, [r2, #4]
10003d96:	7193      	strb	r3, [r2, #6]
10003d98:	71d5      	strb	r5, [r2, #7]
10003d9a:	f8c2 a008 	str.w	sl, [r2, #8]
10003d9e:	e7b9      	b.n	10003d14 <irq_add_shared_handler+0xa0>
10003da0:	f000 ff46 	bl	10004c30 <hard_assertion_failure>
10003da4:	492a      	ldr	r1, [pc, #168]	@ (10003e50 <irq_add_shared_handler+0x1dc>)
10003da6:	f991 2000 	ldrsb.w	r2, [r1]
10003daa:	e77d      	b.n	10003ca8 <irq_add_shared_handler+0x34>
10003dac:	f06f 0107 	mvn.w	r1, #7
10003db0:	9400      	str	r4, [sp, #0]
10003db2:	9c01      	ldr	r4, [sp, #4]
10003db4:	4633      	mov	r3, r6
10003db6:	1b0c      	subs	r4, r1, r4
10003db8:	4661      	mov	r1, ip
10003dba:	1a24      	subs	r4, r4, r0
10003dbc:	9401      	str	r4, [sp, #4]
10003dbe:	f831 4f04 	ldrh.w	r4, [r1, #4]!
10003dc2:	464e      	mov	r6, r9
10003dc4:	f344 040a 	sbfx	r4, r4, #0, #11
10003dc8:	3402      	adds	r4, #2
10003dca:	eb01 0444 	add.w	r4, r1, r4, lsl #1
10003dce:	4689      	mov	r9, r1
10003dd0:	9901      	ldr	r1, [sp, #4]
10003dd2:	440c      	add	r4, r1
10003dd4:	f3c4 044a 	ubfx	r4, r4, #1, #11
10003dd8:	ea6f 44c4 	mvn.w	r4, r4, lsl #19
10003ddc:	ea6f 44d4 	mvn.w	r4, r4, lsr #19
10003de0:	e7c3      	b.n	10003d6a <irq_add_shared_handler+0xf6>
10003de2:	e9cd 2300 	strd	r2, r3, [sp]
10003de6:	f000 ff23 	bl	10004c30 <hard_assertion_failure>
10003dea:	e9dd 2300 	ldrd	r2, r3, [sp]
10003dee:	4819      	ldr	r0, [pc, #100]	@ (10003e54 <irq_add_shared_handler+0x1e0>)
10003df0:	e773      	b.n	10003cda <irq_add_shared_handler+0x66>
10003df2:	4a1b      	ldr	r2, [pc, #108]	@ (10003e60 <irq_add_shared_handler+0x1ec>)
10003df4:	1ca1      	adds	r1, r4, #2
10003df6:	71dd      	strb	r5, [r3, #7]
10003df8:	4401      	add	r1, r0
10003dfa:	3a04      	subs	r2, #4
10003dfc:	1d25      	adds	r5, r4, #4
10003dfe:	1a52      	subs	r2, r2, r1
10003e00:	4405      	add	r5, r0
10003e02:	f1ac 0104 	sub.w	r1, ip, #4
10003e06:	1b49      	subs	r1, r1, r5
10003e08:	f3c1 014a 	ubfx	r1, r1, #1, #11
10003e0c:	ea6f 41c1 	mvn.w	r1, r1, lsl #19
10003e10:	f3c2 024a 	ubfx	r2, r2, #1, #11
10003e14:	ea6f 42c2 	mvn.w	r2, r2, lsl #19
10003e18:	ea6f 41d1 	mvn.w	r1, r1, lsr #19
10003e1c:	f44f 4e21 	mov.w	lr, #41216	@ 0xa100
10003e20:	ea6f 42d2 	mvn.w	r2, r2, lsr #19
10003e24:	8099      	strh	r1, [r3, #4]
10003e26:	490f      	ldr	r1, [pc, #60]	@ (10003e64 <irq_add_shared_handler+0x1f0>)
10003e28:	f820 e004 	strh.w	lr, [r0, r4]
10003e2c:	805a      	strh	r2, [r3, #2]
10003e2e:	f64a 25aa 	movw	r5, #43690	@ 0xaaaa
10003e32:	4662      	mov	r2, ip
10003e34:	1a12      	subs	r2, r2, r0
10003e36:	4152      	adcs	r2, r2
10003e38:	4355      	muls	r5, r2
10003e3a:	0d2d      	lsrs	r5, r5, #20
10003e3c:	f8c3 a008 	str.w	sl, [r3, #8]
10003e40:	719d      	strb	r5, [r3, #6]
10003e42:	f043 0e01 	orr.w	lr, r3, #1
10003e46:	f8cc 1000 	str.w	r1, [ip]
10003e4a:	e763      	b.n	10003d14 <irq_add_shared_handler+0xa0>
10003e4c:	2000163d 	.word	0x2000163d
10003e50:	200222d7 	.word	0x200222d7
10003e54:	2000121c 	.word	0x2000121c
10003e58:	e000ed00 	.word	0xe000ed00
10003e5c:	10000111 	.word	0x10000111
10003e60:	2000124c 	.word	0x2000124c
10003e64:	47804801 	.word	0x47804801

10003e68 <irq_set_priority>:
10003e68:	f04f 0cff 	mov.w	ip, #255	@ 0xff
10003e6c:	f020 0303 	bic.w	r3, r0, #3
10003e70:	f103 4360 	add.w	r3, r3, #3758096384	@ 0xe0000000
10003e74:	f503 4364 	add.w	r3, r3, #58368	@ 0xe400
10003e78:	f000 0003 	and.w	r0, r0, #3
10003e7c:	681a      	ldr	r2, [r3, #0]
10003e7e:	00c0      	lsls	r0, r0, #3
10003e80:	fa0c fc00 	lsl.w	ip, ip, r0
10003e84:	ea22 020c 	bic.w	r2, r2, ip
10003e88:	4081      	lsls	r1, r0
10003e8a:	430a      	orrs	r2, r1
10003e8c:	601a      	str	r2, [r3, #0]
10003e8e:	4770      	bx	lr

10003e90 <irq_add_tail_to_free_list>:
10003e90:	e92d 41f0 	stmdb	sp!, {r4, r5, r6, r7, r8, lr}
10003e94:	f3ef 8305 	mrs	r3, IPSR
10003e98:	b2db      	uxtb	r3, r3
10003e9a:	469e      	mov	lr, r3
10003e9c:	f3ef 8510 	mrs	r5, PRIMASK
10003ea0:	b672      	cpsid	i
10003ea2:	4929      	ldr	r1, [pc, #164]	@ (10003f48 <irq_add_tail_to_free_list+0xb8>)
10003ea4:	e8d1 2fcf 	ldaexb	r2, [r1]
10003ea8:	2301      	movs	r3, #1
10003eaa:	2a00      	cmp	r2, #0
10003eac:	d1fa      	bne.n	10003ea4 <irq_add_tail_to_free_list+0x14>
10003eae:	e8c1 3f42 	strexb	r2, r3, [r1]
10003eb2:	2a00      	cmp	r2, #0
10003eb4:	d1f6      	bne.n	10003ea4 <irq_add_tail_to_free_list+0x14>
10003eb6:	f3bf 8f5f 	dmb	sy
10003eba:	f8df 809c 	ldr.w	r8, [pc, #156]	@ 10003f58 <irq_add_tail_to_free_list+0xc8>
10003ebe:	f040 0601 	orr.w	r6, r0, #1
10003ec2:	f8d8 7008 	ldr.w	r7, [r8, #8]
10003ec6:	f64a 23aa 	movw	r3, #43690	@ 0xaaaa
10003eca:	f857 702e 	ldr.w	r7, [r7, lr, lsl #2]
10003ece:	4604      	mov	r4, r0
10003ed0:	4a1e      	ldr	r2, [pc, #120]	@ (10003f4c <irq_add_tail_to_free_list+0xbc>)
10003ed2:	1aa4      	subs	r4, r4, r2
10003ed4:	4164      	adcs	r4, r4
10003ed6:	4363      	muls	r3, r4
10003ed8:	0d1b      	lsrs	r3, r3, #20
10003eda:	42b7      	cmp	r7, r6
10003edc:	b25b      	sxtb	r3, r3
10003ede:	d01e      	beq.n	10003f1e <irq_add_tail_to_free_list+0x8e>
10003ee0:	f992 4006 	ldrsb.w	r4, [r2, #6]
10003ee4:	429c      	cmp	r4, r3
10003ee6:	d020      	beq.n	10003f2a <irq_add_tail_to_free_list+0x9a>
10003ee8:	f992 4012 	ldrsb.w	r4, [r2, #18]
10003eec:	429c      	cmp	r4, r3
10003eee:	d027      	beq.n	10003f40 <irq_add_tail_to_free_list+0xb0>
10003ef0:	f992 401e 	ldrsb.w	r4, [r2, #30]
10003ef4:	429c      	cmp	r4, r3
10003ef6:	d025      	beq.n	10003f44 <irq_add_tail_to_free_list+0xb4>
10003ef8:	f992 402a 	ldrsb.w	r4, [r2, #42]	@ 0x2a
10003efc:	429c      	cmp	r4, r3
10003efe:	bf08      	it	eq
10003f00:	2403      	moveq	r4, #3
10003f02:	d013      	beq.n	10003f2c <irq_add_tail_to_free_list+0x9c>
10003f04:	4a12      	ldr	r2, [pc, #72]	@ (10003f50 <irq_add_tail_to_free_list+0xc0>)
10003f06:	2400      	movs	r4, #0
10003f08:	f892 c000 	ldrb.w	ip, [r2]
10003f0c:	7013      	strb	r3, [r2, #0]
10003f0e:	f880 c006 	strb.w	ip, [r0, #6]
10003f12:	e8c1 4f8f 	stlb	r4, [r1]
10003f16:	f385 8810 	msr	PRIMASK, r5
10003f1a:	e8bd 81f0 	ldmia.w	sp!, {r4, r5, r6, r7, r8, pc}
10003f1e:	f8d8 2008 	ldr.w	r2, [r8, #8]
10003f22:	4c0c      	ldr	r4, [pc, #48]	@ (10003f54 <irq_add_tail_to_free_list+0xc4>)
10003f24:	f842 402e 	str.w	r4, [r2, lr, lsl #2]
10003f28:	e7ec      	b.n	10003f04 <irq_add_tail_to_free_list+0x74>
10003f2a:	2400      	movs	r4, #0
10003f2c:	eb04 0444 	add.w	r4, r4, r4, lsl #1
10003f30:	eb02 0284 	add.w	r2, r2, r4, lsl #2
10003f34:	24ff      	movs	r4, #255	@ 0xff
10003f36:	7194      	strb	r4, [r2, #6]
10003f38:	f64b 5401 	movw	r4, #48385	@ 0xbd01
10003f3c:	8094      	strh	r4, [r2, #4]
10003f3e:	e7e1      	b.n	10003f04 <irq_add_tail_to_free_list+0x74>
10003f40:	2401      	movs	r4, #1
10003f42:	e7f3      	b.n	10003f2c <irq_add_tail_to_free_list+0x9c>
10003f44:	2402      	movs	r4, #2
10003f46:	e7f1      	b.n	10003f2c <irq_add_tail_to_free_list+0x9c>
10003f48:	2000163d 	.word	0x2000163d
10003f4c:	2000121c 	.word	0x2000121c
10003f50:	200222d7 	.word	0x200222d7
10003f54:	10000111 	.word	0x10000111
10003f58:	e000ed00 	.word	0xe000ed00

10003f5c <user_irq_claim_unused>:
10003f5c:	b500      	push	{lr}
10003f5e:	f8df c024 	ldr.w	ip, [pc, #36]	@ 10003f84 <user_irq_claim_unused+0x28>
10003f62:	b083      	sub	sp, #12
10003f64:	4601      	mov	r1, r0
10003f66:	2305      	movs	r3, #5
10003f68:	2200      	movs	r2, #0
10003f6a:	f8cd c000 	str.w	ip, [sp]
10003f6e:	4804      	ldr	r0, [pc, #16]	@ (10003f80 <user_irq_claim_unused+0x24>)
10003f70:	f7ff fd68 	bl	10003a44 <hw_claim_unused_from_range>
10003f74:	2800      	cmp	r0, #0
10003f76:	bfa8      	it	ge
10003f78:	f1c0 0033 	rsbge	r0, r0, #51	@ 0x33
10003f7c:	b003      	add	sp, #12
10003f7e:	bd00      	pop	{pc}
10003f80:	200222db 	.word	0x200222db
10003f84:	10009744 	.word	0x10009744

10003f88 <lock_init>:
10003f88:	4b01      	ldr	r3, [pc, #4]	@ (10003f90 <lock_init+0x8>)
10003f8a:	440b      	add	r3, r1
10003f8c:	6003      	str	r3, [r0, #0]
10003f8e:	4770      	bx	lr
10003f90:	20001634 	.word	0x20001634

10003f94 <runtime_init_mutex>:
10003f94:	b5f8      	push	{r3, r4, r5, r6, r7, lr}
10003f96:	4c12      	ldr	r4, [pc, #72]	@ (10003fe0 <runtime_init_mutex+0x4c>)
10003f98:	4d12      	ldr	r5, [pc, #72]	@ (10003fe4 <runtime_init_mutex+0x50>)
10003f9a:	42ac      	cmp	r4, r5
10003f9c:	d211      	bcs.n	10003fc2 <runtime_init_mutex+0x2e>
10003f9e:	f04f 36ff 	mov.w	r6, #4294967295
10003fa2:	2700      	movs	r7, #0
10003fa4:	6823      	ldr	r3, [r4, #0]
10003fa6:	b16b      	cbz	r3, 10003fc4 <runtime_init_mutex+0x30>
10003fa8:	f7ff fd8e 	bl	10003ac8 <next_striped_spin_lock_num>
10003fac:	4601      	mov	r1, r0
10003fae:	4620      	mov	r0, r4
10003fb0:	f7ff ffea 	bl	10003f88 <lock_init>
10003fb4:	6066      	str	r6, [r4, #4]
10003fb6:	7227      	strb	r7, [r4, #8]
10003fb8:	f3bf 8f5f 	dmb	sy
10003fbc:	340c      	adds	r4, #12
10003fbe:	42ac      	cmp	r4, r5
10003fc0:	d3f0      	bcc.n	10003fa4 <runtime_init_mutex+0x10>
10003fc2:	bdf8      	pop	{r3, r4, r5, r6, r7, pc}
10003fc4:	f7ff fd80 	bl	10003ac8 <next_striped_spin_lock_num>
10003fc8:	4601      	mov	r1, r0
10003fca:	4620      	mov	r0, r4
10003fcc:	f7ff ffdc 	bl	10003f88 <lock_init>
10003fd0:	6066      	str	r6, [r4, #4]
10003fd2:	f3bf 8f5f 	dmb	sy
10003fd6:	3408      	adds	r4, #8
10003fd8:	42ac      	cmp	r4, r5
10003fda:	d3e3      	bcc.n	10003fa4 <runtime_init_mutex+0x10>
10003fdc:	bdf8      	pop	{r3, r4, r5, r6, r7, pc}
10003fde:	bf00      	nop
10003fe0:	200012b4 	.word	0x200012b4
10003fe4:	200012c4 	.word	0x200012c4

10003fe8 <mutex_init>:
10003fe8:	b510      	push	{r4, lr}
10003fea:	4604      	mov	r4, r0
10003fec:	f7ff fd6c 	bl	10003ac8 <next_striped_spin_lock_num>
10003ff0:	4601      	mov	r1, r0
10003ff2:	4620      	mov	r0, r4
10003ff4:	f7ff ffc8 	bl	10003f88 <lock_init>
10003ff8:	f04f 33ff 	mov.w	r3, #4294967295
10003ffc:	6063      	str	r3, [r4, #4]
10003ffe:	f3bf 8f5f 	dmb	sy
10004002:	bd10      	pop	{r4, pc}

10004004 <critical_section_init>:
10004004:	b510      	push	{r4, lr}
10004006:	4604      	mov	r4, r0
10004008:	2001      	movs	r0, #1
1000400a:	f7ff fd73 	bl	10003af4 <spin_lock_claim_unused>
1000400e:	4b03      	ldr	r3, [pc, #12]	@ (1000401c <critical_section_init+0x18>)
10004010:	4403      	add	r3, r0
10004012:	6023      	str	r3, [r4, #0]
10004014:	f3bf 8f5f 	dmb	sy
10004018:	bd10      	pop	{r4, pc}
1000401a:	bf00      	nop
1000401c:	20001634 	.word	0x20001634

10004020 <critical_section_init_with_lock_num>:
10004020:	4b02      	ldr	r3, [pc, #8]	@ (1000402c <critical_section_init_with_lock_num+0xc>)
10004022:	440b      	add	r3, r1
10004024:	6003      	str	r3, [r0, #0]
10004026:	f3bf 8f5f 	dmb	sy
1000402a:	4770      	bx	lr
1000402c:	20001634 	.word	0x20001634

10004030 <alarm_pool_irq_handler>:
10004030:	e92d 4ff0 	stmdb	sp!, {r4, r5, r6, r7, r8, r9, sl, fp, lr}
10004034:	ed2d 8b02 	vpush	{d8}
10004038:	b085      	sub	sp, #20
1000403a:	f3ef 8305 	mrs	r3, IPSR
1000403e:	b2db      	uxtb	r3, r3
10004040:	3b10      	subs	r3, #16
10004042:	089a      	lsrs	r2, r3, #2
10004044:	bf18      	it	ne
10004046:	2201      	movne	r2, #1
10004048:	f04f 0101 	mov.w	r1, #1
1000404c:	f003 0b03 	and.w	fp, r3, #3
10004050:	bf18      	it	ne
10004052:	4ca9      	ldrne	r4, [pc, #676]	@ (100042f8 <alarm_pool_irq_handler+0x2c8>)
10004054:	4ba9      	ldr	r3, [pc, #676]	@ (100042fc <alarm_pool_irq_handler+0x2cc>)
10004056:	bf08      	it	eq
10004058:	4ca9      	ldreq	r4, [pc, #676]	@ (10004300 <alarm_pool_irq_handler+0x2d0>)
1000405a:	eb0b 0282 	add.w	r2, fp, r2, lsl #2
1000405e:	f853 5022 	ldr.w	r5, [r3, r2, lsl #2]
10004062:	fa01 f20b 	lsl.w	r2, r1, fp
10004066:	f504 5341 	add.w	r3, r4, #12352	@ 0x3040
1000406a:	ed9f 8ba1 	vldr	d8, [pc, #644]	@ 100042f0 <alarm_pool_irq_handler+0x2c0>
1000406e:	9202      	str	r2, [sp, #8]
10004070:	605a      	str	r2, [r3, #4]
10004072:	e02f      	b.n	100040d4 <alarm_pool_irq_handler+0xa4>
10004074:	88ab      	ldrh	r3, [r5, #4]
10004076:	0419      	lsls	r1, r3, #16
10004078:	f140 8094 	bpl.w	100041a4 <alarm_pool_irq_handler+0x174>
1000407c:	79ab      	ldrb	r3, [r5, #6]
1000407e:	2b00      	cmp	r3, #0
10004080:	f040 80de 	bne.w	10004240 <alarm_pool_irq_handler+0x210>
10004084:	f9b5 6008 	ldrsh.w	r6, [r5, #8]
10004088:	2e00      	cmp	r6, #0
1000408a:	f2c0 811c 	blt.w	100042c6 <alarm_pool_irq_handler+0x296>
1000408e:	696b      	ldr	r3, [r5, #20]
10004090:	eb06 0646 	add.w	r6, r6, r6, lsl #1
10004094:	eb03 03c6 	add.w	r3, r3, r6, lsl #3
10004098:	e9d3 6702 	ldrd	r6, r7, [r3, #8]
1000409c:	f1b7 3fff 	cmp.w	r7, #4294967295
100040a0:	bf08      	it	eq
100040a2:	f1b6 3fff 	cmpeq.w	r6, #4294967295
100040a6:	d00e      	beq.n	100040c6 <alarm_pool_irq_handler+0x96>
100040a8:	eb04 018b 	add.w	r1, r4, fp, lsl #2
100040ac:	6aa3      	ldr	r3, [r4, #40]	@ 0x28
100040ae:	690a      	ldr	r2, [r1, #16]
100040b0:	1ad2      	subs	r2, r2, r3
100040b2:	1af3      	subs	r3, r6, r3
100040b4:	4293      	cmp	r3, r2
100040b6:	d305      	bcc.n	100040c4 <alarm_pool_irq_handler+0x94>
100040b8:	2301      	movs	r3, #1
100040ba:	6a22      	ldr	r2, [r4, #32]
100040bc:	fa03 f30b 	lsl.w	r3, r3, fp
100040c0:	4213      	tst	r3, r2
100040c2:	d100      	bne.n	100040c6 <alarm_pool_irq_handler+0x96>
100040c4:	610e      	str	r6, [r1, #16]
100040c6:	4620      	mov	r0, r4
100040c8:	f000 fb72 	bl	100047b0 <timer_time_us_64>
100040cc:	42b0      	cmp	r0, r6
100040ce:	41b9      	sbcs	r1, r7
100040d0:	f2c0 80f9 	blt.w	100042c6 <alarm_pool_irq_handler+0x296>
100040d4:	f9b5 6008 	ldrsh.w	r6, [r5, #8]
100040d8:	9b02      	ldr	r3, [sp, #8]
100040da:	2e00      	cmp	r6, #0
100040dc:	63e3      	str	r3, [r4, #60]	@ 0x3c
100040de:	dbc9      	blt.n	10004074 <alarm_pool_irq_handler+0x44>
100040e0:	f8d5 9014 	ldr.w	r9, [r5, #20]
100040e4:	eb06 0a46 	add.w	sl, r6, r6, lsl #1
100040e8:	eb09 07ca 	add.w	r7, r9, sl, lsl #3
100040ec:	68bb      	ldr	r3, [r7, #8]
100040ee:	4620      	mov	r0, r4
100040f0:	f8d7 800c 	ldr.w	r8, [r7, #12]
100040f4:	9301      	str	r3, [sp, #4]
100040f6:	f000 fb5b 	bl	100047b0 <timer_time_us_64>
100040fa:	9b01      	ldr	r3, [sp, #4]
100040fc:	4298      	cmp	r0, r3
100040fe:	eb71 0108 	sbcs.w	r1, r1, r8
10004102:	dbb7      	blt.n	10004074 <alarm_pool_irq_handler+0x44>
10004104:	f1b8 0f00 	cmp.w	r8, #0
10004108:	f2c0 80c0 	blt.w	1000428c <alarm_pool_irq_handler+0x25c>
1000410c:	e9d7 3104 	ldrd	r3, r1, [r7, #16]
10004110:	4a7c      	ldr	r2, [pc, #496]	@ (10004304 <alarm_pool_irq_handler+0x2d4>)
10004112:	4293      	cmp	r3, r2
10004114:	f000 80f8 	beq.w	10004308 <alarm_pool_irq_handler+0x2d8>
10004118:	887a      	ldrh	r2, [r7, #2]
1000411a:	f9b5 0008 	ldrsh.w	r0, [r5, #8]
1000411e:	b292      	uxth	r2, r2
10004120:	ea42 4000 	orr.w	r0, r2, r0, lsl #16
10004124:	4798      	blx	r3
10004126:	4602      	mov	r2, r0
10004128:	460b      	mov	r3, r1
1000412a:	ea52 0103 	orrs.w	r1, r2, r3
1000412e:	f000 80ad 	beq.w	1000428c <alarm_pool_irq_handler+0x25c>
10004132:	2b00      	cmp	r3, #0
10004134:	f280 80cd 	bge.w	100042d2 <alarm_pool_irq_handler+0x2a2>
10004138:	9901      	ldr	r1, [sp, #4]
1000413a:	ebb1 0e02 	subs.w	lr, r1, r2
1000413e:	eb68 0803 	sbc.w	r8, r8, r3
10004142:	f939 303a 	ldrsh.w	r3, [r9, sl, lsl #3]
10004146:	e9c7 e802 	strd	lr, r8, [r7, #8]
1000414a:	2b00      	cmp	r3, #0
1000414c:	db92      	blt.n	10004074 <alarm_pool_irq_handler+0x44>
1000414e:	6968      	ldr	r0, [r5, #20]
10004150:	eb03 0243 	add.w	r2, r3, r3, lsl #1
10004154:	eb00 02c2 	add.w	r2, r0, r2, lsl #3
10004158:	e9d2 7102 	ldrd	r7, r1, [r2, #8]
1000415c:	45be      	cmp	lr, r7
1000415e:	eb78 0c01 	sbcs.w	ip, r8, r1
10004162:	ea4f 0243 	mov.w	r2, r3, lsl #1
10004166:	db85      	blt.n	10004074 <alarm_pool_irq_handler+0x44>
10004168:	46ac      	mov	ip, r5
1000416a:	f82c 3f08 	strh.w	r3, [ip, #8]!
1000416e:	e006      	b.n	1000417e <alarm_pool_irq_handler+0x14e>
10004170:	eb03 0143 	add.w	r1, r3, r3, lsl #1
10004174:	eb00 01c1 	add.w	r1, r0, r1, lsl #3
10004178:	005a      	lsls	r2, r3, #1
1000417a:	e9d1 7102 	ldrd	r7, r1, [r1, #8]
1000417e:	45be      	cmp	lr, r7
10004180:	eb78 0101 	sbcs.w	r1, r8, r1
10004184:	441a      	add	r2, r3
10004186:	db05      	blt.n	10004194 <alarm_pool_irq_handler+0x164>
10004188:	f930 3032 	ldrsh.w	r3, [r0, r2, lsl #3]
1000418c:	eb00 0cc2 	add.w	ip, r0, r2, lsl #3
10004190:	2b00      	cmp	r3, #0
10004192:	daed      	bge.n	10004170 <alarm_pool_irq_handler+0x140>
10004194:	f829 303a 	strh.w	r3, [r9, sl, lsl #3]
10004198:	f8ac 6000 	strh.w	r6, [ip]
1000419c:	88ab      	ldrh	r3, [r5, #4]
1000419e:	0419      	lsls	r1, r3, #16
100041a0:	f53f af6c 	bmi.w	1000407c <alarm_pool_irq_handler+0x4c>
100041a4:	692b      	ldr	r3, [r5, #16]
100041a6:	f3ef 8210 	mrs	r2, PRIMASK
100041aa:	b672      	cpsid	i
100041ac:	e8d3 0fcf 	ldaexb	r0, [r3]
100041b0:	2101      	movs	r1, #1
100041b2:	2800      	cmp	r0, #0
100041b4:	d1fa      	bne.n	100041ac <alarm_pool_irq_handler+0x17c>
100041b6:	e8c3 1f40 	strexb	r0, r1, [r3]
100041ba:	2800      	cmp	r0, #0
100041bc:	d1f6      	bne.n	100041ac <alarm_pool_irq_handler+0x17c>
100041be:	f3bf 8f5f 	dmb	sy
100041c2:	f64f 76ff 	movw	r6, #65535	@ 0xffff
100041c6:	88a8      	ldrh	r0, [r5, #4]
100041c8:	2300      	movs	r3, #0
100041ca:	6929      	ldr	r1, [r5, #16]
100041cc:	b200      	sxth	r0, r0
100041ce:	80ae      	strh	r6, [r5, #4]
100041d0:	e8c1 3f8f 	stlb	r3, [r1]
100041d4:	f382 8810 	msr	PRIMASK, r2
100041d8:	4298      	cmp	r0, r3
100041da:	f6ff af4f 	blt.w	1000407c <alarm_pool_irq_handler+0x4c>
100041de:	4607      	mov	r7, r0
100041e0:	46a1      	mov	r9, r4
100041e2:	696e      	ldr	r6, [r5, #20]
100041e4:	f105 0808 	add.w	r8, r5, #8
100041e8:	f9b5 3008 	ldrsh.w	r3, [r5, #8]
100041ec:	eb07 0e47 	add.w	lr, r7, r7, lsl #1
100041f0:	2b00      	cmp	r3, #0
100041f2:	46c4      	mov	ip, r8
100041f4:	eb06 02ce 	add.w	r2, r6, lr, lsl #3
100041f8:	db15      	blt.n	10004226 <alarm_pool_irq_handler+0x1f6>
100041fa:	e9d2 4002 	ldrd	r4, r0, [r2, #8]
100041fe:	46aa      	mov	sl, r5
10004200:	9701      	str	r7, [sp, #4]
10004202:	e004      	b.n	1000420e <alarm_pool_irq_handler+0x1de>
10004204:	f936 3035 	ldrsh.w	r3, [r6, r5, lsl #3]
10004208:	4694      	mov	ip, r2
1000420a:	2b00      	cmp	r3, #0
1000420c:	db09      	blt.n	10004222 <alarm_pool_irq_handler+0x1f2>
1000420e:	eb03 0543 	add.w	r5, r3, r3, lsl #1
10004212:	eb06 02c5 	add.w	r2, r6, r5, lsl #3
10004216:	e9d2 7102 	ldrd	r7, r1, [r2, #8]
1000421a:	42bc      	cmp	r4, r7
1000421c:	eb70 0101 	sbcs.w	r1, r0, r1
10004220:	daf0      	bge.n	10004204 <alarm_pool_irq_handler+0x1d4>
10004222:	4655      	mov	r5, sl
10004224:	9f01      	ldr	r7, [sp, #4]
10004226:	f8ac 7000 	strh.w	r7, [ip]
1000422a:	f936 703e 	ldrsh.w	r7, [r6, lr, lsl #3]
1000422e:	f826 303e 	strh.w	r3, [r6, lr, lsl #3]
10004232:	2f00      	cmp	r7, #0
10004234:	dad8      	bge.n	100041e8 <alarm_pool_irq_handler+0x1b8>
10004236:	79ab      	ldrb	r3, [r5, #6]
10004238:	464c      	mov	r4, r9
1000423a:	2b00      	cmp	r3, #0
1000423c:	f43f af22 	beq.w	10004084 <alarm_pool_irq_handler+0x54>
10004240:	2300      	movs	r3, #0
10004242:	71ab      	strb	r3, [r5, #6]
10004244:	f9b5 6008 	ldrsh.w	r6, [r5, #8]
10004248:	1c72      	adds	r2, r6, #1
1000424a:	4633      	mov	r3, r6
1000424c:	d03b      	beq.n	100042c6 <alarm_pool_irq_handler+0x296>
1000424e:	6968      	ldr	r0, [r5, #20]
10004250:	f105 0e08 	add.w	lr, r5, #8
10004254:	e003      	b.n	1000425e <alarm_pool_irq_handler+0x22e>
10004256:	468e      	mov	lr, r1
10004258:	1c5a      	adds	r2, r3, #1
1000425a:	f43f af15 	beq.w	10004088 <alarm_pool_irq_handler+0x58>
1000425e:	eb03 0243 	add.w	r2, r3, r3, lsl #1
10004262:	eb00 01c2 	add.w	r1, r0, r2, lsl #3
10004266:	884f      	ldrh	r7, [r1, #2]
10004268:	469c      	mov	ip, r3
1000426a:	043f      	lsls	r7, r7, #16
1000426c:	f930 3032 	ldrsh.w	r3, [r0, r2, lsl #3]
10004270:	d5f1      	bpl.n	10004256 <alarm_pool_irq_handler+0x226>
10004272:	4566      	cmp	r6, ip
10004274:	ed81 8b02 	vstr	d8, [r1, #8]
10004278:	d0ee      	beq.n	10004258 <alarm_pool_irq_handler+0x228>
1000427a:	f8ae 3000 	strh.w	r3, [lr]
1000427e:	8929      	ldrh	r1, [r5, #8]
10004280:	4666      	mov	r6, ip
10004282:	f820 1032 	strh.w	r1, [r0, r2, lsl #3]
10004286:	f8a5 c008 	strh.w	ip, [r5, #8]
1000428a:	e7e5      	b.n	10004258 <alarm_pool_irq_handler+0x228>
1000428c:	f839 303a 	ldrh.w	r3, [r9, sl, lsl #3]
10004290:	812b      	strh	r3, [r5, #8]
10004292:	692b      	ldr	r3, [r5, #16]
10004294:	f3ef 8210 	mrs	r2, PRIMASK
10004298:	b672      	cpsid	i
1000429a:	e8d3 0fcf 	ldaexb	r0, [r3]
1000429e:	2101      	movs	r1, #1
100042a0:	2800      	cmp	r0, #0
100042a2:	d1fa      	bne.n	1000429a <alarm_pool_irq_handler+0x26a>
100042a4:	e8c3 1f40 	strexb	r0, r1, [r3]
100042a8:	2800      	cmp	r0, #0
100042aa:	d1f6      	bne.n	1000429a <alarm_pool_irq_handler+0x26a>
100042ac:	f3bf 8f5f 	dmb	sy
100042b0:	886b      	ldrh	r3, [r5, #2]
100042b2:	6929      	ldr	r1, [r5, #16]
100042b4:	f829 303a 	strh.w	r3, [r9, sl, lsl #3]
100042b8:	2300      	movs	r3, #0
100042ba:	806e      	strh	r6, [r5, #2]
100042bc:	e8c1 3f8f 	stlb	r3, [r1]
100042c0:	f382 8810 	msr	PRIMASK, r2
100042c4:	e6d6      	b.n	10004074 <alarm_pool_irq_handler+0x44>
100042c6:	bf40      	sev
100042c8:	b005      	add	sp, #20
100042ca:	ecbd 8b02 	vpop	{d8}
100042ce:	e8bd 8ff0 	ldmia.w	sp!, {r4, r5, r6, r7, r8, r9, sl, fp, pc}
100042d2:	4620      	mov	r0, r4
100042d4:	9303      	str	r3, [sp, #12]
100042d6:	9201      	str	r2, [sp, #4]
100042d8:	f000 fa6a 	bl	100047b0 <timer_time_us_64>
100042dc:	9a01      	ldr	r2, [sp, #4]
100042de:	9b03      	ldr	r3, [sp, #12]
100042e0:	eb10 0e02 	adds.w	lr, r0, r2
100042e4:	eb43 0801 	adc.w	r8, r3, r1
100042e8:	e72b      	b.n	10004142 <alarm_pool_irq_handler+0x112>
100042ea:	bf00      	nop
100042ec:	f3af 8000 	nop.w
100042f0:	ffffffff 	.word	0xffffffff
100042f4:	ffffffff 	.word	0xffffffff
100042f8:	400b8000 	.word	0x400b8000
100042fc:	20001ee8 	.word	0x20001ee8
10004300:	400b0000 	.word	0x400b0000
10004304:	10004031 	.word	0x10004031
10004308:	4608      	mov	r0, r1
1000430a:	690b      	ldr	r3, [r1, #16]
1000430c:	9103      	str	r1, [sp, #12]
1000430e:	4798      	blx	r3
10004310:	2800      	cmp	r0, #0
10004312:	d0bb      	beq.n	1000428c <alarm_pool_irq_handler+0x25c>
10004314:	9903      	ldr	r1, [sp, #12]
10004316:	e9d1 2300 	ldrd	r2, r3, [r1]
1000431a:	e706      	b.n	1000412a <alarm_pool_irq_handler+0xfa>

1000431c <sleep_until_callback>:
1000431c:	480b      	ldr	r0, [pc, #44]	@ (1000434c <sleep_until_callback+0x30>)
1000431e:	b508      	push	{r3, lr}
10004320:	6803      	ldr	r3, [r0, #0]
10004322:	f3ef 8110 	mrs	r1, PRIMASK
10004326:	b672      	cpsid	i
10004328:	e8d3 cfcf 	ldaexb	ip, [r3]
1000432c:	2201      	movs	r2, #1
1000432e:	f1bc 0f00 	cmp.w	ip, #0
10004332:	d1f9      	bne.n	10004328 <sleep_until_callback+0xc>
10004334:	e8c3 2f4c 	strexb	ip, r2, [r3]
10004338:	f1bc 0f00 	cmp.w	ip, #0
1000433c:	d1f4      	bne.n	10004328 <sleep_until_callback+0xc>
1000433e:	f3bf 8f5f 	dmb	sy
10004342:	f7fc fa73 	bl	1000082c <vPortLockInternalSpinUnlockWithNotify>
10004346:	2000      	movs	r0, #0
10004348:	2100      	movs	r1, #0
1000434a:	bd08      	pop	{r3, pc}
1000434c:	200021ac 	.word	0x200021ac

10004350 <runtime_init_default_alarm_pool>:
10004350:	b538      	push	{r3, r4, r5, lr}
10004352:	4b38      	ldr	r3, [pc, #224]	@ (10004434 <runtime_init_default_alarm_pool+0xe4>)
10004354:	691c      	ldr	r4, [r3, #16]
10004356:	b12c      	cbz	r4, 10004364 <runtime_init_default_alarm_pool+0x14>
10004358:	e8bd 4038 	ldmia.w	sp!, {r3, r4, r5, lr}
1000435c:	210a      	movs	r1, #10
1000435e:	4836      	ldr	r0, [pc, #216]	@ (10004438 <runtime_init_default_alarm_pool+0xe8>)
10004360:	f7ff be12 	b.w	10003f88 <lock_init>
10004364:	2103      	movs	r1, #3
10004366:	4835      	ldr	r0, [pc, #212]	@ (1000443c <runtime_init_default_alarm_pool+0xec>)
10004368:	f000 fa10 	bl	1000478c <timer_hardware_alarm_claim>
1000436c:	4d33      	ldr	r5, [pc, #204]	@ (1000443c <runtime_init_default_alarm_pool+0xec>)
1000436e:	4b31      	ldr	r3, [pc, #196]	@ (10004434 <runtime_init_default_alarm_pool+0xe4>)
10004370:	60dd      	str	r5, [r3, #12]
10004372:	f7ff fba9 	bl	10003ac8 <next_striped_spin_lock_num>
10004376:	4a32      	ldr	r2, [pc, #200]	@ (10004440 <runtime_init_default_alarm_pool+0xf0>)
10004378:	f04f 4e50 	mov.w	lr, #3489660928	@ 0xd0000000
1000437c:	4402      	add	r2, r0
1000437e:	2003      	movs	r0, #3
10004380:	4b2c      	ldr	r3, [pc, #176]	@ (10004434 <runtime_init_default_alarm_pool+0xe4>)
10004382:	f04f 0c0f 	mov.w	ip, #15
10004386:	7018      	strb	r0, [r3, #0]
10004388:	611a      	str	r2, [r3, #16]
1000438a:	f8de 2000 	ldr.w	r2, [lr]
1000438e:	f64f 71ff 	movw	r1, #65535	@ 0xffff
10004392:	705a      	strb	r2, [r3, #1]
10004394:	695a      	ldr	r2, [r3, #20]
10004396:	f8a3 c002 	strh.w	ip, [r3, #2]
1000439a:	8314      	strh	r4, [r2, #24]
1000439c:	f04f 0402 	mov.w	r4, #2
100043a0:	f8a2 4048 	strh.w	r4, [r2, #72]	@ 0x48
100043a4:	f04f 0404 	mov.w	r4, #4
100043a8:	f8a2 4078 	strh.w	r4, [r2, #120]	@ 0x78
100043ac:	f04f 0405 	mov.w	r4, #5
100043b0:	f8a2 4090 	strh.w	r4, [r2, #144]	@ 0x90
100043b4:	f04f 0406 	mov.w	r4, #6
100043b8:	f8a2 40a8 	strh.w	r4, [r2, #168]	@ 0xa8
100043bc:	f04f 0407 	mov.w	r4, #7
100043c0:	f8a2 40c0 	strh.w	r4, [r2, #192]	@ 0xc0
100043c4:	f04f 0409 	mov.w	r4, #9
100043c8:	f8a2 40f0 	strh.w	r4, [r2, #240]	@ 0xf0
100043cc:	f04f 040a 	mov.w	r4, #10
100043d0:	f8a2 4108 	strh.w	r4, [r2, #264]	@ 0x108
100043d4:	f04f 040b 	mov.w	r4, #11
100043d8:	f8a2 4120 	strh.w	r4, [r2, #288]	@ 0x120
100043dc:	f04f 040c 	mov.w	r4, #12
100043e0:	f8a2 4138 	strh.w	r4, [r2, #312]	@ 0x138
100043e4:	f04f 0401 	mov.w	r4, #1
100043e8:	8614      	strh	r4, [r2, #48]	@ 0x30
100043ea:	f04f 0408 	mov.w	r4, #8
100043ee:	f8a2 40d8 	strh.w	r4, [r2, #216]	@ 0xd8
100043f2:	4c14      	ldr	r4, [pc, #80]	@ (10004444 <runtime_init_default_alarm_pool+0xf4>)
100043f4:	f04f 0e0d 	mov.w	lr, #13
100043f8:	f04f 0c0e 	mov.w	ip, #14
100043fc:	609c      	str	r4, [r3, #8]
100043fe:	2408      	movs	r4, #8
10004400:	8099      	strh	r1, [r3, #4]
10004402:	f8a2 e150 	strh.w	lr, [r2, #336]	@ 0x150
10004406:	f8a2 c168 	strh.w	ip, [r2, #360]	@ 0x168
1000440a:	f8a2 0060 	strh.w	r0, [r2, #96]	@ 0x60
1000440e:	8011      	strh	r1, [r2, #0]
10004410:	4a0d      	ldr	r2, [pc, #52]	@ (10004448 <runtime_init_default_alarm_pool+0xf8>)
10004412:	622c      	str	r4, [r5, #32]
10004414:	490d      	ldr	r1, [pc, #52]	@ (1000444c <runtime_init_default_alarm_pool+0xfc>)
10004416:	60d3      	str	r3, [r2, #12]
10004418:	f7ff fbf4 	bl	10003c04 <irq_set_exclusive_handler>
1000441c:	2101      	movs	r1, #1
1000441e:	2003      	movs	r0, #3
10004420:	f7ff fbae 	bl	10003b80 <irq_set_enabled>
10004424:	4b0a      	ldr	r3, [pc, #40]	@ (10004450 <runtime_init_default_alarm_pool+0x100>)
10004426:	210a      	movs	r1, #10
10004428:	641c      	str	r4, [r3, #64]	@ 0x40
1000442a:	4803      	ldr	r0, [pc, #12]	@ (10004438 <runtime_init_default_alarm_pool+0xe8>)
1000442c:	e8bd 4038 	ldmia.w	sp!, {r3, r4, r5, lr}
10004430:	f7ff bdaa 	b.w	10003f88 <lock_init>
10004434:	20001264 	.word	0x20001264
10004438:	200021ac 	.word	0x200021ac
1000443c:	400b0000 	.word	0x400b0000
10004440:	20001634 	.word	0x20001634
10004444:	0010ffff 	.word	0x0010ffff
10004448:	20001ee8 	.word	0x20001ee8
1000444c:	10004031 	.word	0x10004031
10004450:	400b2000 	.word	0x400b2000

10004454 <alarm_pool_get_default>:
10004454:	4800      	ldr	r0, [pc, #0]	@ (10004458 <alarm_pool_get_default+0x4>)
10004456:	4770      	bx	lr
10004458:	20001264 	.word	0x20001264

1000445c <alarm_pool_add_alarm_at>:
1000445c:	b5f0      	push	{r4, r5, r6, r7, lr}
1000445e:	b083      	sub	sp, #12
10004460:	f89d 4028 	ldrb.w	r4, [sp, #40]	@ 0x28
10004464:	461d      	mov	r5, r3
10004466:	4603      	mov	r3, r0
10004468:	b954      	cbnz	r4, 10004480 <alarm_pool_add_alarm_at+0x24>
1000446a:	e9cd 0200 	strd	r0, r2, [sp]
1000446e:	f000 f9a7 	bl	100047c0 <time_us_64>
10004472:	9a01      	ldr	r2, [sp, #4]
10004474:	9b00      	ldr	r3, [sp, #0]
10004476:	4282      	cmp	r2, r0
10004478:	eb65 0101 	sbc.w	r1, r5, r1
1000447c:	42a1      	cmp	r1, r4
1000447e:	db5b      	blt.n	10004538 <alarm_pool_add_alarm_at+0xdc>
10004480:	6919      	ldr	r1, [r3, #16]
10004482:	f3ef 8010 	mrs	r0, PRIMASK
10004486:	b672      	cpsid	i
10004488:	e8d1 6fcf 	ldaexb	r6, [r1]
1000448c:	2401      	movs	r4, #1
1000448e:	2e00      	cmp	r6, #0
10004490:	d1fa      	bne.n	10004488 <alarm_pool_add_alarm_at+0x2c>
10004492:	e8c1 4f46 	strexb	r6, r4, [r1]
10004496:	2e00      	cmp	r6, #0
10004498:	d1f6      	bne.n	10004488 <alarm_pool_add_alarm_at+0x2c>
1000449a:	f3bf 8f5f 	dmb	sy
1000449e:	f9b3 4002 	ldrsh.w	r4, [r3, #2]
100044a2:	691f      	ldr	r7, [r3, #16]
100044a4:	2c00      	cmp	r4, #0
100044a6:	db3e      	blt.n	10004526 <alarm_pool_add_alarm_at+0xca>
100044a8:	f8d3 c014 	ldr.w	ip, [r3, #20]
100044ac:	eb04 0e44 	add.w	lr, r4, r4, lsl #1
100044b0:	f83c 103e 	ldrh.w	r1, [ip, lr, lsl #3]
100044b4:	2600      	movs	r6, #0
100044b6:	8059      	strh	r1, [r3, #2]
100044b8:	eb0c 01ce 	add.w	r1, ip, lr, lsl #3
100044bc:	e8c7 6f8f 	stlb	r6, [r7]
100044c0:	f380 8810 	msr	PRIMASK, r0
100044c4:	8848      	ldrh	r0, [r1, #2]
100044c6:	e9c1 2502 	strd	r2, r5, [r1, #8]
100044ca:	3001      	adds	r0, #1
100044cc:	f3c0 000e 	ubfx	r0, r0, #0, #15
100044d0:	2801      	cmp	r0, #1
100044d2:	bf38      	it	cc
100044d4:	2001      	movcc	r0, #1
100044d6:	9a08      	ldr	r2, [sp, #32]
100044d8:	8048      	strh	r0, [r1, #2]
100044da:	610a      	str	r2, [r1, #16]
100044dc:	9a09      	ldr	r2, [sp, #36]	@ 0x24
100044de:	ea40 4004 	orr.w	r0, r0, r4, lsl #16
100044e2:	614a      	str	r2, [r1, #20]
100044e4:	691a      	ldr	r2, [r3, #16]
100044e6:	f3ef 8110 	mrs	r1, PRIMASK
100044ea:	b672      	cpsid	i
100044ec:	e8d2 7fcf 	ldaexb	r7, [r2]
100044f0:	2501      	movs	r5, #1
100044f2:	2f00      	cmp	r7, #0
100044f4:	d1fa      	bne.n	100044ec <alarm_pool_add_alarm_at+0x90>
100044f6:	e8c2 5f47 	strexb	r7, r5, [r2]
100044fa:	2f00      	cmp	r7, #0
100044fc:	d1f6      	bne.n	100044ec <alarm_pool_add_alarm_at+0x90>
100044fe:	f3bf 8f5f 	dmb	sy
10004502:	889a      	ldrh	r2, [r3, #4]
10004504:	f82c 203e 	strh.w	r2, [ip, lr, lsl #3]
10004508:	691a      	ldr	r2, [r3, #16]
1000450a:	809c      	strh	r4, [r3, #4]
1000450c:	e8c2 6f8f 	stlb	r6, [r2]
10004510:	f381 8810 	msr	PRIMASK, r1
10004514:	2101      	movs	r1, #1
10004516:	781c      	ldrb	r4, [r3, #0]
10004518:	68da      	ldr	r2, [r3, #12]
1000451a:	40a1      	lsls	r1, r4
1000451c:	f502 5301 	add.w	r3, r2, #8256	@ 0x2040
10004520:	6059      	str	r1, [r3, #4]
10004522:	b003      	add	sp, #12
10004524:	bdf0      	pop	{r4, r5, r6, r7, pc}
10004526:	2300      	movs	r3, #0
10004528:	e8c7 3f8f 	stlb	r3, [r7]
1000452c:	f380 8810 	msr	PRIMASK, r0
10004530:	f04f 30ff 	mov.w	r0, #4294967295
10004534:	b003      	add	sp, #12
10004536:	bdf0      	pop	{r4, r5, r6, r7, pc}
10004538:	4620      	mov	r0, r4
1000453a:	b003      	add	sp, #12
1000453c:	bdf0      	pop	{r4, r5, r6, r7, pc}
1000453e:	bf00      	nop

10004540 <alarm_pool_add_alarm_at_force_in_context>:
10004540:	b5f0      	push	{r4, r5, r6, r7, lr}
10004542:	4616      	mov	r6, r2
10004544:	461f      	mov	r7, r3
10004546:	6902      	ldr	r2, [r0, #16]
10004548:	4603      	mov	r3, r0
1000454a:	f3ef 8010 	mrs	r0, PRIMASK
1000454e:	b672      	cpsid	i
10004550:	e8d2 4fcf 	ldaexb	r4, [r2]
10004554:	2101      	movs	r1, #1
10004556:	2c00      	cmp	r4, #0
10004558:	d1fa      	bne.n	10004550 <alarm_pool_add_alarm_at_force_in_context+0x10>
1000455a:	e8c2 1f44 	strexb	r4, r1, [r2]
1000455e:	2c00      	cmp	r4, #0
10004560:	d1f6      	bne.n	10004550 <alarm_pool_add_alarm_at_force_in_context+0x10>
10004562:	f3bf 8f5f 	dmb	sy
10004566:	f9b3 1002 	ldrsh.w	r1, [r3, #2]
1000456a:	691d      	ldr	r5, [r3, #16]
1000456c:	2900      	cmp	r1, #0
1000456e:	db45      	blt.n	100045fc <alarm_pool_add_alarm_at_force_in_context+0xbc>
10004570:	f8d3 e014 	ldr.w	lr, [r3, #20]
10004574:	eb01 0241 	add.w	r2, r1, r1, lsl #1
10004578:	f83e 4032 	ldrh.w	r4, [lr, r2, lsl #3]
1000457c:	eb0e 0cc2 	add.w	ip, lr, r2, lsl #3
10004580:	805c      	strh	r4, [r3, #2]
10004582:	2400      	movs	r4, #0
10004584:	e8c5 4f8f 	stlb	r4, [r5]
10004588:	f380 8810 	msr	PRIMASK, r0
1000458c:	9805      	ldr	r0, [sp, #20]
1000458e:	4635      	mov	r5, r6
10004590:	f8cc 0010 	str.w	r0, [ip, #16]
10004594:	9806      	ldr	r0, [sp, #24]
10004596:	463e      	mov	r6, r7
10004598:	f8cc 0014 	str.w	r0, [ip, #20]
1000459c:	f8bc 0002 	ldrh.w	r0, [ip, #2]
100045a0:	e9cc 5602 	strd	r5, r6, [ip, #8]
100045a4:	3001      	adds	r0, #1
100045a6:	f3c0 000e 	ubfx	r0, r0, #0, #15
100045aa:	2801      	cmp	r0, #1
100045ac:	bf38      	it	cc
100045ae:	2001      	movcc	r0, #1
100045b0:	f8ac 0002 	strh.w	r0, [ip, #2]
100045b4:	ea40 4001 	orr.w	r0, r0, r1, lsl #16
100045b8:	f8d3 c010 	ldr.w	ip, [r3, #16]
100045bc:	f3ef 8510 	mrs	r5, PRIMASK
100045c0:	b672      	cpsid	i
100045c2:	e8dc 7fcf 	ldaexb	r7, [ip]
100045c6:	2601      	movs	r6, #1
100045c8:	2f00      	cmp	r7, #0
100045ca:	d1fa      	bne.n	100045c2 <alarm_pool_add_alarm_at_force_in_context+0x82>
100045cc:	e8cc 6f47 	strexb	r7, r6, [ip]
100045d0:	2f00      	cmp	r7, #0
100045d2:	d1f6      	bne.n	100045c2 <alarm_pool_add_alarm_at_force_in_context+0x82>
100045d4:	f3bf 8f5f 	dmb	sy
100045d8:	f8b3 c004 	ldrh.w	ip, [r3, #4]
100045dc:	f82e c032 	strh.w	ip, [lr, r2, lsl #3]
100045e0:	8099      	strh	r1, [r3, #4]
100045e2:	691a      	ldr	r2, [r3, #16]
100045e4:	e8c2 4f8f 	stlb	r4, [r2]
100045e8:	f385 8810 	msr	PRIMASK, r5
100045ec:	2101      	movs	r1, #1
100045ee:	781c      	ldrb	r4, [r3, #0]
100045f0:	68da      	ldr	r2, [r3, #12]
100045f2:	40a1      	lsls	r1, r4
100045f4:	f502 5301 	add.w	r3, r2, #8256	@ 0x2040
100045f8:	6059      	str	r1, [r3, #4]
100045fa:	bdf0      	pop	{r4, r5, r6, r7, pc}
100045fc:	2300      	movs	r3, #0
100045fe:	e8c5 3f8f 	stlb	r3, [r5]
10004602:	f380 8810 	msr	PRIMASK, r0
10004606:	f04f 30ff 	mov.w	r0, #4294967295
1000460a:	bdf0      	pop	{r4, r5, r6, r7, pc}

1000460c <alarm_pool_cancel_alarm>:
1000460c:	4603      	mov	r3, r0
1000460e:	8940      	ldrh	r0, [r0, #10]
10004610:	ebb0 4f21 	cmp.w	r0, r1, asr #16
10004614:	dd3a      	ble.n	1000468c <alarm_pool_cancel_alarm+0x80>
10004616:	6958      	ldr	r0, [r3, #20]
10004618:	140a      	asrs	r2, r1, #16
1000461a:	eb02 0242 	add.w	r2, r2, r2, lsl #1
1000461e:	b510      	push	{r4, lr}
10004620:	f8d3 c010 	ldr.w	ip, [r3, #16]
10004624:	eb00 00c2 	add.w	r0, r0, r2, lsl #3
10004628:	f3ef 8e10 	mrs	lr, PRIMASK
1000462c:	b672      	cpsid	i
1000462e:	e8dc 4fcf 	ldaexb	r4, [ip]
10004632:	2201      	movs	r2, #1
10004634:	2c00      	cmp	r4, #0
10004636:	d1fa      	bne.n	1000462e <alarm_pool_cancel_alarm+0x22>
10004638:	e8cc 2f44 	strexb	r4, r2, [ip]
1000463c:	2c00      	cmp	r4, #0
1000463e:	d1f6      	bne.n	1000462e <alarm_pool_cancel_alarm+0x22>
10004640:	f3bf 8f5f 	dmb	sy
10004644:	8842      	ldrh	r2, [r0, #2]
10004646:	b289      	uxth	r1, r1
10004648:	b292      	uxth	r2, r2
1000464a:	428a      	cmp	r2, r1
1000464c:	d007      	beq.n	1000465e <alarm_pool_cancel_alarm+0x52>
1000464e:	2200      	movs	r2, #0
10004650:	691b      	ldr	r3, [r3, #16]
10004652:	e8c3 2f8f 	stlb	r2, [r3]
10004656:	f38e 8810 	msr	PRIMASK, lr
1000465a:	2000      	movs	r0, #0
1000465c:	bd10      	pop	{r4, pc}
1000465e:	ea6f 4242 	mvn.w	r2, r2, lsl #17
10004662:	ea6f 4252 	mvn.w	r2, r2, lsr #17
10004666:	8042      	strh	r2, [r0, #2]
10004668:	2101      	movs	r1, #1
1000466a:	2200      	movs	r2, #0
1000466c:	6918      	ldr	r0, [r3, #16]
1000466e:	7199      	strb	r1, [r3, #6]
10004670:	e8c0 2f8f 	stlb	r2, [r0]
10004674:	f38e 8810 	msr	PRIMASK, lr
10004678:	f893 c000 	ldrb.w	ip, [r3]
1000467c:	68da      	ldr	r2, [r3, #12]
1000467e:	4608      	mov	r0, r1
10004680:	f502 5301 	add.w	r3, r2, #8256	@ 0x2040
10004684:	fa01 f10c 	lsl.w	r1, r1, ip
10004688:	6059      	str	r1, [r3, #4]
1000468a:	bd10      	pop	{r4, pc}
1000468c:	2000      	movs	r0, #0
1000468e:	4770      	bx	lr

10004690 <alarm_pool_core_num>:
10004690:	7840      	ldrb	r0, [r0, #1]
10004692:	4770      	bx	lr

10004694 <best_effort_wfe_or_timeout>:
10004694:	f3ef 8205 	mrs	r2, IPSR
10004698:	b2d2      	uxtb	r2, r2
1000469a:	b182      	cbz	r2, 100046be <best_effort_wfe_or_timeout+0x2a>
1000469c:	4b38      	ldr	r3, [pc, #224]	@ (10004780 <best_effort_wfe_or_timeout+0xec>)
1000469e:	6a5a      	ldr	r2, [r3, #36]	@ 0x24
100046a0:	428a      	cmp	r2, r1
100046a2:	d202      	bcs.n	100046aa <best_effort_wfe_or_timeout+0x16>
100046a4:	2200      	movs	r2, #0
100046a6:	4610      	mov	r0, r2
100046a8:	4770      	bx	lr
100046aa:	bf14      	ite	ne
100046ac:	2201      	movne	r2, #1
100046ae:	2200      	moveq	r2, #0
100046b0:	6a9b      	ldr	r3, [r3, #40]	@ 0x28
100046b2:	4283      	cmp	r3, r0
100046b4:	bf28      	it	cs
100046b6:	f042 0201 	orrcs.w	r2, r2, #1
100046ba:	4610      	mov	r0, r2
100046bc:	4770      	bx	lr
100046be:	b570      	push	{r4, r5, r6, lr}
100046c0:	b084      	sub	sp, #16
100046c2:	9203      	str	r2, [sp, #12]
100046c4:	4a2f      	ldr	r2, [pc, #188]	@ (10004784 <best_effort_wfe_or_timeout+0xf0>)
100046c6:	4606      	mov	r6, r0
100046c8:	68d3      	ldr	r3, [r2, #12]
100046ca:	7815      	ldrb	r5, [r2, #0]
100046cc:	4618      	mov	r0, r3
100046ce:	460c      	mov	r4, r1
100046d0:	9302      	str	r3, [sp, #8]
100046d2:	f000 f86d 	bl	100047b0 <timer_time_us_64>
100046d6:	9b02      	ldr	r3, [sp, #8]
100046d8:	f105 0c04 	add.w	ip, r5, #4
100046dc:	f853 c02c 	ldr.w	ip, [r3, ip, lsl #2]
100046e0:	9a03      	ldr	r2, [sp, #12]
100046e2:	ebac 0c00 	sub.w	ip, ip, r0
100046e6:	1a30      	subs	r0, r6, r0
100046e8:	eb64 0101 	sbc.w	r1, r4, r1
100046ec:	4560      	cmp	r0, ip
100046ee:	f171 0100 	sbcs.w	r1, r1, #0
100046f2:	db0f      	blt.n	10004714 <best_effort_wfe_or_timeout+0x80>
100046f4:	bf20      	wfe
100046f6:	4b22      	ldr	r3, [pc, #136]	@ (10004780 <best_effort_wfe_or_timeout+0xec>)
100046f8:	6a59      	ldr	r1, [r3, #36]	@ 0x24
100046fa:	42a1      	cmp	r1, r4
100046fc:	d307      	bcc.n	1000470e <best_effort_wfe_or_timeout+0x7a>
100046fe:	bf14      	ite	ne
10004700:	2201      	movne	r2, #1
10004702:	2200      	moveq	r2, #0
10004704:	6a9b      	ldr	r3, [r3, #40]	@ 0x28
10004706:	42b3      	cmp	r3, r6
10004708:	bf28      	it	cs
1000470a:	f042 0201 	orrcs.w	r2, r2, #1
1000470e:	4610      	mov	r0, r2
10004710:	b004      	add	sp, #16
10004712:	bd70      	pop	{r4, r5, r6, pc}
10004714:	9202      	str	r2, [sp, #8]
10004716:	f000 f853 	bl	100047c0 <time_us_64>
1000471a:	4286      	cmp	r6, r0
1000471c:	eb64 0101 	sbc.w	r1, r4, r1
10004720:	2900      	cmp	r1, #0
10004722:	9a02      	ldr	r2, [sp, #8]
10004724:	db1b      	blt.n	1000475e <best_effort_wfe_or_timeout+0xca>
10004726:	4918      	ldr	r1, [pc, #96]	@ (10004788 <best_effort_wfe_or_timeout+0xf4>)
10004728:	4623      	mov	r3, r4
1000472a:	e9cd 1200 	strd	r1, r2, [sp]
1000472e:	4815      	ldr	r0, [pc, #84]	@ (10004784 <best_effort_wfe_or_timeout+0xf0>)
10004730:	4632      	mov	r2, r6
10004732:	f7ff ff05 	bl	10004540 <alarm_pool_add_alarm_at_force_in_context>
10004736:	1e01      	subs	r1, r0, #0
10004738:	dd11      	ble.n	1000475e <best_effort_wfe_or_timeout+0xca>
1000473a:	4b11      	ldr	r3, [pc, #68]	@ (10004780 <best_effort_wfe_or_timeout+0xec>)
1000473c:	6a5a      	ldr	r2, [r3, #36]	@ 0x24
1000473e:	42a2      	cmp	r2, r4
10004740:	d31c      	bcc.n	1000477c <best_effort_wfe_or_timeout+0xe8>
10004742:	6a9b      	ldr	r3, [r3, #40]	@ 0x28
10004744:	42b3      	cmp	r3, r6
10004746:	d317      	bcc.n	10004778 <best_effort_wfe_or_timeout+0xe4>
10004748:	480e      	ldr	r0, [pc, #56]	@ (10004784 <best_effort_wfe_or_timeout+0xf0>)
1000474a:	f7ff ff5f 	bl	1000460c <alarm_pool_cancel_alarm>
1000474e:	4b0c      	ldr	r3, [pc, #48]	@ (10004780 <best_effort_wfe_or_timeout+0xec>)
10004750:	6a5a      	ldr	r2, [r3, #36]	@ 0x24
10004752:	42a2      	cmp	r2, r4
10004754:	d2d3      	bcs.n	100046fe <best_effort_wfe_or_timeout+0x6a>
10004756:	2200      	movs	r2, #0
10004758:	4610      	mov	r0, r2
1000475a:	b004      	add	sp, #16
1000475c:	bd70      	pop	{r4, r5, r6, pc}
1000475e:	4b08      	ldr	r3, [pc, #32]	@ (10004780 <best_effort_wfe_or_timeout+0xec>)
10004760:	6a5a      	ldr	r2, [r3, #36]	@ 0x24
10004762:	42a2      	cmp	r2, r4
10004764:	d3f7      	bcc.n	10004756 <best_effort_wfe_or_timeout+0xc2>
10004766:	1b12      	subs	r2, r2, r4
10004768:	bf18      	it	ne
1000476a:	2201      	movne	r2, #1
1000476c:	6a9b      	ldr	r3, [r3, #40]	@ 0x28
1000476e:	42b3      	cmp	r3, r6
10004770:	bf28      	it	cs
10004772:	f042 0201 	orrcs.w	r2, r2, #1
10004776:	e7ca      	b.n	1000470e <best_effort_wfe_or_timeout+0x7a>
10004778:	42a2      	cmp	r2, r4
1000477a:	d1e5      	bne.n	10004748 <best_effort_wfe_or_timeout+0xb4>
1000477c:	bf20      	wfe
1000477e:	e7e3      	b.n	10004748 <best_effort_wfe_or_timeout+0xb4>
10004780:	400b0000 	.word	0x400b0000
10004784:	20001264 	.word	0x20001264
10004788:	1000431d 	.word	0x1000431d

1000478c <timer_hardware_alarm_claim>:
1000478c:	b410      	push	{r4}
1000478e:	4b05      	ldr	r3, [pc, #20]	@ (100047a4 <timer_hardware_alarm_claim+0x18>)
10004790:	4c05      	ldr	r4, [pc, #20]	@ (100047a8 <timer_hardware_alarm_claim+0x1c>)
10004792:	4a06      	ldr	r2, [pc, #24]	@ (100047ac <timer_hardware_alarm_claim+0x20>)
10004794:	42a0      	cmp	r0, r4
10004796:	bf14      	ite	ne
10004798:	4618      	movne	r0, r3
1000479a:	1c58      	addeq	r0, r3, #1
1000479c:	bc10      	pop	{r4}
1000479e:	f7ff b925 	b.w	100039ec <hw_claim_or_assert>
100047a2:	bf00      	nop
100047a4:	20001a54 	.word	0x20001a54
100047a8:	400b8000 	.word	0x400b8000
100047ac:	10009760 	.word	0x10009760

100047b0 <timer_time_us_64>:
100047b0:	4603      	mov	r3, r0
100047b2:	6a41      	ldr	r1, [r0, #36]	@ 0x24
100047b4:	460a      	mov	r2, r1
100047b6:	6a98      	ldr	r0, [r3, #40]	@ 0x28
100047b8:	6a59      	ldr	r1, [r3, #36]	@ 0x24
100047ba:	428a      	cmp	r2, r1
100047bc:	d1fa      	bne.n	100047b4 <timer_time_us_64+0x4>
100047be:	4770      	bx	lr

100047c0 <time_us_64>:
100047c0:	4b03      	ldr	r3, [pc, #12]	@ (100047d0 <time_us_64+0x10>)
100047c2:	6a59      	ldr	r1, [r3, #36]	@ 0x24
100047c4:	460a      	mov	r2, r1
100047c6:	6a98      	ldr	r0, [r3, #40]	@ 0x28
100047c8:	6a59      	ldr	r1, [r3, #36]	@ 0x24
100047ca:	4291      	cmp	r1, r2
100047cc:	d1fa      	bne.n	100047c4 <time_us_64+0x4>
100047ce:	4770      	bx	lr
100047d0:	400b0000 	.word	0x400b0000

100047d4 <pll_init>:
100047d4:	b510      	push	{r4, lr}
100047d6:	9c02      	ldr	r4, [sp, #8]
100047d8:	468e      	mov	lr, r1
100047da:	ea4f 3c04 	mov.w	ip, r4, lsl #12
100047de:	ea4c 4c03 	orr.w	ip, ip, r3, lsl #16
100047e2:	4b1c      	ldr	r3, [pc, #112]	@ (10004854 <pll_init+0x80>)
100047e4:	fbb3 f3f1 	udiv	r3, r3, r1
100047e8:	6801      	ldr	r1, [r0, #0]
100047ea:	fbb2 f4f3 	udiv	r4, r2, r3
100047ee:	2900      	cmp	r1, #0
100047f0:	db20      	blt.n	10004834 <pll_init+0x60>
100047f2:	4a19      	ldr	r2, [pc, #100]	@ (10004858 <pll_init+0x84>)
100047f4:	4b19      	ldr	r3, [pc, #100]	@ (1000485c <pll_init+0x88>)
100047f6:	4290      	cmp	r0, r2
100047f8:	bf14      	ite	ne
100047fa:	f44f 4280 	movne.w	r2, #16384	@ 0x4000
100047fe:	f44f 4200 	moveq.w	r2, #32768	@ 0x8000
10004802:	4917      	ldr	r1, [pc, #92]	@ (10004860 <pll_init+0x8c>)
10004804:	601a      	str	r2, [r3, #0]
10004806:	f503 5380 	add.w	r3, r3, #4096	@ 0x1000
1000480a:	601a      	str	r2, [r3, #0]
1000480c:	688b      	ldr	r3, [r1, #8]
1000480e:	ea32 0303 	bics.w	r3, r2, r3
10004812:	d1fb      	bne.n	1000480c <pll_init+0x38>
10004814:	2221      	movs	r2, #33	@ 0x21
10004816:	f500 5340 	add.w	r3, r0, #12288	@ 0x3000
1000481a:	3304      	adds	r3, #4
1000481c:	f8c0 e000 	str.w	lr, [r0]
10004820:	6084      	str	r4, [r0, #8]
10004822:	601a      	str	r2, [r3, #0]
10004824:	6802      	ldr	r2, [r0, #0]
10004826:	2a00      	cmp	r2, #0
10004828:	dafc      	bge.n	10004824 <pll_init+0x50>
1000482a:	2208      	movs	r2, #8
1000482c:	f8c0 c00c 	str.w	ip, [r0, #12]
10004830:	601a      	str	r2, [r3, #0]
10004832:	bd10      	pop	{r4, pc}
10004834:	6803      	ldr	r3, [r0, #0]
10004836:	f003 033f 	and.w	r3, r3, #63	@ 0x3f
1000483a:	4573      	cmp	r3, lr
1000483c:	d1d9      	bne.n	100047f2 <pll_init+0x1e>
1000483e:	6883      	ldr	r3, [r0, #8]
10004840:	f3c3 030b 	ubfx	r3, r3, #0, #12
10004844:	42a3      	cmp	r3, r4
10004846:	d1d4      	bne.n	100047f2 <pll_init+0x1e>
10004848:	68c3      	ldr	r3, [r0, #12]
1000484a:	f403 23ee 	and.w	r3, r3, #487424	@ 0x77000
1000484e:	4563      	cmp	r3, ip
10004850:	d1cf      	bne.n	100047f2 <pll_init+0x1e>
10004852:	bd10      	pop	{r4, pc}
10004854:	00b71b00 	.word	0x00b71b00
10004858:	40058000 	.word	0x40058000
1000485c:	40022000 	.word	0x40022000
10004860:	40020000 	.word	0x40020000

10004864 <watchdog_reboot>:
10004864:	f04f 4c80 	mov.w	ip, #1073741824	@ 0x40000000
10004868:	4b21      	ldr	r3, [pc, #132]	@ (100048f0 <watchdog_reboot+0x8c>)
1000486a:	b500      	push	{lr}
1000486c:	f8c3 c000 	str.w	ip, [r3]
10004870:	2800      	cmp	r0, #0
10004872:	d039      	beq.n	100048e8 <watchdog_reboot+0x84>
10004874:	f8df c088 	ldr.w	ip, [pc, #136]	@ 10004900 <watchdog_reboot+0x9c>
10004878:	f5a3 5340 	sub.w	r3, r3, #12288	@ 0x3000
1000487c:	f8c3 c01c 	str.w	ip, [r3, #28]
10004880:	f8df c080 	ldr.w	ip, [pc, #128]	@ 10004904 <watchdog_reboot+0xa0>
10004884:	f040 0001 	orr.w	r0, r0, #1
10004888:	ea80 0c0c 	eor.w	ip, r0, ip
1000488c:	f8c3 c020 	str.w	ip, [r3, #32]
10004890:	6259      	str	r1, [r3, #36]	@ 0x24
10004892:	6298      	str	r0, [r3, #40]	@ 0x28
10004894:	f04f 4e80 	mov.w	lr, #1073741824	@ 0x40000000
10004898:	f04f 61e0 	mov.w	r1, #117440512	@ 0x7000000
1000489c:	4b14      	ldr	r3, [pc, #80]	@ (100048f0 <watchdog_reboot+0x8c>)
1000489e:	4815      	ldr	r0, [pc, #84]	@ (100048f4 <watchdog_reboot+0x90>)
100048a0:	f8df c064 	ldr.w	ip, [pc, #100]	@ 10004908 <watchdog_reboot+0xa4>
100048a4:	f8c3 e000 	str.w	lr, [r3]
100048a8:	f8c0 c008 	str.w	ip, [r0, #8]
100048ac:	6019      	str	r1, [r3, #0]
100048ae:	b92a      	cbnz	r2, 100048bc <watchdog_reboot+0x58>
100048b0:	f04f 4200 	mov.w	r2, #2147483648	@ 0x80000000
100048b4:	f5a3 5380 	sub.w	r3, r3, #4096	@ 0x1000
100048b8:	601a      	str	r2, [r3, #0]
100048ba:	bd00      	pop	{pc}
100048bc:	f44f 737a 	mov.w	r3, #1000	@ 0x3e8
100048c0:	fb03 f202 	mul.w	r2, r3, r2
100048c4:	f1b2 7f80 	cmp.w	r2, #16777216	@ 0x1000000
100048c8:	bf2a      	itet	cs
100048ca:	f06f 437f 	mvncs.w	r3, #4278190080	@ 0xff000000
100048ce:	4613      	movcc	r3, r2
100048d0:	461a      	movcs	r2, r3
100048d2:	f04f 4180 	mov.w	r1, #1073741824	@ 0x40000000
100048d6:	f8df c034 	ldr.w	ip, [pc, #52]	@ 1000490c <watchdog_reboot+0xa8>
100048da:	4807      	ldr	r0, [pc, #28]	@ (100048f8 <watchdog_reboot+0x94>)
100048dc:	f8cc 3000 	str.w	r3, [ip]
100048e0:	4b06      	ldr	r3, [pc, #24]	@ (100048fc <watchdog_reboot+0x98>)
100048e2:	6042      	str	r2, [r0, #4]
100048e4:	6019      	str	r1, [r3, #0]
100048e6:	bd00      	pop	{pc}
100048e8:	4b03      	ldr	r3, [pc, #12]	@ (100048f8 <watchdog_reboot+0x94>)
100048ea:	61d8      	str	r0, [r3, #28]
100048ec:	e7d2      	b.n	10004894 <watchdog_reboot+0x30>
100048ee:	bf00      	nop
100048f0:	400db000 	.word	0x400db000
100048f4:	4001a000 	.word	0x4001a000
100048f8:	400d8000 	.word	0x400d8000
100048fc:	400da000 	.word	0x400da000
10004900:	b007c0d3 	.word	0xb007c0d3
10004904:	4ff83f2d 	.word	0x4ff83f2d
10004908:	01fffff3 	.word	0x01fffff3
1000490c:	20001ebc 	.word	0x20001ebc

10004910 <tick_start>:
10004910:	2301      	movs	r3, #1
10004912:	eb00 0040 	add.w	r0, r0, r0, lsl #1
10004916:	0080      	lsls	r0, r0, #2
10004918:	f100 4080 	add.w	r0, r0, #1073741824	@ 0x40000000
1000491c:	f500 1084 	add.w	r0, r0, #1081344	@ 0x108000
10004920:	6041      	str	r1, [r0, #4]
10004922:	6003      	str	r3, [r0, #0]
10004924:	4770      	bx	lr
10004926:	bf00      	nop

10004928 <rom_reboot.constprop.0.isra.0>:
10004928:	b510      	push	{r4, lr}
1000492a:	2400      	movs	r4, #0
1000492c:	b082      	sub	sp, #8
1000492e:	460b      	mov	r3, r1
10004930:	8ae4      	ldrh	r4, [r4, #22]
10004932:	2100      	movs	r1, #0
10004934:	e841 f100 	tt	r1, r1
10004938:	e9cd 0300 	strd	r0, r3, [sp]
1000493c:	024b      	lsls	r3, r1, #9
1000493e:	bf54      	ite	pl
10004940:	2110      	movpl	r1, #16
10004942:	2104      	movmi	r1, #4
10004944:	f244 2052 	movw	r0, #16978	@ 0x4252
10004948:	47a0      	blx	r4
1000494a:	e9dd 2300 	ldrd	r2, r3, [sp]
1000494e:	4686      	mov	lr, r0
10004950:	210a      	movs	r1, #10
10004952:	f44f 7081 	mov.w	r0, #258	@ 0x102
10004956:	46f4      	mov	ip, lr
10004958:	b002      	add	sp, #8
1000495a:	e8bd 4010 	ldmia.w	sp!, {r4, lr}
1000495e:	4760      	bx	ip

10004960 <rom_func_lookup>:
10004960:	2300      	movs	r3, #0
10004962:	8adb      	ldrh	r3, [r3, #22]
10004964:	2200      	movs	r2, #0
10004966:	e842 f200 	tt	r2, r2
1000496a:	0252      	lsls	r2, r2, #9
1000496c:	d401      	bmi.n	10004972 <rom_func_lookup+0x12>
1000496e:	2110      	movs	r1, #16
10004970:	4718      	bx	r3
10004972:	2104      	movs	r1, #4
10004974:	4718      	bx	r3
10004976:	bf00      	nop

10004978 <rom_reset_usb_boot_extra>:
10004978:	b508      	push	{r3, lr}
1000497a:	4603      	mov	r3, r0
1000497c:	4608      	mov	r0, r1
1000497e:	1e19      	subs	r1, r3, #0
10004980:	db02      	blt.n	10004988 <rom_reset_usb_boot_extra+0x10>
10004982:	b11a      	cbz	r2, 1000498c <rom_reset_usb_boot_extra+0x14>
10004984:	f040 0030 	orr.w	r0, r0, #48	@ 0x30
10004988:	f7ff ffce 	bl	10004928 <rom_reboot.constprop.0.isra.0>
1000498c:	f040 0020 	orr.w	r0, r0, #32
10004990:	e7fa      	b.n	10004988 <rom_reset_usb_boot_extra+0x10>
10004992:	bf00      	nop

10004994 <runtime_init_bootrom_locking_enable>:
10004994:	4a03      	ldr	r2, [pc, #12]	@ (100049a4 <runtime_init_bootrom_locking_enable+0x10>)
10004996:	f8d2 3828 	ldr.w	r3, [r2, #2088]	@ 0x828
1000499a:	2b00      	cmp	r3, #0
1000499c:	d0fb      	beq.n	10004996 <runtime_init_bootrom_locking_enable+0x2>
1000499e:	f3bf 8f5f 	dmb	sy
100049a2:	4770      	bx	lr
100049a4:	400e0000 	.word	0x400e0000

100049a8 <runtime_init_boot_locks_reset>:
100049a8:	2100      	movs	r1, #0
100049aa:	4b04      	ldr	r3, [pc, #16]	@ (100049bc <runtime_init_boot_locks_reset+0x14>)
100049ac:	4a04      	ldr	r2, [pc, #16]	@ (100049c0 <runtime_init_boot_locks_reset+0x18>)
100049ae:	f3bf 8f5f 	dmb	sy
100049b2:	f843 1b04 	str.w	r1, [r3], #4
100049b6:	4293      	cmp	r3, r2
100049b8:	d1f9      	bne.n	100049ae <runtime_init_boot_locks_reset+0x6>
100049ba:	4770      	bx	lr
100049bc:	400e080c 	.word	0x400e080c
100049c0:	400e082c 	.word	0x400e082c

100049c4 <xosc_init>:
100049c4:	f44f 6c2a 	mov.w	ip, #2720	@ 0xaa0
100049c8:	f44f 708d 	mov.w	r0, #282	@ 0x11a
100049cc:	4a05      	ldr	r2, [pc, #20]	@ (100049e4 <xosc_init+0x20>)
100049ce:	4b06      	ldr	r3, [pc, #24]	@ (100049e8 <xosc_init+0x24>)
100049d0:	4906      	ldr	r1, [pc, #24]	@ (100049ec <xosc_init+0x28>)
100049d2:	f8c2 c000 	str.w	ip, [r2]
100049d6:	60d0      	str	r0, [r2, #12]
100049d8:	6019      	str	r1, [r3, #0]
100049da:	6853      	ldr	r3, [r2, #4]
100049dc:	2b00      	cmp	r3, #0
100049de:	dafc      	bge.n	100049da <xosc_init+0x16>
100049e0:	4770      	bx	lr
100049e2:	bf00      	nop
100049e4:	40048000 	.word	0x40048000
100049e8:	4004a000 	.word	0x4004a000
100049ec:	00fab000 	.word	0x00fab000

100049f0 <exception_set_exclusive_handler>:
100049f0:	b500      	push	{lr}
100049f2:	b085      	sub	sp, #20
100049f4:	f3ef 8210 	mrs	r2, PRIMASK
100049f8:	b672      	cpsid	i
100049fa:	4b13      	ldr	r3, [pc, #76]	@ (10004a48 <exception_set_exclusive_handler+0x58>)
100049fc:	689b      	ldr	r3, [r3, #8]
100049fe:	f853 3020 	ldr.w	r3, [r3, r0, lsl #2]
10004a02:	4299      	cmp	r1, r3
10004a04:	d00d      	beq.n	10004a22 <exception_set_exclusive_handler+0x32>
10004a06:	f8df c044 	ldr.w	ip, [pc, #68]	@ 10004a4c <exception_set_exclusive_handler+0x5c>
10004a0a:	4563      	cmp	r3, ip
10004a0c:	d216      	bcs.n	10004a3c <exception_set_exclusive_handler+0x4c>
10004a0e:	e9cd 0102 	strd	r0, r1, [sp, #8]
10004a12:	e9cd 3200 	strd	r3, r2, [sp]
10004a16:	f000 f90b 	bl	10004c30 <hard_assertion_failure>
10004a1a:	e9dd 0102 	ldrd	r0, r1, [sp, #8]
10004a1e:	e9dd 3200 	ldrd	r3, r2, [sp]
10004a22:	f8df c024 	ldr.w	ip, [pc, #36]	@ 10004a48 <exception_set_exclusive_handler+0x58>
10004a26:	f8dc c008 	ldr.w	ip, [ip, #8]
10004a2a:	f84c 1020 	str.w	r1, [ip, r0, lsl #2]
10004a2e:	f3bf 8f5f 	dmb	sy
10004a32:	f382 8810 	msr	PRIMASK, r2
10004a36:	4618      	mov	r0, r3
10004a38:	b005      	add	sp, #20
10004a3a:	bd00      	pop	{pc}
10004a3c:	f8df c010 	ldr.w	ip, [pc, #16]	@ 10004a50 <exception_set_exclusive_handler+0x60>
10004a40:	4563      	cmp	r3, ip
10004a42:	d3ee      	bcc.n	10004a22 <exception_set_exclusive_handler+0x32>
10004a44:	e7e3      	b.n	10004a0e <exception_set_exclusive_handler+0x1e>
10004a46:	bf00      	nop
10004a48:	e000ed00 	.word	0xe000ed00
10004a4c:	10000110 	.word	0x10000110
10004a50:	10000124 	.word	0x10000124

10004a54 <core1_trampoline>:
10004a54:	bd03      	pop	{r0, r1, pc}
10004a56:	bf00      	nop

10004a58 <core1_wrapper>:
10004a58:	b500      	push	{lr}
10004a5a:	b083      	sub	sp, #12
10004a5c:	9001      	str	r0, [sp, #4]
10004a5e:	f000 f8fd 	bl	10004c5c <runtime_run_per_core_initializers>
10004a62:	9801      	ldr	r0, [sp, #4]
10004a64:	b003      	add	sp, #12
10004a66:	f85d eb04 	ldr.w	lr, [sp], #4
10004a6a:	4700      	bx	r0

10004a6c <multicore_launch_core1_raw>:
10004a6c:	b570      	push	{r4, r5, r6, lr}
10004a6e:	4605      	mov	r5, r0
10004a70:	b088      	sub	sp, #32
10004a72:	2019      	movs	r0, #25
10004a74:	460c      	mov	r4, r1
10004a76:	9201      	str	r2, [sp, #4]
10004a78:	f7ff f898 	bl	10003bac <irq_is_enabled>
10004a7c:	2100      	movs	r1, #0
10004a7e:	4606      	mov	r6, r0
10004a80:	2019      	movs	r0, #25
10004a82:	f7ff f87d 	bl	10003b80 <irq_set_enabled>
10004a86:	2300      	movs	r3, #0
10004a88:	4619      	mov	r1, r3
10004a8a:	9a01      	ldr	r2, [sp, #4]
10004a8c:	e9cd 3302 	strd	r3, r3, [sp, #8]
10004a90:	9205      	str	r2, [sp, #20]
10004a92:	2201      	movs	r2, #1
10004a94:	f04f 4350 	mov.w	r3, #3489660928	@ 0xd0000000
10004a98:	4608      	mov	r0, r1
10004a9a:	9406      	str	r4, [sp, #24]
10004a9c:	9507      	str	r5, [sp, #28]
10004a9e:	9204      	str	r2, [sp, #16]
10004aa0:	b1a1      	cbz	r1, 10004acc <multicore_launch_core1_raw+0x60>
10004aa2:	6d1a      	ldr	r2, [r3, #80]	@ 0x50
10004aa4:	0795      	lsls	r5, r2, #30
10004aa6:	d5fc      	bpl.n	10004aa2 <multicore_launch_core1_raw+0x36>
10004aa8:	6559      	str	r1, [r3, #84]	@ 0x54
10004aaa:	bf40      	sev
10004aac:	6d1a      	ldr	r2, [r3, #80]	@ 0x50
10004aae:	07d4      	lsls	r4, r2, #31
10004ab0:	d403      	bmi.n	10004aba <multicore_launch_core1_raw+0x4e>
10004ab2:	bf20      	wfe
10004ab4:	6d1a      	ldr	r2, [r3, #80]	@ 0x50
10004ab6:	07d2      	lsls	r2, r2, #31
10004ab8:	d5fb      	bpl.n	10004ab2 <multicore_launch_core1_raw+0x46>
10004aba:	6d9a      	ldr	r2, [r3, #88]	@ 0x58
10004abc:	428a      	cmp	r2, r1
10004abe:	d00a      	beq.n	10004ad6 <multicore_launch_core1_raw+0x6a>
10004ac0:	2000      	movs	r0, #0
10004ac2:	eb0d 0280 	add.w	r2, sp, r0, lsl #2
10004ac6:	6891      	ldr	r1, [r2, #8]
10004ac8:	e7ea      	b.n	10004aa0 <multicore_launch_core1_raw+0x34>
10004aca:	6d9a      	ldr	r2, [r3, #88]	@ 0x58
10004acc:	6d1a      	ldr	r2, [r3, #80]	@ 0x50
10004ace:	07d2      	lsls	r2, r2, #31
10004ad0:	d4fb      	bmi.n	10004aca <multicore_launch_core1_raw+0x5e>
10004ad2:	bf40      	sev
10004ad4:	e7e5      	b.n	10004aa2 <multicore_launch_core1_raw+0x36>
10004ad6:	3001      	adds	r0, #1
10004ad8:	2806      	cmp	r0, #6
10004ada:	d1f2      	bne.n	10004ac2 <multicore_launch_core1_raw+0x56>
10004adc:	4631      	mov	r1, r6
10004ade:	2019      	movs	r0, #25
10004ae0:	b008      	add	sp, #32
10004ae2:	e8bd 4070 	ldmia.w	sp!, {r4, r5, r6, lr}
10004ae6:	f7ff b84b 	b.w	10003b80 <irq_set_enabled>
10004aea:	bf00      	nop

10004aec <multicore_launch_core1>:
10004aec:	4b0c      	ldr	r3, [pc, #48]	@ (10004b20 <multicore_launch_core1+0x34>)
10004aee:	4a0d      	ldr	r2, [pc, #52]	@ (10004b24 <multicore_launch_core1+0x38>)
10004af0:	4293      	cmp	r3, r2
10004af2:	d30e      	bcc.n	10004b12 <multicore_launch_core1+0x26>
10004af4:	469c      	mov	ip, r3
10004af6:	f203 71f4 	addw	r1, r3, #2036	@ 0x7f4
10004afa:	4a0b      	ldr	r2, [pc, #44]	@ (10004b28 <multicore_launch_core1+0x3c>)
10004afc:	6892      	ldr	r2, [r2, #8]
10004afe:	f8cc 07f4 	str.w	r0, [ip, #2036]	@ 0x7f4
10004b02:	480a      	ldr	r0, [pc, #40]	@ (10004b2c <multicore_launch_core1+0x40>)
10004b04:	f8cc 37f8 	str.w	r3, [ip, #2040]	@ 0x7f8
10004b08:	f8cc 07fc 	str.w	r0, [ip, #2044]	@ 0x7fc
10004b0c:	4808      	ldr	r0, [pc, #32]	@ (10004b30 <multicore_launch_core1+0x44>)
10004b0e:	f7ff bfad 	b.w	10004a6c <multicore_launch_core1_raw>
10004b12:	f04f 33ff 	mov.w	r3, #4294967295
10004b16:	f240 71f3 	movw	r1, #2035	@ 0x7f3
10004b1a:	469c      	mov	ip, r3
10004b1c:	e7ed      	b.n	10004afa <multicore_launch_core1+0xe>
10004b1e:	bf00      	nop
10004b20:	20080800 	.word	0x20080800
10004b24:	20080000 	.word	0x20080000
10004b28:	e000ed00 	.word	0xe000ed00
10004b2c:	10004a59 	.word	0x10004a59
10004b30:	10004a55 	.word	0x10004a55

10004b34 <multicore_doorbell_claim_unused>:
10004b34:	b570      	push	{r4, r5, r6, lr}
10004b36:	4605      	mov	r5, r0
10004b38:	460e      	mov	r6, r1
10004b3a:	f7fe ff3b 	bl	100039b4 <hw_claim_lock>
10004b3e:	4939      	ldr	r1, [pc, #228]	@ (10004c24 <multicore_doorbell_claim_unused+0xf0>)
10004b40:	788c      	ldrb	r4, [r1, #2]
10004b42:	f991 3000 	ldrsb.w	r3, [r1]
10004b46:	f004 0401 	and.w	r4, r4, #1
10004b4a:	0fdb      	lsrs	r3, r3, #31
10004b4c:	ea43 0344 	orr.w	r3, r3, r4, lsl #1
10004b50:	422b      	tst	r3, r5
10004b52:	780a      	ldrb	r2, [r1, #0]
10004b54:	d056      	beq.n	10004c04 <multicore_doorbell_claim_unused+0xd0>
10004b56:	f991 3001 	ldrsb.w	r3, [r1, #1]
10004b5a:	f3c2 1480 	ubfx	r4, r2, #6, #1
10004b5e:	0fdb      	lsrs	r3, r3, #31
10004b60:	ea44 0443 	orr.w	r4, r4, r3, lsl #1
10004b64:	422c      	tst	r4, r5
10004b66:	784b      	ldrb	r3, [r1, #1]
10004b68:	d04f      	beq.n	10004c0a <multicore_doorbell_claim_unused+0xd6>
10004b6a:	f3c3 1c80 	ubfx	ip, r3, #6, #1
10004b6e:	f3c2 1440 	ubfx	r4, r2, #5, #1
10004b72:	ea44 044c 	orr.w	r4, r4, ip, lsl #1
10004b76:	422c      	tst	r4, r5
10004b78:	d04a      	beq.n	10004c10 <multicore_doorbell_claim_unused+0xdc>
10004b7a:	f3c3 1c40 	ubfx	ip, r3, #5, #1
10004b7e:	f3c2 1400 	ubfx	r4, r2, #4, #1
10004b82:	ea44 044c 	orr.w	r4, r4, ip, lsl #1
10004b86:	422c      	tst	r4, r5
10004b88:	d045      	beq.n	10004c16 <multicore_doorbell_claim_unused+0xe2>
10004b8a:	f3c3 1c00 	ubfx	ip, r3, #4, #1
10004b8e:	f3c2 04c0 	ubfx	r4, r2, #3, #1
10004b92:	ea44 044c 	orr.w	r4, r4, ip, lsl #1
10004b96:	422c      	tst	r4, r5
10004b98:	d040      	beq.n	10004c1c <multicore_doorbell_claim_unused+0xe8>
10004b9a:	f3c3 0cc0 	ubfx	ip, r3, #3, #1
10004b9e:	f3c2 0480 	ubfx	r4, r2, #2, #1
10004ba2:	ea44 044c 	orr.w	r4, r4, ip, lsl #1
10004ba6:	422c      	tst	r4, r5
10004ba8:	d012      	beq.n	10004bd0 <multicore_doorbell_claim_unused+0x9c>
10004baa:	f3c3 0c80 	ubfx	ip, r3, #2, #1
10004bae:	f3c2 0440 	ubfx	r4, r2, #1, #1
10004bb2:	ea44 044c 	orr.w	r4, r4, ip, lsl #1
10004bb6:	422c      	tst	r4, r5
10004bb8:	d019      	beq.n	10004bee <multicore_doorbell_claim_unused+0xba>
10004bba:	f003 0402 	and.w	r4, r3, #2
10004bbe:	f002 0301 	and.w	r3, r2, #1
10004bc2:	431c      	orrs	r4, r3
10004bc4:	402c      	ands	r4, r5
10004bc6:	d015      	beq.n	10004bf4 <multicore_doorbell_claim_unused+0xc0>
10004bc8:	b1b6      	cbz	r6, 10004bf8 <multicore_doorbell_claim_unused+0xc4>
10004bca:	4817      	ldr	r0, [pc, #92]	@ (10004c28 <multicore_doorbell_claim_unused+0xf4>)
10004bcc:	f7fe feda 	bl	10003984 <panic>
10004bd0:	2402      	movs	r4, #2
10004bd2:	2304      	movs	r3, #4
10004bd4:	07ee      	lsls	r6, r5, #31
10004bd6:	bf44      	itt	mi
10004bd8:	431a      	orrmi	r2, r3
10004bda:	700a      	strbmi	r2, [r1, #0]
10004bdc:	07aa      	lsls	r2, r5, #30
10004bde:	d502      	bpl.n	10004be6 <multicore_doorbell_claim_unused+0xb2>
10004be0:	784a      	ldrb	r2, [r1, #1]
10004be2:	4313      	orrs	r3, r2
10004be4:	704b      	strb	r3, [r1, #1]
10004be6:	f7fe fef7 	bl	100039d8 <hw_claim_unlock>
10004bea:	4620      	mov	r0, r4
10004bec:	bd70      	pop	{r4, r5, r6, pc}
10004bee:	2401      	movs	r4, #1
10004bf0:	2302      	movs	r3, #2
10004bf2:	e7ef      	b.n	10004bd4 <multicore_doorbell_claim_unused+0xa0>
10004bf4:	2301      	movs	r3, #1
10004bf6:	e7ed      	b.n	10004bd4 <multicore_doorbell_claim_unused+0xa0>
10004bf8:	f06f 0408 	mvn.w	r4, #8
10004bfc:	f7fe feec 	bl	100039d8 <hw_claim_unlock>
10004c00:	4620      	mov	r0, r4
10004c02:	bd70      	pop	{r4, r5, r6, pc}
10004c04:	2407      	movs	r4, #7
10004c06:	2380      	movs	r3, #128	@ 0x80
10004c08:	e7e4      	b.n	10004bd4 <multicore_doorbell_claim_unused+0xa0>
10004c0a:	2406      	movs	r4, #6
10004c0c:	2340      	movs	r3, #64	@ 0x40
10004c0e:	e7e1      	b.n	10004bd4 <multicore_doorbell_claim_unused+0xa0>
10004c10:	2405      	movs	r4, #5
10004c12:	2320      	movs	r3, #32
10004c14:	e7de      	b.n	10004bd4 <multicore_doorbell_claim_unused+0xa0>
10004c16:	2404      	movs	r4, #4
10004c18:	2310      	movs	r3, #16
10004c1a:	e7db      	b.n	10004bd4 <multicore_doorbell_claim_unused+0xa0>
10004c1c:	2403      	movs	r4, #3
10004c1e:	2308      	movs	r3, #8
10004c20:	e7d8      	b.n	10004bd4 <multicore_doorbell_claim_unused+0xa0>
10004c22:	bf00      	nop
10004c24:	20001aa8 	.word	0x20001aa8
10004c28:	10009784 	.word	0x10009784

10004c2c <first_per_core_initializer>:
10004c2c:	4770      	bx	lr
10004c2e:	bf00      	nop

10004c30 <hard_assertion_failure>:
10004c30:	b508      	push	{r3, lr}
10004c32:	4801      	ldr	r0, [pc, #4]	@ (10004c38 <hard_assertion_failure+0x8>)
10004c34:	f7fe fea6 	bl	10003984 <panic>
10004c38:	10009798 	.word	0x10009798

10004c3c <runtime_run_initializers>:
10004c3c:	b538      	push	{r3, r4, r5, lr}
10004c3e:	4c05      	ldr	r4, [pc, #20]	@ (10004c54 <runtime_run_initializers+0x18>)
10004c40:	4d05      	ldr	r5, [pc, #20]	@ (10004c58 <runtime_run_initializers+0x1c>)
10004c42:	42ac      	cmp	r4, r5
10004c44:	d204      	bcs.n	10004c50 <runtime_run_initializers+0x14>
10004c46:	f854 3b04 	ldr.w	r3, [r4], #4
10004c4a:	4798      	blx	r3
10004c4c:	42ac      	cmp	r4, r5
10004c4e:	d3fa      	bcc.n	10004c46 <runtime_run_initializers+0xa>
10004c50:	bd38      	pop	{r3, r4, r5, pc}
10004c52:	bf00      	nop
10004c54:	10009660 	.word	0x10009660
10004c58:	100096a0 	.word	0x100096a0

10004c5c <runtime_run_per_core_initializers>:
10004c5c:	b538      	push	{r3, r4, r5, lr}
10004c5e:	4c05      	ldr	r4, [pc, #20]	@ (10004c74 <runtime_run_per_core_initializers+0x18>)
10004c60:	4d05      	ldr	r5, [pc, #20]	@ (10004c78 <runtime_run_per_core_initializers+0x1c>)
10004c62:	42ac      	cmp	r4, r5
10004c64:	d204      	bcs.n	10004c70 <runtime_run_per_core_initializers+0x14>
10004c66:	f854 3b04 	ldr.w	r3, [r4], #4
10004c6a:	4798      	blx	r3
10004c6c:	42ac      	cmp	r4, r5
10004c6e:	d3fa      	bcc.n	10004c66 <runtime_run_per_core_initializers+0xa>
10004c70:	bd38      	pop	{r3, r4, r5, pc}
10004c72:	bf00      	nop
10004c74:	1000968c 	.word	0x1000968c
10004c78:	100096a0 	.word	0x100096a0

10004c7c <runtime_init_early_resets>:
10004c7c:	4806      	ldr	r0, [pc, #24]	@ (10004c98 <runtime_init_early_resets+0x1c>)
10004c7e:	f8df c028 	ldr.w	ip, [pc, #40]	@ 10004ca8 <runtime_init_early_resets+0x2c>
10004c82:	4b06      	ldr	r3, [pc, #24]	@ (10004c9c <runtime_init_early_resets+0x20>)
10004c84:	4a06      	ldr	r2, [pc, #24]	@ (10004ca0 <runtime_init_early_resets+0x24>)
10004c86:	4907      	ldr	r1, [pc, #28]	@ (10004ca4 <runtime_init_early_resets+0x28>)
10004c88:	f8c0 c000 	str.w	ip, [r0]
10004c8c:	601a      	str	r2, [r3, #0]
10004c8e:	688b      	ldr	r3, [r1, #8]
10004c90:	ea32 0303 	bics.w	r3, r2, r3
10004c94:	d1fb      	bne.n	10004c8e <runtime_init_early_resets+0x12>
10004c96:	4770      	bx	lr
10004c98:	40022000 	.word	0x40022000
10004c9c:	40023000 	.word	0x40023000
10004ca0:	03f3fff6 	.word	0x03f3fff6
10004ca4:	40020000 	.word	0x40020000
10004ca8:	efef3b7f 	.word	0xefef3b7f

10004cac <runtime_init_usb_power_down>:
10004cac:	4b04      	ldr	r3, [pc, #16]	@ (10004cc0 <runtime_init_usb_power_down+0x14>)
10004cae:	6cdb      	ldr	r3, [r3, #76]	@ 0x4c
10004cb0:	f5b3 4f00 	cmp.w	r3, #32768	@ 0x8000
10004cb4:	d103      	bne.n	10004cbe <runtime_init_usb_power_down+0x12>
10004cb6:	f44f 2280 	mov.w	r2, #262144	@ 0x40000
10004cba:	4b02      	ldr	r3, [pc, #8]	@ (10004cc4 <runtime_init_usb_power_down+0x18>)
10004cbc:	64da      	str	r2, [r3, #76]	@ 0x4c
10004cbe:	4770      	bx	lr
10004cc0:	50110000 	.word	0x50110000
10004cc4:	50112000 	.word	0x50112000

10004cc8 <runtime_init_per_core_enable_coprocessors>:
10004cc8:	f04f 22e0 	mov.w	r2, #3758153728	@ 0xe000e000
10004ccc:	4b04      	ldr	r3, [pc, #16]	@ (10004ce0 <runtime_init_per_core_enable_coprocessors+0x18>)
10004cce:	f8d2 1d88 	ldr.w	r1, [r2, #3464]	@ 0xd88
10004cd2:	430b      	orrs	r3, r1
10004cd4:	f8c2 3d88 	str.w	r3, [r2, #3464]	@ 0xd88
10004cd8:	ee10 0430 			dcp_rcmp r0
10004cdc:	4770      	bx	lr
10004cde:	bf00      	nop
10004ce0:	00300303 	.word	0x00300303

10004ce4 <runtime_init_post_clock_resets>:
10004ce4:	f06f 4160 	mvn.w	r1, #3758096384	@ 0xe0000000
10004ce8:	4b04      	ldr	r3, [pc, #16]	@ (10004cfc <runtime_init_post_clock_resets+0x18>)
10004cea:	4a05      	ldr	r2, [pc, #20]	@ (10004d00 <runtime_init_post_clock_resets+0x1c>)
10004cec:	6019      	str	r1, [r3, #0]
10004cee:	6893      	ldr	r3, [r2, #8]
10004cf0:	43db      	mvns	r3, r3
10004cf2:	f033 4360 	bics.w	r3, r3, #3758096384	@ 0xe0000000
10004cf6:	d1fa      	bne.n	10004cee <runtime_init_post_clock_resets+0xa>
10004cf8:	4770      	bx	lr
10004cfa:	bf00      	nop
10004cfc:	40023000 	.word	0x40023000
10004d00:	40020000 	.word	0x40020000

10004d04 <runtime_init_bootrom_reset>:
10004d04:	b510      	push	{r4, lr}
10004d06:	f245 2053 	movw	r0, #21075	@ 0x5253
10004d0a:	f7ff fe29 	bl	10004960 <rom_func_lookup>
10004d0e:	e8bd 4010 	ldmia.w	sp!, {r4, lr}
10004d12:	4603      	mov	r3, r0
10004d14:	2004      	movs	r0, #4
10004d16:	4718      	bx	r3

10004d18 <runtime_init_per_core_bootrom_reset>:
10004d18:	b510      	push	{r4, lr}
10004d1a:	f245 2053 	movw	r0, #21075	@ 0x5253
10004d1e:	f7ff fe1f 	bl	10004960 <rom_func_lookup>
10004d22:	e8bd 4010 	ldmia.w	sp!, {r4, lr}
10004d26:	4603      	mov	r3, r0
10004d28:	2001      	movs	r0, #1
10004d2a:	4718      	bx	r3

10004d2c <runtime_init_spin_locks_reset>:
10004d2c:	f7fe befc 	b.w	10003b28 <spin_locks_reset>

10004d30 <runtime_init_install_ram_vector_table>:
10004d30:	4914      	ldr	r1, [pc, #80]	@ (10004d84 <runtime_init_install_ram_vector_table+0x54>)
10004d32:	4b15      	ldr	r3, [pc, #84]	@ (10004d88 <runtime_init_install_ram_vector_table+0x58>)
10004d34:	b570      	push	{r4, r5, r6, lr}
10004d36:	1a5c      	subs	r4, r3, r1
10004d38:	10a6      	asrs	r6, r4, #2
10004d3a:	2e44      	cmp	r6, #68	@ 0x44
10004d3c:	4632      	mov	r2, r6
10004d3e:	bf28      	it	cs
10004d40:	2244      	movcs	r2, #68	@ 0x44
10004d42:	4d12      	ldr	r5, [pc, #72]	@ (10004d8c <runtime_init_install_ram_vector_table+0x5c>)
10004d44:	0092      	lsls	r2, r2, #2
10004d46:	4628      	mov	r0, r5
10004d48:	f004 fbb8 	bl	100094bc <memcpy>
10004d4c:	f5b4 7f86 	cmp.w	r4, #268	@ 0x10c
10004d50:	d813      	bhi.n	10004d7a <runtime_init_install_ram_vector_table+0x4a>
10004d52:	4a0f      	ldr	r2, [pc, #60]	@ (10004d90 <runtime_init_install_ram_vector_table+0x60>)
10004d54:	d014      	beq.n	10004d80 <runtime_init_install_ram_vector_table+0x50>
10004d56:	f1c6 0044 	rsb	r0, r6, #68	@ 0x44
10004d5a:	192b      	adds	r3, r5, r4
10004d5c:	0841      	lsrs	r1, r0, #1
10004d5e:	eb03 01c1 	add.w	r1, r3, r1, lsl #3
10004d62:	e9c3 2200 	strd	r2, r2, [r3]
10004d66:	3308      	adds	r3, #8
10004d68:	4299      	cmp	r1, r3
10004d6a:	d1fa      	bne.n	10004d62 <runtime_init_install_ram_vector_table+0x32>
10004d6c:	07c3      	lsls	r3, r0, #31
10004d6e:	d504      	bpl.n	10004d7a <runtime_init_install_ram_vector_table+0x4a>
10004d70:	f020 0001 	bic.w	r0, r0, #1
10004d74:	4430      	add	r0, r6
10004d76:	f845 2020 	str.w	r2, [r5, r0, lsl #2]
10004d7a:	4b06      	ldr	r3, [pc, #24]	@ (10004d94 <runtime_init_install_ram_vector_table+0x64>)
10004d7c:	609d      	str	r5, [r3, #8]
10004d7e:	bd70      	pop	{r4, r5, r6, pc}
10004d80:	2043      	movs	r0, #67	@ 0x43
10004d82:	e7f8      	b.n	10004d76 <runtime_init_install_ram_vector_table+0x46>
10004d84:	10000000 	.word	0x10000000
10004d88:	10000110 	.word	0x10000110
10004d8c:	20000000 	.word	0x20000000
10004d90:	10000111 	.word	0x10000111
10004d94:	e000ed00 	.word	0xe000ed00

10004d98 <runtime_init_clocks>:
10004d98:	2300      	movs	r3, #0
10004d9a:	b570      	push	{r4, r5, r6, lr}
10004d9c:	4c2b      	ldr	r4, [pc, #172]	@ (10004e4c <runtime_init_clocks+0xb4>)
10004d9e:	b082      	sub	sp, #8
10004da0:	f8c4 3084 	str.w	r3, [r4, #132]	@ 0x84
10004da4:	f7ff fe0e 	bl	100049c4 <xosc_init>
10004da8:	2201      	movs	r2, #1
10004daa:	4b29      	ldr	r3, [pc, #164]	@ (10004e50 <runtime_init_clocks+0xb8>)
10004dac:	63da      	str	r2, [r3, #60]	@ 0x3c
10004dae:	6c63      	ldr	r3, [r4, #68]	@ 0x44
10004db0:	2b01      	cmp	r3, #1
10004db2:	d1fc      	bne.n	10004dae <runtime_init_clocks+0x16>
10004db4:	2103      	movs	r1, #3
10004db6:	4a26      	ldr	r2, [pc, #152]	@ (10004e50 <runtime_init_clocks+0xb8>)
10004db8:	4b24      	ldr	r3, [pc, #144]	@ (10004e4c <runtime_init_clocks+0xb4>)
10004dba:	6311      	str	r1, [r2, #48]	@ 0x30
10004dbc:	6b9c      	ldr	r4, [r3, #56]	@ 0x38
10004dbe:	2c01      	cmp	r4, #1
10004dc0:	d1fc      	bne.n	10004dbc <runtime_init_clocks+0x24>
10004dc2:	2602      	movs	r6, #2
10004dc4:	2505      	movs	r5, #5
10004dc6:	4621      	mov	r1, r4
10004dc8:	2305      	movs	r3, #5
10004dca:	4a22      	ldr	r2, [pc, #136]	@ (10004e54 <runtime_init_clocks+0xbc>)
10004dcc:	4822      	ldr	r0, [pc, #136]	@ (10004e58 <runtime_init_clocks+0xc0>)
10004dce:	9600      	str	r6, [sp, #0]
10004dd0:	f7ff fd00 	bl	100047d4 <pll_init>
10004dd4:	4621      	mov	r1, r4
10004dd6:	462b      	mov	r3, r5
10004dd8:	4a20      	ldr	r2, [pc, #128]	@ (10004e5c <runtime_init_clocks+0xc4>)
10004dda:	4821      	ldr	r0, [pc, #132]	@ (10004e60 <runtime_init_clocks+0xc8>)
10004ddc:	9500      	str	r5, [sp, #0]
10004dde:	f7ff fcf9 	bl	100047d4 <pll_init>
10004de2:	2200      	movs	r2, #0
10004de4:	2004      	movs	r0, #4
10004de6:	4631      	mov	r1, r6
10004de8:	4b1e      	ldr	r3, [pc, #120]	@ (10004e64 <runtime_init_clocks+0xcc>)
10004dea:	f7fe fd57 	bl	1000389c <clock_configure_undivided>
10004dee:	4621      	mov	r1, r4
10004df0:	4628      	mov	r0, r5
10004df2:	2200      	movs	r2, #0
10004df4:	4b1c      	ldr	r3, [pc, #112]	@ (10004e68 <runtime_init_clocks+0xd0>)
10004df6:	f7fe fd51 	bl	1000389c <clock_configure_undivided>
10004dfa:	2200      	movs	r2, #0
10004dfc:	2008      	movs	r0, #8
10004dfe:	4611      	mov	r1, r2
10004e00:	4b1a      	ldr	r3, [pc, #104]	@ (10004e6c <runtime_init_clocks+0xd4>)
10004e02:	f7fe fd4b 	bl	1000389c <clock_configure_undivided>
10004e06:	2200      	movs	r2, #0
10004e08:	2009      	movs	r0, #9
10004e0a:	4611      	mov	r1, r2
10004e0c:	4b17      	ldr	r3, [pc, #92]	@ (10004e6c <runtime_init_clocks+0xd4>)
10004e0e:	f7fe fd45 	bl	1000389c <clock_configure_undivided>
10004e12:	2200      	movs	r2, #0
10004e14:	2006      	movs	r0, #6
10004e16:	4611      	mov	r1, r2
10004e18:	4b13      	ldr	r3, [pc, #76]	@ (10004e68 <runtime_init_clocks+0xd0>)
10004e1a:	f7fe fd3f 	bl	1000389c <clock_configure_undivided>
10004e1e:	2200      	movs	r2, #0
10004e20:	4b11      	ldr	r3, [pc, #68]	@ (10004e68 <runtime_init_clocks+0xd0>)
10004e22:	2007      	movs	r0, #7
10004e24:	4611      	mov	r1, r2
10004e26:	f7fe fd39 	bl	1000389c <clock_configure_undivided>
10004e2a:	2004      	movs	r0, #4
10004e2c:	f7fe fda4 	bl	10003978 <clock_get_hz>
10004e30:	2400      	movs	r4, #0
10004e32:	4b0f      	ldr	r3, [pc, #60]	@ (10004e70 <runtime_init_clocks+0xd8>)
10004e34:	fba3 3500 	umull	r3, r5, r3, r0
10004e38:	0cad      	lsrs	r5, r5, #18
10004e3a:	b2e0      	uxtb	r0, r4
10004e3c:	4629      	mov	r1, r5
10004e3e:	3401      	adds	r4, #1
10004e40:	f7ff fd66 	bl	10004910 <tick_start>
10004e44:	2c06      	cmp	r4, #6
10004e46:	d1f8      	bne.n	10004e3a <runtime_init_clocks+0xa2>
10004e48:	b002      	add	sp, #8
10004e4a:	bd70      	pop	{r4, r5, r6, pc}
10004e4c:	40010000 	.word	0x40010000
10004e50:	40013000 	.word	0x40013000
10004e54:	59682f00 	.word	0x59682f00
10004e58:	40050000 	.word	0x40050000
10004e5c:	47868c00 	.word	0x47868c00
10004e60:	40058000 	.word	0x40058000
10004e64:	00b71b00 	.word	0x00b71b00
10004e68:	08f0d180 	.word	0x08f0d180
10004e6c:	02dc6c00 	.word	0x02dc6c00
10004e70:	431bde83 	.word	0x431bde83

10004e74 <generic_save_state>:
10004e74:	b086      	sub	sp, #24
10004e76:	b403      	push	{r0, r1}
10004e78:	fc51 0408 	dcp_pxmd r0, r1
10004e7c:	e9cd 0102 	strd	r0, r1, [sp, #8]
10004e80:	fc51 0409 	dcp_pymd r0, r1
10004e84:	e9cd 0104 	strd	r0, r1, [sp, #16]
10004e88:	ec51 040a 	dcp_refd r0, r1
10004e8c:	e9cd 0106 	strd	r0, r1, [sp, #24]
10004e90:	bc03      	pop	{r0, r1}
10004e92:	47f0      	blx	lr

10004e94 <generic_restore_state>:
10004e94:	e8bd 5000 	ldmia.w	sp!, {ip, lr}
10004e98:	ec4e c400 	dcp_wxmd ip, lr
10004e9c:	e8bd 5000 	ldmia.w	sp!, {ip, lr}
10004ea0:	ec4e c401 	dcp_wymd ip, lr
10004ea4:	e8bd 5000 	ldmia.w	sp!, {ip, lr}
10004ea8:	ec4e c402 	dcp_wefd ip, lr
10004eac:	bd00      	pop	{pc}
10004eae:	0000      	movs	r0, r0
10004eb0:	b500      	push	{lr}
10004eb2:	f7ff ffdf 	bl	10004e74 <generic_save_state>
10004eb6:	e002      	b.n	10004ebe <__wrap___aeabi_dadd+0x6>

10004eb8 <__wrap___aeabi_dadd>:
10004eb8:	fe10 f430 	dcp_pcmp APSR_nzcv
10004ebc:	d4f8      	bmi.n	10004eb0 <generic_restore_state+0x1c>
10004ebe:	ec41 0410 	dcp_wxup r0, r1
10004ec2:	ec43 2411 	dcp_wyup r2, r3
10004ec6:	ee00 0401 			dcp_add0
10004eca:	ee10 0401 			dcp_add1
10004ece:	ee80 0420 			dcp_nrdd
10004ed2:	ec51 0410 	dcp_rdda r0, r1
10004ed6:	4770      	bx	lr
10004ed8:	b500      	push	{lr}
10004eda:	f7ff ffcb 	bl	10004e74 <generic_save_state>
10004ede:	e002      	b.n	10004ee6 <__wrap___aeabi_dsub+0x6>

10004ee0 <__wrap___aeabi_dsub>:
10004ee0:	fe10 f430 	dcp_pcmp APSR_nzcv
10004ee4:	d4f8      	bmi.n	10004ed8 <__wrap___aeabi_dadd+0x20>
10004ee6:	ec41 0410 	dcp_wxup r0, r1
10004eea:	ec43 2411 	dcp_wyup r2, r3
10004eee:	ee00 0401 			dcp_add0
10004ef2:	ee10 0421 			dcp_sub1
10004ef6:	ee80 0420 			dcp_nrdd
10004efa:	ec51 0430 	dcp_rdds r0, r1
10004efe:	4770      	bx	lr
10004f00:	b500      	push	{lr}
10004f02:	f7ff ffb7 	bl	10004e74 <generic_save_state>
10004f06:	e002      	b.n	10004f0e <__wrap___aeabi_dmul+0x6>

10004f08 <__wrap___aeabi_dmul>:
10004f08:	fe10 f430 	dcp_pcmp APSR_nzcv
10004f0c:	d4f8      	bmi.n	10004f00 <__wrap___aeabi_dsub+0x20>
10004f0e:	b510      	push	{r4, lr}
10004f10:	ec41 0410 	dcp_wxup r0, r1
10004f14:	ec43 2411 	dcp_wyup r2, r3
10004f18:	ec51 0404 	dcp_rxms r0, r1, #0x0
10004f1c:	ec53 2405 	dcp_ryms r2, r3, #0x0
10004f20:	fba0 4c02 	umull	r4, ip, r0, r2
10004f24:	f05f 0e00 	movs.w	lr, #0
10004f28:	fbe0 ce03 	umlal	ip, lr, r0, r3
10004f2c:	fbe1 ce02 	umlal	ip, lr, r1, r2
10004f30:	ec4c 4420 	dcp_wxms r4, ip
10004f34:	2400      	movs	r4, #0
10004f36:	fbe1 e403 	umlal	lr, r4, r1, r3
10004f3a:	ec44 e430 	dcp_wxmo lr, r4
10004f3e:	ee80 0420 			dcp_nrdd
10004f42:	ec51 0450 	dcp_rddm r0, r1
10004f46:	e8bd 4010 	ldmia.w	sp!, {r4, lr}
10004f4a:	4770      	bx	lr
10004f4c:	b500      	push	{lr}
10004f4e:	f7ff ff91 	bl	10004e74 <generic_save_state>
10004f52:	e002      	b.n	10004f5a <__wrap___aeabi_ddiv+0x6>

10004f54 <__wrap___aeabi_ddiv>:
10004f54:	fe10 f430 	dcp_pcmp APSR_nzcv
10004f58:	d4f8      	bmi.n	10004f4c <__wrap___aeabi_dmul+0x44>
10004f5a:	ec41 0410 	dcp_wxup r0, r1
10004f5e:	ec43 2411 	dcp_wyup r2, r3
10004f62:	ec51 0421 	dcp_rymr r0, r1
10004f66:	fba0 1201 	umull	r1, r2, r0, r1
10004f6a:	ea6f 0282 	mvn.w	r2, r2, lsl #2
10004f6e:	fb52 0010 	smmlar	r0, r2, r0, r0
10004f72:	fb52 f212 	smmulr	r2, r2, r2
10004f76:	fb52 0010 	smmlar	r0, r2, r0, r0
10004f7a:	eba0 7cd0 	sub.w	ip, r0, r0, lsr #31
10004f7e:	ec53 2404 	dcp_rxms r2, r3, #0x0
10004f82:	fb5c f113 	smmulr	r1, ip, r3
10004f86:	ec53 2415 	dcp_ryms r2, r3, #0x1
10004f8a:	fba1 2002 	umull	r2, r0, r1, r2
10004f8e:	fb01 0003 	mla	r0, r1, r3, r0
10004f92:	ec53 2444 	dcp_rxms r2, r3, #0x4
10004f96:	eba2 0000 	sub.w	r0, r2, r0
10004f9a:	fb50 f21c 	smmulr	r2, r0, ip
10004f9e:	ea4f 1311 	mov.w	r3, r1, lsr #4
10004fa2:	eb12 7001 	adds.w	r0, r2, r1, lsl #28
10004fa6:	eb43 71e2 	adc.w	r1, r3, r2, asr #31
10004faa:	ea40 5051 	orr.w	r0, r0, r1, lsr #21
10004fae:	ea20 5091 	bic.w	r0, r0, r1, lsr #22
10004fb2:	f020 0007 	bic.w	r0, r0, #7
10004fb6:	ec53 2475 	dcp_ryms r2, r3, #0x7
10004fba:	fba0 3c02 	umull	r3, ip, r0, r2
10004fbe:	ec53 2475 	dcp_ryms r2, r3, #0x7
10004fc2:	fb00 cc03 	mla	ip, r0, r3, ip
10004fc6:	fb01 cc02 	mla	ip, r1, r2, ip
10004fca:	ec53 2404 	dcp_rxms r2, r3, #0x0
10004fce:	ebac 4c82 	sub.w	ip, ip, r2, lsl #18
10004fd2:	ea40 705c 	orr.w	r0, r0, ip, lsr #29
10004fd6:	f1a0 0001 	sub.w	r0, r0, #1
10004fda:	ec41 0440 	dcp_wxdd r0, r1
10004fde:	ee80 0420 			dcp_nrdd
10004fe2:	ec51 0470 	dcp_rddd r0, r1
10004fe6:	4770      	bx	lr
10004fe8:	b500      	push	{lr}
10004fea:	f7ff ff43 	bl	10004e74 <generic_save_state>
10004fee:	e002      	b.n	10004ff6 <__wrap___aeabi_i2d+0x6>

10004ff0 <__wrap___aeabi_i2d>:
10004ff0:	fe10 f430 	dcp_pcmp APSR_nzcv
10004ff4:	d4f8      	bmi.n	10004fe8 <__wrap___aeabi_ddiv+0x94>
10004ff6:	ec40 0470 	dcp_wxic r0, r0
10004ffa:	ee00 0401 			dcp_add0
10004ffe:	ee10 0421 			dcp_sub1
10005002:	ee80 0420 			dcp_nrdd
10005006:	ec51 0430 	dcp_rdds r0, r1
1000500a:	4770      	bx	lr
1000500c:	b500      	push	{lr}
1000500e:	f7ff ff31 	bl	10004e74 <generic_save_state>
10005012:	e002      	b.n	1000501a <__wrap___aeabi_ui2d+0x6>

10005014 <__wrap___aeabi_ui2d>:
10005014:	fe10 f430 	dcp_pcmp APSR_nzcv
10005018:	d4f8      	bmi.n	1000500c <__wrap___aeabi_i2d+0x1c>
1000501a:	ec40 0460 	dcp_wxuc r0, r0
1000501e:	ee00 0401 			dcp_add0
10005022:	ee10 0421 			dcp_sub1
10005026:	ee80 0420 			dcp_nrdd
1000502a:	ec51 0430 	dcp_rdds r0, r1
1000502e:	4770      	bx	lr
10005030:	b500      	push	{lr}
10005032:	f7ff ff1f 	bl	10004e74 <generic_save_state>
10005036:	e002      	b.n	1000503e <double2int_z_entry>

10005038 <__wrap___aeabi_d2iz>:
10005038:	fe10 f430 	dcp_pcmp APSR_nzcv
1000503c:	d4f8      	bmi.n	10005030 <__wrap___aeabi_ui2d+0x1c>

1000503e <double2int_z_entry>:
1000503e:	ec41 0480 	dcp_wxdc r0, r1
10005042:	ee00 0401 			dcp_add0
10005046:	ee10 0401 			dcp_add1
1000504a:	ee80 0440 			dcp_ntdc
1000504e:	ee10 0413 			dcp_rdic r0
10005052:	4770      	bx	lr
10005054:	b500      	push	{lr}
10005056:	f7ff ff0d 	bl	10004e74 <generic_save_state>
1000505a:	e002      	b.n	10005062 <double2uint_z_entry>

1000505c <__wrap___aeabi_d2uiz>:
1000505c:	fe10 f430 	dcp_pcmp APSR_nzcv
10005060:	d4f8      	bmi.n	10005054 <double2int_z_entry+0x16>

10005062 <double2uint_z_entry>:
10005062:	ec41 0480 	dcp_wxdc r0, r1
10005066:	ee00 0401 			dcp_add0
1000506a:	ee10 0401 			dcp_add1
1000506e:	ee80 0440 			dcp_ntdc
10005072:	ee10 0433 			dcp_rduc r0
10005076:	4770      	bx	lr
10005078:	b500      	push	{lr}
1000507a:	f7ff fefb 	bl	10004e74 <generic_save_state>
1000507e:	e002      	b.n	10005086 <__wrap___aeabi_dcmpun+0x6>

10005080 <__wrap___aeabi_dcmpun>:
10005080:	fe10 f430 	dcp_pcmp APSR_nzcv
10005084:	d4f8      	bmi.n	10005078 <double2uint_z_entry+0x16>
10005086:	ec41 0410 	dcp_wxup r0, r1
1000508a:	ec43 2411 	dcp_wyup r2, r3
1000508e:	ee00 0401 			dcp_add0
10005092:	ee10 0430 			dcp_rcmp r0
10005096:	f3c0 7000 	ubfx	r0, r0, #28, #1
1000509a:	4770      	bx	lr
1000509c:	b500      	push	{lr}
1000509e:	f7ff fee9 	bl	10004e74 <generic_save_state>
100050a2:	e002      	b.n	100050aa <__wrap___aeabi_dcmplt+0x6>

100050a4 <__wrap___aeabi_dcmplt>:
100050a4:	fe10 f430 	dcp_pcmp APSR_nzcv
100050a8:	d4f8      	bmi.n	1000509c <__wrap___aeabi_dcmpun+0x1c>
100050aa:	ec43 2410 	dcp_wxup r2, r3
100050ae:	ec41 0411 	dcp_wyup r0, r1
100050b2:	ee00 0401 			dcp_add0
100050b6:	ee10 f430 			dcp_rcmp APSR_nzcv
100050ba:	bf8c      	ite	hi
100050bc:	2001      	movhi	r0, #1
100050be:	2000      	movls	r0, #0
100050c0:	4770      	bx	lr
100050c2:	bf00      	nop
100050c4:	b500      	push	{lr}
100050c6:	f7ff fed5 	bl	10004e74 <generic_save_state>
100050ca:	e002      	b.n	100050d2 <__wrap___aeabi_dcmple+0x6>

100050cc <__wrap___aeabi_dcmple>:
100050cc:	fe10 f430 	dcp_pcmp APSR_nzcv
100050d0:	d4f8      	bmi.n	100050c4 <__wrap___aeabi_dcmplt+0x20>
100050d2:	ec43 2410 	dcp_wxup r2, r3
100050d6:	ec41 0411 	dcp_wyup r0, r1
100050da:	ee00 0401 			dcp_add0
100050de:	ee10 f430 			dcp_rcmp APSR_nzcv
100050e2:	bf2c      	ite	cs
100050e4:	2001      	movcs	r0, #1
100050e6:	2000      	movcc	r0, #0
100050e8:	4770      	bx	lr
100050ea:	bf00      	nop
100050ec:	b500      	push	{lr}
100050ee:	f7ff fec1 	bl	10004e74 <generic_save_state>
100050f2:	e002      	b.n	100050fa <__wrap___aeabi_dcmpge+0x6>

100050f4 <__wrap___aeabi_dcmpge>:
100050f4:	fe10 f430 	dcp_pcmp APSR_nzcv
100050f8:	d4f8      	bmi.n	100050ec <__wrap___aeabi_dcmple+0x20>
100050fa:	ec41 0410 	dcp_wxup r0, r1
100050fe:	ec43 2411 	dcp_wyup r2, r3
10005102:	ee00 0401 			dcp_add0
10005106:	ee10 f430 			dcp_rcmp APSR_nzcv
1000510a:	bf2c      	ite	cs
1000510c:	2001      	movcs	r0, #1
1000510e:	2000      	movcc	r0, #0
10005110:	4770      	bx	lr
10005112:	bf00      	nop
10005114:	b500      	push	{lr}
10005116:	f7ff fead 	bl	10004e74 <generic_save_state>
1000511a:	e002      	b.n	10005122 <__wrap___aeabi_dcmpgt+0x6>

1000511c <__wrap___aeabi_dcmpgt>:
1000511c:	fe10 f430 	dcp_pcmp APSR_nzcv
10005120:	d4f8      	bmi.n	10005114 <__wrap___aeabi_dcmpge+0x20>
10005122:	ec41 0410 	dcp_wxup r0, r1
10005126:	ec43 2411 	dcp_wyup r2, r3
1000512a:	ee00 0401 			dcp_add0
1000512e:	ee10 f430 			dcp_rcmp APSR_nzcv
10005132:	bf8c      	ite	hi
10005134:	2001      	movhi	r0, #1
10005136:	2000      	movls	r0, #0
10005138:	4770      	bx	lr
1000513a:	bf00      	nop

1000513c <_out_null>:
1000513c:	4770      	bx	lr
1000513e:	bf00      	nop

10005140 <_out_rev>:
10005140:	e92d 4ff0 	stmdb	sp!, {r4, r5, r6, r7, r8, r9, sl, fp, lr}
10005144:	b083      	sub	sp, #12
10005146:	460f      	mov	r7, r1
10005148:	4611      	mov	r1, r2
1000514a:	e9dd b20e 	ldrd	fp, r2, [sp, #56]	@ 0x38
1000514e:	0792      	lsls	r2, r2, #30
10005150:	4698      	mov	r8, r3
10005152:	e9dd 930c 	ldrd	r9, r3, [sp, #48]	@ 0x30
10005156:	4606      	mov	r6, r0
10005158:	d029      	beq.n	100051ae <_out_rev+0x6e>
1000515a:	460d      	mov	r5, r1
1000515c:	b19b      	cbz	r3, 10005186 <_out_rev+0x46>
1000515e:	eb09 0403 	add.w	r4, r9, r3
10005162:	eb05 0a04 	add.w	sl, r5, r4
10005166:	9501      	str	r5, [sp, #4]
10005168:	460d      	mov	r5, r1
1000516a:	930d      	str	r3, [sp, #52]	@ 0x34
1000516c:	ebaa 0204 	sub.w	r2, sl, r4
10005170:	f814 0d01 	ldrb.w	r0, [r4, #-1]!
10005174:	4643      	mov	r3, r8
10005176:	4639      	mov	r1, r7
10005178:	47b0      	blx	r6
1000517a:	45a1      	cmp	r9, r4
1000517c:	d1f6      	bne.n	1000516c <_out_rev+0x2c>
1000517e:	4629      	mov	r1, r5
10005180:	9b0d      	ldr	r3, [sp, #52]	@ 0x34
10005182:	9d01      	ldr	r5, [sp, #4]
10005184:	441d      	add	r5, r3
10005186:	9b0f      	ldr	r3, [sp, #60]	@ 0x3c
10005188:	079b      	lsls	r3, r3, #30
1000518a:	d50c      	bpl.n	100051a6 <_out_rev+0x66>
1000518c:	1a6c      	subs	r4, r5, r1
1000518e:	45a3      	cmp	fp, r4
10005190:	d909      	bls.n	100051a6 <_out_rev+0x66>
10005192:	462a      	mov	r2, r5
10005194:	4643      	mov	r3, r8
10005196:	4639      	mov	r1, r7
10005198:	2020      	movs	r0, #32
1000519a:	3401      	adds	r4, #1
1000519c:	47b0      	blx	r6
1000519e:	455c      	cmp	r4, fp
100051a0:	f105 0501 	add.w	r5, r5, #1
100051a4:	d3f5      	bcc.n	10005192 <_out_rev+0x52>
100051a6:	4628      	mov	r0, r5
100051a8:	b003      	add	sp, #12
100051aa:	e8bd 8ff0 	ldmia.w	sp!, {r4, r5, r6, r7, r8, r9, sl, fp, pc}
100051ae:	455b      	cmp	r3, fp
100051b0:	d215      	bcs.n	100051de <_out_rev+0x9e>
100051b2:	468a      	mov	sl, r1
100051b4:	461c      	mov	r4, r3
100051b6:	4689      	mov	r9, r1
100051b8:	ebab 0503 	sub.w	r5, fp, r3
100051bc:	440d      	add	r5, r1
100051be:	4652      	mov	r2, sl
100051c0:	4643      	mov	r3, r8
100051c2:	4639      	mov	r1, r7
100051c4:	2020      	movs	r0, #32
100051c6:	f10a 0a01 	add.w	sl, sl, #1
100051ca:	47b0      	blx	r6
100051cc:	45aa      	cmp	sl, r5
100051ce:	d1f6      	bne.n	100051be <_out_rev+0x7e>
100051d0:	4649      	mov	r1, r9
100051d2:	4623      	mov	r3, r4
100051d4:	f8dd 9030 	ldr.w	r9, [sp, #48]	@ 0x30
100051d8:	2c00      	cmp	r4, #0
100051da:	d1c0      	bne.n	1000515e <_out_rev+0x1e>
100051dc:	e7e3      	b.n	100051a6 <_out_rev+0x66>
100051de:	460d      	mov	r5, r1
100051e0:	2b00      	cmp	r3, #0
100051e2:	d1bc      	bne.n	1000515e <_out_rev+0x1e>
100051e4:	e7df      	b.n	100051a6 <_out_rev+0x66>
100051e6:	bf00      	nop

100051e8 <_ntoa_format>:
100051e8:	e92d 4ff0 	stmdb	sp!, {r4, r5, r6, r7, r8, r9, sl, fp, lr}
100051ec:	460f      	mov	r7, r1
100051ee:	990f      	ldr	r1, [sp, #60]	@ 0x3c
100051f0:	4606      	mov	r6, r0
100051f2:	f89d 002c 	ldrb.w	r0, [sp, #44]	@ 0x2c
100051f6:	078d      	lsls	r5, r1, #30
100051f8:	4690      	mov	r8, r2
100051fa:	e9dd a20c 	ldrd	sl, r2, [sp, #48]	@ 0x30
100051fe:	4699      	mov	r9, r3
10005200:	4683      	mov	fp, r0
10005202:	9c09      	ldr	r4, [sp, #36]	@ 0x24
10005204:	f8dd c028 	ldr.w	ip, [sp, #40]	@ 0x28
10005208:	9b0e      	ldr	r3, [sp, #56]	@ 0x38
1000520a:	d449      	bmi.n	100052a0 <_ntoa_format+0xb8>
1000520c:	2b00      	cmp	r3, #0
1000520e:	d142      	bne.n	10005296 <_ntoa_format+0xae>
10005210:	4594      	cmp	ip, r2
10005212:	d245      	bcs.n	100052a0 <_ntoa_format+0xb8>
10005214:	f001 0501 	and.w	r5, r1, #1
10005218:	f104 3eff 	add.w	lr, r4, #4294967295
1000521c:	2030      	movs	r0, #48	@ 0x30
1000521e:	44e6      	add	lr, ip
10005220:	e005      	b.n	1000522e <_ntoa_format+0x46>
10005222:	f10c 0c01 	add.w	ip, ip, #1
10005226:	4562      	cmp	r2, ip
10005228:	f80e 0f01 	strb.w	r0, [lr, #1]!
1000522c:	d902      	bls.n	10005234 <_ntoa_format+0x4c>
1000522e:	f1bc 0f20 	cmp.w	ip, #32
10005232:	d1f6      	bne.n	10005222 <_ntoa_format+0x3a>
10005234:	2d00      	cmp	r5, #0
10005236:	f000 8087 	beq.w	10005348 <_ntoa_format+0x160>
1000523a:	4563      	cmp	r3, ip
1000523c:	d930      	bls.n	100052a0 <_ntoa_format+0xb8>
1000523e:	1e60      	subs	r0, r4, #1
10005240:	f04f 0e30 	mov.w	lr, #48	@ 0x30
10005244:	4460      	add	r0, ip
10005246:	e005      	b.n	10005254 <_ntoa_format+0x6c>
10005248:	f10c 0c01 	add.w	ip, ip, #1
1000524c:	459c      	cmp	ip, r3
1000524e:	f800 ef01 	strb.w	lr, [r0, #1]!
10005252:	d025      	beq.n	100052a0 <_ntoa_format+0xb8>
10005254:	f1bc 0f20 	cmp.w	ip, #32
10005258:	d1f6      	bne.n	10005248 <_ntoa_format+0x60>
1000525a:	06cd      	lsls	r5, r1, #27
1000525c:	d50e      	bpl.n	1000527c <_ntoa_format+0x94>
1000525e:	0548      	lsls	r0, r1, #21
10005260:	d451      	bmi.n	10005306 <_ntoa_format+0x11e>
10005262:	4562      	cmp	r2, ip
10005264:	d064      	beq.n	10005330 <_ntoa_format+0x148>
10005266:	4563      	cmp	r3, ip
10005268:	d062      	beq.n	10005330 <_ntoa_format+0x148>
1000526a:	f1ba 0f10 	cmp.w	sl, #16
1000526e:	d04d      	beq.n	1000530c <_ntoa_format+0x124>
10005270:	f1ba 0f02 	cmp.w	sl, #2
10005274:	d055      	beq.n	10005322 <_ntoa_format+0x13a>
10005276:	f1bc 0f20 	cmp.w	ip, #32
1000527a:	d12d      	bne.n	100052d8 <_ntoa_format+0xf0>
1000527c:	2220      	movs	r2, #32
1000527e:	e9cd 310b 	strd	r3, r1, [sp, #44]	@ 0x2c
10005282:	920a      	str	r2, [sp, #40]	@ 0x28
10005284:	464b      	mov	r3, r9
10005286:	4642      	mov	r2, r8
10005288:	4639      	mov	r1, r7
1000528a:	4630      	mov	r0, r6
1000528c:	9409      	str	r4, [sp, #36]	@ 0x24
1000528e:	e8bd 4ff0 	ldmia.w	sp!, {r4, r5, r6, r7, r8, r9, sl, fp, lr}
10005292:	f7ff bf55 	b.w	10005140 <_out_rev>
10005296:	f011 0501 	ands.w	r5, r1, #1
1000529a:	d12e      	bne.n	100052fa <_ntoa_format+0x112>
1000529c:	4594      	cmp	ip, r2
1000529e:	d3bb      	bcc.n	10005218 <_ntoa_format+0x30>
100052a0:	06cd      	lsls	r5, r1, #27
100052a2:	d51e      	bpl.n	100052e2 <_ntoa_format+0xfa>
100052a4:	0548      	lsls	r0, r1, #21
100052a6:	d4e0      	bmi.n	1000526a <_ntoa_format+0x82>
100052a8:	f1bc 0f00 	cmp.w	ip, #0
100052ac:	d1d9      	bne.n	10005262 <_ntoa_format+0x7a>
100052ae:	f1ba 0f10 	cmp.w	sl, #16
100052b2:	d05f      	beq.n	10005374 <_ntoa_format+0x18c>
100052b4:	f1ba 0f02 	cmp.w	sl, #2
100052b8:	d074      	beq.n	100053a4 <_ntoa_format+0x1bc>
100052ba:	2230      	movs	r2, #48	@ 0x30
100052bc:	f04f 0c01 	mov.w	ip, #1
100052c0:	7022      	strb	r2, [r4, #0]
100052c2:	f1bb 0f00 	cmp.w	fp, #0
100052c6:	d112      	bne.n	100052ee <_ntoa_format+0x106>
100052c8:	0748      	lsls	r0, r1, #29
100052ca:	d542      	bpl.n	10005352 <_ntoa_format+0x16a>
100052cc:	222b      	movs	r2, #43	@ 0x2b
100052ce:	f804 200c 	strb.w	r2, [r4, ip]
100052d2:	f10c 0201 	add.w	r2, ip, #1
100052d6:	e7d2      	b.n	1000527e <_ntoa_format+0x96>
100052d8:	4662      	mov	r2, ip
100052da:	f10c 0c01 	add.w	ip, ip, #1
100052de:	2030      	movs	r0, #48	@ 0x30
100052e0:	54a0      	strb	r0, [r4, r2]
100052e2:	f1bc 0f20 	cmp.w	ip, #32
100052e6:	d0c9      	beq.n	1000527c <_ntoa_format+0x94>
100052e8:	f1bb 0f00 	cmp.w	fp, #0
100052ec:	d0ec      	beq.n	100052c8 <_ntoa_format+0xe0>
100052ee:	222d      	movs	r2, #45	@ 0x2d
100052f0:	f804 200c 	strb.w	r2, [r4, ip]
100052f4:	f10c 0201 	add.w	r2, ip, #1
100052f8:	e7c1      	b.n	1000527e <_ntoa_format+0x96>
100052fa:	b398      	cbz	r0, 10005364 <_ntoa_format+0x17c>
100052fc:	4594      	cmp	ip, r2
100052fe:	f103 33ff 	add.w	r3, r3, #4294967295
10005302:	d389      	bcc.n	10005218 <_ntoa_format+0x30>
10005304:	e799      	b.n	1000523a <_ntoa_format+0x52>
10005306:	f1ba 0f10 	cmp.w	sl, #16
1000530a:	d1b7      	bne.n	1000527c <_ntoa_format+0x94>
1000530c:	068d      	lsls	r5, r1, #26
1000530e:	d53d      	bpl.n	1000538c <_ntoa_format+0x1a4>
10005310:	f1bc 0f20 	cmp.w	ip, #32
10005314:	d0b2      	beq.n	1000527c <_ntoa_format+0x94>
10005316:	2258      	movs	r2, #88	@ 0x58
10005318:	f804 200c 	strb.w	r2, [r4, ip]
1000531c:	f10c 0c01 	add.w	ip, ip, #1
10005320:	e7a9      	b.n	10005276 <_ntoa_format+0x8e>
10005322:	f1bc 0f20 	cmp.w	ip, #32
10005326:	d0a9      	beq.n	1000527c <_ntoa_format+0x94>
10005328:	4662      	mov	r2, ip
1000532a:	f10c 0c01 	add.w	ip, ip, #1
1000532e:	e008      	b.n	10005342 <_ntoa_format+0x15a>
10005330:	f1bc 0201 	subs.w	r2, ip, #1
10005334:	d0bb      	beq.n	100052ae <_ntoa_format+0xc6>
10005336:	f1ba 0f10 	cmp.w	sl, #16
1000533a:	d035      	beq.n	100053a8 <_ntoa_format+0x1c0>
1000533c:	f1ba 0f02 	cmp.w	sl, #2
10005340:	d1cd      	bne.n	100052de <_ntoa_format+0xf6>
10005342:	2062      	movs	r0, #98	@ 0x62
10005344:	54a0      	strb	r0, [r4, r2]
10005346:	e796      	b.n	10005276 <_ntoa_format+0x8e>
10005348:	06cd      	lsls	r5, r1, #27
1000534a:	d5ca      	bpl.n	100052e2 <_ntoa_format+0xfa>
1000534c:	0548      	lsls	r0, r1, #21
1000534e:	d588      	bpl.n	10005262 <_ntoa_format+0x7a>
10005350:	e78b      	b.n	1000526a <_ntoa_format+0x82>
10005352:	070a      	lsls	r2, r1, #28
10005354:	bf49      	itett	mi
10005356:	2220      	movmi	r2, #32
10005358:	4662      	movpl	r2, ip
1000535a:	f804 200c 	strbmi.w	r2, [r4, ip]
1000535e:	f10c 0201 	addmi.w	r2, ip, #1
10005362:	e78c      	b.n	1000527e <_ntoa_format+0x96>
10005364:	f011 0f0c 	tst.w	r1, #12
10005368:	d000      	beq.n	1000536c <_ntoa_format+0x184>
1000536a:	3b01      	subs	r3, #1
1000536c:	4594      	cmp	ip, r2
1000536e:	f4ff af53 	bcc.w	10005218 <_ntoa_format+0x30>
10005372:	e762      	b.n	1000523a <_ntoa_format+0x52>
10005374:	068a      	lsls	r2, r1, #26
10005376:	d413      	bmi.n	100053a0 <_ntoa_format+0x1b8>
10005378:	2278      	movs	r2, #120	@ 0x78
1000537a:	7022      	strb	r2, [r4, #0]
1000537c:	2230      	movs	r2, #48	@ 0x30
1000537e:	f04f 0c02 	mov.w	ip, #2
10005382:	7062      	strb	r2, [r4, #1]
10005384:	f1bb 0f00 	cmp.w	fp, #0
10005388:	d09e      	beq.n	100052c8 <_ntoa_format+0xe0>
1000538a:	e7b0      	b.n	100052ee <_ntoa_format+0x106>
1000538c:	f1bc 0f20 	cmp.w	ip, #32
10005390:	f43f af74 	beq.w	1000527c <_ntoa_format+0x94>
10005394:	2278      	movs	r2, #120	@ 0x78
10005396:	f804 200c 	strb.w	r2, [r4, ip]
1000539a:	f10c 0c01 	add.w	ip, ip, #1
1000539e:	e76a      	b.n	10005276 <_ntoa_format+0x8e>
100053a0:	2258      	movs	r2, #88	@ 0x58
100053a2:	e7ea      	b.n	1000537a <_ntoa_format+0x192>
100053a4:	2262      	movs	r2, #98	@ 0x62
100053a6:	e7e8      	b.n	1000537a <_ntoa_format+0x192>
100053a8:	068d      	lsls	r5, r1, #26
100053aa:	f1ac 0002 	sub.w	r0, ip, #2
100053ae:	d504      	bpl.n	100053ba <_ntoa_format+0x1d2>
100053b0:	f04f 0e58 	mov.w	lr, #88	@ 0x58
100053b4:	f804 e000 	strb.w	lr, [r4, r0]
100053b8:	e791      	b.n	100052de <_ntoa_format+0xf6>
100053ba:	f04f 0e78 	mov.w	lr, #120	@ 0x78
100053be:	f804 e000 	strb.w	lr, [r4, r0]
100053c2:	e78c      	b.n	100052de <_ntoa_format+0xf6>

100053c4 <_out_char>:
100053c4:	b900      	cbnz	r0, 100053c8 <_out_char+0x4>
100053c6:	4770      	bx	lr
100053c8:	f001 bb60 	b.w	10006a8c <__wrap_putchar>

100053cc <_out_fct>:
100053cc:	b110      	cbz	r0, 100053d4 <_out_fct+0x8>
100053ce:	e9d1 3100 	ldrd	r3, r1, [r1]
100053d2:	4718      	bx	r3
100053d4:	4770      	bx	lr
100053d6:	bf00      	nop

100053d8 <_ftoa>:
100053d8:	e92d 4ff0 	stmdb	sp!, {r4, r5, r6, r7, r8, r9, sl, fp, lr}
100053dc:	b097      	sub	sp, #92	@ 0x5c
100053de:	ed9d 7b20 	vldr	d7, [sp, #128]	@ 0x80
100053e2:	e9dd 5b22 	ldrd	r5, fp, [sp, #136]	@ 0x88
100053e6:	4680      	mov	r8, r0
100053e8:	4689      	mov	r9, r1
100053ea:	ec51 0b17 	vmov	r0, r1, d7
100053ee:	469a      	mov	sl, r3
100053f0:	9b24      	ldr	r3, [sp, #144]	@ 0x90
100053f2:	920c      	str	r2, [sp, #48]	@ 0x30
100053f4:	9307      	str	r3, [sp, #28]
100053f6:	4602      	mov	r2, r0
100053f8:	460b      	mov	r3, r1
100053fa:	ed8d 7b04 	vstr	d7, [sp, #16]
100053fe:	f7ff fe3f 	bl	10005080 <__wrap___aeabi_dcmpun>
10005402:	2800      	cmp	r0, #0
10005404:	f040 81e3 	bne.w	100057ce <_ftoa+0x3f6>
10005408:	e9dd 0104 	ldrd	r0, r1, [sp, #16]
1000540c:	f04f 32ff 	mov.w	r2, #4294967295
10005410:	f46f 1380 	mvn.w	r3, #1048576	@ 0x100000
10005414:	f7ff fe46 	bl	100050a4 <__wrap___aeabi_dcmplt>
10005418:	2800      	cmp	r0, #0
1000541a:	f040 80cb 	bne.w	100055b4 <_ftoa+0x1dc>
1000541e:	e9dd 0104 	ldrd	r0, r1, [sp, #16]
10005422:	f04f 32ff 	mov.w	r2, #4294967295
10005426:	4bb2      	ldr	r3, [pc, #712]	@ (100056f0 <_ftoa+0x318>)
10005428:	f7ff fe78 	bl	1000511c <__wrap___aeabi_dcmpgt>
1000542c:	2800      	cmp	r0, #0
1000542e:	f040 809f 	bne.w	10005570 <_ftoa+0x198>
10005432:	e9dd 6704 	ldrd	r6, r7, [sp, #16]
10005436:	a3aa      	add	r3, pc, #680	@ (adr r3, 100056e0 <_ftoa+0x308>)
10005438:	e9d3 2300 	ldrd	r2, r3, [r3]
1000543c:	4630      	mov	r0, r6
1000543e:	4639      	mov	r1, r7
10005440:	f7ff fe6c 	bl	1000511c <__wrap___aeabi_dcmpgt>
10005444:	2800      	cmp	r0, #0
10005446:	f040 8082 	bne.w	1000554e <_ftoa+0x176>
1000544a:	a3a7      	add	r3, pc, #668	@ (adr r3, 100056e8 <_ftoa+0x310>)
1000544c:	e9d3 2300 	ldrd	r2, r3, [r3]
10005450:	4630      	mov	r0, r6
10005452:	4639      	mov	r1, r7
10005454:	f7ff fe26 	bl	100050a4 <__wrap___aeabi_dcmplt>
10005458:	2800      	cmp	r0, #0
1000545a:	d178      	bne.n	1000554e <_ftoa+0x176>
1000545c:	4630      	mov	r0, r6
1000545e:	4639      	mov	r1, r7
10005460:	2200      	movs	r2, #0
10005462:	2300      	movs	r3, #0
10005464:	f7ff fe1e 	bl	100050a4 <__wrap___aeabi_dcmplt>
10005468:	2800      	cmp	r0, #0
1000546a:	f040 8098 	bne.w	1000559e <_ftoa+0x1c6>
1000546e:	900d      	str	r0, [sp, #52]	@ 0x34
10005470:	9b07      	ldr	r3, [sp, #28]
10005472:	2130      	movs	r1, #48	@ 0x30
10005474:	f413 6f80 	tst.w	r3, #1024	@ 0x400
10005478:	bf08      	it	eq
1000547a:	2506      	moveq	r5, #6
1000547c:	aa0e      	add	r2, sp, #56	@ 0x38
1000547e:	462b      	mov	r3, r5
10005480:	f1a5 0620 	sub.w	r6, r5, #32
10005484:	e005      	b.n	10005492 <_ftoa+0xba>
10005486:	3b01      	subs	r3, #1
10005488:	42b3      	cmp	r3, r6
1000548a:	f802 1b01 	strb.w	r1, [r2], #1
1000548e:	f000 8165 	beq.w	1000575c <_ftoa+0x384>
10005492:	2b09      	cmp	r3, #9
10005494:	d8f7      	bhi.n	10005486 <_ftoa+0xae>
10005496:	461e      	mov	r6, r3
10005498:	1aed      	subs	r5, r5, r3
1000549a:	e9dd 0104 	ldrd	r0, r1, [sp, #16]
1000549e:	f7ff fdcb 	bl	10005038 <__wrap___aeabi_d2iz>
100054a2:	4b94      	ldr	r3, [pc, #592]	@ (100056f4 <_ftoa+0x31c>)
100054a4:	4604      	mov	r4, r0
100054a6:	eb03 03c6 	add.w	r3, r3, r6, lsl #3
100054aa:	ed93 7b00 	vldr	d7, [r3]
100054ae:	ed8d 7b08 	vstr	d7, [sp, #32]
100054b2:	f7ff fd9d 	bl	10004ff0 <__wrap___aeabi_i2d>
100054b6:	4602      	mov	r2, r0
100054b8:	460b      	mov	r3, r1
100054ba:	e9dd 0104 	ldrd	r0, r1, [sp, #16]
100054be:	f7ff fd0f 	bl	10004ee0 <__wrap___aeabi_dsub>
100054c2:	e9dd 2308 	ldrd	r2, r3, [sp, #32]
100054c6:	f7ff fd1f 	bl	10004f08 <__wrap___aeabi_dmul>
100054ca:	e9cd 010a 	strd	r0, r1, [sp, #40]	@ 0x28
100054ce:	f7ff fdc5 	bl	1000505c <__wrap___aeabi_d2uiz>
100054d2:	4607      	mov	r7, r0
100054d4:	f7ff fd9e 	bl	10005014 <__wrap___aeabi_ui2d>
100054d8:	4602      	mov	r2, r0
100054da:	460b      	mov	r3, r1
100054dc:	e9dd 010a 	ldrd	r0, r1, [sp, #40]	@ 0x28
100054e0:	f7ff fcfe 	bl	10004ee0 <__wrap___aeabi_dsub>
100054e4:	2200      	movs	r2, #0
100054e6:	4b84      	ldr	r3, [pc, #528]	@ (100056f8 <_ftoa+0x320>)
100054e8:	e9cd 010a 	strd	r0, r1, [sp, #40]	@ 0x28
100054ec:	f7ff fe16 	bl	1000511c <__wrap___aeabi_dcmpgt>
100054f0:	2800      	cmp	r0, #0
100054f2:	f000 8088 	beq.w	10005606 <_ftoa+0x22e>
100054f6:	3701      	adds	r7, #1
100054f8:	4638      	mov	r0, r7
100054fa:	f7ff fd8b 	bl	10005014 <__wrap___aeabi_ui2d>
100054fe:	4602      	mov	r2, r0
10005500:	460b      	mov	r3, r1
10005502:	e9dd 0108 	ldrd	r0, r1, [sp, #32]
10005506:	f7ff fde1 	bl	100050cc <__wrap___aeabi_dcmple>
1000550a:	b108      	cbz	r0, 10005510 <_ftoa+0x138>
1000550c:	2700      	movs	r7, #0
1000550e:	3401      	adds	r4, #1
10005510:	2e00      	cmp	r6, #0
10005512:	f000 8088 	beq.w	10005626 <_ftoa+0x24e>
10005516:	f10d 0337 	add.w	r3, sp, #55	@ 0x37
1000551a:	f8df c1f0 	ldr.w	ip, [pc, #496]	@ 1000570c <_ftoa+0x334>
1000551e:	1958      	adds	r0, r3, r5
10005520:	e00d      	b.n	1000553e <_ftoa+0x166>
10005522:	fbac 2107 	umull	r2, r1, ip, r7
10005526:	08c9      	lsrs	r1, r1, #3
10005528:	eb01 0281 	add.w	r2, r1, r1, lsl #2
1000552c:	eba7 0242 	sub.w	r2, r7, r2, lsl #1
10005530:	3230      	adds	r2, #48	@ 0x30
10005532:	2f09      	cmp	r7, #9
10005534:	f800 2f01 	strb.w	r2, [r0, #1]!
10005538:	f240 80fb 	bls.w	10005732 <_ftoa+0x35a>
1000553c:	460f      	mov	r7, r1
1000553e:	2d20      	cmp	r5, #32
10005540:	f106 36ff 	add.w	r6, r6, #4294967295
10005544:	f105 0501 	add.w	r5, r5, #1
10005548:	d1eb      	bne.n	10005522 <_ftoa+0x14a>
1000554a:	2520      	movs	r5, #32
1000554c:	e086      	b.n	1000565c <_ftoa+0x284>
1000554e:	9b07      	ldr	r3, [sp, #28]
10005550:	ed9d 7b04 	vldr	d7, [sp, #16]
10005554:	e9cd b323 	strd	fp, r3, [sp, #140]	@ 0x8c
10005558:	4649      	mov	r1, r9
1000555a:	4653      	mov	r3, sl
1000555c:	4640      	mov	r0, r8
1000555e:	9a0c      	ldr	r2, [sp, #48]	@ 0x30
10005560:	ed8d 7b20 	vstr	d7, [sp, #128]	@ 0x80
10005564:	9522      	str	r5, [sp, #136]	@ 0x88
10005566:	b017      	add	sp, #92	@ 0x5c
10005568:	e8bd 4ff0 	ldmia.w	sp!, {r4, r5, r6, r7, r8, r9, sl, fp, lr}
1000556c:	f000 b980 	b.w	10005870 <_etoa>
10005570:	9b07      	ldr	r3, [sp, #28]
10005572:	4649      	mov	r1, r9
10005574:	0758      	lsls	r0, r3, #29
10005576:	bf4c      	ite	mi
10005578:	2304      	movmi	r3, #4
1000557a:	2303      	movpl	r3, #3
1000557c:	4640      	mov	r0, r8
1000557e:	9321      	str	r3, [sp, #132]	@ 0x84
10005580:	4653      	mov	r3, sl
10005582:	9a07      	ldr	r2, [sp, #28]
10005584:	bf48      	it	mi
10005586:	4c5d      	ldrmi	r4, [pc, #372]	@ (100056fc <_ftoa+0x324>)
10005588:	e9cd b222 	strd	fp, r2, [sp, #136]	@ 0x88
1000558c:	bf58      	it	pl
1000558e:	4c5c      	ldrpl	r4, [pc, #368]	@ (10005700 <_ftoa+0x328>)
10005590:	9a0c      	ldr	r2, [sp, #48]	@ 0x30
10005592:	9420      	str	r4, [sp, #128]	@ 0x80
10005594:	b017      	add	sp, #92	@ 0x5c
10005596:	e8bd 4ff0 	ldmia.w	sp!, {r4, r5, r6, r7, r8, r9, sl, fp, lr}
1000559a:	f7ff bdd1 	b.w	10005140 <_out_rev>
1000559e:	463b      	mov	r3, r7
100055a0:	4632      	mov	r2, r6
100055a2:	2000      	movs	r0, #0
100055a4:	2100      	movs	r1, #0
100055a6:	f7ff fc9b 	bl	10004ee0 <__wrap___aeabi_dsub>
100055aa:	2301      	movs	r3, #1
100055ac:	e9cd 0104 	strd	r0, r1, [sp, #16]
100055b0:	930d      	str	r3, [sp, #52]	@ 0x34
100055b2:	e75d      	b.n	10005470 <_ftoa+0x98>
100055b4:	9b07      	ldr	r3, [sp, #28]
100055b6:	f003 0202 	and.w	r2, r3, #2
100055ba:	079c      	lsls	r4, r3, #30
100055bc:	9204      	str	r2, [sp, #16]
100055be:	f000 80f4 	beq.w	100057aa <_ftoa+0x3d2>
100055c2:	9f0c      	ldr	r7, [sp, #48]	@ 0x30
100055c4:	463d      	mov	r5, r7
100055c6:	4e4f      	ldr	r6, [pc, #316]	@ (10005704 <_ftoa+0x32c>)
100055c8:	1d34      	adds	r4, r6, #4
100055ca:	f814 0d01 	ldrb.w	r0, [r4, #-1]!
100055ce:	462a      	mov	r2, r5
100055d0:	4653      	mov	r3, sl
100055d2:	4649      	mov	r1, r9
100055d4:	47c0      	blx	r8
100055d6:	42a6      	cmp	r6, r4
100055d8:	f105 0501 	add.w	r5, r5, #1
100055dc:	d1f5      	bne.n	100055ca <_ftoa+0x1f2>
100055de:	9b04      	ldr	r3, [sp, #16]
100055e0:	1d3c      	adds	r4, r7, #4
100055e2:	b163      	cbz	r3, 100055fe <_ftoa+0x226>
100055e4:	9d0c      	ldr	r5, [sp, #48]	@ 0x30
100055e6:	1b63      	subs	r3, r4, r5
100055e8:	459b      	cmp	fp, r3
100055ea:	d908      	bls.n	100055fe <_ftoa+0x226>
100055ec:	4622      	mov	r2, r4
100055ee:	4653      	mov	r3, sl
100055f0:	4649      	mov	r1, r9
100055f2:	2020      	movs	r0, #32
100055f4:	3401      	adds	r4, #1
100055f6:	47c0      	blx	r8
100055f8:	1b63      	subs	r3, r4, r5
100055fa:	459b      	cmp	fp, r3
100055fc:	d8f6      	bhi.n	100055ec <_ftoa+0x214>
100055fe:	4620      	mov	r0, r4
10005600:	b017      	add	sp, #92	@ 0x5c
10005602:	e8bd 8ff0 	ldmia.w	sp!, {r4, r5, r6, r7, r8, r9, sl, fp, pc}
10005606:	2200      	movs	r2, #0
10005608:	e9dd 010a 	ldrd	r0, r1, [sp, #40]	@ 0x28
1000560c:	4b3a      	ldr	r3, [pc, #232]	@ (100056f8 <_ftoa+0x320>)
1000560e:	f7ff fd49 	bl	100050a4 <__wrap___aeabi_dcmplt>
10005612:	2800      	cmp	r0, #0
10005614:	f47f af7c 	bne.w	10005510 <_ftoa+0x138>
10005618:	2f00      	cmp	r7, #0
1000561a:	f040 80c2 	bne.w	100057a2 <_ftoa+0x3ca>
1000561e:	3701      	adds	r7, #1
10005620:	2e00      	cmp	r6, #0
10005622:	f47f af78 	bne.w	10005516 <_ftoa+0x13e>
10005626:	4620      	mov	r0, r4
10005628:	f7ff fce2 	bl	10004ff0 <__wrap___aeabi_i2d>
1000562c:	4602      	mov	r2, r0
1000562e:	460b      	mov	r3, r1
10005630:	e9dd 0104 	ldrd	r0, r1, [sp, #16]
10005634:	f7ff fc54 	bl	10004ee0 <__wrap___aeabi_dsub>
10005638:	2200      	movs	r2, #0
1000563a:	4b2f      	ldr	r3, [pc, #188]	@ (100056f8 <_ftoa+0x320>)
1000563c:	4606      	mov	r6, r0
1000563e:	460f      	mov	r7, r1
10005640:	f7ff fd30 	bl	100050a4 <__wrap___aeabi_dcmplt>
10005644:	b940      	cbnz	r0, 10005658 <_ftoa+0x280>
10005646:	4630      	mov	r0, r6
10005648:	4639      	mov	r1, r7
1000564a:	2200      	movs	r2, #0
1000564c:	4b2a      	ldr	r3, [pc, #168]	@ (100056f8 <_ftoa+0x320>)
1000564e:	f7ff fd65 	bl	1000511c <__wrap___aeabi_dcmpgt>
10005652:	2800      	cmp	r0, #0
10005654:	f000 80a1 	beq.w	1000579a <_ftoa+0x3c2>
10005658:	f10d 0337 	add.w	r3, sp, #55	@ 0x37
1000565c:	482a      	ldr	r0, [pc, #168]	@ (10005708 <_ftoa+0x330>)
1000565e:	1959      	adds	r1, r3, r5
10005660:	e00e      	b.n	10005680 <_ftoa+0x2a8>
10005662:	fb80 7604 	smull	r7, r6, r0, r4
10005666:	ebc2 02a6 	rsb	r2, r2, r6, asr #2
1000566a:	eb02 0682 	add.w	r6, r2, r2, lsl #2
1000566e:	eba4 0646 	sub.w	r6, r4, r6, lsl #1
10005672:	3630      	adds	r6, #48	@ 0x30
10005674:	4614      	mov	r4, r2
10005676:	3501      	adds	r5, #1
10005678:	f801 6f01 	strb.w	r6, [r1, #1]!
1000567c:	2a00      	cmp	r2, #0
1000567e:	d047      	beq.n	10005710 <_ftoa+0x338>
10005680:	2d20      	cmp	r5, #32
10005682:	ea4f 72e4 	mov.w	r2, r4, asr #31
10005686:	d1ec      	bne.n	10005662 <_ftoa+0x28a>
10005688:	9a07      	ldr	r2, [sp, #28]
1000568a:	f002 0203 	and.w	r2, r2, #3
1000568e:	2a01      	cmp	r2, #1
10005690:	d114      	bne.n	100056bc <_ftoa+0x2e4>
10005692:	f1bb 0f00 	cmp.w	fp, #0
10005696:	d011      	beq.n	100056bc <_ftoa+0x2e4>
10005698:	9a0d      	ldr	r2, [sp, #52]	@ 0x34
1000569a:	2a00      	cmp	r2, #0
1000569c:	d060      	beq.n	10005760 <_ftoa+0x388>
1000569e:	f10b 3bff 	add.w	fp, fp, #4294967295
100056a2:	f1bb 0f20 	cmp.w	fp, #32
100056a6:	d909      	bls.n	100056bc <_ftoa+0x2e4>
100056a8:	2230      	movs	r2, #48	@ 0x30
100056aa:	442b      	add	r3, r5
100056ac:	e004      	b.n	100056b8 <_ftoa+0x2e0>
100056ae:	3501      	adds	r5, #1
100056b0:	455d      	cmp	r5, fp
100056b2:	f803 2f01 	strb.w	r2, [r3, #1]!
100056b6:	d231      	bcs.n	1000571c <_ftoa+0x344>
100056b8:	2d20      	cmp	r5, #32
100056ba:	d1f8      	bne.n	100056ae <_ftoa+0x2d6>
100056bc:	9b07      	ldr	r3, [sp, #28]
100056be:	ac0e      	add	r4, sp, #56	@ 0x38
100056c0:	e9cd b302 	strd	fp, r3, [sp, #8]
100056c4:	9400      	str	r4, [sp, #0]
100056c6:	4653      	mov	r3, sl
100056c8:	4649      	mov	r1, r9
100056ca:	4640      	mov	r0, r8
100056cc:	9a0c      	ldr	r2, [sp, #48]	@ 0x30
100056ce:	9501      	str	r5, [sp, #4]
100056d0:	f7ff fd36 	bl	10005140 <_out_rev>
100056d4:	4604      	mov	r4, r0
100056d6:	4620      	mov	r0, r4
100056d8:	b017      	add	sp, #92	@ 0x5c
100056da:	e8bd 8ff0 	ldmia.w	sp!, {r4, r5, r6, r7, r8, r9, sl, fp, pc}
100056de:	bf00      	nop
100056e0:	00000000 	.word	0x00000000
100056e4:	41cdcd65 	.word	0x41cdcd65
100056e8:	00000000 	.word	0x00000000
100056ec:	c1cdcd65 	.word	0xc1cdcd65
100056f0:	7fefffff 	.word	0x7fefffff
100056f4:	100098f0 	.word	0x100098f0
100056f8:	3fe00000 	.word	0x3fe00000
100056fc:	100097e4 	.word	0x100097e4
10005700:	100097ec 	.word	0x100097ec
10005704:	100097f4 	.word	0x100097f4
10005708:	66666667 	.word	0x66666667
1000570c:	cccccccd 	.word	0xcccccccd
10005710:	9a07      	ldr	r2, [sp, #28]
10005712:	f002 0203 	and.w	r2, r2, #3
10005716:	2a01      	cmp	r2, #1
10005718:	f000 8096 	beq.w	10005848 <_ftoa+0x470>
1000571c:	2d20      	cmp	r5, #32
1000571e:	d0cd      	beq.n	100056bc <_ftoa+0x2e4>
10005720:	9b0d      	ldr	r3, [sp, #52]	@ 0x34
10005722:	b33b      	cbz	r3, 10005774 <_ftoa+0x39c>
10005724:	222d      	movs	r2, #45	@ 0x2d
10005726:	eb0d 0305 	add.w	r3, sp, r5
1000572a:	f883 2038 	strb.w	r2, [r3, #56]	@ 0x38
1000572e:	3501      	adds	r5, #1
10005730:	e7c4      	b.n	100056bc <_ftoa+0x2e4>
10005732:	2d20      	cmp	r5, #32
10005734:	f43f af09 	beq.w	1000554a <_ftoa+0x172>
10005738:	2130      	movs	r1, #48	@ 0x30
1000573a:	442e      	add	r6, r5
1000573c:	195a      	adds	r2, r3, r5
1000573e:	e005      	b.n	1000574c <_ftoa+0x374>
10005740:	3501      	adds	r5, #1
10005742:	2d20      	cmp	r5, #32
10005744:	f802 1f01 	strb.w	r1, [r2, #1]!
10005748:	f43f aeff 	beq.w	1000554a <_ftoa+0x172>
1000574c:	42ae      	cmp	r6, r5
1000574e:	d1f7      	bne.n	10005740 <_ftoa+0x368>
10005750:	222e      	movs	r2, #46	@ 0x2e
10005752:	446e      	add	r6, sp
10005754:	3501      	adds	r5, #1
10005756:	f886 2038 	strb.w	r2, [r6, #56]	@ 0x38
1000575a:	e77f      	b.n	1000565c <_ftoa+0x284>
1000575c:	2520      	movs	r5, #32
1000575e:	e69c      	b.n	1000549a <_ftoa+0xc2>
10005760:	9a07      	ldr	r2, [sp, #28]
10005762:	f012 0f0c 	tst.w	r2, #12
10005766:	d05a      	beq.n	1000581e <_ftoa+0x446>
10005768:	f10b 3bff 	add.w	fp, fp, #4294967295
1000576c:	45ab      	cmp	fp, r5
1000576e:	d89b      	bhi.n	100056a8 <_ftoa+0x2d0>
10005770:	2d20      	cmp	r5, #32
10005772:	d0a3      	beq.n	100056bc <_ftoa+0x2e4>
10005774:	9b07      	ldr	r3, [sp, #28]
10005776:	075a      	lsls	r2, r3, #29
10005778:	d506      	bpl.n	10005788 <_ftoa+0x3b0>
1000577a:	222b      	movs	r2, #43	@ 0x2b
1000577c:	eb0d 0305 	add.w	r3, sp, r5
10005780:	f883 2038 	strb.w	r2, [r3, #56]	@ 0x38
10005784:	3501      	adds	r5, #1
10005786:	e799      	b.n	100056bc <_ftoa+0x2e4>
10005788:	071b      	lsls	r3, r3, #28
1000578a:	d597      	bpl.n	100056bc <_ftoa+0x2e4>
1000578c:	2220      	movs	r2, #32
1000578e:	eb0d 0305 	add.w	r3, sp, r5
10005792:	f883 2038 	strb.w	r2, [r3, #56]	@ 0x38
10005796:	3501      	adds	r5, #1
10005798:	e790      	b.n	100056bc <_ftoa+0x2e4>
1000579a:	3401      	adds	r4, #1
1000579c:	f024 0401 	bic.w	r4, r4, #1
100057a0:	e75a      	b.n	10005658 <_ftoa+0x280>
100057a2:	07f9      	lsls	r1, r7, #31
100057a4:	f57f aeb4 	bpl.w	10005510 <_ftoa+0x138>
100057a8:	e739      	b.n	1000561e <_ftoa+0x246>
100057aa:	f1bb 0f04 	cmp.w	fp, #4
100057ae:	f67f af08 	bls.w	100055c2 <_ftoa+0x1ea>
100057b2:	9b0c      	ldr	r3, [sp, #48]	@ 0x30
100057b4:	461d      	mov	r5, r3
100057b6:	3b04      	subs	r3, #4
100057b8:	eb03 070b 	add.w	r7, r3, fp
100057bc:	462a      	mov	r2, r5
100057be:	4653      	mov	r3, sl
100057c0:	4649      	mov	r1, r9
100057c2:	2020      	movs	r0, #32
100057c4:	3501      	adds	r5, #1
100057c6:	47c0      	blx	r8
100057c8:	42af      	cmp	r7, r5
100057ca:	d1f7      	bne.n	100057bc <_ftoa+0x3e4>
100057cc:	e6fa      	b.n	100055c4 <_ftoa+0x1ec>
100057ce:	9b07      	ldr	r3, [sp, #28]
100057d0:	f003 0202 	and.w	r2, r3, #2
100057d4:	079d      	lsls	r5, r3, #30
100057d6:	9204      	str	r2, [sp, #16]
100057d8:	d025      	beq.n	10005826 <_ftoa+0x44e>
100057da:	9f0c      	ldr	r7, [sp, #48]	@ 0x30
100057dc:	463d      	mov	r5, r7
100057de:	4e22      	ldr	r6, [pc, #136]	@ (10005868 <_ftoa+0x490>)
100057e0:	1cf4      	adds	r4, r6, #3
100057e2:	f814 0d01 	ldrb.w	r0, [r4, #-1]!
100057e6:	462a      	mov	r2, r5
100057e8:	4653      	mov	r3, sl
100057ea:	4649      	mov	r1, r9
100057ec:	47c0      	blx	r8
100057ee:	42a6      	cmp	r6, r4
100057f0:	f105 0501 	add.w	r5, r5, #1
100057f4:	d1f5      	bne.n	100057e2 <_ftoa+0x40a>
100057f6:	9b04      	ldr	r3, [sp, #16]
100057f8:	1cfc      	adds	r4, r7, #3
100057fa:	2b00      	cmp	r3, #0
100057fc:	f43f aeff 	beq.w	100055fe <_ftoa+0x226>
10005800:	9d0c      	ldr	r5, [sp, #48]	@ 0x30
10005802:	1b63      	subs	r3, r4, r5
10005804:	459b      	cmp	fp, r3
10005806:	f67f aefa 	bls.w	100055fe <_ftoa+0x226>
1000580a:	4622      	mov	r2, r4
1000580c:	4653      	mov	r3, sl
1000580e:	4649      	mov	r1, r9
10005810:	2020      	movs	r0, #32
10005812:	3401      	adds	r4, #1
10005814:	47c0      	blx	r8
10005816:	1b63      	subs	r3, r4, r5
10005818:	459b      	cmp	fp, r3
1000581a:	d8f6      	bhi.n	1000580a <_ftoa+0x432>
1000581c:	e6ef      	b.n	100055fe <_ftoa+0x226>
1000581e:	45ab      	cmp	fp, r5
10005820:	f63f af42 	bhi.w	100056a8 <_ftoa+0x2d0>
10005824:	e74a      	b.n	100056bc <_ftoa+0x2e4>
10005826:	f1bb 0f03 	cmp.w	fp, #3
1000582a:	d9d6      	bls.n	100057da <_ftoa+0x402>
1000582c:	9b0c      	ldr	r3, [sp, #48]	@ 0x30
1000582e:	461d      	mov	r5, r3
10005830:	3b03      	subs	r3, #3
10005832:	eb03 070b 	add.w	r7, r3, fp
10005836:	462a      	mov	r2, r5
10005838:	4653      	mov	r3, sl
1000583a:	4649      	mov	r1, r9
1000583c:	2020      	movs	r0, #32
1000583e:	3501      	adds	r5, #1
10005840:	47c0      	blx	r8
10005842:	42bd      	cmp	r5, r7
10005844:	d1f7      	bne.n	10005836 <_ftoa+0x45e>
10005846:	e7c9      	b.n	100057dc <_ftoa+0x404>
10005848:	f1bb 0f00 	cmp.w	fp, #0
1000584c:	f43f af66 	beq.w	1000571c <_ftoa+0x344>
10005850:	9a0d      	ldr	r2, [sp, #52]	@ 0x34
10005852:	2a00      	cmp	r2, #0
10005854:	d084      	beq.n	10005760 <_ftoa+0x388>
10005856:	f10b 3bff 	add.w	fp, fp, #4294967295
1000585a:	455d      	cmp	r5, fp
1000585c:	f4ff af24 	bcc.w	100056a8 <_ftoa+0x2d0>
10005860:	2d20      	cmp	r5, #32
10005862:	f47f af5f 	bne.w	10005724 <_ftoa+0x34c>
10005866:	e729      	b.n	100056bc <_ftoa+0x2e4>
10005868:	100097f0 	.word	0x100097f0
1000586c:	00000000 	.word	0x00000000

10005870 <_etoa>:
10005870:	e92d 4ff0 	stmdb	sp!, {r4, r5, r6, r7, r8, r9, sl, fp, lr}
10005874:	b09f      	sub	sp, #124	@ 0x7c
10005876:	461e      	mov	r6, r3
10005878:	e9dd ab28 	ldrd	sl, fp, [sp, #160]	@ 0xa0
1000587c:	e9dd 982b 	ldrd	r9, r8, [sp, #172]	@ 0xac
10005880:	9b2a      	ldr	r3, [sp, #168]	@ 0xa8
10005882:	4604      	mov	r4, r0
10005884:	460d      	mov	r5, r1
10005886:	920b      	str	r2, [sp, #44]	@ 0x2c
10005888:	930a      	str	r3, [sp, #40]	@ 0x28
1000588a:	4652      	mov	r2, sl
1000588c:	465b      	mov	r3, fp
1000588e:	4650      	mov	r0, sl
10005890:	4659      	mov	r1, fp
10005892:	f7ff fbf5 	bl	10005080 <__wrap___aeabi_dcmpun>
10005896:	2800      	cmp	r0, #0
10005898:	f040 80c6 	bne.w	10005a28 <_etoa+0x1b8>
1000589c:	4650      	mov	r0, sl
1000589e:	4659      	mov	r1, fp
100058a0:	f04f 32ff 	mov.w	r2, #4294967295
100058a4:	4b7b      	ldr	r3, [pc, #492]	@ (10005a94 <_etoa+0x224>)
100058a6:	f7ff fc39 	bl	1000511c <__wrap___aeabi_dcmpgt>
100058aa:	2800      	cmp	r0, #0
100058ac:	f040 80bc 	bne.w	10005a28 <_etoa+0x1b8>
100058b0:	4650      	mov	r0, sl
100058b2:	4659      	mov	r1, fp
100058b4:	f04f 32ff 	mov.w	r2, #4294967295
100058b8:	f46f 1380 	mvn.w	r3, #1048576	@ 0x100000
100058bc:	f7ff fbf2 	bl	100050a4 <__wrap___aeabi_dcmplt>
100058c0:	2800      	cmp	r0, #0
100058c2:	f040 80b1 	bne.w	10005a28 <_etoa+0x1b8>
100058c6:	4650      	mov	r0, sl
100058c8:	4659      	mov	r1, fp
100058ca:	2200      	movs	r2, #0
100058cc:	2300      	movs	r3, #0
100058ce:	f7ff fbe9 	bl	100050a4 <__wrap___aeabi_dcmplt>
100058d2:	2800      	cmp	r0, #0
100058d4:	f040 81dd 	bne.w	10005c92 <_etoa+0x422>
100058d8:	e9cd ab08 	strd	sl, fp, [sp, #32]
100058dc:	e9dd 1208 	ldrd	r1, r2, [sp, #32]
100058e0:	f418 6080 	ands.w	r0, r8, #1024	@ 0x400
100058e4:	460b      	mov	r3, r1
100058e6:	460f      	mov	r7, r1
100058e8:	f408 6100 	and.w	r1, r8, #2048	@ 0x800
100058ec:	920c      	str	r2, [sp, #48]	@ 0x30
100058ee:	9114      	str	r1, [sp, #80]	@ 0x50
100058f0:	9015      	str	r0, [sp, #84]	@ 0x54
100058f2:	f040 80a8 	bne.w	10005a46 <_etoa+0x1d6>
100058f6:	4313      	orrs	r3, r2
100058f8:	f040 80d0 	bne.w	10005a9c <_etoa+0x22c>
100058fc:	2900      	cmp	r1, #0
100058fe:	f040 81ec 	bne.w	10005cda <_etoa+0x46a>
10005902:	2306      	movs	r3, #6
10005904:	930a      	str	r3, [sp, #40]	@ 0x28
10005906:	f018 0202 	ands.w	r2, r8, #2
1000590a:	9210      	str	r2, [sp, #64]	@ 0x40
1000590c:	f040 81dd 	bne.w	10005cca <_etoa+0x45a>
10005910:	464b      	mov	r3, r9
10005912:	2b04      	cmp	r3, #4
10005914:	bf38      	it	cc
10005916:	2304      	movcc	r3, #4
10005918:	920e      	str	r2, [sp, #56]	@ 0x38
1000591a:	2204      	movs	r2, #4
1000591c:	3b04      	subs	r3, #4
1000591e:	9212      	str	r2, [sp, #72]	@ 0x48
10005920:	9314      	str	r3, [sp, #80]	@ 0x50
10005922:	4650      	mov	r0, sl
10005924:	4659      	mov	r1, fp
10005926:	2200      	movs	r2, #0
10005928:	2300      	movs	r3, #0
1000592a:	f7ff fbbb 	bl	100050a4 <__wrap___aeabi_dcmplt>
1000592e:	2800      	cmp	r0, #0
10005930:	f040 822a 	bne.w	10005d88 <_etoa+0x518>
10005934:	ed9d 7b08 	vldr	d7, [sp, #32]
10005938:	9b14      	ldr	r3, [sp, #80]	@ 0x50
1000593a:	9a0b      	ldr	r2, [sp, #44]	@ 0x2c
1000593c:	9303      	str	r3, [sp, #12]
1000593e:	9b0a      	ldr	r3, [sp, #40]	@ 0x28
10005940:	ed8d 7b00 	vstr	d7, [sp]
10005944:	9302      	str	r3, [sp, #8]
10005946:	f428 6300 	bic.w	r3, r8, #2048	@ 0x800
1000594a:	9304      	str	r3, [sp, #16]
1000594c:	4629      	mov	r1, r5
1000594e:	4633      	mov	r3, r6
10005950:	4620      	mov	r0, r4
10005952:	f7ff fd41 	bl	100053d8 <_ftoa>
10005956:	4602      	mov	r2, r0
10005958:	f018 0f20 	tst.w	r8, #32
1000595c:	4633      	mov	r3, r6
1000595e:	4629      	mov	r1, r5
10005960:	bf0c      	ite	eq
10005962:	2065      	moveq	r0, #101	@ 0x65
10005964:	2045      	movne	r0, #69	@ 0x45
10005966:	f102 0801 	add.w	r8, r2, #1
1000596a:	47a0      	blx	r4
1000596c:	9b12      	ldr	r3, [sp, #72]	@ 0x48
1000596e:	f10d 0a58 	add.w	sl, sp, #88	@ 0x58
10005972:	f103 3bff 	add.w	fp, r3, #4294967295
10005976:	9b0e      	ldr	r3, [sp, #56]	@ 0x38
10005978:	2200      	movs	r2, #0
1000597a:	ea83 7ce3 	eor.w	ip, r3, r3, asr #31
1000597e:	4650      	mov	r0, sl
10005980:	f8df e114 	ldr.w	lr, [pc, #276]	@ 10005a98 <_etoa+0x228>
10005984:	9f0b      	ldr	r7, [sp, #44]	@ 0x2c
10005986:	ebac 7ce3 	sub.w	ip, ip, r3, asr #31
1000598a:	0fd9      	lsrs	r1, r3, #31
1000598c:	f8cd 8020 	str.w	r8, [sp, #32]
10005990:	e002      	b.n	10005998 <_etoa+0x128>
10005992:	2a20      	cmp	r2, #32
10005994:	46c4      	mov	ip, r8
10005996:	d010      	beq.n	100059ba <_etoa+0x14a>
10005998:	fbae 380c 	umull	r3, r8, lr, ip
1000599c:	ea4f 08d8 	mov.w	r8, r8, lsr #3
100059a0:	eb08 0388 	add.w	r3, r8, r8, lsl #2
100059a4:	ebac 0343 	sub.w	r3, ip, r3, lsl #1
100059a8:	3001      	adds	r0, #1
100059aa:	3330      	adds	r3, #48	@ 0x30
100059ac:	f1bc 0f09 	cmp.w	ip, #9
100059b0:	f102 0201 	add.w	r2, r2, #1
100059b4:	f800 3c01 	strb.w	r3, [r0, #-1]
100059b8:	d8eb      	bhi.n	10005992 <_etoa+0x122>
100059ba:	2305      	movs	r3, #5
100059bc:	f04f 0c00 	mov.w	ip, #0
100059c0:	9306      	str	r3, [sp, #24]
100059c2:	230a      	movs	r3, #10
100059c4:	f8dd 8020 	ldr.w	r8, [sp, #32]
100059c8:	e9cd 2101 	strd	r2, r1, [sp, #4]
100059cc:	e9cd 3c03 	strd	r3, ip, [sp, #12]
100059d0:	f8cd a000 	str.w	sl, [sp]
100059d4:	4633      	mov	r3, r6
100059d6:	4642      	mov	r2, r8
100059d8:	4629      	mov	r1, r5
100059da:	4620      	mov	r0, r4
100059dc:	f8cd b014 	str.w	fp, [sp, #20]
100059e0:	f7ff fc02 	bl	100051e8 <_ntoa_format>
100059e4:	9b10      	ldr	r3, [sp, #64]	@ 0x40
100059e6:	4682      	mov	sl, r0
100059e8:	b1d3      	cbz	r3, 10005a20 <_etoa+0x1b0>
100059ea:	eba0 0807 	sub.w	r8, r0, r7
100059ee:	45c1      	cmp	r9, r8
100059f0:	d916      	bls.n	10005a20 <_etoa+0x1b0>
100059f2:	eb07 0208 	add.w	r2, r7, r8
100059f6:	4633      	mov	r3, r6
100059f8:	4629      	mov	r1, r5
100059fa:	2020      	movs	r0, #32
100059fc:	f108 0801 	add.w	r8, r8, #1
10005a00:	47a0      	blx	r4
10005a02:	45c1      	cmp	r9, r8
10005a04:	d8f5      	bhi.n	100059f2 <_etoa+0x182>
10005a06:	1e7b      	subs	r3, r7, #1
10005a08:	444b      	add	r3, r9
10005a0a:	f1c7 0201 	rsb	r2, r7, #1
10005a0e:	eba3 030a 	sub.w	r3, r3, sl
10005a12:	4452      	add	r2, sl
10005a14:	4591      	cmp	r9, r2
10005a16:	bf38      	it	cc
10005a18:	2300      	movcc	r3, #0
10005a1a:	f10a 0a01 	add.w	sl, sl, #1
10005a1e:	449a      	add	sl, r3
10005a20:	4650      	mov	r0, sl
10005a22:	b01f      	add	sp, #124	@ 0x7c
10005a24:	e8bd 8ff0 	ldmia.w	sp!, {r4, r5, r6, r7, r8, r9, sl, fp, pc}
10005a28:	4633      	mov	r3, r6
10005a2a:	4629      	mov	r1, r5
10005a2c:	4620      	mov	r0, r4
10005a2e:	e9cd ab28 	strd	sl, fp, [sp, #160]	@ 0xa0
10005a32:	9c0a      	ldr	r4, [sp, #40]	@ 0x28
10005a34:	e9cd 982b 	strd	r9, r8, [sp, #172]	@ 0xac
10005a38:	9a0b      	ldr	r2, [sp, #44]	@ 0x2c
10005a3a:	942a      	str	r4, [sp, #168]	@ 0xa8
10005a3c:	b01f      	add	sp, #124	@ 0x7c
10005a3e:	e8bd 4ff0 	ldmia.w	sp!, {r4, r5, r6, r7, r8, r9, sl, fp, lr}
10005a42:	f7ff bcc9 	b.w	100053d8 <_ftoa>
10005a46:	ea57 0302 	orrs.w	r3, r7, r2
10005a4a:	d129      	bne.n	10005aa0 <_etoa+0x230>
10005a4c:	2900      	cmp	r1, #0
10005a4e:	f43f af5a 	beq.w	10005906 <_etoa+0x96>
10005a52:	2300      	movs	r3, #0
10005a54:	930e      	str	r3, [sp, #56]	@ 0x38
10005a56:	9b0a      	ldr	r3, [sp, #40]	@ 0x28
10005a58:	9a0e      	ldr	r2, [sp, #56]	@ 0x38
10005a5a:	4293      	cmp	r3, r2
10005a5c:	f300 81ba 	bgt.w	10005dd4 <_etoa+0x564>
10005a60:	2700      	movs	r7, #0
10005a62:	4650      	mov	r0, sl
10005a64:	4659      	mov	r1, fp
10005a66:	2200      	movs	r2, #0
10005a68:	2300      	movs	r3, #0
10005a6a:	f7ff fb1b 	bl	100050a4 <__wrap___aeabi_dcmplt>
10005a6e:	2800      	cmp	r0, #0
10005a70:	f040 8115 	bne.w	10005c9e <_etoa+0x42e>
10005a74:	ed9d 7b08 	vldr	d7, [sp, #32]
10005a78:	f428 6300 	bic.w	r3, r8, #2048	@ 0x800
10005a7c:	f443 6380 	orr.w	r3, r3, #1024	@ 0x400
10005a80:	932c      	str	r3, [sp, #176]	@ 0xb0
10005a82:	ed8d 7b28 	vstr	d7, [sp, #160]	@ 0xa0
10005a86:	4633      	mov	r3, r6
10005a88:	4629      	mov	r1, r5
10005a8a:	4620      	mov	r0, r4
10005a8c:	e9cd 792a 	strd	r7, r9, [sp, #168]	@ 0xa8
10005a90:	9a0b      	ldr	r2, [sp, #44]	@ 0x2c
10005a92:	e7d3      	b.n	10005a3c <_etoa+0x1cc>
10005a94:	7fefffff 	.word	0x7fefffff
10005a98:	cccccccd 	.word	0xcccccccd
10005a9c:	2306      	movs	r3, #6
10005a9e:	930a      	str	r3, [sp, #40]	@ 0x28
10005aa0:	9b0c      	ldr	r3, [sp, #48]	@ 0x30
10005aa2:	f3c3 500a 	ubfx	r0, r3, #20, #11
10005aa6:	f2a0 30ff 	subw	r0, r0, #1023	@ 0x3ff
10005aaa:	f7ff faa1 	bl	10004ff0 <__wrap___aeabi_i2d>
10005aae:	a3b2      	add	r3, pc, #712	@ (adr r3, 10005d78 <_etoa+0x508>)
10005ab0:	e9d3 2300 	ldrd	r2, r3, [r3]
10005ab4:	f7ff fa28 	bl	10004f08 <__wrap___aeabi_dmul>
10005ab8:	a3b1      	add	r3, pc, #708	@ (adr r3, 10005d80 <_etoa+0x510>)
10005aba:	e9d3 2300 	ldrd	r2, r3, [r3]
10005abe:	f7ff f9fb 	bl	10004eb8 <__wrap___aeabi_dadd>
10005ac2:	9b0c      	ldr	r3, [sp, #48]	@ 0x30
10005ac4:	e9cd 010e 	strd	r0, r1, [sp, #56]	@ 0x38
10005ac8:	f3c3 0313 	ubfx	r3, r3, #0, #20
10005acc:	f043 517f 	orr.w	r1, r3, #1069547520	@ 0x3fc00000
10005ad0:	4638      	mov	r0, r7
10005ad2:	2200      	movs	r2, #0
10005ad4:	4ba2      	ldr	r3, [pc, #648]	@ (10005d60 <_etoa+0x4f0>)
10005ad6:	f441 1140 	orr.w	r1, r1, #3145728	@ 0x300000
10005ada:	f7ff fa01 	bl	10004ee0 <__wrap___aeabi_dsub>
10005ade:	a394      	add	r3, pc, #592	@ (adr r3, 10005d30 <_etoa+0x4c0>)
10005ae0:	e9d3 2300 	ldrd	r2, r3, [r3]
10005ae4:	f7ff fa10 	bl	10004f08 <__wrap___aeabi_dmul>
10005ae8:	4602      	mov	r2, r0
10005aea:	460b      	mov	r3, r1
10005aec:	e9dd 010e 	ldrd	r0, r1, [sp, #56]	@ 0x38
10005af0:	f7ff f9e2 	bl	10004eb8 <__wrap___aeabi_dadd>
10005af4:	f7ff faa0 	bl	10005038 <__wrap___aeabi_d2iz>
10005af8:	900e      	str	r0, [sp, #56]	@ 0x38
10005afa:	f7ff fa79 	bl	10004ff0 <__wrap___aeabi_i2d>
10005afe:	a38e      	add	r3, pc, #568	@ (adr r3, 10005d38 <_etoa+0x4c8>)
10005b00:	e9d3 2300 	ldrd	r2, r3, [r3]
10005b04:	e9cd 010c 	strd	r0, r1, [sp, #48]	@ 0x30
10005b08:	f7ff f9fe 	bl	10004f08 <__wrap___aeabi_dmul>
10005b0c:	2200      	movs	r2, #0
10005b0e:	4b95      	ldr	r3, [pc, #596]	@ (10005d64 <_etoa+0x4f4>)
10005b10:	f7ff f9d2 	bl	10004eb8 <__wrap___aeabi_dadd>
10005b14:	f7ff fa90 	bl	10005038 <__wrap___aeabi_d2iz>
10005b18:	a389      	add	r3, pc, #548	@ (adr r3, 10005d40 <_etoa+0x4d0>)
10005b1a:	e9d3 2300 	ldrd	r2, r3, [r3]
10005b1e:	4607      	mov	r7, r0
10005b20:	e9dd 010c 	ldrd	r0, r1, [sp, #48]	@ 0x30
10005b24:	f7ff f9f0 	bl	10004f08 <__wrap___aeabi_dmul>
10005b28:	e9cd 010c 	strd	r0, r1, [sp, #48]	@ 0x30
10005b2c:	4638      	mov	r0, r7
10005b2e:	f7ff fa5f 	bl	10004ff0 <__wrap___aeabi_i2d>
10005b32:	a385      	add	r3, pc, #532	@ (adr r3, 10005d48 <_etoa+0x4d8>)
10005b34:	e9d3 2300 	ldrd	r2, r3, [r3]
10005b38:	f7ff f9e6 	bl	10004f08 <__wrap___aeabi_dmul>
10005b3c:	4602      	mov	r2, r0
10005b3e:	460b      	mov	r3, r1
10005b40:	e9dd 010c 	ldrd	r0, r1, [sp, #48]	@ 0x30
10005b44:	f7ff f9cc 	bl	10004ee0 <__wrap___aeabi_dsub>
10005b48:	4602      	mov	r2, r0
10005b4a:	460b      	mov	r3, r1
10005b4c:	e9cd 230c 	strd	r2, r3, [sp, #48]	@ 0x30
10005b50:	f7ff f9da 	bl	10004f08 <__wrap___aeabi_dmul>
10005b54:	e9cd 0110 	strd	r0, r1, [sp, #64]	@ 0x40
10005b58:	e9dd 010c 	ldrd	r0, r1, [sp, #48]	@ 0x30
10005b5c:	4602      	mov	r2, r0
10005b5e:	460b      	mov	r3, r1
10005b60:	f7ff f9aa 	bl	10004eb8 <__wrap___aeabi_dadd>
10005b64:	2200      	movs	r2, #0
10005b66:	e9cd 0112 	strd	r0, r1, [sp, #72]	@ 0x48
10005b6a:	e9dd 0110 	ldrd	r0, r1, [sp, #64]	@ 0x40
10005b6e:	4b7e      	ldr	r3, [pc, #504]	@ (10005d68 <_etoa+0x4f8>)
10005b70:	f7ff f9f0 	bl	10004f54 <__wrap___aeabi_ddiv>
10005b74:	2200      	movs	r2, #0
10005b76:	4b7d      	ldr	r3, [pc, #500]	@ (10005d6c <_etoa+0x4fc>)
10005b78:	f7ff f99e 	bl	10004eb8 <__wrap___aeabi_dadd>
10005b7c:	4602      	mov	r2, r0
10005b7e:	460b      	mov	r3, r1
10005b80:	e9dd 0110 	ldrd	r0, r1, [sp, #64]	@ 0x40
10005b84:	f7ff f9e6 	bl	10004f54 <__wrap___aeabi_ddiv>
10005b88:	2200      	movs	r2, #0
10005b8a:	4b79      	ldr	r3, [pc, #484]	@ (10005d70 <_etoa+0x500>)
10005b8c:	f7ff f994 	bl	10004eb8 <__wrap___aeabi_dadd>
10005b90:	4602      	mov	r2, r0
10005b92:	460b      	mov	r3, r1
10005b94:	e9dd 0110 	ldrd	r0, r1, [sp, #64]	@ 0x40
10005b98:	f7ff f9dc 	bl	10004f54 <__wrap___aeabi_ddiv>
10005b9c:	e9cd 0110 	strd	r0, r1, [sp, #64]	@ 0x40
10005ba0:	e9dd 230c 	ldrd	r2, r3, [sp, #48]	@ 0x30
10005ba4:	2000      	movs	r0, #0
10005ba6:	f04f 4180 	mov.w	r1, #1073741824	@ 0x40000000
10005baa:	f7ff f999 	bl	10004ee0 <__wrap___aeabi_dsub>
10005bae:	4602      	mov	r2, r0
10005bb0:	460b      	mov	r3, r1
10005bb2:	e9dd 0110 	ldrd	r0, r1, [sp, #64]	@ 0x40
10005bb6:	f7ff f97f 	bl	10004eb8 <__wrap___aeabi_dadd>
10005bba:	4602      	mov	r2, r0
10005bbc:	460b      	mov	r3, r1
10005bbe:	e9dd 0112 	ldrd	r0, r1, [sp, #72]	@ 0x48
10005bc2:	f7ff f9c7 	bl	10004f54 <__wrap___aeabi_ddiv>
10005bc6:	2200      	movs	r2, #0
10005bc8:	4b6a      	ldr	r3, [pc, #424]	@ (10005d74 <_etoa+0x504>)
10005bca:	f7ff f975 	bl	10004eb8 <__wrap___aeabi_dadd>
10005bce:	f207 3cff 	addw	ip, r7, #1023	@ 0x3ff
10005bd2:	2200      	movs	r2, #0
10005bd4:	ea4f 530c 	mov.w	r3, ip, lsl #20
10005bd8:	f7ff f996 	bl	10004f08 <__wrap___aeabi_dmul>
10005bdc:	4602      	mov	r2, r0
10005bde:	460b      	mov	r3, r1
10005be0:	e9dd 0108 	ldrd	r0, r1, [sp, #32]
10005be4:	e9cd 230c 	strd	r2, r3, [sp, #48]	@ 0x30
10005be8:	f7ff fa5c 	bl	100050a4 <__wrap___aeabi_dcmplt>
10005bec:	b150      	cbz	r0, 10005c04 <_etoa+0x394>
10005bee:	e9dd 010c 	ldrd	r0, r1, [sp, #48]	@ 0x30
10005bf2:	9b0e      	ldr	r3, [sp, #56]	@ 0x38
10005bf4:	2200      	movs	r2, #0
10005bf6:	3b01      	subs	r3, #1
10005bf8:	930e      	str	r3, [sp, #56]	@ 0x38
10005bfa:	4b5c      	ldr	r3, [pc, #368]	@ (10005d6c <_etoa+0x4fc>)
10005bfc:	f7ff f9aa 	bl	10004f54 <__wrap___aeabi_ddiv>
10005c00:	e9cd 010c 	strd	r0, r1, [sp, #48]	@ 0x30
10005c04:	e9dd 010c 	ldrd	r0, r1, [sp, #48]	@ 0x30
10005c08:	9b0e      	ldr	r3, [sp, #56]	@ 0x38
10005c0a:	4602      	mov	r2, r0
10005c0c:	3363      	adds	r3, #99	@ 0x63
10005c0e:	2bc6      	cmp	r3, #198	@ 0xc6
10005c10:	f008 0302 	and.w	r3, r8, #2
10005c14:	9310      	str	r3, [sp, #64]	@ 0x40
10005c16:	9b14      	ldr	r3, [sp, #80]	@ 0x50
10005c18:	d82d      	bhi.n	10005c76 <_etoa+0x406>
10005c1a:	2b00      	cmp	r3, #0
10005c1c:	d05f      	beq.n	10005cde <_etoa+0x46e>
10005c1e:	2304      	movs	r3, #4
10005c20:	9312      	str	r3, [sp, #72]	@ 0x48
10005c22:	430a      	orrs	r2, r1
10005c24:	f43f af17 	beq.w	10005a56 <_etoa+0x1e6>
10005c28:	e9dd 0108 	ldrd	r0, r1, [sp, #32]
10005c2c:	a348      	add	r3, pc, #288	@ (adr r3, 10005d50 <_etoa+0x4e0>)
10005c2e:	e9d3 2300 	ldrd	r2, r3, [r3]
10005c32:	f7ff fa5f 	bl	100050f4 <__wrap___aeabi_dcmpge>
10005c36:	b148      	cbz	r0, 10005c4c <_etoa+0x3dc>
10005c38:	e9dd 0108 	ldrd	r0, r1, [sp, #32]
10005c3c:	a346      	add	r3, pc, #280	@ (adr r3, 10005d58 <_etoa+0x4e8>)
10005c3e:	e9d3 2300 	ldrd	r2, r3, [r3]
10005c42:	f7ff fa2f 	bl	100050a4 <__wrap___aeabi_dcmplt>
10005c46:	2800      	cmp	r0, #0
10005c48:	f47f af05 	bne.w	10005a56 <_etoa+0x1e6>
10005c4c:	9b0a      	ldr	r3, [sp, #40]	@ 0x28
10005c4e:	2b00      	cmp	r3, #0
10005c50:	d051      	beq.n	10005cf6 <_etoa+0x486>
10005c52:	9a15      	ldr	r2, [sp, #84]	@ 0x54
10005c54:	2a00      	cmp	r2, #0
10005c56:	f000 80ac 	beq.w	10005db2 <_etoa+0x542>
10005c5a:	3b01      	subs	r3, #1
10005c5c:	930a      	str	r3, [sp, #40]	@ 0x28
10005c5e:	9b12      	ldr	r3, [sp, #72]	@ 0x48
10005c60:	4599      	cmp	r9, r3
10005c62:	d905      	bls.n	10005c70 <_etoa+0x400>
10005c64:	9b10      	ldr	r3, [sp, #64]	@ 0x40
10005c66:	2b00      	cmp	r3, #0
10005c68:	f000 80af 	beq.w	10005dca <_etoa+0x55a>
10005c6c:	2302      	movs	r3, #2
10005c6e:	9310      	str	r3, [sp, #64]	@ 0x40
10005c70:	2300      	movs	r3, #0
10005c72:	9314      	str	r3, [sp, #80]	@ 0x50
10005c74:	e044      	b.n	10005d00 <_etoa+0x490>
10005c76:	bb2b      	cbnz	r3, 10005cc4 <_etoa+0x454>
10005c78:	f1b9 0f05 	cmp.w	r9, #5
10005c7c:	d94f      	bls.n	10005d1e <_etoa+0x4ae>
10005c7e:	f008 0302 	and.w	r3, r8, #2
10005c82:	2b00      	cmp	r3, #0
10005c84:	d149      	bne.n	10005d1a <_etoa+0x4aa>
10005c86:	2305      	movs	r3, #5
10005c88:	9312      	str	r3, [sp, #72]	@ 0x48
10005c8a:	f1a9 0305 	sub.w	r3, r9, #5
10005c8e:	9314      	str	r3, [sp, #80]	@ 0x50
10005c90:	e03a      	b.n	10005d08 <_etoa+0x498>
10005c92:	f10b 4300 	add.w	r3, fp, #2147483648	@ 0x80000000
10005c96:	f8cd a020 	str.w	sl, [sp, #32]
10005c9a:	9309      	str	r3, [sp, #36]	@ 0x24
10005c9c:	e61e      	b.n	100058dc <_etoa+0x6c>
10005c9e:	f428 6300 	bic.w	r3, r8, #2048	@ 0x800
10005ca2:	f443 6380 	orr.w	r3, r3, #1024	@ 0x400
10005ca6:	4620      	mov	r0, r4
10005ca8:	e9cd 792a 	strd	r7, r9, [sp, #168]	@ 0xa8
10005cac:	932c      	str	r3, [sp, #176]	@ 0xb0
10005cae:	4633      	mov	r3, r6
10005cb0:	e9dd 6708 	ldrd	r6, r7, [sp, #32]
10005cb4:	4634      	mov	r4, r6
10005cb6:	4629      	mov	r1, r5
10005cb8:	f107 4500 	add.w	r5, r7, #2147483648	@ 0x80000000
10005cbc:	e9cd 4528 	strd	r4, r5, [sp, #160]	@ 0xa0
10005cc0:	9a0b      	ldr	r2, [sp, #44]	@ 0x2c
10005cc2:	e6bb      	b.n	10005a3c <_etoa+0x1cc>
10005cc4:	2305      	movs	r3, #5
10005cc6:	9312      	str	r3, [sp, #72]	@ 0x48
10005cc8:	e7ab      	b.n	10005c22 <_etoa+0x3b2>
10005cca:	2202      	movs	r2, #2
10005ccc:	2300      	movs	r3, #0
10005cce:	9210      	str	r2, [sp, #64]	@ 0x40
10005cd0:	2204      	movs	r2, #4
10005cd2:	9314      	str	r3, [sp, #80]	@ 0x50
10005cd4:	9212      	str	r2, [sp, #72]	@ 0x48
10005cd6:	930e      	str	r3, [sp, #56]	@ 0x38
10005cd8:	e623      	b.n	10005922 <_etoa+0xb2>
10005cda:	2705      	movs	r7, #5
10005cdc:	e6c1      	b.n	10005a62 <_etoa+0x1f2>
10005cde:	f1b9 0f04 	cmp.w	r9, #4
10005ce2:	d91f      	bls.n	10005d24 <_etoa+0x4b4>
10005ce4:	9b10      	ldr	r3, [sp, #64]	@ 0x40
10005ce6:	2b00      	cmp	r3, #0
10005ce8:	d177      	bne.n	10005dda <_etoa+0x56a>
10005cea:	2304      	movs	r3, #4
10005cec:	9312      	str	r3, [sp, #72]	@ 0x48
10005cee:	f1a9 0304 	sub.w	r3, r9, #4
10005cf2:	9314      	str	r3, [sp, #80]	@ 0x50
10005cf4:	e004      	b.n	10005d00 <_etoa+0x490>
10005cf6:	9b12      	ldr	r3, [sp, #72]	@ 0x48
10005cf8:	4599      	cmp	r9, r3
10005cfa:	d85f      	bhi.n	10005dbc <_etoa+0x54c>
10005cfc:	9b0a      	ldr	r3, [sp, #40]	@ 0x28
10005cfe:	9314      	str	r3, [sp, #80]	@ 0x50
10005d00:	9b0e      	ldr	r3, [sp, #56]	@ 0x38
10005d02:	2b00      	cmp	r3, #0
10005d04:	f43f ae0d 	beq.w	10005922 <_etoa+0xb2>
10005d08:	e9dd 0108 	ldrd	r0, r1, [sp, #32]
10005d0c:	e9dd 230c 	ldrd	r2, r3, [sp, #48]	@ 0x30
10005d10:	f7ff f920 	bl	10004f54 <__wrap___aeabi_ddiv>
10005d14:	e9cd 0108 	strd	r0, r1, [sp, #32]
10005d18:	e603      	b.n	10005922 <_etoa+0xb2>
10005d1a:	2302      	movs	r3, #2
10005d1c:	9310      	str	r3, [sp, #64]	@ 0x40
10005d1e:	2305      	movs	r3, #5
10005d20:	9312      	str	r3, [sp, #72]	@ 0x48
10005d22:	e7f1      	b.n	10005d08 <_etoa+0x498>
10005d24:	2304      	movs	r3, #4
10005d26:	9312      	str	r3, [sp, #72]	@ 0x48
10005d28:	e7ea      	b.n	10005d00 <_etoa+0x490>
10005d2a:	bf00      	nop
10005d2c:	f3af 8000 	nop.w
10005d30:	636f4361 	.word	0x636f4361
10005d34:	3fd287a7 	.word	0x3fd287a7
10005d38:	0979a371 	.word	0x0979a371
10005d3c:	400a934f 	.word	0x400a934f
10005d40:	bbb55516 	.word	0xbbb55516
10005d44:	40026bb1 	.word	0x40026bb1
10005d48:	fefa39ef 	.word	0xfefa39ef
10005d4c:	3fe62e42 	.word	0x3fe62e42
10005d50:	eb1c432d 	.word	0xeb1c432d
10005d54:	3f1a36e2 	.word	0x3f1a36e2
10005d58:	00000000 	.word	0x00000000
10005d5c:	412e8480 	.word	0x412e8480
10005d60:	3ff80000 	.word	0x3ff80000
10005d64:	3fe00000 	.word	0x3fe00000
10005d68:	402c0000 	.word	0x402c0000
10005d6c:	40240000 	.word	0x40240000
10005d70:	40180000 	.word	0x40180000
10005d74:	3ff00000 	.word	0x3ff00000
10005d78:	509f79fb 	.word	0x509f79fb
10005d7c:	3fd34413 	.word	0x3fd34413
10005d80:	8b60c8b3 	.word	0x8b60c8b3
10005d84:	3fc68a28 	.word	0x3fc68a28
10005d88:	9b14      	ldr	r3, [sp, #80]	@ 0x50
10005d8a:	e9dd a708 	ldrd	sl, r7, [sp, #32]
10005d8e:	9303      	str	r3, [sp, #12]
10005d90:	9b0a      	ldr	r3, [sp, #40]	@ 0x28
10005d92:	f107 4b00 	add.w	fp, r7, #2147483648	@ 0x80000000
10005d96:	9302      	str	r3, [sp, #8]
10005d98:	f428 6300 	bic.w	r3, r8, #2048	@ 0x800
10005d9c:	9a0b      	ldr	r2, [sp, #44]	@ 0x2c
10005d9e:	9304      	str	r3, [sp, #16]
10005da0:	4629      	mov	r1, r5
10005da2:	4633      	mov	r3, r6
10005da4:	4620      	mov	r0, r4
10005da6:	e9cd ab00 	strd	sl, fp, [sp]
10005daa:	f7ff fb15 	bl	100053d8 <_ftoa>
10005dae:	4602      	mov	r2, r0
10005db0:	e5d2      	b.n	10005958 <_etoa+0xe8>
10005db2:	9b12      	ldr	r3, [sp, #72]	@ 0x48
10005db4:	4599      	cmp	r9, r3
10005db6:	d815      	bhi.n	10005de4 <_etoa+0x574>
10005db8:	9214      	str	r2, [sp, #80]	@ 0x50
10005dba:	e7a1      	b.n	10005d00 <_etoa+0x490>
10005dbc:	9b10      	ldr	r3, [sp, #64]	@ 0x40
10005dbe:	b123      	cbz	r3, 10005dca <_etoa+0x55a>
10005dc0:	9b0a      	ldr	r3, [sp, #40]	@ 0x28
10005dc2:	9314      	str	r3, [sp, #80]	@ 0x50
10005dc4:	2302      	movs	r3, #2
10005dc6:	9310      	str	r3, [sp, #64]	@ 0x40
10005dc8:	e79a      	b.n	10005d00 <_etoa+0x490>
10005dca:	9b12      	ldr	r3, [sp, #72]	@ 0x48
10005dcc:	eba9 0303 	sub.w	r3, r9, r3
10005dd0:	9314      	str	r3, [sp, #80]	@ 0x50
10005dd2:	e795      	b.n	10005d00 <_etoa+0x490>
10005dd4:	1a9b      	subs	r3, r3, r2
10005dd6:	1e5f      	subs	r7, r3, #1
10005dd8:	e643      	b.n	10005a62 <_etoa+0x1f2>
10005dda:	2304      	movs	r3, #4
10005ddc:	9312      	str	r3, [sp, #72]	@ 0x48
10005dde:	2302      	movs	r3, #2
10005de0:	9310      	str	r3, [sp, #64]	@ 0x40
10005de2:	e78d      	b.n	10005d00 <_etoa+0x490>
10005de4:	9b10      	ldr	r3, [sp, #64]	@ 0x40
10005de6:	2b00      	cmp	r3, #0
10005de8:	d0ef      	beq.n	10005dca <_etoa+0x55a>
10005dea:	2302      	movs	r3, #2
10005dec:	9214      	str	r2, [sp, #80]	@ 0x50
10005dee:	9310      	str	r3, [sp, #64]	@ 0x40
10005df0:	e786      	b.n	10005d00 <_etoa+0x490>
10005df2:	bf00      	nop

10005df4 <_vsnprintf>:
10005df4:	e92d 4ff0 	stmdb	sp!, {r4, r5, r6, r7, r8, r9, sl, fp, lr}
10005df8:	4691      	mov	r9, r2
10005dfa:	4c9a      	ldr	r4, [pc, #616]	@ (10006064 <_vsnprintf+0x270>)
10005dfc:	4a9a      	ldr	r2, [pc, #616]	@ (10006068 <_vsnprintf+0x274>)
10005dfe:	f1b1 0a00 	subs.w	sl, r1, #0
10005e02:	b09b      	sub	sp, #108	@ 0x6c
10005e04:	bf18      	it	ne
10005e06:	4683      	movne	fp, r0
10005e08:	6014      	str	r4, [r2, #0]
10005e0a:	7818      	ldrb	r0, [r3, #0]
10005e0c:	4a97      	ldr	r2, [pc, #604]	@ (1000606c <_vsnprintf+0x278>)
10005e0e:	f8dd 8090 	ldr.w	r8, [sp, #144]	@ 0x90
10005e12:	bf08      	it	eq
10005e14:	4693      	moveq	fp, r2
10005e16:	2800      	cmp	r0, #0
10005e18:	f000 828a 	beq.w	10006330 <_vsnprintf+0x53c>
10005e1c:	461d      	mov	r5, r3
10005e1e:	2600      	movs	r6, #0
10005e20:	f8cd 9020 	str.w	r9, [sp, #32]
10005e24:	e008      	b.n	10005e38 <_vsnprintf+0x44>
10005e26:	4632      	mov	r2, r6
10005e28:	4651      	mov	r1, sl
10005e2a:	9b08      	ldr	r3, [sp, #32]
10005e2c:	47d8      	blx	fp
10005e2e:	3601      	adds	r6, #1
10005e30:	7828      	ldrb	r0, [r5, #0]
10005e32:	2800      	cmp	r0, #0
10005e34:	f000 80c7 	beq.w	10005fc6 <_vsnprintf+0x1d2>
10005e38:	2825      	cmp	r0, #37	@ 0x25
10005e3a:	f105 0501 	add.w	r5, r5, #1
10005e3e:	d1f2      	bne.n	10005e26 <_vsnprintf+0x32>
10005e40:	2200      	movs	r2, #0
10005e42:	462b      	mov	r3, r5
10005e44:	f813 1b01 	ldrb.w	r1, [r3], #1
10005e48:	f1a1 0020 	sub.w	r0, r1, #32
10005e4c:	2810      	cmp	r0, #16
10005e4e:	d80a      	bhi.n	10005e66 <_vsnprintf+0x72>
10005e50:	e8df f000 	tbb	[pc, r0]
10005e54:	3b09093f 	.word	0x3b09093f
10005e58:	09090909 	.word	0x09090909
10005e5c:	37090909 	.word	0x37090909
10005e60:	09093309 	.word	0x09093309
10005e64:	2f          	.byte	0x2f
10005e65:	00          	.byte	0x00
10005e66:	f1a1 0030 	sub.w	r0, r1, #48	@ 0x30
10005e6a:	2809      	cmp	r0, #9
10005e6c:	f240 8089 	bls.w	10005f82 <_vsnprintf+0x18e>
10005e70:	292a      	cmp	r1, #42	@ 0x2a
10005e72:	f000 80e9 	beq.w	10006048 <_vsnprintf+0x254>
10005e76:	2400      	movs	r4, #0
10005e78:	292e      	cmp	r1, #46	@ 0x2e
10005e7a:	f000 8094 	beq.w	10005fa6 <_vsnprintf+0x1b2>
10005e7e:	2700      	movs	r7, #0
10005e80:	f1a1 0068 	sub.w	r0, r1, #104	@ 0x68
10005e84:	2812      	cmp	r0, #18
10005e86:	d82c      	bhi.n	10005ee2 <_vsnprintf+0xee>
10005e88:	e8df f010 	tbh	[pc, r0, lsl #1]
10005e8c:	002b014e 	.word	0x002b014e
10005e90:	002b0149 	.word	0x002b0149
10005e94:	002b0140 	.word	0x002b0140
10005e98:	002b002b 	.word	0x002b002b
10005e9c:	002b002b 	.word	0x002b002b
10005ea0:	002b002b 	.word	0x002b002b
10005ea4:	002b0027 	.word	0x002b0027
10005ea8:	002b002b 	.word	0x002b002b
10005eac:	002b002b 	.word	0x002b002b
10005eb0:	0027      	.short	0x0027
10005eb2:	461d      	mov	r5, r3
10005eb4:	f042 0201 	orr.w	r2, r2, #1
10005eb8:	e7c3      	b.n	10005e42 <_vsnprintf+0x4e>
10005eba:	461d      	mov	r5, r3
10005ebc:	f042 0202 	orr.w	r2, r2, #2
10005ec0:	e7bf      	b.n	10005e42 <_vsnprintf+0x4e>
10005ec2:	461d      	mov	r5, r3
10005ec4:	f042 0204 	orr.w	r2, r2, #4
10005ec8:	e7bb      	b.n	10005e42 <_vsnprintf+0x4e>
10005eca:	461d      	mov	r5, r3
10005ecc:	f042 0210 	orr.w	r2, r2, #16
10005ed0:	e7b7      	b.n	10005e42 <_vsnprintf+0x4e>
10005ed2:	461d      	mov	r5, r3
10005ed4:	f042 0208 	orr.w	r2, r2, #8
10005ed8:	e7b3      	b.n	10005e42 <_vsnprintf+0x4e>
10005eda:	7869      	ldrb	r1, [r5, #1]
10005edc:	f442 7280 	orr.w	r2, r2, #256	@ 0x100
10005ee0:	3301      	adds	r3, #1
10005ee2:	2967      	cmp	r1, #103	@ 0x67
10005ee4:	461d      	mov	r5, r3
10005ee6:	d87e      	bhi.n	10005fe6 <_vsnprintf+0x1f2>
10005ee8:	2924      	cmp	r1, #36	@ 0x24
10005eea:	f240 80b8 	bls.w	1000605e <_vsnprintf+0x26a>
10005eee:	f1a1 0325 	sub.w	r3, r1, #37	@ 0x25
10005ef2:	2b42      	cmp	r3, #66	@ 0x42
10005ef4:	f200 80b3 	bhi.w	1000605e <_vsnprintf+0x26a>
10005ef8:	e8df f013 	tbh	[pc, r3, lsl #1]
10005efc:	00b10151 	.word	0x00b10151
10005f00:	00b100b1 	.word	0x00b100b1
10005f04:	00b100b1 	.word	0x00b100b1
10005f08:	00b100b1 	.word	0x00b100b1
10005f0c:	00b100b1 	.word	0x00b100b1
10005f10:	00b100b1 	.word	0x00b100b1
10005f14:	00b100b1 	.word	0x00b100b1
10005f18:	00b100b1 	.word	0x00b100b1
10005f1c:	00b100b1 	.word	0x00b100b1
10005f20:	00b100b1 	.word	0x00b100b1
10005f24:	00b100b1 	.word	0x00b100b1
10005f28:	00b100b1 	.word	0x00b100b1
10005f2c:	00b100b1 	.word	0x00b100b1
10005f30:	00b100b1 	.word	0x00b100b1
10005f34:	00b100b1 	.word	0x00b100b1
10005f38:	00b100b1 	.word	0x00b100b1
10005f3c:	013a011e 	.word	0x013a011e
10005f40:	00b1011e 	.word	0x00b1011e
10005f44:	00b100b1 	.word	0x00b100b1
10005f48:	00b100b1 	.word	0x00b100b1
10005f4c:	00b100b1 	.word	0x00b100b1
10005f50:	00b100b1 	.word	0x00b100b1
10005f54:	00b100b1 	.word	0x00b100b1
10005f58:	00b100b1 	.word	0x00b100b1
10005f5c:	00b100b1 	.word	0x00b100b1
10005f60:	01b400b1 	.word	0x01b400b1
10005f64:	00b100b1 	.word	0x00b100b1
10005f68:	00b100b1 	.word	0x00b100b1
10005f6c:	00b100b1 	.word	0x00b100b1
10005f70:	00b100b1 	.word	0x00b100b1
10005f74:	01b400b1 	.word	0x01b400b1
10005f78:	01b40158 	.word	0x01b40158
10005f7c:	013a011e 	.word	0x013a011e
10005f80:	011e      	.short	0x011e
10005f82:	2400      	movs	r4, #0
10005f84:	eb04 0484 	add.w	r4, r4, r4, lsl #2
10005f88:	eb01 0444 	add.w	r4, r1, r4, lsl #1
10005f8c:	7819      	ldrb	r1, [r3, #0]
10005f8e:	461d      	mov	r5, r3
10005f90:	f1a1 0030 	sub.w	r0, r1, #48	@ 0x30
10005f94:	2809      	cmp	r0, #9
10005f96:	f1a4 0430 	sub.w	r4, r4, #48	@ 0x30
10005f9a:	f103 0301 	add.w	r3, r3, #1
10005f9e:	d9f1      	bls.n	10005f84 <_vsnprintf+0x190>
10005fa0:	292e      	cmp	r1, #46	@ 0x2e
10005fa2:	f47f af6c 	bne.w	10005e7e <_vsnprintf+0x8a>
10005fa6:	7869      	ldrb	r1, [r5, #1]
10005fa8:	4618      	mov	r0, r3
10005faa:	f1a1 0730 	sub.w	r7, r1, #48	@ 0x30
10005fae:	2f09      	cmp	r7, #9
10005fb0:	f442 6280 	orr.w	r2, r2, #1024	@ 0x400
10005fb4:	f240 8125 	bls.w	10006202 <_vsnprintf+0x40e>
10005fb8:	292a      	cmp	r1, #42	@ 0x2a
10005fba:	f000 8132 	beq.w	10006222 <_vsnprintf+0x42e>
10005fbe:	461d      	mov	r5, r3
10005fc0:	2700      	movs	r7, #0
10005fc2:	3301      	adds	r3, #1
10005fc4:	e75c      	b.n	10005e80 <_vsnprintf+0x8c>
10005fc6:	4634      	mov	r4, r6
10005fc8:	f8dd 9020 	ldr.w	r9, [sp, #32]
10005fcc:	45b1      	cmp	r9, r6
10005fce:	d801      	bhi.n	10005fd4 <_vsnprintf+0x1e0>
10005fd0:	f109 36ff 	add.w	r6, r9, #4294967295
10005fd4:	464b      	mov	r3, r9
10005fd6:	4632      	mov	r2, r6
10005fd8:	4651      	mov	r1, sl
10005fda:	2000      	movs	r0, #0
10005fdc:	47d8      	blx	fp
10005fde:	4620      	mov	r0, r4
10005fe0:	b01b      	add	sp, #108	@ 0x6c
10005fe2:	e8bd 8ff0 	ldmia.w	sp!, {r4, r5, r6, r7, r8, r9, sl, fp, pc}
10005fe6:	f1a1 0369 	sub.w	r3, r1, #105	@ 0x69
10005fea:	b2db      	uxtb	r3, r3
10005fec:	2b0f      	cmp	r3, #15
10005fee:	d836      	bhi.n	1000605e <_vsnprintf+0x26a>
10005ff0:	2001      	movs	r0, #1
10005ff2:	f249 0c41 	movw	ip, #36929	@ 0x9041
10005ff6:	4098      	lsls	r0, r3
10005ff8:	ea10 000c 	ands.w	r0, r0, ip
10005ffc:	f040 80f4 	bne.w	100061e8 <_vsnprintf+0x3f4>
10006000:	2b0a      	cmp	r3, #10
10006002:	d035      	beq.n	10006070 <_vsnprintf+0x27c>
10006004:	2b07      	cmp	r3, #7
10006006:	d12a      	bne.n	1000605e <_vsnprintf+0x26a>
10006008:	f858 1b04 	ldr.w	r1, [r8], #4
1000600c:	2900      	cmp	r1, #0
1000600e:	f040 8110 	bne.w	10006232 <_vsnprintf+0x43e>
10006012:	f022 0410 	bic.w	r4, r2, #16
10006016:	f412 6180 	ands.w	r1, r2, #1024	@ 0x400
1000601a:	f044 0421 	orr.w	r4, r4, #33	@ 0x21
1000601e:	f000 810a 	beq.w	10006236 <_vsnprintf+0x442>
10006022:	aa12      	add	r2, sp, #72	@ 0x48
10006024:	2308      	movs	r3, #8
10006026:	9305      	str	r3, [sp, #20]
10006028:	2310      	movs	r3, #16
1000602a:	e9cd 2000 	strd	r2, r0, [sp]
1000602e:	4632      	mov	r2, r6
10006030:	9406      	str	r4, [sp, #24]
10006032:	9704      	str	r7, [sp, #16]
10006034:	9303      	str	r3, [sp, #12]
10006036:	2300      	movs	r3, #0
10006038:	9302      	str	r3, [sp, #8]
1000603a:	4651      	mov	r1, sl
1000603c:	4658      	mov	r0, fp
1000603e:	9b08      	ldr	r3, [sp, #32]
10006040:	f7ff f8d2 	bl	100051e8 <_ntoa_format>
10006044:	4606      	mov	r6, r0
10006046:	e6f3      	b.n	10005e30 <_vsnprintf+0x3c>
10006048:	f858 4b04 	ldr.w	r4, [r8], #4
1000604c:	7869      	ldrb	r1, [r5, #1]
1000604e:	2c00      	cmp	r4, #0
10006050:	461d      	mov	r5, r3
10006052:	bfbc      	itt	lt
10006054:	f042 0202 	orrlt.w	r2, r2, #2
10006058:	4264      	neglt	r4, r4
1000605a:	3301      	adds	r3, #1
1000605c:	e70c      	b.n	10005e78 <_vsnprintf+0x84>
1000605e:	4608      	mov	r0, r1
10006060:	e6e1      	b.n	10005e26 <_vsnprintf+0x32>
10006062:	bf00      	nop
10006064:	10005df5 	.word	0x10005df5
10006068:	20001eb8 	.word	0x20001eb8
1000606c:	1000513d 	.word	0x1000513d
10006070:	f858 9b04 	ldr.w	r9, [r8], #4
10006074:	2f00      	cmp	r7, #0
10006076:	f899 0000 	ldrb.w	r0, [r9]
1000607a:	bf14      	ite	ne
1000607c:	463b      	movne	r3, r7
1000607e:	f04f 33ff 	moveq.w	r3, #4294967295
10006082:	2800      	cmp	r0, #0
10006084:	f000 8382 	beq.w	1000678c <_vsnprintf+0x998>
10006088:	4649      	mov	r1, r9
1000608a:	eb03 0c09 	add.w	ip, r3, r9
1000608e:	e004      	b.n	1000609a <_vsnprintf+0x2a6>
10006090:	f811 3f01 	ldrb.w	r3, [r1, #1]!
10006094:	2b00      	cmp	r3, #0
10006096:	f000 8143 	beq.w	10006320 <_vsnprintf+0x52c>
1000609a:	458c      	cmp	ip, r1
1000609c:	d1f8      	bne.n	10006090 <_vsnprintf+0x29c>
1000609e:	ebac 0109 	sub.w	r1, ip, r9
100060a2:	0553      	lsls	r3, r2, #21
100060a4:	f140 8120 	bpl.w	100062e8 <_vsnprintf+0x4f4>
100060a8:	42b9      	cmp	r1, r7
100060aa:	bf28      	it	cs
100060ac:	4639      	movcs	r1, r7
100060ae:	f012 0302 	ands.w	r3, r2, #2
100060b2:	f000 8283 	beq.w	100065bc <_vsnprintf+0x7c8>
100060b6:	2302      	movs	r3, #2
100060b8:	e9cd 4809 	strd	r4, r8, [sp, #36]	@ 0x24
100060bc:	4632      	mov	r2, r6
100060be:	4688      	mov	r8, r1
100060c0:	9c08      	ldr	r4, [sp, #32]
100060c2:	4437      	add	r7, r6
100060c4:	930b      	str	r3, [sp, #44]	@ 0x2c
100060c6:	e007      	b.n	100060d8 <_vsnprintf+0x2e4>
100060c8:	4623      	mov	r3, r4
100060ca:	4651      	mov	r1, sl
100060cc:	47d8      	blx	fp
100060ce:	f819 0f01 	ldrb.w	r0, [r9, #1]!
100060d2:	3601      	adds	r6, #1
100060d4:	b110      	cbz	r0, 100060dc <_vsnprintf+0x2e8>
100060d6:	4632      	mov	r2, r6
100060d8:	42b7      	cmp	r7, r6
100060da:	d1f5      	bne.n	100060c8 <_vsnprintf+0x2d4>
100060dc:	9b0b      	ldr	r3, [sp, #44]	@ 0x2c
100060de:	4641      	mov	r1, r8
100060e0:	9c09      	ldr	r4, [sp, #36]	@ 0x24
100060e2:	f8dd 8028 	ldr.w	r8, [sp, #40]	@ 0x28
100060e6:	2b00      	cmp	r3, #0
100060e8:	f43f aea2 	beq.w	10005e30 <_vsnprintf+0x3c>
100060ec:	4637      	mov	r7, r6
100060ee:	428c      	cmp	r4, r1
100060f0:	f67f ae9e 	bls.w	10005e30 <_vsnprintf+0x3c>
100060f4:	4426      	add	r6, r4
100060f6:	9c08      	ldr	r4, [sp, #32]
100060f8:	1a76      	subs	r6, r6, r1
100060fa:	463a      	mov	r2, r7
100060fc:	4623      	mov	r3, r4
100060fe:	4651      	mov	r1, sl
10006100:	2020      	movs	r0, #32
10006102:	3701      	adds	r7, #1
10006104:	47d8      	blx	fp
10006106:	42b7      	cmp	r7, r6
10006108:	d1f7      	bne.n	100060fa <_vsnprintf+0x306>
1000610a:	e691      	b.n	10005e30 <_vsnprintf+0x3c>
1000610c:	7869      	ldrb	r1, [r5, #1]
1000610e:	296c      	cmp	r1, #108	@ 0x6c
10006110:	f47f aee4 	bne.w	10005edc <_vsnprintf+0xe8>
10006114:	78a9      	ldrb	r1, [r5, #2]
10006116:	f442 7240 	orr.w	r2, r2, #768	@ 0x300
1000611a:	1ceb      	adds	r3, r5, #3
1000611c:	e6e1      	b.n	10005ee2 <_vsnprintf+0xee>
1000611e:	7869      	ldrb	r1, [r5, #1]
10006120:	f442 7200 	orr.w	r2, r2, #512	@ 0x200
10006124:	3301      	adds	r3, #1
10006126:	e6dc      	b.n	10005ee2 <_vsnprintf+0xee>
10006128:	7869      	ldrb	r1, [r5, #1]
1000612a:	2968      	cmp	r1, #104	@ 0x68
1000612c:	f000 80fb 	beq.w	10006326 <_vsnprintf+0x532>
10006130:	f042 0280 	orr.w	r2, r2, #128	@ 0x80
10006134:	3301      	adds	r3, #1
10006136:	e6d4      	b.n	10005ee2 <_vsnprintf+0xee>
10006138:	2967      	cmp	r1, #103	@ 0x67
1000613a:	f000 80c9 	beq.w	100062d0 <_vsnprintf+0x4dc>
1000613e:	2947      	cmp	r1, #71	@ 0x47
10006140:	f000 80cd 	beq.w	100062de <_vsnprintf+0x4ea>
10006144:	2945      	cmp	r1, #69	@ 0x45
10006146:	f000 80cc 	beq.w	100062e2 <_vsnprintf+0x4ee>
1000614a:	e9cd 4203 	strd	r4, r2, [sp, #12]
1000614e:	f108 0807 	add.w	r8, r8, #7
10006152:	9702      	str	r7, [sp, #8]
10006154:	f028 0807 	bic.w	r8, r8, #7
10006158:	4632      	mov	r2, r6
1000615a:	e8f8 6702 	ldrd	r6, r7, [r8], #8
1000615e:	4651      	mov	r1, sl
10006160:	e9cd 6700 	strd	r6, r7, [sp]
10006164:	4658      	mov	r0, fp
10006166:	9b08      	ldr	r3, [sp, #32]
10006168:	f7ff fb82 	bl	10005870 <_etoa>
1000616c:	4606      	mov	r6, r0
1000616e:	e65f      	b.n	10005e30 <_vsnprintf+0x3c>
10006170:	2946      	cmp	r1, #70	@ 0x46
10006172:	bf08      	it	eq
10006174:	f042 0220 	orreq.w	r2, r2, #32
10006178:	e9cd 4203 	strd	r4, r2, [sp, #12]
1000617c:	f108 0807 	add.w	r8, r8, #7
10006180:	9702      	str	r7, [sp, #8]
10006182:	f028 0807 	bic.w	r8, r8, #7
10006186:	4632      	mov	r2, r6
10006188:	e8f8 6702 	ldrd	r6, r7, [r8], #8
1000618c:	4651      	mov	r1, sl
1000618e:	e9cd 6700 	strd	r6, r7, [sp]
10006192:	4658      	mov	r0, fp
10006194:	9b08      	ldr	r3, [sp, #32]
10006196:	f7ff f91f 	bl	100053d8 <_ftoa>
1000619a:	4606      	mov	r6, r0
1000619c:	e648      	b.n	10005e30 <_vsnprintf+0x3c>
1000619e:	4632      	mov	r2, r6
100061a0:	4651      	mov	r1, sl
100061a2:	2025      	movs	r0, #37	@ 0x25
100061a4:	9b08      	ldr	r3, [sp, #32]
100061a6:	47d8      	blx	fp
100061a8:	3601      	adds	r6, #1
100061aa:	e641      	b.n	10005e30 <_vsnprintf+0x3c>
100061ac:	f108 0304 	add.w	r3, r8, #4
100061b0:	0792      	lsls	r2, r2, #30
100061b2:	9309      	str	r3, [sp, #36]	@ 0x24
100061b4:	f106 0701 	add.w	r7, r6, #1
100061b8:	f140 80c3 	bpl.w	10006342 <_vsnprintf+0x54e>
100061bc:	4632      	mov	r2, r6
100061be:	4651      	mov	r1, sl
100061c0:	f898 0000 	ldrb.w	r0, [r8]
100061c4:	9b08      	ldr	r3, [sp, #32]
100061c6:	47d8      	blx	fp
100061c8:	2c01      	cmp	r4, #1
100061ca:	f240 81b4 	bls.w	10006536 <_vsnprintf+0x742>
100061ce:	4426      	add	r6, r4
100061d0:	9c08      	ldr	r4, [sp, #32]
100061d2:	463a      	mov	r2, r7
100061d4:	4623      	mov	r3, r4
100061d6:	4651      	mov	r1, sl
100061d8:	2020      	movs	r0, #32
100061da:	3701      	adds	r7, #1
100061dc:	47d8      	blx	fp
100061de:	42b7      	cmp	r7, r6
100061e0:	d1f7      	bne.n	100061d2 <_vsnprintf+0x3de>
100061e2:	f8dd 8024 	ldr.w	r8, [sp, #36]	@ 0x24
100061e6:	e623      	b.n	10005e30 <_vsnprintf+0x3c>
100061e8:	296f      	cmp	r1, #111	@ 0x6f
100061ea:	d074      	beq.n	100062d6 <_vsnprintf+0x4e2>
100061ec:	f240 8241 	bls.w	10006672 <_vsnprintf+0x87e>
100061f0:	2978      	cmp	r1, #120	@ 0x78
100061f2:	f000 8186 	beq.w	10006502 <_vsnprintf+0x70e>
100061f6:	f04f 090a 	mov.w	r9, #10
100061fa:	f022 0210 	bic.w	r2, r2, #16
100061fe:	464b      	mov	r3, r9
10006200:	e038      	b.n	10006274 <_vsnprintf+0x480>
10006202:	2700      	movs	r7, #0
10006204:	eb07 0787 	add.w	r7, r7, r7, lsl #2
10006208:	eb01 0147 	add.w	r1, r1, r7, lsl #1
1000620c:	f1a1 0730 	sub.w	r7, r1, #48	@ 0x30
10006210:	f810 1f01 	ldrb.w	r1, [r0, #1]!
10006214:	f1a1 0330 	sub.w	r3, r1, #48	@ 0x30
10006218:	2b09      	cmp	r3, #9
1000621a:	d9f3      	bls.n	10006204 <_vsnprintf+0x410>
1000621c:	4605      	mov	r5, r0
1000621e:	1c43      	adds	r3, r0, #1
10006220:	e62e      	b.n	10005e80 <_vsnprintf+0x8c>
10006222:	f858 7b04 	ldr.w	r7, [r8], #4
10006226:	78a9      	ldrb	r1, [r5, #2]
10006228:	3502      	adds	r5, #2
1000622a:	1c6b      	adds	r3, r5, #1
1000622c:	ea27 77e7 	bic.w	r7, r7, r7, asr #31
10006230:	e626      	b.n	10005e80 <_vsnprintf+0x8c>
10006232:	f042 0421 	orr.w	r4, r2, #33	@ 0x21
10006236:	aa12      	add	r2, sp, #72	@ 0x48
10006238:	4694      	mov	ip, r2
1000623a:	e002      	b.n	10006242 <_vsnprintf+0x44e>
1000623c:	2820      	cmp	r0, #32
1000623e:	f43f aef1 	beq.w	10006024 <_vsnprintf+0x230>
10006242:	f001 030f 	and.w	r3, r1, #15
10006246:	2b09      	cmp	r3, #9
10006248:	bf94      	ite	ls
1000624a:	3330      	addls	r3, #48	@ 0x30
1000624c:	3337      	addhi	r3, #55	@ 0x37
1000624e:	290f      	cmp	r1, #15
10006250:	f88c 3000 	strb.w	r3, [ip]
10006254:	f100 0001 	add.w	r0, r0, #1
10006258:	f10c 0c01 	add.w	ip, ip, #1
1000625c:	ea4f 1111 	mov.w	r1, r1, lsr #4
10006260:	d8ec      	bhi.n	1000623c <_vsnprintf+0x448>
10006262:	e6df      	b.n	10006024 <_vsnprintf+0x230>
10006264:	2958      	cmp	r1, #88	@ 0x58
10006266:	d066      	beq.n	10006336 <_vsnprintf+0x542>
10006268:	2962      	cmp	r1, #98	@ 0x62
1000626a:	f040 8089 	bne.w	10006380 <_vsnprintf+0x58c>
1000626e:	f04f 0902 	mov.w	r9, #2
10006272:	464b      	mov	r3, r9
10006274:	f412 6c80 	ands.w	ip, r2, #1024	@ 0x400
10006278:	f000 80d4 	beq.w	10006424 <_vsnprintf+0x630>
1000627c:	f022 020d 	bic.w	r2, r2, #13
10006280:	9209      	str	r2, [sp, #36]	@ 0x24
10006282:	f412 7100 	ands.w	r1, r2, #512	@ 0x200
10006286:	f040 817b 	bne.w	10006580 <_vsnprintf+0x78c>
1000628a:	f412 7080 	ands.w	r0, r2, #256	@ 0x100
1000628e:	f108 0904 	add.w	r9, r8, #4
10006292:	f040 8238 	bne.w	10006706 <_vsnprintf+0x912>
10006296:	0651      	lsls	r1, r2, #25
10006298:	f140 813a 	bpl.w	10006510 <_vsnprintf+0x71c>
1000629c:	f898 1000 	ldrb.w	r1, [r8]
100062a0:	2900      	cmp	r1, #0
100062a2:	f040 814a 	bne.w	1000653a <_vsnprintf+0x746>
100062a6:	9a09      	ldr	r2, [sp, #36]	@ 0x24
100062a8:	f022 0210 	bic.w	r2, r2, #16
100062ac:	9209      	str	r2, [sp, #36]	@ 0x24
100062ae:	f1bc 0f00 	cmp.w	ip, #0
100062b2:	f000 8142 	beq.w	1000653a <_vsnprintf+0x746>
100062b6:	4608      	mov	r0, r1
100062b8:	aa12      	add	r2, sp, #72	@ 0x48
100062ba:	9909      	ldr	r1, [sp, #36]	@ 0x24
100062bc:	e9cd 3703 	strd	r3, r7, [sp, #12]
100062c0:	e9cd 4105 	strd	r4, r1, [sp, #20]
100062c4:	9001      	str	r0, [sp, #4]
100062c6:	2300      	movs	r3, #0
100062c8:	9200      	str	r2, [sp, #0]
100062ca:	9302      	str	r3, [sp, #8]
100062cc:	4632      	mov	r2, r6
100062ce:	e0a1      	b.n	10006414 <_vsnprintf+0x620>
100062d0:	f442 6200 	orr.w	r2, r2, #2048	@ 0x800
100062d4:	e739      	b.n	1000614a <_vsnprintf+0x356>
100062d6:	f04f 0908 	mov.w	r9, #8
100062da:	464b      	mov	r3, r9
100062dc:	e7ca      	b.n	10006274 <_vsnprintf+0x480>
100062de:	f442 6200 	orr.w	r2, r2, #2048	@ 0x800
100062e2:	f042 0220 	orr.w	r2, r2, #32
100062e6:	e730      	b.n	1000614a <_vsnprintf+0x356>
100062e8:	f012 0302 	ands.w	r3, r2, #2
100062ec:	f000 818c 	beq.w	10006608 <_vsnprintf+0x814>
100062f0:	2302      	movs	r3, #2
100062f2:	e9cd 4809 	strd	r4, r8, [sp, #36]	@ 0x24
100062f6:	461f      	mov	r7, r3
100062f8:	4688      	mov	r8, r1
100062fa:	9c08      	ldr	r4, [sp, #32]
100062fc:	4632      	mov	r2, r6
100062fe:	4623      	mov	r3, r4
10006300:	4651      	mov	r1, sl
10006302:	47d8      	blx	fp
10006304:	f819 0f01 	ldrb.w	r0, [r9, #1]!
10006308:	3601      	adds	r6, #1
1000630a:	2800      	cmp	r0, #0
1000630c:	d1f6      	bne.n	100062fc <_vsnprintf+0x508>
1000630e:	463b      	mov	r3, r7
10006310:	4641      	mov	r1, r8
10006312:	9c09      	ldr	r4, [sp, #36]	@ 0x24
10006314:	f8dd 8028 	ldr.w	r8, [sp, #40]	@ 0x28
10006318:	2b00      	cmp	r3, #0
1000631a:	f43f ad89 	beq.w	10005e30 <_vsnprintf+0x3c>
1000631e:	e6e5      	b.n	100060ec <_vsnprintf+0x2f8>
10006320:	eba1 0109 	sub.w	r1, r1, r9
10006324:	e6bd      	b.n	100060a2 <_vsnprintf+0x2ae>
10006326:	78a9      	ldrb	r1, [r5, #2]
10006328:	f042 02c0 	orr.w	r2, r2, #192	@ 0xc0
1000632c:	1ceb      	adds	r3, r5, #3
1000632e:	e5d8      	b.n	10005ee2 <_vsnprintf+0xee>
10006330:	4604      	mov	r4, r0
10006332:	4606      	mov	r6, r0
10006334:	e64a      	b.n	10005fcc <_vsnprintf+0x1d8>
10006336:	f04f 0910 	mov.w	r9, #16
1000633a:	f042 0220 	orr.w	r2, r2, #32
1000633e:	464b      	mov	r3, r9
10006340:	e798      	b.n	10006274 <_vsnprintf+0x480>
10006342:	2c01      	cmp	r4, #1
10006344:	f240 80f1 	bls.w	1000652a <_vsnprintf+0x736>
10006348:	4637      	mov	r7, r6
1000634a:	f106 39ff 	add.w	r9, r6, #4294967295
1000634e:	f8cd 8028 	str.w	r8, [sp, #40]	@ 0x28
10006352:	f8dd 8020 	ldr.w	r8, [sp, #32]
10006356:	44a1      	add	r9, r4
10006358:	463a      	mov	r2, r7
1000635a:	4643      	mov	r3, r8
1000635c:	4651      	mov	r1, sl
1000635e:	2020      	movs	r0, #32
10006360:	3701      	adds	r7, #1
10006362:	47d8      	blx	fp
10006364:	454f      	cmp	r7, r9
10006366:	d1f7      	bne.n	10006358 <_vsnprintf+0x564>
10006368:	f8dd 8028 	ldr.w	r8, [sp, #40]	@ 0x28
1000636c:	463a      	mov	r2, r7
1000636e:	f898 0000 	ldrb.w	r0, [r8]
10006372:	4651      	mov	r1, sl
10006374:	9b08      	ldr	r3, [sp, #32]
10006376:	47d8      	blx	fp
10006378:	4426      	add	r6, r4
1000637a:	f8dd 8024 	ldr.w	r8, [sp, #36]	@ 0x24
1000637e:	e557      	b.n	10005e30 <_vsnprintf+0x3c>
10006380:	f412 6380 	ands.w	r3, r2, #1024	@ 0x400
10006384:	f000 80c1 	beq.w	1000650a <_vsnprintf+0x716>
10006388:	f44f 6380 	mov.w	r3, #1024	@ 0x400
1000638c:	f022 0011 	bic.w	r0, r2, #17
10006390:	f410 7e00 	ands.w	lr, r0, #512	@ 0x200
10006394:	d14a      	bne.n	1000642c <_vsnprintf+0x638>
10006396:	f410 7c80 	ands.w	ip, r0, #256	@ 0x100
1000639a:	f108 0904 	add.w	r9, r8, #4
1000639e:	f040 8137 	bne.w	10006610 <_vsnprintf+0x81c>
100063a2:	0641      	lsls	r1, r0, #25
100063a4:	f100 80a9 	bmi.w	100064fa <_vsnprintf+0x706>
100063a8:	0602      	lsls	r2, r0, #24
100063aa:	f140 81e3 	bpl.w	10006774 <_vsnprintf+0x980>
100063ae:	f9b8 2000 	ldrsh.w	r2, [r8]
100063b2:	ea82 71e2 	eor.w	r1, r2, r2, asr #31
100063b6:	eba1 71e2 	sub.w	r1, r1, r2, asr #31
100063ba:	fa1f fe81 	uxth.w	lr, r1
100063be:	0fd1      	lsrs	r1, r2, #31
100063c0:	9109      	str	r1, [sp, #36]	@ 0x24
100063c2:	2a00      	cmp	r2, #0
100063c4:	f000 815f 	beq.w	10006686 <_vsnprintf+0x892>
100063c8:	4673      	mov	r3, lr
100063ca:	aa12      	add	r2, sp, #72	@ 0x48
100063cc:	4696      	mov	lr, r2
100063ce:	f8df 83a0 	ldr.w	r8, [pc, #928]	@ 10006770 <_vsnprintf+0x97c>
100063d2:	940a      	str	r4, [sp, #40]	@ 0x28
100063d4:	e003      	b.n	100063de <_vsnprintf+0x5ea>
100063d6:	f1bc 0f20 	cmp.w	ip, #32
100063da:	4623      	mov	r3, r4
100063dc:	d00f      	beq.n	100063fe <_vsnprintf+0x60a>
100063de:	fba8 1403 	umull	r1, r4, r8, r3
100063e2:	08e4      	lsrs	r4, r4, #3
100063e4:	eb04 0184 	add.w	r1, r4, r4, lsl #2
100063e8:	eba3 0141 	sub.w	r1, r3, r1, lsl #1
100063ec:	f10e 0e01 	add.w	lr, lr, #1
100063f0:	3130      	adds	r1, #48	@ 0x30
100063f2:	2b09      	cmp	r3, #9
100063f4:	f10c 0c01 	add.w	ip, ip, #1
100063f8:	f80e 1c01 	strb.w	r1, [lr, #-1]
100063fc:	d8eb      	bhi.n	100063d6 <_vsnprintf+0x5e2>
100063fe:	9c0a      	ldr	r4, [sp, #40]	@ 0x28
10006400:	9b09      	ldr	r3, [sp, #36]	@ 0x24
10006402:	9200      	str	r2, [sp, #0]
10006404:	e9cd c301 	strd	ip, r3, [sp, #4]
10006408:	230a      	movs	r3, #10
1000640a:	4632      	mov	r2, r6
1000640c:	e9cd 4005 	strd	r4, r0, [sp, #20]
10006410:	9704      	str	r7, [sp, #16]
10006412:	9303      	str	r3, [sp, #12]
10006414:	4651      	mov	r1, sl
10006416:	4658      	mov	r0, fp
10006418:	9b08      	ldr	r3, [sp, #32]
1000641a:	f7fe fee5 	bl	100051e8 <_ntoa_format>
1000641e:	46c8      	mov	r8, r9
10006420:	4606      	mov	r6, r0
10006422:	e505      	b.n	10005e30 <_vsnprintf+0x3c>
10006424:	f022 020c 	bic.w	r2, r2, #12
10006428:	9209      	str	r2, [sp, #36]	@ 0x24
1000642a:	e72a      	b.n	10006282 <_vsnprintf+0x48e>
1000642c:	f108 0807 	add.w	r8, r8, #7
10006430:	f028 0807 	bic.w	r8, r8, #7
10006434:	f8d8 2004 	ldr.w	r2, [r8, #4]
10006438:	f858 cb08 	ldr.w	ip, [r8], #8
1000643c:	0fd1      	lsrs	r1, r2, #31
1000643e:	ea5c 0e02 	orrs.w	lr, ip, r2
10006442:	d06c      	beq.n	1000651e <_vsnprintf+0x72a>
10006444:	2a00      	cmp	r2, #0
10006446:	4663      	mov	r3, ip
10006448:	da02      	bge.n	10006450 <_vsnprintf+0x65c>
1000644a:	425b      	negs	r3, r3
1000644c:	eb62 0242 	sbc.w	r2, r2, r2, lsl #1
10006450:	4691      	mov	r9, r2
10006452:	9309      	str	r3, [sp, #36]	@ 0x24
10006454:	aa12      	add	r2, sp, #72	@ 0x48
10006456:	4694      	mov	ip, r2
10006458:	f04f 0e00 	mov.w	lr, #0
1000645c:	e9cd 180a 	strd	r1, r8, [sp, #40]	@ 0x28
10006460:	e9cd 470c 	strd	r4, r7, [sp, #48]	@ 0x30
10006464:	960e      	str	r6, [sp, #56]	@ 0x38
10006466:	920f      	str	r2, [sp, #60]	@ 0x3c
10006468:	e003      	b.n	10006472 <_vsnprintf+0x67e>
1000646a:	f1be 0f20 	cmp.w	lr, #32
1000646e:	463b      	mov	r3, r7
10006470:	d030      	beq.n	100064d4 <_vsnprintf+0x6e0>
10006472:	f04f 32cc 	mov.w	r2, #3435973836	@ 0xcccccccc
10006476:	eb13 0109 	adds.w	r1, r3, r9
1000647a:	4fbd      	ldr	r7, [pc, #756]	@ (10006770 <_vsnprintf+0x97c>)
1000647c:	f141 0100 	adc.w	r1, r1, #0
10006480:	fba7 4601 	umull	r4, r6, r7, r1
10006484:	f026 0403 	bic.w	r4, r6, #3
10006488:	eb04 0496 	add.w	r4, r4, r6, lsr #2
1000648c:	1b09      	subs	r1, r1, r4
1000648e:	1a5c      	subs	r4, r3, r1
10006490:	fb02 f604 	mul.w	r6, r2, r4
10006494:	463a      	mov	r2, r7
10006496:	f169 0800 	sbc.w	r8, r9, #0
1000649a:	fb02 6608 	mla	r6, r2, r8, r6
1000649e:	2205      	movs	r2, #5
100064a0:	fba4 7407 	umull	r7, r4, r4, r7
100064a4:	f007 0801 	and.w	r8, r7, #1
100064a8:	4426      	add	r6, r4
100064aa:	fba8 4802 	umull	r4, r8, r8, r2
100064ae:	1864      	adds	r4, r4, r1
100064b0:	2b0a      	cmp	r3, #10
100064b2:	f10c 0c01 	add.w	ip, ip, #1
100064b6:	ea4f 0757 	mov.w	r7, r7, lsr #1
100064ba:	f104 0430 	add.w	r4, r4, #48	@ 0x30
100064be:	f179 0900 	sbcs.w	r9, r9, #0
100064c2:	f10e 0e01 	add.w	lr, lr, #1
100064c6:	f80c 4c01 	strb.w	r4, [ip, #-1]
100064ca:	ea47 77c6 	orr.w	r7, r7, r6, lsl #31
100064ce:	ea4f 0956 	mov.w	r9, r6, lsr #1
100064d2:	d2ca      	bcs.n	1000646a <_vsnprintf+0x676>
100064d4:	4673      	mov	r3, lr
100064d6:	e9dd 180a 	ldrd	r1, r8, [sp, #40]	@ 0x28
100064da:	e9dd 470c 	ldrd	r4, r7, [sp, #48]	@ 0x30
100064de:	9e0e      	ldr	r6, [sp, #56]	@ 0x38
100064e0:	9a0f      	ldr	r2, [sp, #60]	@ 0x3c
100064e2:	f8cd e024 	str.w	lr, [sp, #36]	@ 0x24
100064e6:	e9cd 3101 	strd	r3, r1, [sp, #4]
100064ea:	230a      	movs	r3, #10
100064ec:	9200      	str	r2, [sp, #0]
100064ee:	e9cd 4005 	strd	r4, r0, [sp, #20]
100064f2:	4632      	mov	r2, r6
100064f4:	9704      	str	r7, [sp, #16]
100064f6:	9303      	str	r3, [sp, #12]
100064f8:	e59f      	b.n	1000603a <_vsnprintf+0x246>
100064fa:	f898 2000 	ldrb.w	r2, [r8]
100064fe:	4696      	mov	lr, r2
10006500:	e75d      	b.n	100063be <_vsnprintf+0x5ca>
10006502:	f04f 0910 	mov.w	r9, #16
10006506:	464b      	mov	r3, r9
10006508:	e6b4      	b.n	10006274 <_vsnprintf+0x480>
1000650a:	f022 0010 	bic.w	r0, r2, #16
1000650e:	e73f      	b.n	10006390 <_vsnprintf+0x59c>
10006510:	0611      	lsls	r1, r2, #24
10006512:	bf4c      	ite	mi
10006514:	f8b8 1000 	ldrhmi.w	r1, [r8]
10006518:	f8d8 1000 	ldrpl.w	r1, [r8]
1000651c:	e6c0      	b.n	100062a0 <_vsnprintf+0x4ac>
1000651e:	2b00      	cmp	r3, #0
10006520:	f040 8142 	bne.w	100067a8 <_vsnprintf+0x9b4>
10006524:	4699      	mov	r9, r3
10006526:	9309      	str	r3, [sp, #36]	@ 0x24
10006528:	e794      	b.n	10006454 <_vsnprintf+0x660>
1000652a:	4632      	mov	r2, r6
1000652c:	4651      	mov	r1, sl
1000652e:	f898 0000 	ldrb.w	r0, [r8]
10006532:	9b08      	ldr	r3, [sp, #32]
10006534:	47d8      	blx	fp
10006536:	463e      	mov	r6, r7
10006538:	e653      	b.n	100061e2 <_vsnprintf+0x3ee>
1000653a:	9a09      	ldr	r2, [sp, #36]	@ 0x24
1000653c:	940a      	str	r4, [sp, #40]	@ 0x28
1000653e:	f012 0f20 	tst.w	r2, #32
10006542:	bf14      	ite	ne
10006544:	f04f 0841 	movne.w	r8, #65	@ 0x41
10006548:	f04f 0861 	moveq.w	r8, #97	@ 0x61
1000654c:	aa12      	add	r2, sp, #72	@ 0x48
1000654e:	4694      	mov	ip, r2
10006550:	f1a8 080a 	sub.w	r8, r8, #10
10006554:	e002      	b.n	1000655c <_vsnprintf+0x768>
10006556:	2820      	cmp	r0, #32
10006558:	4671      	mov	r1, lr
1000655a:	d00f      	beq.n	1000657c <_vsnprintf+0x788>
1000655c:	fbb1 fef3 	udiv	lr, r1, r3
10006560:	fb03 141e 	mls	r4, r3, lr, r1
10006564:	2c09      	cmp	r4, #9
10006566:	bf94      	ite	ls
10006568:	3430      	addls	r4, #48	@ 0x30
1000656a:	4444      	addhi	r4, r8
1000656c:	4299      	cmp	r1, r3
1000656e:	f88c 4000 	strb.w	r4, [ip]
10006572:	f100 0001 	add.w	r0, r0, #1
10006576:	f10c 0c01 	add.w	ip, ip, #1
1000657a:	d2ec      	bcs.n	10006556 <_vsnprintf+0x762>
1000657c:	9c0a      	ldr	r4, [sp, #40]	@ 0x28
1000657e:	e69c      	b.n	100062ba <_vsnprintf+0x4c6>
10006580:	f108 0807 	add.w	r8, r8, #7
10006584:	f028 0807 	bic.w	r8, r8, #7
10006588:	f8d8 2004 	ldr.w	r2, [r8, #4]
1000658c:	f858 1b08 	ldr.w	r1, [r8], #8
10006590:	920a      	str	r2, [sp, #40]	@ 0x28
10006592:	430a      	orrs	r2, r1
10006594:	468e      	mov	lr, r1
10006596:	d17b      	bne.n	10006690 <_vsnprintf+0x89c>
10006598:	9a09      	ldr	r2, [sp, #36]	@ 0x24
1000659a:	f022 0210 	bic.w	r2, r2, #16
1000659e:	9209      	str	r2, [sp, #36]	@ 0x24
100065a0:	f1bc 0f00 	cmp.w	ip, #0
100065a4:	d074      	beq.n	10006690 <_vsnprintf+0x89c>
100065a6:	2000      	movs	r0, #0
100065a8:	aa12      	add	r2, sp, #72	@ 0x48
100065aa:	9909      	ldr	r1, [sp, #36]	@ 0x24
100065ac:	e9cd 2000 	strd	r2, r0, [sp]
100065b0:	e9cd 4105 	strd	r4, r1, [sp, #20]
100065b4:	4632      	mov	r2, r6
100065b6:	e9cd 3703 	strd	r3, r7, [sp, #12]
100065ba:	e53c      	b.n	10006036 <_vsnprintf+0x242>
100065bc:	428c      	cmp	r4, r1
100065be:	bf98      	it	ls
100065c0:	3101      	addls	r1, #1
100065c2:	f67f ad79 	bls.w	100060b8 <_vsnprintf+0x2c4>
100065c6:	f44f 6380 	mov.w	r3, #1024	@ 0x400
100065ca:	e9cd 9409 	strd	r9, r4, [sp, #36]	@ 0x24
100065ce:	4699      	mov	r9, r3
100065d0:	19a2      	adds	r2, r4, r6
100065d2:	970b      	str	r7, [sp, #44]	@ 0x2c
100065d4:	9f08      	ldr	r7, [sp, #32]
100065d6:	1a54      	subs	r4, r2, r1
100065d8:	4632      	mov	r2, r6
100065da:	463b      	mov	r3, r7
100065dc:	4651      	mov	r1, sl
100065de:	2020      	movs	r0, #32
100065e0:	3601      	adds	r6, #1
100065e2:	47d8      	blx	fp
100065e4:	42a6      	cmp	r6, r4
100065e6:	d1f7      	bne.n	100065d8 <_vsnprintf+0x7e4>
100065e8:	e9dd 470a 	ldrd	r4, r7, [sp, #40]	@ 0x28
100065ec:	464b      	mov	r3, r9
100065ee:	f8dd 9024 	ldr.w	r9, [sp, #36]	@ 0x24
100065f2:	f899 0000 	ldrb.w	r0, [r9]
100065f6:	2800      	cmp	r0, #0
100065f8:	f43f ac1a 	beq.w	10005e30 <_vsnprintf+0x3c>
100065fc:	1c61      	adds	r1, r4, #1
100065fe:	2b00      	cmp	r3, #0
10006600:	f43f ae77 	beq.w	100062f2 <_vsnprintf+0x4fe>
10006604:	2300      	movs	r3, #0
10006606:	e557      	b.n	100060b8 <_vsnprintf+0x2c4>
10006608:	428c      	cmp	r4, r1
1000660a:	d8de      	bhi.n	100065ca <_vsnprintf+0x7d6>
1000660c:	3101      	adds	r1, #1
1000660e:	e670      	b.n	100062f2 <_vsnprintf+0x4fe>
10006610:	f8d8 2000 	ldr.w	r2, [r8]
10006614:	0fd1      	lsrs	r1, r2, #31
10006616:	2a00      	cmp	r2, #0
10006618:	f000 80b3 	beq.w	10006782 <_vsnprintf+0x98e>
1000661c:	ea82 73e2 	eor.w	r3, r2, r2, asr #31
10006620:	eba3 73e2 	sub.w	r3, r3, r2, asr #31
10006624:	aa12      	add	r2, sp, #72	@ 0x48
10006626:	4694      	mov	ip, r2
10006628:	e9cd 1409 	strd	r1, r4, [sp, #36]	@ 0x24
1000662c:	f8df 8140 	ldr.w	r8, [pc, #320]	@ 10006770 <_vsnprintf+0x97c>
10006630:	e003      	b.n	1000663a <_vsnprintf+0x846>
10006632:	f1be 0f20 	cmp.w	lr, #32
10006636:	4623      	mov	r3, r4
10006638:	d00f      	beq.n	1000665a <_vsnprintf+0x866>
1000663a:	fba8 1403 	umull	r1, r4, r8, r3
1000663e:	08e4      	lsrs	r4, r4, #3
10006640:	eb04 0184 	add.w	r1, r4, r4, lsl #2
10006644:	eba3 0141 	sub.w	r1, r3, r1, lsl #1
10006648:	f10c 0c01 	add.w	ip, ip, #1
1000664c:	3130      	adds	r1, #48	@ 0x30
1000664e:	2b09      	cmp	r3, #9
10006650:	f10e 0e01 	add.w	lr, lr, #1
10006654:	f80c 1c01 	strb.w	r1, [ip, #-1]
10006658:	d8eb      	bhi.n	10006632 <_vsnprintf+0x83e>
1000665a:	e9dd 1409 	ldrd	r1, r4, [sp, #36]	@ 0x24
1000665e:	230a      	movs	r3, #10
10006660:	9200      	str	r2, [sp, #0]
10006662:	e9cd 4005 	strd	r4, r0, [sp, #20]
10006666:	4632      	mov	r2, r6
10006668:	e9cd e101 	strd	lr, r1, [sp, #4]
1000666c:	9704      	str	r7, [sp, #16]
1000666e:	9303      	str	r3, [sp, #12]
10006670:	e6d0      	b.n	10006414 <_vsnprintf+0x620>
10006672:	2969      	cmp	r1, #105	@ 0x69
10006674:	f022 0010 	bic.w	r0, r2, #16
10006678:	f040 8091 	bne.w	1000679e <_vsnprintf+0x9aa>
1000667c:	f412 6380 	ands.w	r3, r2, #1024	@ 0x400
10006680:	f43f ae86 	beq.w	10006390 <_vsnprintf+0x59c>
10006684:	e680      	b.n	10006388 <_vsnprintf+0x594>
10006686:	2b00      	cmp	r3, #0
10006688:	f43f ae9f 	beq.w	100063ca <_vsnprintf+0x5d6>
1000668c:	aa12      	add	r2, sp, #72	@ 0x48
1000668e:	e6b7      	b.n	10006400 <_vsnprintf+0x60c>
10006690:	9a09      	ldr	r2, [sp, #36]	@ 0x24
10006692:	e9cd 840b 	strd	r8, r4, [sp, #44]	@ 0x2c
10006696:	f012 0f20 	tst.w	r2, #32
1000669a:	bf14      	ite	ne
1000669c:	2141      	movne	r1, #65	@ 0x41
1000669e:	2161      	moveq	r1, #97	@ 0x61
100066a0:	e9cd 760d 	strd	r7, r6, [sp, #52]	@ 0x34
100066a4:	e9cd 3b0f 	strd	r3, fp, [sp, #60]	@ 0x3c
100066a8:	f8cd a044 	str.w	sl, [sp, #68]	@ 0x44
100066ac:	2700      	movs	r7, #0
100066ae:	46f0      	mov	r8, lr
100066b0:	9c0a      	ldr	r4, [sp, #40]	@ 0x28
100066b2:	ae12      	add	r6, sp, #72	@ 0x48
100066b4:	f10d 0b48 	add.w	fp, sp, #72	@ 0x48
100066b8:	f1a1 0a0a 	sub.w	sl, r1, #10
100066bc:	e003      	b.n	100066c6 <_vsnprintf+0x8d2>
100066be:	2f20      	cmp	r7, #32
100066c0:	4680      	mov	r8, r0
100066c2:	460c      	mov	r4, r1
100066c4:	d013      	beq.n	100066ee <_vsnprintf+0x8fa>
100066c6:	4621      	mov	r1, r4
100066c8:	464a      	mov	r2, r9
100066ca:	2300      	movs	r3, #0
100066cc:	4640      	mov	r0, r8
100066ce:	f002 ffab 	bl	10009628 <____aeabi_uldivmod_veneer>
100066d2:	b2d2      	uxtb	r2, r2
100066d4:	2a09      	cmp	r2, #9
100066d6:	bf94      	ite	ls
100066d8:	3230      	addls	r2, #48	@ 0x30
100066da:	4452      	addhi	r2, sl
100066dc:	45c8      	cmp	r8, r9
100066de:	f174 0400 	sbcs.w	r4, r4, #0
100066e2:	7032      	strb	r2, [r6, #0]
100066e4:	f107 0701 	add.w	r7, r7, #1
100066e8:	f106 0601 	add.w	r6, r6, #1
100066ec:	d2e7      	bcs.n	100066be <_vsnprintf+0x8ca>
100066ee:	4638      	mov	r0, r7
100066f0:	e9dd 840b 	ldrd	r8, r4, [sp, #44]	@ 0x2c
100066f4:	465a      	mov	r2, fp
100066f6:	9e0e      	ldr	r6, [sp, #56]	@ 0x38
100066f8:	9f0d      	ldr	r7, [sp, #52]	@ 0x34
100066fa:	9b0f      	ldr	r3, [sp, #60]	@ 0x3c
100066fc:	f8dd a044 	ldr.w	sl, [sp, #68]	@ 0x44
10006700:	f8dd b040 	ldr.w	fp, [sp, #64]	@ 0x40
10006704:	e751      	b.n	100065aa <_vsnprintf+0x7b6>
10006706:	f8d8 e000 	ldr.w	lr, [r8]
1000670a:	f1be 0f00 	cmp.w	lr, #0
1000670e:	d10d      	bne.n	1000672c <_vsnprintf+0x938>
10006710:	f022 0210 	bic.w	r2, r2, #16
10006714:	9209      	str	r2, [sp, #36]	@ 0x24
10006716:	f1bc 0f00 	cmp.w	ip, #0
1000671a:	d007      	beq.n	1000672c <_vsnprintf+0x938>
1000671c:	aa12      	add	r2, sp, #72	@ 0x48
1000671e:	9809      	ldr	r0, [sp, #36]	@ 0x24
10006720:	e9cd 3703 	strd	r3, r7, [sp, #12]
10006724:	e9cd 4005 	strd	r4, r0, [sp, #20]
10006728:	9101      	str	r1, [sp, #4]
1000672a:	e5cc      	b.n	100062c6 <_vsnprintf+0x4d2>
1000672c:	9a09      	ldr	r2, [sp, #36]	@ 0x24
1000672e:	f012 0f20 	tst.w	r2, #32
10006732:	bf14      	ite	ne
10006734:	2041      	movne	r0, #65	@ 0x41
10006736:	2061      	moveq	r0, #97	@ 0x61
10006738:	aa12      	add	r2, sp, #72	@ 0x48
1000673a:	4694      	mov	ip, r2
1000673c:	920a      	str	r2, [sp, #40]	@ 0x28
1000673e:	f1a0 020a 	sub.w	r2, r0, #10
10006742:	e002      	b.n	1000674a <_vsnprintf+0x956>
10006744:	2920      	cmp	r1, #32
10006746:	46c6      	mov	lr, r8
10006748:	d00f      	beq.n	1000676a <_vsnprintf+0x976>
1000674a:	fbbe f8f3 	udiv	r8, lr, r3
1000674e:	fb03 e018 	mls	r0, r3, r8, lr
10006752:	2809      	cmp	r0, #9
10006754:	bf94      	ite	ls
10006756:	3030      	addls	r0, #48	@ 0x30
10006758:	1880      	addhi	r0, r0, r2
1000675a:	459e      	cmp	lr, r3
1000675c:	f88c 0000 	strb.w	r0, [ip]
10006760:	f101 0101 	add.w	r1, r1, #1
10006764:	f10c 0c01 	add.w	ip, ip, #1
10006768:	d2ec      	bcs.n	10006744 <_vsnprintf+0x950>
1000676a:	9a0a      	ldr	r2, [sp, #40]	@ 0x28
1000676c:	e7d7      	b.n	1000671e <_vsnprintf+0x92a>
1000676e:	bf00      	nop
10006770:	cccccccd 	.word	0xcccccccd
10006774:	f8d8 2000 	ldr.w	r2, [r8]
10006778:	ea82 7ee2 	eor.w	lr, r2, r2, asr #31
1000677c:	ebae 7ee2 	sub.w	lr, lr, r2, asr #31
10006780:	e61d      	b.n	100063be <_vsnprintf+0x5ca>
10006782:	2b00      	cmp	r3, #0
10006784:	f43f af4e 	beq.w	10006624 <_vsnprintf+0x830>
10006788:	aa12      	add	r2, sp, #72	@ 0x48
1000678a:	e768      	b.n	1000665e <_vsnprintf+0x86a>
1000678c:	f412 6180 	ands.w	r1, r2, #1024	@ 0x400
10006790:	d00e      	beq.n	100067b0 <_vsnprintf+0x9bc>
10006792:	f012 0102 	ands.w	r1, r2, #2
10006796:	d014      	beq.n	100067c2 <_vsnprintf+0x9ce>
10006798:	4601      	mov	r1, r0
1000679a:	4637      	mov	r7, r6
1000679c:	e4a7      	b.n	100060ee <_vsnprintf+0x2fa>
1000679e:	f04f 090a 	mov.w	r9, #10
100067a2:	4602      	mov	r2, r0
100067a4:	464b      	mov	r3, r9
100067a6:	e565      	b.n	10006274 <_vsnprintf+0x480>
100067a8:	2300      	movs	r3, #0
100067aa:	aa12      	add	r2, sp, #72	@ 0x48
100067ac:	9309      	str	r3, [sp, #36]	@ 0x24
100067ae:	e69a      	b.n	100064e6 <_vsnprintf+0x6f2>
100067b0:	f012 0302 	ands.w	r3, r2, #2
100067b4:	f47f ac9a 	bne.w	100060ec <_vsnprintf+0x2f8>
100067b8:	2c00      	cmp	r4, #0
100067ba:	f47f af06 	bne.w	100065ca <_vsnprintf+0x7d6>
100067be:	f7ff bb37 	b.w	10005e30 <_vsnprintf+0x3c>
100067c2:	2c00      	cmp	r4, #0
100067c4:	f47f aeff 	bne.w	100065c6 <_vsnprintf+0x7d2>
100067c8:	f7ff bb32 	b.w	10005e30 <_vsnprintf+0x3c>

100067cc <vfctprintf>:
100067cc:	468c      	mov	ip, r1
100067ce:	b510      	push	{r4, lr}
100067d0:	b084      	sub	sp, #16
100067d2:	9300      	str	r3, [sp, #0]
100067d4:	9002      	str	r0, [sp, #8]
100067d6:	4613      	mov	r3, r2
100067d8:	a902      	add	r1, sp, #8
100067da:	f04f 32ff 	mov.w	r2, #4294967295
100067de:	4803      	ldr	r0, [pc, #12]	@ (100067ec <vfctprintf+0x20>)
100067e0:	f8cd c00c 	str.w	ip, [sp, #12]
100067e4:	f7ff fb06 	bl	10005df4 <_vsnprintf>
100067e8:	b004      	add	sp, #16
100067ea:	bd10      	pop	{r4, pc}
100067ec:	100053cd 	.word	0x100053cd

100067f0 <weak_raw_vprintf>:
100067f0:	b510      	push	{r4, lr}
100067f2:	4a09      	ldr	r2, [pc, #36]	@ (10006818 <weak_raw_vprintf+0x28>)
100067f4:	b084      	sub	sp, #16
100067f6:	6814      	ldr	r4, [r2, #0]
100067f8:	b14c      	cbz	r4, 1000680e <weak_raw_vprintf+0x1e>
100067fa:	4603      	mov	r3, r0
100067fc:	9100      	str	r1, [sp, #0]
100067fe:	f04f 32ff 	mov.w	r2, #4294967295
10006802:	a903      	add	r1, sp, #12
10006804:	4805      	ldr	r0, [pc, #20]	@ (1000681c <weak_raw_vprintf+0x2c>)
10006806:	47a0      	blx	r4
10006808:	2001      	movs	r0, #1
1000680a:	b004      	add	sp, #16
1000680c:	bd10      	pop	{r4, pc}
1000680e:	f000 f97f 	bl	10006b10 <__wrap_puts>
10006812:	4620      	mov	r0, r4
10006814:	b004      	add	sp, #16
10006816:	bd10      	pop	{r4, pc}
10006818:	20001eb8 	.word	0x20001eb8
1000681c:	100053c5 	.word	0x100053c5

10006820 <_exit>:
10006820:	be00      	bkpt	0x0000
10006822:	e7fd      	b.n	10006820 <_exit>

10006824 <exit>:
10006824:	b508      	push	{r3, lr}
10006826:	f7ff fffb 	bl	10006820 <_exit>
1000682a:	bf00      	nop

1000682c <runtime_init>:
1000682c:	b538      	push	{r3, r4, r5, lr}
1000682e:	4c06      	ldr	r4, [pc, #24]	@ (10006848 <runtime_init+0x1c>)
10006830:	4d06      	ldr	r5, [pc, #24]	@ (1000684c <runtime_init+0x20>)
10006832:	f7fe fa03 	bl	10004c3c <runtime_run_initializers>
10006836:	42ac      	cmp	r4, r5
10006838:	d204      	bcs.n	10006844 <runtime_init+0x18>
1000683a:	f854 3b04 	ldr.w	r3, [r4], #4
1000683e:	4798      	blx	r3
10006840:	42ac      	cmp	r4, r5
10006842:	d3fa      	bcc.n	1000683a <runtime_init+0xe>
10006844:	bd38      	pop	{r3, r4, r5, pc}
10006846:	bf00      	nop
10006848:	100096a0 	.word	0x100096a0
1000684c:	100096ac 	.word	0x100096ac

10006850 <stdio_out_chars_no_crlf>:
10006850:	6803      	ldr	r3, [r0, #0]
10006852:	4608      	mov	r0, r1
10006854:	4611      	mov	r1, r2
10006856:	4718      	bx	r3

10006858 <stdio_out_chars_crlf>:
10006858:	b570      	push	{r4, r5, r6, lr}
1000685a:	4605      	mov	r5, r0
1000685c:	4608      	mov	r0, r1
1000685e:	7d69      	ldrb	r1, [r5, #21]
10006860:	b082      	sub	sp, #8
10006862:	2900      	cmp	r1, #0
10006864:	d04f      	beq.n	10006906 <stdio_out_chars_crlf+0xae>
10006866:	2a00      	cmp	r2, #0
10006868:	dd25      	ble.n	100068b6 <stdio_out_chars_crlf+0x5e>
1000686a:	7803      	ldrb	r3, [r0, #0]
1000686c:	4614      	mov	r4, r2
1000686e:	2b0a      	cmp	r3, #10
10006870:	4606      	mov	r6, r0
10006872:	d022      	beq.n	100068ba <stdio_out_chars_crlf+0x62>
10006874:	2c01      	cmp	r4, #1
10006876:	f04f 0e00 	mov.w	lr, #0
1000687a:	d00d      	beq.n	10006898 <stdio_out_chars_crlf+0x40>
1000687c:	4632      	mov	r2, r6
1000687e:	2301      	movs	r3, #1
10006880:	f812 cf01 	ldrb.w	ip, [r2, #1]!
10006884:	4619      	mov	r1, r3
10006886:	f1bc 0f0a 	cmp.w	ip, #10
1000688a:	f103 0301 	add.w	r3, r3, #1
1000688e:	d020      	beq.n	100068d2 <stdio_out_chars_crlf+0x7a>
10006890:	429c      	cmp	r4, r3
10006892:	d1f5      	bne.n	10006880 <stdio_out_chars_crlf+0x28>
10006894:	4574      	cmp	r4, lr
10006896:	dd05      	ble.n	100068a4 <stdio_out_chars_crlf+0x4c>
10006898:	682b      	ldr	r3, [r5, #0]
1000689a:	eba4 010e 	sub.w	r1, r4, lr
1000689e:	eb06 000e 	add.w	r0, r6, lr
100068a2:	4798      	blx	r3
100068a4:	1931      	adds	r1, r6, r4
100068a6:	f811 3c01 	ldrb.w	r3, [r1, #-1]
100068aa:	f1a3 030d 	sub.w	r3, r3, #13
100068ae:	fab3 f383 	clz	r3, r3
100068b2:	095b      	lsrs	r3, r3, #5
100068b4:	752b      	strb	r3, [r5, #20]
100068b6:	b002      	add	sp, #8
100068b8:	bd70      	pop	{r4, r5, r6, pc}
100068ba:	7d2b      	ldrb	r3, [r5, #20]
100068bc:	2b00      	cmp	r3, #0
100068be:	d1d9      	bne.n	10006874 <stdio_out_chars_crlf+0x1c>
100068c0:	2102      	movs	r1, #2
100068c2:	682b      	ldr	r3, [r5, #0]
100068c4:	4813      	ldr	r0, [pc, #76]	@ (10006914 <stdio_out_chars_crlf+0xbc>)
100068c6:	4798      	blx	r3
100068c8:	2c01      	cmp	r4, #1
100068ca:	d0eb      	beq.n	100068a4 <stdio_out_chars_crlf+0x4c>
100068cc:	f04f 0e01 	mov.w	lr, #1
100068d0:	e7d4      	b.n	1000687c <stdio_out_chars_crlf+0x24>
100068d2:	f812 0c01 	ldrb.w	r0, [r2, #-1]
100068d6:	280d      	cmp	r0, #13
100068d8:	d0da      	beq.n	10006890 <stdio_out_chars_crlf+0x38>
100068da:	458e      	cmp	lr, r1
100068dc:	eb06 000e 	add.w	r0, r6, lr
100068e0:	eba1 010e 	sub.w	r1, r1, lr
100068e4:	da05      	bge.n	100068f2 <stdio_out_chars_crlf+0x9a>
100068e6:	e9cd 3200 	strd	r3, r2, [sp]
100068ea:	682b      	ldr	r3, [r5, #0]
100068ec:	4798      	blx	r3
100068ee:	e9dd 3200 	ldrd	r3, r2, [sp]
100068f2:	e9cd 3200 	strd	r3, r2, [sp]
100068f6:	2102      	movs	r1, #2
100068f8:	682b      	ldr	r3, [r5, #0]
100068fa:	4806      	ldr	r0, [pc, #24]	@ (10006914 <stdio_out_chars_crlf+0xbc>)
100068fc:	4798      	blx	r3
100068fe:	9b00      	ldr	r3, [sp, #0]
10006900:	9a01      	ldr	r2, [sp, #4]
10006902:	469e      	mov	lr, r3
10006904:	e7c4      	b.n	10006890 <stdio_out_chars_crlf+0x38>
10006906:	4611      	mov	r1, r2
10006908:	682b      	ldr	r3, [r5, #0]
1000690a:	b002      	add	sp, #8
1000690c:	e8bd 4070 	ldmia.w	sp!, {r4, r5, r6, lr}
10006910:	4718      	bx	r3
10006912:	bf00      	nop
10006914:	10009940 	.word	0x10009940

10006918 <stdio_buffered_printer>:
10006918:	b570      	push	{r4, r5, r6, lr}
1000691a:	680b      	ldr	r3, [r1, #0]
1000691c:	460c      	mov	r4, r1
1000691e:	2b80      	cmp	r3, #128	@ 0x80
10006920:	4605      	mov	r5, r0
10006922:	b082      	sub	sp, #8
10006924:	d005      	beq.n	10006932 <stdio_buffered_printer+0x1a>
10006926:	1c5a      	adds	r2, r3, #1
10006928:	4423      	add	r3, r4
1000692a:	6022      	str	r2, [r4, #0]
1000692c:	711d      	strb	r5, [r3, #4]
1000692e:	b002      	add	sp, #8
10006930:	bd70      	pop	{r4, r5, r6, pc}
10006932:	4b0e      	ldr	r3, [pc, #56]	@ (1000696c <stdio_buffered_printer+0x54>)
10006934:	6818      	ldr	r0, [r3, #0]
10006936:	b978      	cbnz	r0, 10006958 <stdio_buffered_printer+0x40>
10006938:	2300      	movs	r3, #0
1000693a:	2201      	movs	r2, #1
1000693c:	4423      	add	r3, r4
1000693e:	6022      	str	r2, [r4, #0]
10006940:	711d      	strb	r5, [r3, #4]
10006942:	b002      	add	sp, #8
10006944:	bd70      	pop	{r4, r5, r6, pc}
10006946:	6822      	ldr	r2, [r4, #0]
10006948:	1d21      	adds	r1, r4, #4
1000694a:	9001      	str	r0, [sp, #4]
1000694c:	f7ff ff84 	bl	10006858 <stdio_out_chars_crlf>
10006950:	9801      	ldr	r0, [sp, #4]
10006952:	6900      	ldr	r0, [r0, #16]
10006954:	2800      	cmp	r0, #0
10006956:	d0ef      	beq.n	10006938 <stdio_buffered_printer+0x20>
10006958:	6803      	ldr	r3, [r0, #0]
1000695a:	2b00      	cmp	r3, #0
1000695c:	d0f9      	beq.n	10006952 <stdio_buffered_printer+0x3a>
1000695e:	4b04      	ldr	r3, [pc, #16]	@ (10006970 <stdio_buffered_printer+0x58>)
10006960:	681b      	ldr	r3, [r3, #0]
10006962:	2b00      	cmp	r3, #0
10006964:	d0ef      	beq.n	10006946 <stdio_buffered_printer+0x2e>
10006966:	4283      	cmp	r3, r0
10006968:	d1f3      	bne.n	10006952 <stdio_buffered_printer+0x3a>
1000696a:	e7ec      	b.n	10006946 <stdio_buffered_printer+0x2e>
1000696c:	20001aac 	.word	0x20001aac
10006970:	20001ab4 	.word	0x20001ab4

10006974 <stdio_put_string>:
10006974:	e92d 47f0 	stmdb	sp!, {r4, r5, r6, r7, r8, r9, sl, lr}
10006978:	b082      	sub	sp, #8
1000697a:	4690      	mov	r8, r2
1000697c:	461c      	mov	r4, r3
1000697e:	460d      	mov	r5, r1
10006980:	4607      	mov	r7, r0
10006982:	f7fd ff1d 	bl	100047c0 <time_us_64>
10006986:	f04f 3cff 	mov.w	ip, #4294967295
1000698a:	f06f 4600 	mvn.w	r6, #2147483648	@ 0x80000000
1000698e:	4a2e      	ldr	r2, [pc, #184]	@ (10006a48 <stdio_put_string+0xd4>)
10006990:	1882      	adds	r2, r0, r2
10006992:	f141 0300 	adc.w	r3, r1, #0
10006996:	4594      	cmp	ip, r2
10006998:	eb76 0103 	sbcs.w	r1, r6, r3
1000699c:	bf3c      	itt	cc
1000699e:	4662      	movcc	r2, ip
100069a0:	4633      	movcc	r3, r6
100069a2:	482a      	ldr	r0, [pc, #168]	@ (10006a4c <stdio_put_string+0xd8>)
100069a4:	f002 fe50 	bl	10009648 <__mutex_try_enter_block_until_veneer>
100069a8:	1c6b      	adds	r3, r5, #1
100069aa:	4682      	mov	sl, r0
100069ac:	d040      	beq.n	10006a30 <stdio_put_string+0xbc>
100069ae:	b30c      	cbz	r4, 100069f4 <stdio_put_string+0x80>
100069b0:	4e27      	ldr	r6, [pc, #156]	@ (10006a50 <stdio_put_string+0xdc>)
100069b2:	4b28      	ldr	r3, [pc, #160]	@ (10006a54 <stdio_put_string+0xe0>)
100069b4:	681c      	ldr	r4, [r3, #0]
100069b6:	b1b4      	cbz	r4, 100069e6 <stdio_put_string+0x72>
100069b8:	f1b8 0f00 	cmp.w	r8, #0
100069bc:	d11c      	bne.n	100069f8 <stdio_put_string+0x84>
100069be:	f8df 809c 	ldr.w	r8, [pc, #156]	@ 10006a5c <stdio_put_string+0xe8>
100069c2:	e001      	b.n	100069c8 <stdio_put_string+0x54>
100069c4:	6924      	ldr	r4, [r4, #16]
100069c6:	b174      	cbz	r4, 100069e6 <stdio_put_string+0x72>
100069c8:	6823      	ldr	r3, [r4, #0]
100069ca:	2b00      	cmp	r3, #0
100069cc:	d0fa      	beq.n	100069c4 <stdio_put_string+0x50>
100069ce:	f8d8 3000 	ldr.w	r3, [r8]
100069d2:	b10b      	cbz	r3, 100069d8 <stdio_put_string+0x64>
100069d4:	429c      	cmp	r4, r3
100069d6:	d1f5      	bne.n	100069c4 <stdio_put_string+0x50>
100069d8:	4620      	mov	r0, r4
100069da:	462a      	mov	r2, r5
100069dc:	4639      	mov	r1, r7
100069de:	47b0      	blx	r6
100069e0:	6924      	ldr	r4, [r4, #16]
100069e2:	2c00      	cmp	r4, #0
100069e4:	d1f0      	bne.n	100069c8 <stdio_put_string+0x54>
100069e6:	f1ba 0f00 	cmp.w	sl, #0
100069ea:	d126      	bne.n	10006a3a <stdio_put_string+0xc6>
100069ec:	4628      	mov	r0, r5
100069ee:	b002      	add	sp, #8
100069f0:	e8bd 87f0 	ldmia.w	sp!, {r4, r5, r6, r7, r8, r9, sl, pc}
100069f4:	4e18      	ldr	r6, [pc, #96]	@ (10006a58 <stdio_put_string+0xe4>)
100069f6:	e7dc      	b.n	100069b2 <stdio_put_string+0x3e>
100069f8:	f04f 090a 	mov.w	r9, #10
100069fc:	f8df 805c 	ldr.w	r8, [pc, #92]	@ 10006a5c <stdio_put_string+0xe8>
10006a00:	e002      	b.n	10006a08 <stdio_put_string+0x94>
10006a02:	6924      	ldr	r4, [r4, #16]
10006a04:	2c00      	cmp	r4, #0
10006a06:	d0ee      	beq.n	100069e6 <stdio_put_string+0x72>
10006a08:	6823      	ldr	r3, [r4, #0]
10006a0a:	2b00      	cmp	r3, #0
10006a0c:	d0f9      	beq.n	10006a02 <stdio_put_string+0x8e>
10006a0e:	f8d8 3000 	ldr.w	r3, [r8]
10006a12:	b10b      	cbz	r3, 10006a18 <stdio_put_string+0xa4>
10006a14:	42a3      	cmp	r3, r4
10006a16:	d1f4      	bne.n	10006a02 <stdio_put_string+0x8e>
10006a18:	462a      	mov	r2, r5
10006a1a:	4639      	mov	r1, r7
10006a1c:	4620      	mov	r0, r4
10006a1e:	47b0      	blx	r6
10006a20:	2201      	movs	r2, #1
10006a22:	4620      	mov	r0, r4
10006a24:	f10d 0107 	add.w	r1, sp, #7
10006a28:	f88d 9007 	strb.w	r9, [sp, #7]
10006a2c:	47b0      	blx	r6
10006a2e:	e7e8      	b.n	10006a02 <stdio_put_string+0x8e>
10006a30:	4638      	mov	r0, r7
10006a32:	f002 fdb9 	bl	100095a8 <strlen>
10006a36:	4605      	mov	r5, r0
10006a38:	e7b9      	b.n	100069ae <stdio_put_string+0x3a>
10006a3a:	4804      	ldr	r0, [pc, #16]	@ (10006a4c <stdio_put_string+0xd8>)
10006a3c:	f002 fdf8 	bl	10009630 <__mutex_exit_veneer>
10006a40:	4628      	mov	r0, r5
10006a42:	b002      	add	sp, #8
10006a44:	e8bd 87f0 	ldmia.w	sp!, {r4, r5, r6, r7, r8, r9, sl, pc}
10006a48:	000f4240 	.word	0x000f4240
10006a4c:	200012bc 	.word	0x200012bc
10006a50:	10006859 	.word	0x10006859
10006a54:	20001aac 	.word	0x20001aac
10006a58:	10006851 	.word	0x10006851
10006a5c:	20001ab4 	.word	0x20001ab4

10006a60 <stdio_set_driver_enabled>:
10006a60:	4a08      	ldr	r2, [pc, #32]	@ (10006a84 <stdio_set_driver_enabled+0x24>)
10006a62:	6813      	ldr	r3, [r2, #0]
10006a64:	b923      	cbnz	r3, 10006a70 <stdio_set_driver_enabled+0x10>
10006a66:	e00a      	b.n	10006a7e <stdio_set_driver_enabled+0x1e>
10006a68:	f103 0210 	add.w	r2, r3, #16
10006a6c:	691b      	ldr	r3, [r3, #16]
10006a6e:	b133      	cbz	r3, 10006a7e <stdio_set_driver_enabled+0x1e>
10006a70:	4283      	cmp	r3, r0
10006a72:	d1f9      	bne.n	10006a68 <stdio_set_driver_enabled+0x8>
10006a74:	b929      	cbnz	r1, 10006a82 <stdio_set_driver_enabled+0x22>
10006a76:	6918      	ldr	r0, [r3, #16]
10006a78:	6010      	str	r0, [r2, #0]
10006a7a:	6119      	str	r1, [r3, #16]
10006a7c:	4770      	bx	lr
10006a7e:	b101      	cbz	r1, 10006a82 <stdio_set_driver_enabled+0x22>
10006a80:	6010      	str	r0, [r2, #0]
10006a82:	4770      	bx	lr
10006a84:	20001aac 	.word	0x20001aac

10006a88 <stdio_init_all>:
10006a88:	f000 bae2 	b.w	10007050 <stdio_usb_init>

10006a8c <__wrap_putchar>:
10006a8c:	b5f0      	push	{r4, r5, r6, r7, lr}
10006a8e:	b083      	sub	sp, #12
10006a90:	4606      	mov	r6, r0
10006a92:	f88d 0007 	strb.w	r0, [sp, #7]
10006a96:	f7fd fe93 	bl	100047c0 <time_us_64>
10006a9a:	f04f 35ff 	mov.w	r5, #4294967295
10006a9e:	f06f 4400 	mvn.w	r4, #2147483648	@ 0x80000000
10006aa2:	4a17      	ldr	r2, [pc, #92]	@ (10006b00 <__wrap_putchar+0x74>)
10006aa4:	1882      	adds	r2, r0, r2
10006aa6:	f141 0300 	adc.w	r3, r1, #0
10006aaa:	4295      	cmp	r5, r2
10006aac:	eb74 0103 	sbcs.w	r1, r4, r3
10006ab0:	bf3c      	itt	cc
10006ab2:	4623      	movcc	r3, r4
10006ab4:	462a      	movcc	r2, r5
10006ab6:	4813      	ldr	r0, [pc, #76]	@ (10006b04 <__wrap_putchar+0x78>)
10006ab8:	f002 fdc6 	bl	10009648 <__mutex_try_enter_block_until_veneer>
10006abc:	4b12      	ldr	r3, [pc, #72]	@ (10006b08 <__wrap_putchar+0x7c>)
10006abe:	4607      	mov	r7, r0
10006ac0:	681c      	ldr	r4, [r3, #0]
10006ac2:	b19c      	cbz	r4, 10006aec <__wrap_putchar+0x60>
10006ac4:	4d11      	ldr	r5, [pc, #68]	@ (10006b0c <__wrap_putchar+0x80>)
10006ac6:	e001      	b.n	10006acc <__wrap_putchar+0x40>
10006ac8:	6924      	ldr	r4, [r4, #16]
10006aca:	b17c      	cbz	r4, 10006aec <__wrap_putchar+0x60>
10006acc:	6823      	ldr	r3, [r4, #0]
10006ace:	2b00      	cmp	r3, #0
10006ad0:	d0fa      	beq.n	10006ac8 <__wrap_putchar+0x3c>
10006ad2:	682b      	ldr	r3, [r5, #0]
10006ad4:	b10b      	cbz	r3, 10006ada <__wrap_putchar+0x4e>
10006ad6:	429c      	cmp	r4, r3
10006ad8:	d1f6      	bne.n	10006ac8 <__wrap_putchar+0x3c>
10006ada:	4620      	mov	r0, r4
10006adc:	2201      	movs	r2, #1
10006ade:	f10d 0107 	add.w	r1, sp, #7
10006ae2:	f7ff feb9 	bl	10006858 <stdio_out_chars_crlf>
10006ae6:	6924      	ldr	r4, [r4, #16]
10006ae8:	2c00      	cmp	r4, #0
10006aea:	d1ef      	bne.n	10006acc <__wrap_putchar+0x40>
10006aec:	b917      	cbnz	r7, 10006af4 <__wrap_putchar+0x68>
10006aee:	4630      	mov	r0, r6
10006af0:	b003      	add	sp, #12
10006af2:	bdf0      	pop	{r4, r5, r6, r7, pc}
10006af4:	4803      	ldr	r0, [pc, #12]	@ (10006b04 <__wrap_putchar+0x78>)
10006af6:	f002 fd9b 	bl	10009630 <__mutex_exit_veneer>
10006afa:	4630      	mov	r0, r6
10006afc:	b003      	add	sp, #12
10006afe:	bdf0      	pop	{r4, r5, r6, r7, pc}
10006b00:	000f4240 	.word	0x000f4240
10006b04:	200012bc 	.word	0x200012bc
10006b08:	20001aac 	.word	0x20001aac
10006b0c:	20001ab4 	.word	0x20001ab4

10006b10 <__wrap_puts>:
10006b10:	b538      	push	{r3, r4, r5, lr}
10006b12:	4604      	mov	r4, r0
10006b14:	f002 fd48 	bl	100095a8 <strlen>
10006b18:	2301      	movs	r3, #1
10006b1a:	4605      	mov	r5, r0
10006b1c:	461a      	mov	r2, r3
10006b1e:	4620      	mov	r0, r4
10006b20:	4629      	mov	r1, r5
10006b22:	f7ff ff27 	bl	10006974 <stdio_put_string>
10006b26:	4b08      	ldr	r3, [pc, #32]	@ (10006b48 <__wrap_puts+0x38>)
10006b28:	681c      	ldr	r4, [r3, #0]
10006b2a:	b12c      	cbz	r4, 10006b38 <__wrap_puts+0x28>
10006b2c:	6863      	ldr	r3, [r4, #4]
10006b2e:	b12b      	cbz	r3, 10006b3c <__wrap_puts+0x2c>
10006b30:	4798      	blx	r3
10006b32:	6924      	ldr	r4, [r4, #16]
10006b34:	2c00      	cmp	r4, #0
10006b36:	d1f9      	bne.n	10006b2c <__wrap_puts+0x1c>
10006b38:	4628      	mov	r0, r5
10006b3a:	bd38      	pop	{r3, r4, r5, pc}
10006b3c:	6924      	ldr	r4, [r4, #16]
10006b3e:	2c00      	cmp	r4, #0
10006b40:	d1f4      	bne.n	10006b2c <__wrap_puts+0x1c>
10006b42:	4628      	mov	r0, r5
10006b44:	bd38      	pop	{r3, r4, r5, pc}
10006b46:	bf00      	nop
10006b48:	20001aac 	.word	0x20001aac

10006b4c <__wrap_vprintf>:
10006b4c:	e92d 41f0 	stmdb	sp!, {r4, r5, r6, r7, r8, lr}
10006b50:	b0a2      	sub	sp, #136	@ 0x88
10006b52:	460e      	mov	r6, r1
10006b54:	4605      	mov	r5, r0
10006b56:	f7fd fe33 	bl	100047c0 <time_us_64>
10006b5a:	f04f 3cff 	mov.w	ip, #4294967295
10006b5e:	f06f 4400 	mvn.w	r4, #2147483648	@ 0x80000000
10006b62:	4a25      	ldr	r2, [pc, #148]	@ (10006bf8 <__wrap_vprintf+0xac>)
10006b64:	1882      	adds	r2, r0, r2
10006b66:	f141 0300 	adc.w	r3, r1, #0
10006b6a:	4594      	cmp	ip, r2
10006b6c:	eb74 0103 	sbcs.w	r1, r4, r3
10006b70:	bf3c      	itt	cc
10006b72:	4623      	movcc	r3, r4
10006b74:	4662      	movcc	r2, ip
10006b76:	4821      	ldr	r0, [pc, #132]	@ (10006bfc <__wrap_vprintf+0xb0>)
10006b78:	f002 fd66 	bl	10009648 <__mutex_try_enter_block_until_veneer>
10006b7c:	2400      	movs	r4, #0
10006b7e:	4633      	mov	r3, r6
10006b80:	4607      	mov	r7, r0
10006b82:	462a      	mov	r2, r5
10006b84:	481e      	ldr	r0, [pc, #120]	@ (10006c00 <__wrap_vprintf+0xb4>)
10006b86:	a901      	add	r1, sp, #4
10006b88:	9401      	str	r4, [sp, #4]
10006b8a:	f7ff fe1f 	bl	100067cc <vfctprintf>
10006b8e:	4e1d      	ldr	r6, [pc, #116]	@ (10006c04 <__wrap_vprintf+0xb8>)
10006b90:	9b01      	ldr	r3, [sp, #4]
10006b92:	4680      	mov	r8, r0
10006b94:	6834      	ldr	r4, [r6, #0]
10006b96:	b1bb      	cbz	r3, 10006bc8 <__wrap_vprintf+0x7c>
10006b98:	2c00      	cmp	r4, #0
10006b9a:	d02a      	beq.n	10006bf2 <__wrap_vprintf+0xa6>
10006b9c:	4d1a      	ldr	r5, [pc, #104]	@ (10006c08 <__wrap_vprintf+0xbc>)
10006b9e:	e001      	b.n	10006ba4 <__wrap_vprintf+0x58>
10006ba0:	6924      	ldr	r4, [r4, #16]
10006ba2:	b174      	cbz	r4, 10006bc2 <__wrap_vprintf+0x76>
10006ba4:	6823      	ldr	r3, [r4, #0]
10006ba6:	2b00      	cmp	r3, #0
10006ba8:	d0fa      	beq.n	10006ba0 <__wrap_vprintf+0x54>
10006baa:	682b      	ldr	r3, [r5, #0]
10006bac:	b10b      	cbz	r3, 10006bb2 <__wrap_vprintf+0x66>
10006bae:	42a3      	cmp	r3, r4
10006bb0:	d1f6      	bne.n	10006ba0 <__wrap_vprintf+0x54>
10006bb2:	4620      	mov	r0, r4
10006bb4:	9a01      	ldr	r2, [sp, #4]
10006bb6:	a902      	add	r1, sp, #8
10006bb8:	f7ff fe4e 	bl	10006858 <stdio_out_chars_crlf>
10006bbc:	6924      	ldr	r4, [r4, #16]
10006bbe:	2c00      	cmp	r4, #0
10006bc0:	d1f0      	bne.n	10006ba4 <__wrap_vprintf+0x58>
10006bc2:	4623      	mov	r3, r4
10006bc4:	6834      	ldr	r4, [r6, #0]
10006bc6:	9301      	str	r3, [sp, #4]
10006bc8:	b12c      	cbz	r4, 10006bd6 <__wrap_vprintf+0x8a>
10006bca:	6863      	ldr	r3, [r4, #4]
10006bcc:	b143      	cbz	r3, 10006be0 <__wrap_vprintf+0x94>
10006bce:	4798      	blx	r3
10006bd0:	6924      	ldr	r4, [r4, #16]
10006bd2:	2c00      	cmp	r4, #0
10006bd4:	d1f9      	bne.n	10006bca <__wrap_vprintf+0x7e>
10006bd6:	b92f      	cbnz	r7, 10006be4 <__wrap_vprintf+0x98>
10006bd8:	4640      	mov	r0, r8
10006bda:	b022      	add	sp, #136	@ 0x88
10006bdc:	e8bd 81f0 	ldmia.w	sp!, {r4, r5, r6, r7, r8, pc}
10006be0:	6924      	ldr	r4, [r4, #16]
10006be2:	e7f1      	b.n	10006bc8 <__wrap_vprintf+0x7c>
10006be4:	4805      	ldr	r0, [pc, #20]	@ (10006bfc <__wrap_vprintf+0xb0>)
10006be6:	f002 fd23 	bl	10009630 <__mutex_exit_veneer>
10006bea:	4640      	mov	r0, r8
10006bec:	b022      	add	sp, #136	@ 0x88
10006bee:	e8bd 81f0 	ldmia.w	sp!, {r4, r5, r6, r7, r8, pc}
10006bf2:	9401      	str	r4, [sp, #4]
10006bf4:	e7ef      	b.n	10006bd6 <__wrap_vprintf+0x8a>
10006bf6:	bf00      	nop
10006bf8:	000f4240 	.word	0x000f4240
10006bfc:	200012bc 	.word	0x200012bc
10006c00:	10006919 	.word	0x10006919
10006c04:	20001aac 	.word	0x20001aac
10006c08:	20001ab4 	.word	0x20001ab4

10006c0c <__wrap_printf>:
10006c0c:	b40f      	push	{r0, r1, r2, r3}
10006c0e:	b500      	push	{lr}
10006c10:	b083      	sub	sp, #12
10006c12:	a904      	add	r1, sp, #16
10006c14:	f851 0b04 	ldr.w	r0, [r1], #4
10006c18:	9101      	str	r1, [sp, #4]
10006c1a:	f7ff ff97 	bl	10006b4c <__wrap_vprintf>
10006c1e:	b003      	add	sp, #12
10006c20:	f85d eb04 	ldr.w	lr, [sp], #4
10006c24:	b004      	add	sp, #16
10006c26:	4770      	bx	lr

10006c28 <resetd_init>:
10006c28:	4770      	bx	lr
10006c2a:	bf00      	nop

10006c2c <resetd_reset>:
10006c2c:	2200      	movs	r2, #0
10006c2e:	4b01      	ldr	r3, [pc, #4]	@ (10006c34 <resetd_reset+0x8>)
10006c30:	701a      	strb	r2, [r3, #0]
10006c32:	4770      	bx	lr
10006c34:	200222d8 	.word	0x200222d8

10006c38 <resetd_open>:
10006c38:	794b      	ldrb	r3, [r1, #5]
10006c3a:	2bff      	cmp	r3, #255	@ 0xff
10006c3c:	d10b      	bne.n	10006c56 <resetd_open+0x1e>
10006c3e:	7988      	ldrb	r0, [r1, #6]
10006c40:	b948      	cbnz	r0, 10006c56 <resetd_open+0x1e>
10006c42:	79cb      	ldrb	r3, [r1, #7]
10006c44:	2b01      	cmp	r3, #1
10006c46:	d107      	bne.n	10006c58 <resetd_open+0x20>
10006c48:	2a08      	cmp	r2, #8
10006c4a:	d905      	bls.n	10006c58 <resetd_open+0x20>
10006c4c:	4b03      	ldr	r3, [pc, #12]	@ (10006c5c <resetd_open+0x24>)
10006c4e:	788a      	ldrb	r2, [r1, #2]
10006c50:	2009      	movs	r0, #9
10006c52:	701a      	strb	r2, [r3, #0]
10006c54:	4770      	bx	lr
10006c56:	2000      	movs	r0, #0
10006c58:	4770      	bx	lr
10006c5a:	bf00      	nop
10006c5c:	200222d8 	.word	0x200222d8

10006c60 <resetd_xfer_cb>:
10006c60:	2001      	movs	r0, #1
10006c62:	4770      	bx	lr

10006c64 <resetd_control_xfer_cb>:
10006c64:	2901      	cmp	r1, #1
10006c66:	d001      	beq.n	10006c6c <resetd_control_xfer_cb+0x8>
10006c68:	2001      	movs	r0, #1
10006c6a:	4770      	bx	lr
10006c6c:	b508      	push	{r3, lr}
10006c6e:	4b10      	ldr	r3, [pc, #64]	@ (10006cb0 <resetd_control_xfer_cb+0x4c>)
10006c70:	8891      	ldrh	r1, [r2, #4]
10006c72:	781b      	ldrb	r3, [r3, #0]
10006c74:	4299      	cmp	r1, r3
10006c76:	d001      	beq.n	10006c7c <resetd_control_xfer_cb+0x18>
10006c78:	2000      	movs	r0, #0
10006c7a:	bd08      	pop	{r3, pc}
10006c7c:	7853      	ldrb	r3, [r2, #1]
10006c7e:	2b01      	cmp	r3, #1
10006c80:	d008      	beq.n	10006c94 <resetd_control_xfer_cb+0x30>
10006c82:	2b02      	cmp	r3, #2
10006c84:	d1f8      	bne.n	10006c78 <resetd_control_xfer_cb+0x14>
10006c86:	2100      	movs	r1, #0
10006c88:	2264      	movs	r2, #100	@ 0x64
10006c8a:	4608      	mov	r0, r1
10006c8c:	f7fd fdea 	bl	10004864 <watchdog_reboot>
10006c90:	2001      	movs	r0, #1
10006c92:	bd08      	pop	{r3, pc}
10006c94:	8851      	ldrh	r1, [r2, #2]
10006c96:	05cb      	lsls	r3, r1, #23
10006c98:	bf48      	it	mi
10006c9a:	0a48      	lsrmi	r0, r1, #9
10006c9c:	f3c1 2240 	ubfx	r2, r1, #9, #1
10006ca0:	bf58      	it	pl
10006ca2:	f04f 30ff 	movpl.w	r0, #4294967295
10006ca6:	f001 017f 	and.w	r1, r1, #127	@ 0x7f
10006caa:	f7fd fe65 	bl	10004978 <rom_reset_usb_boot_extra>
10006cae:	bf00      	nop
10006cb0:	200222d8 	.word	0x200222d8

10006cb4 <tud_descriptor_bos_cb>:
10006cb4:	4800      	ldr	r0, [pc, #0]	@ (10006cb8 <tud_descriptor_bos_cb+0x4>)
10006cb6:	4770      	bx	lr
10006cb8:	10009a0c 	.word	0x10009a0c

10006cbc <tud_vendor_control_xfer_cb>:
10006cbc:	2901      	cmp	r1, #1
10006cbe:	d107      	bne.n	10006cd0 <tud_vendor_control_xfer_cb+0x14>
10006cc0:	7853      	ldrb	r3, [r2, #1]
10006cc2:	2b01      	cmp	r3, #1
10006cc4:	d102      	bne.n	10006ccc <tud_vendor_control_xfer_cb+0x10>
10006cc6:	8893      	ldrh	r3, [r2, #4]
10006cc8:	2b07      	cmp	r3, #7
10006cca:	d003      	beq.n	10006cd4 <tud_vendor_control_xfer_cb+0x18>
10006ccc:	2000      	movs	r0, #0
10006cce:	4770      	bx	lr
10006cd0:	2001      	movs	r0, #1
10006cd2:	4770      	bx	lr
10006cd4:	4611      	mov	r1, r2
10006cd6:	23a6      	movs	r3, #166	@ 0xa6
10006cd8:	4a01      	ldr	r2, [pc, #4]	@ (10006ce0 <tud_vendor_control_xfer_cb+0x24>)
10006cda:	f001 ba8d 	b.w	100081f8 <tud_control_xfer>
10006cde:	bf00      	nop
10006ce0:	10009964 	.word	0x10009964

10006ce4 <usbd_app_driver_get_cb>:
10006ce4:	4603      	mov	r3, r0
10006ce6:	2201      	movs	r2, #1
10006ce8:	4801      	ldr	r0, [pc, #4]	@ (10006cf0 <usbd_app_driver_get_cb+0xc>)
10006cea:	701a      	strb	r2, [r3, #0]
10006cec:	4770      	bx	lr
10006cee:	bf00      	nop
10006cf0:	10009944 	.word	0x10009944

10006cf4 <tud_cdc_line_coding_cb>:
10006cf4:	b508      	push	{r3, lr}
10006cf6:	680b      	ldr	r3, [r1, #0]
10006cf8:	f5b3 6f96 	cmp.w	r3, #1200	@ 0x4b0
10006cfc:	d000      	beq.n	10006d00 <tud_cdc_line_coding_cb+0xc>
10006cfe:	bd08      	pop	{r3, pc}
10006d00:	2200      	movs	r2, #0
10006d02:	f04f 30ff 	mov.w	r0, #4294967295
10006d06:	4611      	mov	r1, r2
10006d08:	f7fd fe36 	bl	10004978 <rom_reset_usb_boot_extra>

10006d0c <stdio_usb_set_chars_available_callback>:
10006d0c:	4a02      	ldr	r2, [pc, #8]	@ (10006d18 <stdio_usb_set_chars_available_callback+0xc>)
10006d0e:	4b03      	ldr	r3, [pc, #12]	@ (10006d1c <stdio_usb_set_chars_available_callback+0x10>)
10006d10:	6010      	str	r0, [r2, #0]
10006d12:	6019      	str	r1, [r3, #0]
10006d14:	4770      	bx	lr
10006d16:	bf00      	nop
10006d18:	20001a48 	.word	0x20001a48
10006d1c:	20001a4c 	.word	0x20001a4c

10006d20 <timer_task>:
10006d20:	4b18      	ldr	r3, [pc, #96]	@ (10006d84 <timer_task+0x64>)
10006d22:	b570      	push	{r4, r5, r6, lr}
10006d24:	681a      	ldr	r2, [r3, #0]
10006d26:	2a00      	cmp	r2, #0
10006d28:	d028      	beq.n	10006d7c <timer_task+0x5c>
10006d2a:	f3ef 8110 	mrs	r1, PRIMASK
10006d2e:	b672      	cpsid	i
10006d30:	e8d2 4fcf 	ldaexb	r4, [r2]
10006d34:	2001      	movs	r0, #1
10006d36:	2c00      	cmp	r4, #0
10006d38:	d1fa      	bne.n	10006d30 <timer_task+0x10>
10006d3a:	e8c2 0f44 	strexb	r4, r0, [r2]
10006d3e:	2c00      	cmp	r4, #0
10006d40:	d1f6      	bne.n	10006d30 <timer_task+0x10>
10006d42:	f3bf 8f5f 	dmb	sy
10006d46:	2200      	movs	r2, #0
10006d48:	4c0f      	ldr	r4, [pc, #60]	@ (10006d88 <timer_task+0x68>)
10006d4a:	6818      	ldr	r0, [r3, #0]
10006d4c:	6059      	str	r1, [r3, #4]
10006d4e:	7022      	strb	r2, [r4, #0]
10006d50:	e8c0 2f8f 	stlb	r2, [r0]
10006d54:	f381 8810 	msr	PRIMASK, r1
10006d58:	2400      	movs	r4, #0
10006d5a:	2500      	movs	r5, #0
10006d5c:	4e0b      	ldr	r6, [pc, #44]	@ (10006d8c <timer_task+0x6c>)
10006d5e:	7830      	ldrb	r0, [r6, #0]
10006d60:	f7fc ff24 	bl	10003bac <irq_is_enabled>
10006d64:	b920      	cbnz	r0, 10006d70 <timer_task+0x50>
10006d66:	2400      	movs	r4, #0
10006d68:	2500      	movs	r5, #0
10006d6a:	4620      	mov	r0, r4
10006d6c:	4629      	mov	r1, r5
10006d6e:	bd70      	pop	{r4, r5, r6, pc}
10006d70:	7830      	ldrb	r0, [r6, #0]
10006d72:	f7fc ff2b 	bl	10003bcc <irq_set_pending>
10006d76:	4620      	mov	r0, r4
10006d78:	4629      	mov	r1, r5
10006d7a:	bd70      	pop	{r4, r5, r6, pc}
10006d7c:	f44f 747a 	mov.w	r4, #1000	@ 0x3e8
10006d80:	2500      	movs	r5, #0
10006d82:	e7eb      	b.n	10006d5c <timer_task+0x3c>
10006d84:	20001ee0 	.word	0x20001ee0
10006d88:	200222da 	.word	0x200222da
10006d8c:	200222d9 	.word	0x200222d9

10006d90 <usb_irq>:
10006d90:	4b01      	ldr	r3, [pc, #4]	@ (10006d98 <usb_irq+0x8>)
10006d92:	7818      	ldrb	r0, [r3, #0]
10006d94:	f7fc bf1a 	b.w	10003bcc <irq_set_pending>
10006d98:	200222d9 	.word	0x200222d9

10006d9c <stdio_usb_in_chars>:
10006d9c:	b538      	push	{r3, r4, r5, lr}
10006d9e:	4604      	mov	r4, r0
10006da0:	2000      	movs	r0, #0
10006da2:	460d      	mov	r5, r1
10006da4:	f001 fb62 	bl	1000846c <tud_cdc_n_connected>
10006da8:	b3a8      	cbz	r0, 10006e16 <stdio_usb_in_chars+0x7a>
10006daa:	2000      	movs	r0, #0
10006dac:	f001 fb74 	bl	10008498 <tud_cdc_n_available>
10006db0:	b388      	cbz	r0, 10006e16 <stdio_usb_in_chars+0x7a>
10006db2:	f7fd fd05 	bl	100047c0 <time_us_64>
10006db6:	f04f 3eff 	mov.w	lr, #4294967295
10006dba:	f06f 4c00 	mvn.w	ip, #2147483648	@ 0x80000000
10006dbe:	4a17      	ldr	r2, [pc, #92]	@ (10006e1c <stdio_usb_in_chars+0x80>)
10006dc0:	1882      	adds	r2, r0, r2
10006dc2:	f141 0300 	adc.w	r3, r1, #0
10006dc6:	4596      	cmp	lr, r2
10006dc8:	eb7c 0103 	sbcs.w	r1, ip, r3
10006dcc:	bf3c      	itt	cc
10006dce:	4672      	movcc	r2, lr
10006dd0:	4663      	movcc	r3, ip
10006dd2:	4813      	ldr	r0, [pc, #76]	@ (10006e20 <stdio_usb_in_chars+0x84>)
10006dd4:	f002 fc38 	bl	10009648 <__mutex_try_enter_block_until_veneer>
10006dd8:	b1e8      	cbz	r0, 10006e16 <stdio_usb_in_chars+0x7a>
10006dda:	2000      	movs	r0, #0
10006ddc:	f001 fb46 	bl	1000846c <tud_cdc_n_connected>
10006de0:	b958      	cbnz	r0, 10006dfa <stdio_usb_in_chars+0x5e>
10006de2:	4601      	mov	r1, r0
10006de4:	f04f 30ff 	mov.w	r0, #4294967295
10006de8:	f000 fd2a 	bl	10007840 <tud_task_ext>
10006dec:	f06f 0402 	mvn.w	r4, #2
10006df0:	480b      	ldr	r0, [pc, #44]	@ (10006e20 <stdio_usb_in_chars+0x84>)
10006df2:	f002 fc1d 	bl	10009630 <__mutex_exit_veneer>
10006df6:	4620      	mov	r0, r4
10006df8:	bd38      	pop	{r3, r4, r5, pc}
10006dfa:	2000      	movs	r0, #0
10006dfc:	f001 fb4c 	bl	10008498 <tud_cdc_n_available>
10006e00:	2800      	cmp	r0, #0
10006e02:	d0ee      	beq.n	10006de2 <stdio_usb_in_chars+0x46>
10006e04:	4621      	mov	r1, r4
10006e06:	462a      	mov	r2, r5
10006e08:	2000      	movs	r0, #0
10006e0a:	f001 fb4f 	bl	100084ac <tud_cdc_n_read>
10006e0e:	4604      	mov	r4, r0
10006e10:	2800      	cmp	r0, #0
10006e12:	d1ed      	bne.n	10006df0 <stdio_usb_in_chars+0x54>
10006e14:	e7ea      	b.n	10006dec <stdio_usb_in_chars+0x50>
10006e16:	f06f 0402 	mvn.w	r4, #2
10006e1a:	e7ec      	b.n	10006df6 <stdio_usb_in_chars+0x5a>
10006e1c:	000f4240 	.word	0x000f4240
10006e20:	200021b0 	.word	0x200021b0

10006e24 <stdio_usb_out_flush>:
10006e24:	b508      	push	{r3, lr}
10006e26:	f7fd fccb 	bl	100047c0 <time_us_64>
10006e2a:	f04f 3eff 	mov.w	lr, #4294967295
10006e2e:	f06f 4c00 	mvn.w	ip, #2147483648	@ 0x80000000
10006e32:	4a0f      	ldr	r2, [pc, #60]	@ (10006e70 <stdio_usb_out_flush+0x4c>)
10006e34:	1882      	adds	r2, r0, r2
10006e36:	f141 0300 	adc.w	r3, r1, #0
10006e3a:	4596      	cmp	lr, r2
10006e3c:	eb7c 0103 	sbcs.w	r1, ip, r3
10006e40:	bf3c      	itt	cc
10006e42:	4672      	movcc	r2, lr
10006e44:	4663      	movcc	r3, ip
10006e46:	480b      	ldr	r0, [pc, #44]	@ (10006e74 <stdio_usb_out_flush+0x50>)
10006e48:	f002 fbfe 	bl	10009648 <__mutex_try_enter_block_until_veneer>
10006e4c:	b170      	cbz	r0, 10006e6c <stdio_usb_out_flush+0x48>
10006e4e:	f04f 30ff 	mov.w	r0, #4294967295
10006e52:	2100      	movs	r1, #0
10006e54:	f000 fcf4 	bl	10007840 <tud_task_ext>
10006e58:	2000      	movs	r0, #0
10006e5a:	f001 fb6d 	bl	10008538 <tud_cdc_n_write_flush>
10006e5e:	2800      	cmp	r0, #0
10006e60:	d1f5      	bne.n	10006e4e <stdio_usb_out_flush+0x2a>
10006e62:	e8bd 4008 	ldmia.w	sp!, {r3, lr}
10006e66:	4803      	ldr	r0, [pc, #12]	@ (10006e74 <stdio_usb_out_flush+0x50>)
10006e68:	f002 bbe2 	b.w	10009630 <__mutex_exit_veneer>
10006e6c:	bd08      	pop	{r3, pc}
10006e6e:	bf00      	nop
10006e70:	000f4240 	.word	0x000f4240
10006e74:	200021b0 	.word	0x200021b0

10006e78 <stdio_usb_out_chars>:
10006e78:	e92d 41f0 	stmdb	sp!, {r4, r5, r6, r7, r8, lr}
10006e7c:	4607      	mov	r7, r0
10006e7e:	460e      	mov	r6, r1
10006e80:	f7fd fc9e 	bl	100047c0 <time_us_64>
10006e84:	f04f 35ff 	mov.w	r5, #4294967295
10006e88:	f06f 4400 	mvn.w	r4, #2147483648	@ 0x80000000
10006e8c:	4a32      	ldr	r2, [pc, #200]	@ (10006f58 <stdio_usb_out_chars+0xe0>)
10006e8e:	1882      	adds	r2, r0, r2
10006e90:	f141 0300 	adc.w	r3, r1, #0
10006e94:	4295      	cmp	r5, r2
10006e96:	eb74 0103 	sbcs.w	r1, r4, r3
10006e9a:	bf3c      	itt	cc
10006e9c:	462a      	movcc	r2, r5
10006e9e:	4623      	movcc	r3, r4
10006ea0:	482e      	ldr	r0, [pc, #184]	@ (10006f5c <stdio_usb_out_chars+0xe4>)
10006ea2:	f002 fbd1 	bl	10009648 <__mutex_try_enter_block_until_veneer>
10006ea6:	b908      	cbnz	r0, 10006eac <stdio_usb_out_chars+0x34>
10006ea8:	e8bd 81f0 	ldmia.w	sp!, {r4, r5, r6, r7, r8, pc}
10006eac:	2000      	movs	r0, #0
10006eae:	f001 fadd 	bl	1000846c <tud_cdc_n_connected>
10006eb2:	2800      	cmp	r0, #0
10006eb4:	d045      	beq.n	10006f42 <stdio_usb_out_chars+0xca>
10006eb6:	2e00      	cmp	r6, #0
10006eb8:	dd3e      	ble.n	10006f38 <stdio_usb_out_chars+0xc0>
10006eba:	2500      	movs	r5, #0
10006ebc:	f8df 80a4 	ldr.w	r8, [pc, #164]	@ 10006f64 <stdio_usb_out_chars+0xec>
10006ec0:	e012      	b.n	10006ee8 <stdio_usb_out_chars+0x70>
10006ec2:	4622      	mov	r2, r4
10006ec4:	2000      	movs	r0, #0
10006ec6:	f001 fb81 	bl	100085cc <tud_cdc_n_write>
10006eca:	2100      	movs	r1, #0
10006ecc:	4405      	add	r5, r0
10006ece:	f04f 30ff 	mov.w	r0, #4294967295
10006ed2:	f000 fcb5 	bl	10007840 <tud_task_ext>
10006ed6:	2000      	movs	r0, #0
10006ed8:	f001 fb2e 	bl	10008538 <tud_cdc_n_write_flush>
10006edc:	f7fd fc70 	bl	100047c0 <time_us_64>
10006ee0:	e9c8 0100 	strd	r0, r1, [r8]
10006ee4:	42ae      	cmp	r6, r5
10006ee6:	dd27      	ble.n	10006f38 <stdio_usb_out_chars+0xc0>
10006ee8:	2000      	movs	r0, #0
10006eea:	f001 fb8d 	bl	10008608 <tud_cdc_n_write_available>
10006eee:	1b74      	subs	r4, r6, r5
10006ef0:	4284      	cmp	r4, r0
10006ef2:	bfa8      	it	ge
10006ef4:	4604      	movge	r4, r0
10006ef6:	1979      	adds	r1, r7, r5
10006ef8:	2c00      	cmp	r4, #0
10006efa:	d1e2      	bne.n	10006ec2 <stdio_usb_out_chars+0x4a>
10006efc:	4621      	mov	r1, r4
10006efe:	f04f 30ff 	mov.w	r0, #4294967295
10006f02:	f000 fc9d 	bl	10007840 <tud_task_ext>
10006f06:	4620      	mov	r0, r4
10006f08:	f001 fb16 	bl	10008538 <tud_cdc_n_write_flush>
10006f0c:	4620      	mov	r0, r4
10006f0e:	f001 faad 	bl	1000846c <tud_cdc_n_connected>
10006f12:	b188      	cbz	r0, 10006f38 <stdio_usb_out_chars+0xc0>
10006f14:	4620      	mov	r0, r4
10006f16:	f001 fb77 	bl	10008608 <tud_cdc_n_write_available>
10006f1a:	2800      	cmp	r0, #0
10006f1c:	d1e2      	bne.n	10006ee4 <stdio_usb_out_chars+0x6c>
10006f1e:	f7fd fc4f 	bl	100047c0 <time_us_64>
10006f22:	4a0f      	ldr	r2, [pc, #60]	@ (10006f60 <stdio_usb_out_chars+0xe8>)
10006f24:	f8d8 3000 	ldr.w	r3, [r8]
10006f28:	189b      	adds	r3, r3, r2
10006f2a:	f8d8 2004 	ldr.w	r2, [r8, #4]
10006f2e:	f142 0200 	adc.w	r2, r2, #0
10006f32:	4283      	cmp	r3, r0
10006f34:	418a      	sbcs	r2, r1
10006f36:	d2d5      	bcs.n	10006ee4 <stdio_usb_out_chars+0x6c>
10006f38:	4808      	ldr	r0, [pc, #32]	@ (10006f5c <stdio_usb_out_chars+0xe4>)
10006f3a:	e8bd 41f0 	ldmia.w	sp!, {r4, r5, r6, r7, r8, lr}
10006f3e:	f002 bb77 	b.w	10009630 <__mutex_exit_veneer>
10006f42:	2000      	movs	r0, #0
10006f44:	e8bd 41f0 	ldmia.w	sp!, {r4, r5, r6, r7, r8, lr}
10006f48:	2100      	movs	r1, #0
10006f4a:	4b06      	ldr	r3, [pc, #24]	@ (10006f64 <stdio_usb_out_chars+0xec>)
10006f4c:	e9c3 0100 	strd	r0, r1, [r3]
10006f50:	4802      	ldr	r0, [pc, #8]	@ (10006f5c <stdio_usb_out_chars+0xe4>)
10006f52:	f002 bb6d 	b.w	10009630 <__mutex_exit_veneer>
10006f56:	bf00      	nop
10006f58:	000f4240 	.word	0x000f4240
10006f5c:	200021b0 	.word	0x200021b0
10006f60:	0007a120 	.word	0x0007a120
10006f64:	20001510 	.word	0x20001510

10006f68 <low_priority_worker_irq>:
10006f68:	b510      	push	{r4, lr}
10006f6a:	2100      	movs	r1, #0
10006f6c:	b084      	sub	sp, #16
10006f6e:	4832      	ldr	r0, [pc, #200]	@ (10007038 <low_priority_worker_irq+0xd0>)
10006f70:	f002 fb72 	bl	10009658 <__mutex_try_enter_veneer>
10006f74:	bb28      	cbnz	r0, 10006fc2 <low_priority_worker_irq+0x5a>
10006f76:	4b31      	ldr	r3, [pc, #196]	@ (1000703c <low_priority_worker_irq+0xd4>)
10006f78:	681a      	ldr	r2, [r3, #0]
10006f7a:	b302      	cbz	r2, 10006fbe <low_priority_worker_irq+0x56>
10006f7c:	f3ef 8110 	mrs	r1, PRIMASK
10006f80:	b672      	cpsid	i
10006f82:	e8d2 efcf 	ldaexb	lr, [r2]
10006f86:	f05f 0c01 	movs.w	ip, #1
10006f8a:	f1be 0f00 	cmp.w	lr, #0
10006f8e:	d1f8      	bne.n	10006f82 <low_priority_worker_irq+0x1a>
10006f90:	e8c2 cf4e 	strexb	lr, ip, [r2]
10006f94:	f1be 0f00 	cmp.w	lr, #0
10006f98:	d1f3      	bne.n	10006f82 <low_priority_worker_irq+0x1a>
10006f9a:	f3bf 8f5f 	dmb	sy
10006f9e:	f8df c0a8 	ldr.w	ip, [pc, #168]	@ 10007048 <low_priority_worker_irq+0xe0>
10006fa2:	f8d3 e000 	ldr.w	lr, [r3]
10006fa6:	f89c 2000 	ldrb.w	r2, [ip]
10006faa:	6059      	str	r1, [r3, #4]
10006fac:	b2d3      	uxtb	r3, r2
10006fae:	2201      	movs	r2, #1
10006fb0:	f88c 2000 	strb.w	r2, [ip]
10006fb4:	e8ce 0f8f 	stlb	r0, [lr]
10006fb8:	f381 8810 	msr	PRIMASK, r1
10006fbc:	b1cb      	cbz	r3, 10006ff2 <low_priority_worker_irq+0x8a>
10006fbe:	b004      	add	sp, #16
10006fc0:	bd10      	pop	{r4, pc}
10006fc2:	2100      	movs	r1, #0
10006fc4:	f04f 30ff 	mov.w	r0, #4294967295
10006fc8:	f000 fc3a 	bl	10007840 <tud_task_ext>
10006fcc:	2000      	movs	r0, #0
10006fce:	f001 fa63 	bl	10008498 <tud_cdc_n_available>
10006fd2:	4604      	mov	r4, r0
10006fd4:	4818      	ldr	r0, [pc, #96]	@ (10007038 <low_priority_worker_irq+0xd0>)
10006fd6:	f002 fb2b 	bl	10009630 <__mutex_exit_veneer>
10006fda:	2c00      	cmp	r4, #0
10006fdc:	d0ef      	beq.n	10006fbe <low_priority_worker_irq+0x56>
10006fde:	4b18      	ldr	r3, [pc, #96]	@ (10007040 <low_priority_worker_irq+0xd8>)
10006fe0:	681b      	ldr	r3, [r3, #0]
10006fe2:	2b00      	cmp	r3, #0
10006fe4:	d0eb      	beq.n	10006fbe <low_priority_worker_irq+0x56>
10006fe6:	4a17      	ldr	r2, [pc, #92]	@ (10007044 <low_priority_worker_irq+0xdc>)
10006fe8:	6810      	ldr	r0, [r2, #0]
10006fea:	b004      	add	sp, #16
10006fec:	e8bd 4010 	ldmia.w	sp!, {r4, lr}
10006ff0:	4718      	bx	r3
10006ff2:	f7fd fa2f 	bl	10004454 <alarm_pool_get_default>
10006ff6:	4604      	mov	r4, r0
10006ff8:	f7fd fbe2 	bl	100047c0 <time_us_64>
10006ffc:	f04f 3eff 	mov.w	lr, #4294967295
10007000:	f06f 4c00 	mvn.w	ip, #2147483648	@ 0x80000000
10007004:	f510 727a 	adds.w	r2, r0, #1000	@ 0x3e8
10007008:	f141 0300 	adc.w	r3, r1, #0
1000700c:	4596      	cmp	lr, r2
1000700e:	eb7c 0103 	sbcs.w	r1, ip, r3
10007012:	bf38      	it	cc
10007014:	4663      	movcc	r3, ip
10007016:	f04f 0100 	mov.w	r1, #0
1000701a:	f04f 0c01 	mov.w	ip, #1
1000701e:	bf38      	it	cc
10007020:	4672      	movcc	r2, lr
10007022:	f8df e028 	ldr.w	lr, [pc, #40]	@ 1000704c <low_priority_worker_irq+0xe4>
10007026:	4620      	mov	r0, r4
10007028:	e9cd 1c01 	strd	r1, ip, [sp, #4]
1000702c:	f8cd e000 	str.w	lr, [sp]
10007030:	f7fd fa14 	bl	1000445c <alarm_pool_add_alarm_at>
10007034:	b004      	add	sp, #16
10007036:	bd10      	pop	{r4, pc}
10007038:	200021b0 	.word	0x200021b0
1000703c:	20001ee0 	.word	0x20001ee0
10007040:	20001a48 	.word	0x20001a48
10007044:	20001a4c 	.word	0x20001a4c
10007048:	200222da 	.word	0x200222da
1000704c:	10006d21 	.word	0x10006d21

10007050 <stdio_usb_init>:
10007050:	f04f 4350 	mov.w	r3, #3489660928	@ 0xd0000000
10007054:	b530      	push	{r4, r5, lr}
10007056:	b085      	sub	sp, #20
10007058:	681c      	ldr	r4, [r3, #0]
1000705a:	f7fd f9fb 	bl	10004454 <alarm_pool_get_default>
1000705e:	f7fd fb17 	bl	10004690 <alarm_pool_core_num>
10007062:	42a0      	cmp	r0, r4
10007064:	d002      	beq.n	1000706c <stdio_usb_init+0x1c>
10007066:	2000      	movs	r0, #0
10007068:	b005      	add	sp, #20
1000706a:	bd30      	pop	{r4, r5, pc}
1000706c:	2100      	movs	r1, #0
1000706e:	4b2c      	ldr	r3, [pc, #176]	@ (10007120 <stdio_usb_init+0xd0>)
10007070:	4608      	mov	r0, r1
10007072:	781b      	ldrb	r3, [r3, #0]
10007074:	f001 fdac 	bl	10008bd0 <tusb_rhport_init>
10007078:	482a      	ldr	r0, [pc, #168]	@ (10007124 <stdio_usb_init+0xd4>)
1000707a:	6803      	ldr	r3, [r0, #0]
1000707c:	2b00      	cmp	r3, #0
1000707e:	d04b      	beq.n	10007118 <stdio_usb_init+0xc8>
10007080:	2001      	movs	r0, #1
10007082:	f7fc ff6b 	bl	10003f5c <user_irq_claim_unused>
10007086:	4603      	mov	r3, r0
10007088:	4c27      	ldr	r4, [pc, #156]	@ (10007128 <stdio_usb_init+0xd8>)
1000708a:	4928      	ldr	r1, [pc, #160]	@ (1000712c <stdio_usb_init+0xdc>)
1000708c:	b2c0      	uxtb	r0, r0
1000708e:	7023      	strb	r3, [r4, #0]
10007090:	f7fc fdb8 	bl	10003c04 <irq_set_exclusive_handler>
10007094:	7820      	ldrb	r0, [r4, #0]
10007096:	2101      	movs	r1, #1
10007098:	f7fc fd72 	bl	10003b80 <irq_set_enabled>
1000709c:	200e      	movs	r0, #14
1000709e:	f7fc fda1 	bl	10003be4 <irq_has_shared_handler>
100070a2:	bb60      	cbnz	r0, 100070fe <stdio_usb_init+0xae>
100070a4:	4b22      	ldr	r3, [pc, #136]	@ (10007130 <stdio_usb_init+0xe0>)
100070a6:	f06f 4400 	mvn.w	r4, #2147483648	@ 0x80000000
100070aa:	e9c3 0000 	strd	r0, r0, [r3]
100070ae:	f7fd f9d1 	bl	10004454 <alarm_pool_get_default>
100070b2:	4605      	mov	r5, r0
100070b4:	f7fd fb84 	bl	100047c0 <time_us_64>
100070b8:	f04f 3cff 	mov.w	ip, #4294967295
100070bc:	f510 727a 	adds.w	r2, r0, #1000	@ 0x3e8
100070c0:	f141 0300 	adc.w	r3, r1, #0
100070c4:	4594      	cmp	ip, r2
100070c6:	eb74 0103 	sbcs.w	r1, r4, r3
100070ca:	bf38      	it	cc
100070cc:	4623      	movcc	r3, r4
100070ce:	f04f 0100 	mov.w	r1, #0
100070d2:	f04f 0401 	mov.w	r4, #1
100070d6:	bf38      	it	cc
100070d8:	4662      	movcc	r2, ip
100070da:	f8df c060 	ldr.w	ip, [pc, #96]	@ 1000713c <stdio_usb_init+0xec>
100070de:	4628      	mov	r0, r5
100070e0:	e9cd 1401 	strd	r1, r4, [sp, #4]
100070e4:	f8cd c000 	str.w	ip, [sp]
100070e8:	f7fd f9b8 	bl	1000445c <alarm_pool_add_alarm_at>
100070ec:	2800      	cmp	r0, #0
100070ee:	dbba      	blt.n	10007066 <stdio_usb_init+0x16>
100070f0:	2101      	movs	r1, #1
100070f2:	4810      	ldr	r0, [pc, #64]	@ (10007134 <stdio_usb_init+0xe4>)
100070f4:	f7ff fcb4 	bl	10006a60 <stdio_set_driver_enabled>
100070f8:	2001      	movs	r0, #1
100070fa:	b005      	add	sp, #20
100070fc:	bd30      	pop	{r4, r5, pc}
100070fe:	2001      	movs	r0, #1
10007100:	f7fc fcf8 	bl	10003af4 <spin_lock_claim_unused>
10007104:	4601      	mov	r1, r0
10007106:	480a      	ldr	r0, [pc, #40]	@ (10007130 <stdio_usb_init+0xe0>)
10007108:	f7fc ff8a 	bl	10004020 <critical_section_init_with_lock_num>
1000710c:	2200      	movs	r2, #0
1000710e:	200e      	movs	r0, #14
10007110:	4909      	ldr	r1, [pc, #36]	@ (10007138 <stdio_usb_init+0xe8>)
10007112:	f7fc fdaf 	bl	10003c74 <irq_add_shared_handler>
10007116:	e7eb      	b.n	100070f0 <stdio_usb_init+0xa0>
10007118:	f7fc ff66 	bl	10003fe8 <mutex_init>
1000711c:	e7b0      	b.n	10007080 <stdio_usb_init+0x30>
1000711e:	bf00      	nop
10007120:	10009b20 	.word	0x10009b20
10007124:	200021b0 	.word	0x200021b0
10007128:	200222d9 	.word	0x200222d9
1000712c:	10006f69 	.word	0x10006f69
10007130:	20001ee0 	.word	0x20001ee0
10007134:	2000127c 	.word	0x2000127c
10007138:	10006d91 	.word	0x10006d91
1000713c:	10006d21 	.word	0x10006d21

10007140 <tud_descriptor_device_cb>:
10007140:	4800      	ldr	r0, [pc, #0]	@ (10007144 <tud_descriptor_device_cb+0x4>)
10007142:	4770      	bx	lr
10007144:	10009aa8 	.word	0x10009aa8

10007148 <tud_descriptor_configuration_cb>:
10007148:	4800      	ldr	r0, [pc, #0]	@ (1000714c <tud_descriptor_configuration_cb+0x4>)
1000714a:	4770      	bx	lr
1000714c:	10009a54 	.word	0x10009a54

10007150 <tud_descriptor_string_cb>:
10007150:	b500      	push	{lr}
10007152:	4a1c      	ldr	r2, [pc, #112]	@ (100071c4 <tud_descriptor_string_cb+0x74>)
10007154:	4603      	mov	r3, r0
10007156:	7811      	ldrb	r1, [r2, #0]
10007158:	b083      	sub	sp, #12
1000715a:	b331      	cbz	r1, 100071aa <tud_descriptor_string_cb+0x5a>
1000715c:	b963      	cbnz	r3, 10007178 <tud_descriptor_string_cb+0x28>
1000715e:	f240 4209 	movw	r2, #1033	@ 0x409
10007162:	f44f 7341 	mov.w	r3, #772	@ 0x304
10007166:	f8df c060 	ldr.w	ip, [pc, #96]	@ 100071c8 <tud_descriptor_string_cb+0x78>
1000716a:	f8ac 2002 	strh.w	r2, [ip, #2]
1000716e:	4816      	ldr	r0, [pc, #88]	@ (100071c8 <tud_descriptor_string_cb+0x78>)
10007170:	f8ac 3000 	strh.w	r3, [ip]
10007174:	b003      	add	sp, #12
10007176:	bd00      	pop	{pc}
10007178:	2b05      	cmp	r3, #5
1000717a:	d820      	bhi.n	100071be <tud_descriptor_string_cb+0x6e>
1000717c:	4a13      	ldr	r2, [pc, #76]	@ (100071cc <tud_descriptor_string_cb+0x7c>)
1000717e:	f8df c048 	ldr.w	ip, [pc, #72]	@ 100071c8 <tud_descriptor_string_cb+0x78>
10007182:	f852 1023 	ldr.w	r1, [r2, r3, lsl #2]
10007186:	4660      	mov	r0, ip
10007188:	2300      	movs	r3, #0
1000718a:	3901      	subs	r1, #1
1000718c:	e003      	b.n	10007196 <tud_descriptor_string_cb+0x46>
1000718e:	2b13      	cmp	r3, #19
10007190:	f820 2f02 	strh.w	r2, [r0, #2]!
10007194:	d010      	beq.n	100071b8 <tud_descriptor_string_cb+0x68>
10007196:	f811 2f01 	ldrb.w	r2, [r1, #1]!
1000719a:	3301      	adds	r3, #1
1000719c:	b2db      	uxtb	r3, r3
1000719e:	2a00      	cmp	r2, #0
100071a0:	d1f5      	bne.n	1000718e <tud_descriptor_string_cb+0x3e>
100071a2:	005b      	lsls	r3, r3, #1
100071a4:	f443 7340 	orr.w	r3, r3, #768	@ 0x300
100071a8:	e7e1      	b.n	1000716e <tud_descriptor_string_cb+0x1e>
100071aa:	9001      	str	r0, [sp, #4]
100071ac:	2111      	movs	r1, #17
100071ae:	4610      	mov	r0, r2
100071b0:	f000 f824 	bl	100071fc <pico_get_unique_board_id_string>
100071b4:	9b01      	ldr	r3, [sp, #4]
100071b6:	e7d1      	b.n	1000715c <tud_descriptor_string_cb+0xc>
100071b8:	f44f 734a 	mov.w	r3, #808	@ 0x328
100071bc:	e7d7      	b.n	1000716e <tud_descriptor_string_cb+0x1e>
100071be:	2000      	movs	r0, #0
100071c0:	e7d8      	b.n	10007174 <tud_descriptor_string_cb+0x24>
100071c2:	bf00      	nop
100071c4:	200221d4 	.word	0x200221d4
100071c8:	20001a80 	.word	0x20001a80
100071cc:	10009a3c 	.word	0x10009a3c

100071d0 <_retrieve_unique_id_on_boot>:
100071d0:	b500      	push	{lr}
100071d2:	f245 3047 	movw	r0, #21319	@ 0x5347
100071d6:	b08b      	sub	sp, #44	@ 0x2c
100071d8:	f7fd fbc2 	bl	10004960 <rom_func_lookup>
100071dc:	2201      	movs	r2, #1
100071de:	4603      	mov	r3, r0
100071e0:	2109      	movs	r1, #9
100071e2:	a801      	add	r0, sp, #4
100071e4:	4798      	blx	r3
100071e6:	e9dd 3203 	ldrd	r3, r2, [sp, #12]
100071ea:	4903      	ldr	r1, [pc, #12]	@ (100071f8 <_retrieve_unique_id_on_boot+0x28>)
100071ec:	ba12      	rev	r2, r2
100071ee:	ba1b      	rev	r3, r3
100071f0:	e9c1 2300 	strd	r2, r3, [r1]
100071f4:	b00b      	add	sp, #44	@ 0x2c
100071f6:	bd00      	pop	{pc}
100071f8:	200021a4 	.word	0x200021a4

100071fc <pico_get_unique_board_id_string>:
100071fc:	2901      	cmp	r1, #1
100071fe:	f000 80bb 	beq.w	10007378 <pico_get_unique_board_id_string+0x17c>
10007202:	4a61      	ldr	r2, [pc, #388]	@ (10007388 <pico_get_unique_board_id_string+0x18c>)
10007204:	3901      	subs	r1, #1
10007206:	7813      	ldrb	r3, [r2, #0]
10007208:	ea4f 1c23 	mov.w	ip, r3, asr #4
1000720c:	f1bc 0f09 	cmp.w	ip, #9
10007210:	bfcc      	ite	gt
10007212:	f10c 0c37 	addgt.w	ip, ip, #55	@ 0x37
10007216:	f10c 0c30 	addle.w	ip, ip, #48	@ 0x30
1000721a:	2901      	cmp	r1, #1
1000721c:	f880 c000 	strb.w	ip, [r0]
10007220:	f000 80ad 	beq.w	1000737e <pico_get_unique_board_id_string+0x182>
10007224:	f003 030f 	and.w	r3, r3, #15
10007228:	2b09      	cmp	r3, #9
1000722a:	bf8c      	ite	hi
1000722c:	3337      	addhi	r3, #55	@ 0x37
1000722e:	3330      	addls	r3, #48	@ 0x30
10007230:	2902      	cmp	r1, #2
10007232:	7043      	strb	r3, [r0, #1]
10007234:	f000 80a3 	beq.w	1000737e <pico_get_unique_board_id_string+0x182>
10007238:	7853      	ldrb	r3, [r2, #1]
1000723a:	ea4f 1c23 	mov.w	ip, r3, asr #4
1000723e:	f1bc 0f09 	cmp.w	ip, #9
10007242:	bfcc      	ite	gt
10007244:	f10c 0c37 	addgt.w	ip, ip, #55	@ 0x37
10007248:	f10c 0c30 	addle.w	ip, ip, #48	@ 0x30
1000724c:	2903      	cmp	r1, #3
1000724e:	f880 c002 	strb.w	ip, [r0, #2]
10007252:	f000 8094 	beq.w	1000737e <pico_get_unique_board_id_string+0x182>
10007256:	f003 030f 	and.w	r3, r3, #15
1000725a:	2b09      	cmp	r3, #9
1000725c:	bf8c      	ite	hi
1000725e:	3337      	addhi	r3, #55	@ 0x37
10007260:	3330      	addls	r3, #48	@ 0x30
10007262:	2904      	cmp	r1, #4
10007264:	70c3      	strb	r3, [r0, #3]
10007266:	f000 808a 	beq.w	1000737e <pico_get_unique_board_id_string+0x182>
1000726a:	7893      	ldrb	r3, [r2, #2]
1000726c:	ea4f 1c23 	mov.w	ip, r3, asr #4
10007270:	f1bc 0f09 	cmp.w	ip, #9
10007274:	bfcc      	ite	gt
10007276:	f10c 0c37 	addgt.w	ip, ip, #55	@ 0x37
1000727a:	f10c 0c30 	addle.w	ip, ip, #48	@ 0x30
1000727e:	2905      	cmp	r1, #5
10007280:	f880 c004 	strb.w	ip, [r0, #4]
10007284:	d07b      	beq.n	1000737e <pico_get_unique_board_id_string+0x182>
10007286:	f003 030f 	and.w	r3, r3, #15
1000728a:	2b09      	cmp	r3, #9
1000728c:	bf8c      	ite	hi
1000728e:	3337      	addhi	r3, #55	@ 0x37
10007290:	3330      	addls	r3, #48	@ 0x30
10007292:	2906      	cmp	r1, #6
10007294:	7143      	strb	r3, [r0, #5]
10007296:	d072      	beq.n	1000737e <pico_get_unique_board_id_string+0x182>
10007298:	78d3      	ldrb	r3, [r2, #3]
1000729a:	ea4f 1c23 	mov.w	ip, r3, asr #4
1000729e:	f1bc 0f09 	cmp.w	ip, #9
100072a2:	bfcc      	ite	gt
100072a4:	f10c 0c37 	addgt.w	ip, ip, #55	@ 0x37
100072a8:	f10c 0c30 	addle.w	ip, ip, #48	@ 0x30
100072ac:	2907      	cmp	r1, #7
100072ae:	f880 c006 	strb.w	ip, [r0, #6]
100072b2:	d064      	beq.n	1000737e <pico_get_unique_board_id_string+0x182>
100072b4:	f003 030f 	and.w	r3, r3, #15
100072b8:	2b09      	cmp	r3, #9
100072ba:	bf8c      	ite	hi
100072bc:	3337      	addhi	r3, #55	@ 0x37
100072be:	3330      	addls	r3, #48	@ 0x30
100072c0:	2908      	cmp	r1, #8
100072c2:	71c3      	strb	r3, [r0, #7]
100072c4:	d05b      	beq.n	1000737e <pico_get_unique_board_id_string+0x182>
100072c6:	7913      	ldrb	r3, [r2, #4]
100072c8:	ea4f 1c23 	mov.w	ip, r3, asr #4
100072cc:	f1bc 0f09 	cmp.w	ip, #9
100072d0:	bfcc      	ite	gt
100072d2:	f10c 0c37 	addgt.w	ip, ip, #55	@ 0x37
100072d6:	f10c 0c30 	addle.w	ip, ip, #48	@ 0x30
100072da:	2909      	cmp	r1, #9
100072dc:	f880 c008 	strb.w	ip, [r0, #8]
100072e0:	d04d      	beq.n	1000737e <pico_get_unique_board_id_string+0x182>
100072e2:	f003 030f 	and.w	r3, r3, #15
100072e6:	2b09      	cmp	r3, #9
100072e8:	bf8c      	ite	hi
100072ea:	3337      	addhi	r3, #55	@ 0x37
100072ec:	3330      	addls	r3, #48	@ 0x30
100072ee:	290a      	cmp	r1, #10
100072f0:	7243      	strb	r3, [r0, #9]
100072f2:	d044      	beq.n	1000737e <pico_get_unique_board_id_string+0x182>
100072f4:	7953      	ldrb	r3, [r2, #5]
100072f6:	ea4f 1c23 	mov.w	ip, r3, asr #4
100072fa:	f1bc 0f09 	cmp.w	ip, #9
100072fe:	bfcc      	ite	gt
10007300:	f10c 0c37 	addgt.w	ip, ip, #55	@ 0x37
10007304:	f10c 0c30 	addle.w	ip, ip, #48	@ 0x30
10007308:	290b      	cmp	r1, #11
1000730a:	f880 c00a 	strb.w	ip, [r0, #10]
1000730e:	d036      	beq.n	1000737e <pico_get_unique_board_id_string+0x182>
10007310:	f003 030f 	and.w	r3, r3, #15
10007314:	2b09      	cmp	r3, #9
10007316:	bf8c      	ite	hi
10007318:	3337      	addhi	r3, #55	@ 0x37
1000731a:	3330      	addls	r3, #48	@ 0x30
1000731c:	290c      	cmp	r1, #12
1000731e:	72c3      	strb	r3, [r0, #11]
10007320:	d02d      	beq.n	1000737e <pico_get_unique_board_id_string+0x182>
10007322:	7993      	ldrb	r3, [r2, #6]
10007324:	ea4f 1c23 	mov.w	ip, r3, asr #4
10007328:	f1bc 0f09 	cmp.w	ip, #9
1000732c:	bfcc      	ite	gt
1000732e:	f10c 0c37 	addgt.w	ip, ip, #55	@ 0x37
10007332:	f10c 0c30 	addle.w	ip, ip, #48	@ 0x30
10007336:	290d      	cmp	r1, #13
10007338:	f880 c00c 	strb.w	ip, [r0, #12]
1000733c:	d01f      	beq.n	1000737e <pico_get_unique_board_id_string+0x182>
1000733e:	f003 030f 	and.w	r3, r3, #15
10007342:	2b09      	cmp	r3, #9
10007344:	bf8c      	ite	hi
10007346:	3337      	addhi	r3, #55	@ 0x37
10007348:	3330      	addls	r3, #48	@ 0x30
1000734a:	290e      	cmp	r1, #14
1000734c:	7343      	strb	r3, [r0, #13]
1000734e:	d016      	beq.n	1000737e <pico_get_unique_board_id_string+0x182>
10007350:	79d3      	ldrb	r3, [r2, #7]
10007352:	111a      	asrs	r2, r3, #4
10007354:	2a09      	cmp	r2, #9
10007356:	bfcc      	ite	gt
10007358:	3237      	addgt	r2, #55	@ 0x37
1000735a:	3230      	addle	r2, #48	@ 0x30
1000735c:	290f      	cmp	r1, #15
1000735e:	7382      	strb	r2, [r0, #14]
10007360:	d00d      	beq.n	1000737e <pico_get_unique_board_id_string+0x182>
10007362:	f003 030f 	and.w	r3, r3, #15
10007366:	2b09      	cmp	r3, #9
10007368:	bf94      	ite	ls
1000736a:	3330      	addls	r3, #48	@ 0x30
1000736c:	3337      	addhi	r3, #55	@ 0x37
1000736e:	2910      	cmp	r1, #16
10007370:	73c3      	strb	r3, [r0, #15]
10007372:	bf18      	it	ne
10007374:	3010      	addne	r0, #16
10007376:	d002      	beq.n	1000737e <pico_get_unique_board_id_string+0x182>
10007378:	2300      	movs	r3, #0
1000737a:	7003      	strb	r3, [r0, #0]
1000737c:	4770      	bx	lr
1000737e:	2300      	movs	r3, #0
10007380:	4408      	add	r0, r1
10007382:	7003      	strb	r3, [r0, #0]
10007384:	4770      	bx	lr
10007386:	bf00      	nop
10007388:	200021a4 	.word	0x200021a4

1000738c <dcd_init>:
1000738c:	b510      	push	{r4, lr}
1000738e:	f000 f939 	bl	10007604 <rp2040_usb_init>
10007392:	230c      	movs	r3, #12
10007394:	4c1c      	ldr	r4, [pc, #112]	@ (10007408 <dcd_init+0x7c>)
10007396:	22ff      	movs	r2, #255	@ 0xff
10007398:	67a3      	str	r3, [r4, #120]	@ 0x78
1000739a:	200e      	movs	r0, #14
1000739c:	491b      	ldr	r1, [pc, #108]	@ (1000740c <dcd_init+0x80>)
1000739e:	f7fc fc69 	bl	10003c74 <irq_add_shared_handler>
100073a2:	2240      	movs	r2, #64	@ 0x40
100073a4:	2100      	movs	r1, #0
100073a6:	481a      	ldr	r0, [pc, #104]	@ (10007410 <dcd_init+0x84>)
100073a8:	f002 f844 	bl	10009434 <memset>
100073ac:	f04f 0c80 	mov.w	ip, #128	@ 0x80
100073b0:	2001      	movs	r0, #1
100073b2:	4a17      	ldr	r2, [pc, #92]	@ (10007410 <dcd_init+0x84>)
100073b4:	2300      	movs	r3, #0
100073b6:	f8a2 c022 	strh.w	ip, [r2, #34]	@ 0x22
100073ba:	7050      	strb	r0, [r2, #1]
100073bc:	4610      	mov	r0, r2
100073be:	2240      	movs	r2, #64	@ 0x40
100073c0:	4914      	ldr	r1, [pc, #80]	@ (10007414 <dcd_init+0x88>)
100073c2:	8302      	strh	r2, [r0, #24]
100073c4:	8702      	strh	r2, [r0, #56]	@ 0x38
100073c6:	4a14      	ldr	r2, [pc, #80]	@ (10007418 <dcd_init+0x8c>)
100073c8:	6081      	str	r1, [r0, #8]
100073ca:	6043      	str	r3, [r0, #4]
100073cc:	f8c2 3084 	str.w	r3, [r2, #132]	@ 0x84
100073d0:	f8c2 3080 	str.w	r3, [r2, #128]	@ 0x80
100073d4:	f880 3021 	strb.w	r3, [r0, #33]	@ 0x21
100073d8:	f880 303b 	strb.w	r3, [r0, #59]	@ 0x3b
100073dc:	6243      	str	r3, [r0, #36]	@ 0x24
100073de:	4b0f      	ldr	r3, [pc, #60]	@ (1000741c <dcd_init+0x90>)
100073e0:	60c3      	str	r3, [r0, #12]
100073e2:	62c3      	str	r3, [r0, #44]	@ 0x2c
100073e4:	3b80      	subs	r3, #128	@ 0x80
100073e6:	6283      	str	r3, [r0, #40]	@ 0x28
100073e8:	f002 f916 	bl	10009618 <__reset_non_control_endpoints_veneer>
100073ec:	f04f 5c00 	mov.w	ip, #536870912	@ 0x20000000
100073f0:	f44f 3280 	mov.w	r2, #65536	@ 0x10000
100073f4:	2001      	movs	r0, #1
100073f6:	490a      	ldr	r1, [pc, #40]	@ (10007420 <dcd_init+0x94>)
100073f8:	4b0a      	ldr	r3, [pc, #40]	@ (10007424 <dcd_init+0x98>)
100073fa:	6420      	str	r0, [r4, #64]	@ 0x40
100073fc:	f8c4 c04c 	str.w	ip, [r4, #76]	@ 0x4c
10007400:	f8c4 1090 	str.w	r1, [r4, #144]	@ 0x90
10007404:	64da      	str	r2, [r3, #76]	@ 0x4c
10007406:	bd10      	pop	{r4, pc}
10007408:	50110000 	.word	0x50110000
1000740c:	200003ad 	.word	0x200003ad
10007410:	20001ab8 	.word	0x20001ab8
10007414:	50100084 	.word	0x50100084
10007418:	50100000 	.word	0x50100000
1000741c:	50100100 	.word	0x50100100
10007420:	0001d010 	.word	0x0001d010
10007424:	50112000 	.word	0x50112000

10007428 <dcd_int_enable>:
10007428:	2101      	movs	r1, #1
1000742a:	200e      	movs	r0, #14
1000742c:	f7fc bba8 	b.w	10003b80 <irq_set_enabled>

10007430 <dcd_set_address>:
10007430:	2200      	movs	r2, #0
10007432:	4802      	ldr	r0, [pc, #8]	@ (1000743c <dcd_set_address+0xc>)
10007434:	4611      	mov	r1, r2
10007436:	f000 b905 	b.w	10007644 <hw_endpoint_xfer_start>
1000743a:	bf00      	nop
1000743c:	20001ad8 	.word	0x20001ad8

10007440 <dcd_sof_enable>:
10007440:	4b04      	ldr	r3, [pc, #16]	@ (10007454 <dcd_sof_enable+0x14>)
10007442:	7019      	strb	r1, [r3, #0]
10007444:	b121      	cbz	r1, 10007450 <dcd_sof_enable+0x10>
10007446:	f44f 3200 	mov.w	r2, #131072	@ 0x20000
1000744a:	4b03      	ldr	r3, [pc, #12]	@ (10007458 <dcd_sof_enable+0x18>)
1000744c:	f8c3 2090 	str.w	r2, [r3, #144]	@ 0x90
10007450:	4770      	bx	lr
10007452:	bf00      	nop
10007454:	200222d5 	.word	0x200222d5
10007458:	50112000 	.word	0x50112000

1000745c <dcd_edpt0_status_complete>:
1000745c:	780b      	ldrb	r3, [r1, #0]
1000745e:	065b      	lsls	r3, r3, #25
10007460:	d000      	beq.n	10007464 <dcd_edpt0_status_complete+0x8>
10007462:	4770      	bx	lr
10007464:	784b      	ldrb	r3, [r1, #1]
10007466:	2b05      	cmp	r3, #5
10007468:	d1fb      	bne.n	10007462 <dcd_edpt0_status_complete+0x6>
1000746a:	884b      	ldrh	r3, [r1, #2]
1000746c:	4a01      	ldr	r2, [pc, #4]	@ (10007474 <dcd_edpt0_status_complete+0x18>)
1000746e:	b2db      	uxtb	r3, r3
10007470:	6013      	str	r3, [r2, #0]
10007472:	e7f6      	b.n	10007462 <dcd_edpt0_status_complete+0x6>
10007474:	50110000 	.word	0x50110000

10007478 <dcd_edpt_open>:
10007478:	78cb      	ldrb	r3, [r1, #3]
1000747a:	f003 0c03 	and.w	ip, r3, #3
1000747e:	f1bc 0f01 	cmp.w	ip, #1
10007482:	f3c3 0001 	ubfx	r0, r3, #0, #2
10007486:	d062      	beq.n	1000754e <dcd_edpt_open+0xd6>
10007488:	e92d 41f0 	stmdb	sp!, {r4, r5, r6, r7, r8, lr}
1000748c:	2600      	movs	r6, #0
1000748e:	f891 e002 	ldrb.w	lr, [r1, #2]
10007492:	4c36      	ldr	r4, [pc, #216]	@ (1000756c <dcd_edpt_open+0xf4>)
10007494:	f00e 027f 	and.w	r2, lr, #127	@ 0x7f
10007498:	0053      	lsls	r3, r2, #1
1000749a:	8889      	ldrh	r1, [r1, #4]
1000749c:	4698      	mov	r8, r3
1000749e:	eb03 13de 	add.w	r3, r3, lr, lsr #7
100074a2:	eb04 1343 	add.w	r3, r4, r3, lsl #5
100074a6:	ea4f 15de 	mov.w	r5, lr, lsr #7
100074aa:	76d8      	strb	r0, [r3, #27]
100074ac:	f3c1 010a 	ubfx	r1, r1, #0, #11
100074b0:	f085 0001 	eor.w	r0, r5, #1
100074b4:	f883 e002 	strb.w	lr, [r3, #2]
100074b8:	8319      	strh	r1, [r3, #24]
100074ba:	7058      	strb	r0, [r3, #1]
100074bc:	70de      	strb	r6, [r3, #3]
100074be:	00d3      	lsls	r3, r2, #3
100074c0:	2d00      	cmp	r5, #0
100074c2:	d132      	bne.n	1000752a <dcd_edpt_open+0xb2>
100074c4:	482a      	ldr	r0, [pc, #168]	@ (10007570 <dcd_edpt_open+0xf8>)
100074c6:	3304      	adds	r3, #4
100074c8:	eb04 1e82 	add.w	lr, r4, r2, lsl #6
100074cc:	181f      	adds	r7, r3, r0
100074ce:	f8ce 7008 	str.w	r7, [lr, #8]
100074d2:	501e      	str	r6, [r3, r0]
100074d4:	b392      	cbz	r2, 1000753c <dcd_edpt_open+0xc4>
100074d6:	4b27      	ldr	r3, [pc, #156]	@ (10007574 <dcd_edpt_open+0xfc>)
100074d8:	eb03 03c2 	add.w	r3, r3, r2, lsl #3
100074dc:	f8ce 3004 	str.w	r3, [lr, #4]
100074e0:	313f      	adds	r1, #63	@ 0x3f
100074e2:	0989      	lsrs	r1, r1, #6
100074e4:	f1bc 0f02 	cmp.w	ip, #2
100074e8:	bf14      	ite	ne
100074ea:	018b      	lslne	r3, r1, #6
100074ec:	01cb      	lsleq	r3, r1, #7
100074ee:	4922      	ldr	r1, [pc, #136]	@ (10007578 <dcd_edpt_open+0x100>)
100074f0:	eb08 0605 	add.w	r6, r8, r5
100074f4:	680a      	ldr	r2, [r1, #0]
100074f6:	eb04 1646 	add.w	r6, r4, r6, lsl #5
100074fa:	4413      	add	r3, r2
100074fc:	600b      	str	r3, [r1, #0]
100074fe:	491f      	ldr	r1, [pc, #124]	@ (1000757c <dcd_edpt_open+0x104>)
10007500:	60f2      	str	r2, [r6, #12]
10007502:	428b      	cmp	r3, r1
10007504:	d82d      	bhi.n	10007562 <dcd_edpt_open+0xea>
10007506:	eb08 0305 	add.w	r3, r8, r5
1000750a:	eb04 1443 	add.w	r4, r4, r3, lsl #5
1000750e:	7ee1      	ldrb	r1, [r4, #27]
10007510:	f082 42a0 	eor.w	r2, r2, #1342177280	@ 0x50000000
10007514:	f482 1280 	eor.w	r2, r2, #1048576	@ 0x100000
10007518:	6863      	ldr	r3, [r4, #4]
1000751a:	ea42 6281 	orr.w	r2, r2, r1, lsl #26
1000751e:	f042 4200 	orr.w	r2, r2, #2147483648	@ 0x80000000
10007522:	2001      	movs	r0, #1
10007524:	601a      	str	r2, [r3, #0]
10007526:	e8bd 81f0 	ldmia.w	sp!, {r4, r5, r6, r7, r8, pc}
1000752a:	4811      	ldr	r0, [pc, #68]	@ (10007570 <dcd_edpt_open+0xf8>)
1000752c:	eb04 1e82 	add.w	lr, r4, r2, lsl #6
10007530:	4403      	add	r3, r0
10007532:	f8ce 3028 	str.w	r3, [lr, #40]	@ 0x28
10007536:	f840 6032 	str.w	r6, [r0, r2, lsl #3]
1000753a:	b952      	cbnz	r2, 10007552 <dcd_edpt_open+0xda>
1000753c:	4613      	mov	r3, r2
1000753e:	4a10      	ldr	r2, [pc, #64]	@ (10007580 <dcd_edpt_open+0x108>)
10007540:	eb04 1445 	add.w	r4, r4, r5, lsl #5
10007544:	2001      	movs	r0, #1
10007546:	60e2      	str	r2, [r4, #12]
10007548:	6063      	str	r3, [r4, #4]
1000754a:	e8bd 81f0 	ldmia.w	sp!, {r4, r5, r6, r7, r8, pc}
1000754e:	2000      	movs	r0, #0
10007550:	4770      	bx	lr
10007552:	00d2      	lsls	r2, r2, #3
10007554:	f102 42a0 	add.w	r2, r2, #1342177280	@ 0x50000000
10007558:	f502 1280 	add.w	r2, r2, #1048576	@ 0x100000
1000755c:	f8ce 2024 	str.w	r2, [lr, #36]	@ 0x24
10007560:	e7be      	b.n	100074e0 <dcd_edpt_open+0x68>
10007562:	f7fd fb65 	bl	10004c30 <hard_assertion_failure>
10007566:	68f2      	ldr	r2, [r6, #12]
10007568:	e7cd      	b.n	10007506 <dcd_edpt_open+0x8e>
1000756a:	bf00      	nop
1000756c:	20001ab8 	.word	0x20001ab8
10007570:	50100080 	.word	0x50100080
10007574:	50100004 	.word	0x50100004
10007578:	20001ec4 	.word	0x20001ec4
1000757c:	50100fff 	.word	0x50100fff
10007580:	50100100 	.word	0x50100100

10007584 <dcd_edpt_close_all>:
10007584:	f002 b848 	b.w	10009618 <__reset_non_control_endpoints_veneer>

10007588 <dcd_edpt_xfer>:
10007588:	b508      	push	{r3, lr}
1000758a:	4696      	mov	lr, r2
1000758c:	f8df c01c 	ldr.w	ip, [pc, #28]	@ 100075ac <dcd_edpt_xfer+0x24>
10007590:	f001 027f 	and.w	r2, r1, #127	@ 0x7f
10007594:	09c8      	lsrs	r0, r1, #7
10007596:	eb00 0042 	add.w	r0, r0, r2, lsl #1
1000759a:	eb0c 1040 	add.w	r0, ip, r0, lsl #5
1000759e:	461a      	mov	r2, r3
100075a0:	4671      	mov	r1, lr
100075a2:	f000 f84f 	bl	10007644 <hw_endpoint_xfer_start>
100075a6:	2001      	movs	r0, #1
100075a8:	bd08      	pop	{r3, pc}
100075aa:	bf00      	nop
100075ac:	20001ab8 	.word	0x20001ab8

100075b0 <dcd_edpt_stall>:
100075b0:	f011 027f 	ands.w	r2, r1, #127	@ 0x7f
100075b4:	d105      	bne.n	100075c2 <dcd_edpt_stall+0x12>
100075b6:	2900      	cmp	r1, #0
100075b8:	bf0c      	ite	eq
100075ba:	2002      	moveq	r0, #2
100075bc:	2001      	movne	r0, #1
100075be:	4b06      	ldr	r3, [pc, #24]	@ (100075d8 <dcd_edpt_stall+0x28>)
100075c0:	6698      	str	r0, [r3, #104]	@ 0x68
100075c2:	09c9      	lsrs	r1, r1, #7
100075c4:	4b05      	ldr	r3, [pc, #20]	@ (100075dc <dcd_edpt_stall+0x2c>)
100075c6:	eb01 0042 	add.w	r0, r1, r2, lsl #1
100075ca:	eb03 1040 	add.w	r0, r3, r0, lsl #5
100075ce:	f44f 6200 	mov.w	r2, #2048	@ 0x800
100075d2:	2100      	movs	r1, #0
100075d4:	f002 b834 	b.w	10009640 <___hw_endpoint_buffer_control_update32_veneer>
100075d8:	50112000 	.word	0x50112000
100075dc:	20001ab8 	.word	0x20001ab8

100075e0 <dcd_edpt_clear_stall>:
100075e0:	f011 037f 	ands.w	r3, r1, #127	@ 0x7f
100075e4:	d100      	bne.n	100075e8 <dcd_edpt_clear_stall+0x8>
100075e6:	4770      	bx	lr
100075e8:	2200      	movs	r2, #0
100075ea:	4805      	ldr	r0, [pc, #20]	@ (10007600 <dcd_edpt_clear_stall+0x20>)
100075ec:	005b      	lsls	r3, r3, #1
100075ee:	eb03 13d1 	add.w	r3, r3, r1, lsr #7
100075f2:	eb00 1043 	add.w	r0, r0, r3, lsl #5
100075f6:	f46f 6100 	mvn.w	r1, #2048	@ 0x800
100075fa:	70c2      	strb	r2, [r0, #3]
100075fc:	f002 b820 	b.w	10009640 <___hw_endpoint_buffer_control_update32_veneer>
10007600:	20001ab8 	.word	0x20001ab8

10007604 <rp2040_usb_init>:
10007604:	f04f 5280 	mov.w	r2, #268435456	@ 0x10000000
10007608:	4809      	ldr	r0, [pc, #36]	@ (10007630 <rp2040_usb_init+0x2c>)
1000760a:	490a      	ldr	r1, [pc, #40]	@ (10007634 <rp2040_usb_init+0x30>)
1000760c:	b508      	push	{r3, lr}
1000760e:	4b0a      	ldr	r3, [pc, #40]	@ (10007638 <rp2040_usb_init+0x34>)
10007610:	6002      	str	r2, [r0, #0]
10007612:	600a      	str	r2, [r1, #0]
10007614:	6899      	ldr	r1, [r3, #8]
10007616:	43c9      	mvns	r1, r1
10007618:	f011 5180 	ands.w	r1, r1, #268435456	@ 0x10000000
1000761c:	d1fa      	bne.n	10007614 <rp2040_usb_init+0x10>
1000761e:	f44f 5280 	mov.w	r2, #4096	@ 0x1000
10007622:	4806      	ldr	r0, [pc, #24]	@ (1000763c <rp2040_usb_init+0x38>)
10007624:	f001 ff06 	bl	10009434 <memset>
10007628:	2209      	movs	r2, #9
1000762a:	4b05      	ldr	r3, [pc, #20]	@ (10007640 <rp2040_usb_init+0x3c>)
1000762c:	675a      	str	r2, [r3, #116]	@ 0x74
1000762e:	bd08      	pop	{r3, pc}
10007630:	40022000 	.word	0x40022000
10007634:	40023000 	.word	0x40023000
10007638:	40020000 	.word	0x40020000
1000763c:	50100000 	.word	0x50100000
10007640:	50110000 	.word	0x50110000

10007644 <hw_endpoint_xfer_start>:
10007644:	2300      	movs	r3, #0
10007646:	f04f 0c01 	mov.w	ip, #1
1000764a:	b510      	push	{r4, lr}
1000764c:	6101      	str	r1, [r0, #16]
1000764e:	f880 c01a 	strb.w	ip, [r0, #26]
10007652:	8282      	strh	r2, [r0, #20]
10007654:	82c3      	strh	r3, [r0, #22]
10007656:	4604      	mov	r4, r0
10007658:	f001 fffa 	bl	10009650 <__e15_is_bulkin_ep_veneer>
1000765c:	b120      	cbz	r0, 10007668 <hw_endpoint_xfer_start+0x24>
1000765e:	f44f 3200 	mov.w	r2, #131072	@ 0x20000
10007662:	4b07      	ldr	r3, [pc, #28]	@ (10007680 <hw_endpoint_xfer_start+0x3c>)
10007664:	f8c3 2090 	str.w	r2, [r3, #144]	@ 0x90
10007668:	4620      	mov	r0, r4
1000766a:	f001 ffcd 	bl	10009608 <__e15_is_critical_frame_period_veneer>
1000766e:	b110      	cbz	r0, 10007676 <hw_endpoint_xfer_start+0x32>
10007670:	2301      	movs	r3, #1
10007672:	7723      	strb	r3, [r4, #28]
10007674:	bd10      	pop	{r4, pc}
10007676:	4620      	mov	r0, r4
10007678:	e8bd 4010 	ldmia.w	sp!, {r4, lr}
1000767c:	f001 bfd0 	b.w	10009620 <__hw_endpoint_start_next_buffer_veneer>
10007680:	50112000 	.word	0x50112000

10007684 <configuration_reset>:
10007684:	e92d 41f0 	stmdb	sp!, {r4, r5, r6, r7, r8, lr}
10007688:	2400      	movs	r4, #0
1000768a:	4d1c      	ldr	r5, [pc, #112]	@ (100076fc <configuration_reset+0x78>)
1000768c:	4606      	mov	r6, r0
1000768e:	4623      	mov	r3, r4
10007690:	782a      	ldrb	r2, [r5, #0]
10007692:	f8df 8078 	ldr.w	r8, [pc, #120]	@ 1000770c <configuration_reset+0x88>
10007696:	4f1a      	ldr	r7, [pc, #104]	@ (10007700 <configuration_reset+0x7c>)
10007698:	e00d      	b.n	100076b6 <configuration_reset+0x32>
1000769a:	683b      	ldr	r3, [r7, #0]
1000769c:	eb13 1344 	adds.w	r3, r3, r4, lsl #5
100076a0:	d023      	beq.n	100076ea <configuration_reset+0x66>
100076a2:	68db      	ldr	r3, [r3, #12]
100076a4:	4630      	mov	r0, r6
100076a6:	4798      	blx	r3
100076a8:	782a      	ldrb	r2, [r5, #0]
100076aa:	3401      	adds	r4, #1
100076ac:	b2e4      	uxtb	r4, r4
100076ae:	1c51      	adds	r1, r2, #1
100076b0:	42a1      	cmp	r1, r4
100076b2:	4623      	mov	r3, r4
100076b4:	db06      	blt.n	100076c4 <configuration_reset+0x40>
100076b6:	42a2      	cmp	r2, r4
100076b8:	eba3 0302 	sub.w	r3, r3, r2
100076bc:	d8ed      	bhi.n	1000769a <configuration_reset+0x16>
100076be:	eb08 1343 	add.w	r3, r8, r3, lsl #5
100076c2:	e7ee      	b.n	100076a2 <configuration_reset+0x1e>
100076c4:	2254      	movs	r2, #84	@ 0x54
100076c6:	2100      	movs	r1, #0
100076c8:	480e      	ldr	r0, [pc, #56]	@ (10007704 <configuration_reset+0x80>)
100076ca:	f001 feb3 	bl	10009434 <memset>
100076ce:	f04f 33ff 	mov.w	r3, #4294967295
100076d2:	4c0c      	ldr	r4, [pc, #48]	@ (10007704 <configuration_reset+0x80>)
100076d4:	2220      	movs	r2, #32
100076d6:	e9c4 3301 	strd	r3, r3, [r4, #4]
100076da:	e9c4 3303 	strd	r3, r3, [r4, #12]
100076de:	21ff      	movs	r1, #255	@ 0xff
100076e0:	e8bd 41f0 	ldmia.w	sp!, {r4, r5, r6, r7, r8, lr}
100076e4:	4808      	ldr	r0, [pc, #32]	@ (10007708 <configuration_reset+0x84>)
100076e6:	f001 bea5 	b.w	10009434 <memset>
100076ea:	f04f 23e0 	mov.w	r3, #3758153728	@ 0xe000e000
100076ee:	f8d3 3df0 	ldr.w	r3, [r3, #3568]	@ 0xdf0
100076f2:	07db      	lsls	r3, r3, #31
100076f4:	d500      	bpl.n	100076f8 <configuration_reset+0x74>
100076f6:	be00      	bkpt	0x0000
100076f8:	e8bd 81f0 	ldmia.w	sp!, {r4, r5, r6, r7, r8, pc}
100076fc:	200222d4 	.word	0x200222d4
10007700:	20001558 	.word	0x20001558
10007704:	20001660 	.word	0x20001660
10007708:	20001674 	.word	0x20001674
1000770c:	10009abc 	.word	0x10009abc

10007710 <tud_event_hook_cb>:
10007710:	4770      	bx	lr
10007712:	bf00      	nop

10007714 <tud_sof_cb>:
10007714:	4770      	bx	lr
10007716:	bf00      	nop

10007718 <tud_descriptor_device_qualifier_cb>:
10007718:	2000      	movs	r0, #0
1000771a:	4770      	bx	lr

1000771c <tud_descriptor_other_speed_configuration_cb>:
1000771c:	2000      	movs	r0, #0
1000771e:	4770      	bx	lr

10007720 <tud_mount_cb>:
10007720:	4770      	bx	lr
10007722:	bf00      	nop

10007724 <tud_umount_cb>:
10007724:	4770      	bx	lr
10007726:	bf00      	nop

10007728 <tud_suspend_cb>:
10007728:	4770      	bx	lr
1000772a:	bf00      	nop

1000772c <tud_resume_cb>:
1000772c:	4770      	bx	lr
1000772e:	bf00      	nop

10007730 <tud_mounted>:
10007730:	4b02      	ldr	r3, [pc, #8]	@ (1000773c <tud_mounted+0xc>)
10007732:	7858      	ldrb	r0, [r3, #1]
10007734:	3800      	subs	r0, #0
10007736:	bf18      	it	ne
10007738:	2001      	movne	r0, #1
1000773a:	4770      	bx	lr
1000773c:	20001660 	.word	0x20001660

10007740 <tud_suspended>:
10007740:	4b02      	ldr	r3, [pc, #8]	@ (1000774c <tud_suspended+0xc>)
10007742:	7818      	ldrb	r0, [r3, #0]
10007744:	f3c0 0080 	ubfx	r0, r0, #2, #1
10007748:	4770      	bx	lr
1000774a:	bf00      	nop
1000774c:	20001660 	.word	0x20001660

10007750 <tud_rhport_init>:
10007750:	e92d 47f0 	stmdb	sp!, {r4, r5, r6, r7, r8, r9, sl, lr}
10007754:	f8df 80e4 	ldr.w	r8, [pc, #228]	@ 1000783c <tud_rhport_init+0xec>
10007758:	f898 3000 	ldrb.w	r3, [r8]
1000775c:	2bff      	cmp	r3, #255	@ 0xff
1000775e:	d153      	bne.n	10007808 <tud_rhport_init+0xb8>
10007760:	2900      	cmp	r1, #0
10007762:	d03c      	beq.n	100077de <tud_rhport_init+0x8e>
10007764:	2254      	movs	r2, #84	@ 0x54
10007766:	468a      	mov	sl, r1
10007768:	4681      	mov	r9, r0
1000776a:	2100      	movs	r1, #0
1000776c:	4828      	ldr	r0, [pc, #160]	@ (10007810 <tud_rhport_init+0xc0>)
1000776e:	f001 fe61 	bl	10009434 <memset>
10007772:	2200      	movs	r2, #0
10007774:	4c27      	ldr	r4, [pc, #156]	@ (10007814 <tud_rhport_init+0xc4>)
10007776:	4b28      	ldr	r3, [pc, #160]	@ (10007818 <tud_rhport_init+0xc8>)
10007778:	4620      	mov	r0, r4
1000777a:	701a      	strb	r2, [r3, #0]
1000777c:	f7fc fc34 	bl	10003fe8 <mutex_init>
10007780:	4b26      	ldr	r3, [pc, #152]	@ (1000781c <tud_rhport_init+0xcc>)
10007782:	4827      	ldr	r0, [pc, #156]	@ (10007820 <tud_rhport_init+0xd0>)
10007784:	601c      	str	r4, [r3, #0]
10007786:	4c27      	ldr	r4, [pc, #156]	@ (10007824 <tud_rhport_init+0xd4>)
10007788:	f7fc fc3c 	bl	10004004 <critical_section_init>
1000778c:	4620      	mov	r0, r4
1000778e:	f001 fe17 	bl	100093c0 <tu_fifo_clear>
10007792:	4a25      	ldr	r2, [pc, #148]	@ (10007828 <tud_rhport_init+0xd8>)
10007794:	4b25      	ldr	r3, [pc, #148]	@ (1000782c <tud_rhport_init+0xdc>)
10007796:	6014      	str	r4, [r2, #0]
10007798:	b123      	cbz	r3, 100077a4 <tud_rhport_init+0x54>
1000779a:	4825      	ldr	r0, [pc, #148]	@ (10007830 <tud_rhport_init+0xe0>)
1000779c:	f7ff faa2 	bl	10006ce4 <usbd_app_driver_get_cb>
100077a0:	4b24      	ldr	r3, [pc, #144]	@ (10007834 <tud_rhport_init+0xe4>)
100077a2:	6018      	str	r0, [r3, #0]
100077a4:	2400      	movs	r4, #0
100077a6:	4d22      	ldr	r5, [pc, #136]	@ (10007830 <tud_rhport_init+0xe0>)
100077a8:	4623      	mov	r3, r4
100077aa:	782a      	ldrb	r2, [r5, #0]
100077ac:	4f22      	ldr	r7, [pc, #136]	@ (10007838 <tud_rhport_init+0xe8>)
100077ae:	4e21      	ldr	r6, [pc, #132]	@ (10007834 <tud_rhport_init+0xe4>)
100077b0:	e00d      	b.n	100077ce <tud_rhport_init+0x7e>
100077b2:	6833      	ldr	r3, [r6, #0]
100077b4:	eb13 1344 	adds.w	r3, r3, r4, lsl #5
100077b8:	d011      	beq.n	100077de <tud_rhport_init+0x8e>
100077ba:	685b      	ldr	r3, [r3, #4]
100077bc:	b17b      	cbz	r3, 100077de <tud_rhport_init+0x8e>
100077be:	4798      	blx	r3
100077c0:	782a      	ldrb	r2, [r5, #0]
100077c2:	3401      	adds	r4, #1
100077c4:	b2e4      	uxtb	r4, r4
100077c6:	1c51      	adds	r1, r2, #1
100077c8:	42a1      	cmp	r1, r4
100077ca:	4623      	mov	r3, r4
100077cc:	db11      	blt.n	100077f2 <tud_rhport_init+0xa2>
100077ce:	42a2      	cmp	r2, r4
100077d0:	d8ef      	bhi.n	100077b2 <tud_rhport_init+0x62>
100077d2:	1a9b      	subs	r3, r3, r2
100077d4:	eb07 1343 	add.w	r3, r7, r3, lsl #5
100077d8:	685b      	ldr	r3, [r3, #4]
100077da:	2b00      	cmp	r3, #0
100077dc:	d1ef      	bne.n	100077be <tud_rhport_init+0x6e>
100077de:	f04f 23e0 	mov.w	r3, #3758153728	@ 0xe000e000
100077e2:	f8d3 3df0 	ldr.w	r3, [r3, #3568]	@ 0xdf0
100077e6:	07db      	lsls	r3, r3, #31
100077e8:	d500      	bpl.n	100077ec <tud_rhport_init+0x9c>
100077ea:	be00      	bkpt	0x0000
100077ec:	2000      	movs	r0, #0
100077ee:	e8bd 87f0 	ldmia.w	sp!, {r4, r5, r6, r7, r8, r9, sl, pc}
100077f2:	4651      	mov	r1, sl
100077f4:	4648      	mov	r0, r9
100077f6:	f888 9000 	strb.w	r9, [r8]
100077fa:	f7ff fdc7 	bl	1000738c <dcd_init>
100077fe:	2800      	cmp	r0, #0
10007800:	d0ed      	beq.n	100077de <tud_rhport_init+0x8e>
10007802:	4648      	mov	r0, r9
10007804:	f7ff fe10 	bl	10007428 <dcd_int_enable>
10007808:	2001      	movs	r0, #1
1000780a:	e8bd 87f0 	ldmia.w	sp!, {r4, r5, r6, r7, r8, r9, sl, pc}
1000780e:	bf00      	nop
10007810:	20001660 	.word	0x20001660
10007814:	20001658 	.word	0x20001658
10007818:	200222d6 	.word	0x200222d6
1000781c:	200016b4 	.word	0x200016b4
10007820:	200012a8 	.word	0x200012a8
10007824:	20001294 	.word	0x20001294
10007828:	200016b8 	.word	0x200016b8
1000782c:	10006ce5 	.word	0x10006ce5
10007830:	200222d4 	.word	0x200222d4
10007834:	20001558 	.word	0x20001558
10007838:	10009abc 	.word	0x10009abc
1000783c:	200012b0 	.word	0x200012b0

10007840 <tud_task_ext>:
10007840:	4b95      	ldr	r3, [pc, #596]	@ (10007a98 <tud_task_ext+0x258>)
10007842:	781b      	ldrb	r3, [r3, #0]
10007844:	2bff      	cmp	r3, #255	@ 0xff
10007846:	f000 8119 	beq.w	10007a7c <tud_task_ext+0x23c>
1000784a:	e92d 4ff0 	stmdb	sp!, {r4, r5, r6, r7, r8, r9, sl, fp, lr}
1000784e:	4c93      	ldr	r4, [pc, #588]	@ (10007a9c <tud_task_ext+0x25c>)
10007850:	4d93      	ldr	r5, [pc, #588]	@ (10007aa0 <tud_task_ext+0x260>)
10007852:	f8df 8260 	ldr.w	r8, [pc, #608]	@ 10007ab4 <tud_task_ext+0x274>
10007856:	4f93      	ldr	r7, [pc, #588]	@ (10007aa4 <tud_task_ext+0x264>)
10007858:	b08b      	sub	sp, #44	@ 0x2c
1000785a:	6826      	ldr	r6, [r4, #0]
1000785c:	6973      	ldr	r3, [r6, #20]
1000785e:	f3ef 8210 	mrs	r2, PRIMASK
10007862:	b672      	cpsid	i
10007864:	e8d3 0fcf 	ldaexb	r0, [r3]
10007868:	2101      	movs	r1, #1
1000786a:	2800      	cmp	r0, #0
1000786c:	d1fa      	bne.n	10007864 <tud_task_ext+0x24>
1000786e:	e8c3 1f40 	strexb	r0, r1, [r3]
10007872:	2800      	cmp	r0, #0
10007874:	d1f6      	bne.n	10007864 <tud_task_ext+0x24>
10007876:	f3bf 8f5f 	dmb	sy
1000787a:	61b2      	str	r2, [r6, #24]
1000787c:	4630      	mov	r0, r6
1000787e:	a907      	add	r1, sp, #28
10007880:	f001 fbe4 	bl	1000904c <tu_fifo_read>
10007884:	2300      	movs	r3, #0
10007886:	6972      	ldr	r2, [r6, #20]
10007888:	e8c2 3f8f 	stlb	r3, [r2]
1000788c:	69b3      	ldr	r3, [r6, #24]
1000788e:	f383 8810 	msr	PRIMASK, r3
10007892:	2800      	cmp	r0, #0
10007894:	f000 80ca 	beq.w	10007a2c <tud_task_ext+0x1ec>
10007898:	f89d 301d 	ldrb.w	r3, [sp, #29]
1000789c:	3b01      	subs	r3, #1
1000789e:	2b07      	cmp	r3, #7
100078a0:	f200 839e 	bhi.w	10007fe0 <tud_task_ext+0x7a0>
100078a4:	e8df f003 	tbb	[pc, r3]
100078a8:	9b93afa5 	.word	0x9b93afa5
100078ac:	040a358c 	.word	0x040a358c
100078b0:	9b08      	ldr	r3, [sp, #32]
100078b2:	2b00      	cmp	r3, #0
100078b4:	d0d1      	beq.n	1000785a <tud_task_ext+0x1a>
100078b6:	9809      	ldr	r0, [sp, #36]	@ 0x24
100078b8:	4798      	blx	r3
100078ba:	e7ce      	b.n	1000785a <tud_task_ext+0x1a>
100078bc:	f89d 1020 	ldrb.w	r1, [sp, #32]
100078c0:	f001 067f 	and.w	r6, r1, #127	@ 0x7f
100078c4:	eb05 0046 	add.w	r0, r5, r6, lsl #1
100078c8:	eb00 10d1 	add.w	r0, r0, r1, lsr #7
100078cc:	f890 3034 	ldrb.w	r3, [r0, #52]	@ 0x34
100078d0:	f023 0301 	bic.w	r3, r3, #1
100078d4:	f880 3034 	strb.w	r3, [r0, #52]	@ 0x34
100078d8:	f890 3034 	ldrb.w	r3, [r0, #52]	@ 0x34
100078dc:	f023 0304 	bic.w	r3, r3, #4
100078e0:	f880 3034 	strb.w	r3, [r0, #52]	@ 0x34
100078e4:	2e00      	cmp	r6, #0
100078e6:	f000 80a4 	beq.w	10007a32 <tud_task_ext+0x1f2>
100078ea:	7d03      	ldrb	r3, [r0, #20]
100078ec:	f898 2000 	ldrb.w	r2, [r8]
100078f0:	4293      	cmp	r3, r2
100078f2:	f080 8091 	bcs.w	10007a18 <tud_task_ext+0x1d8>
100078f6:	4a6c      	ldr	r2, [pc, #432]	@ (10007aa8 <tud_task_ext+0x268>)
100078f8:	6812      	ldr	r2, [r2, #0]
100078fa:	eb12 1343 	adds.w	r3, r2, r3, lsl #5
100078fe:	f000 808e 	beq.w	10007a1e <tud_task_ext+0x1de>
10007902:	699e      	ldr	r6, [r3, #24]
10007904:	f89d 2021 	ldrb.w	r2, [sp, #33]	@ 0x21
10007908:	9b09      	ldr	r3, [sp, #36]	@ 0x24
1000790a:	f89d 001c 	ldrb.w	r0, [sp, #28]
1000790e:	47b0      	blx	r6
10007910:	e7a3      	b.n	1000785a <tud_task_ext+0x1a>
10007912:	783b      	ldrb	r3, [r7, #0]
10007914:	2b00      	cmp	r3, #0
10007916:	f000 8082 	beq.w	10007a1e <tud_task_ext+0x1de>
1000791a:	783b      	ldrb	r3, [r7, #0]
1000791c:	3b01      	subs	r3, #1
1000791e:	703b      	strb	r3, [r7, #0]
10007920:	783b      	ldrb	r3, [r7, #0]
10007922:	f003 00ff 	and.w	r0, r3, #255	@ 0xff
10007926:	2b00      	cmp	r3, #0
10007928:	d197      	bne.n	1000785a <tud_task_ext+0x1a>
1000792a:	f8df a174 	ldr.w	sl, [pc, #372]	@ 10007aa0 <tud_task_ext+0x260>
1000792e:	f89d b01c 	ldrb.w	fp, [sp, #28]
10007932:	f89a 3000 	ldrb.w	r3, [sl]
10007936:	f043 0301 	orr.w	r3, r3, #1
1000793a:	f88a 3000 	strb.w	r3, [sl]
1000793e:	f89a 3034 	ldrb.w	r3, [sl, #52]	@ 0x34
10007942:	f360 0300 	bfi	r3, r0, #0, #1
10007946:	f88a 3034 	strb.w	r3, [sl, #52]	@ 0x34
1000794a:	f89a 3034 	ldrb.w	r3, [sl, #52]	@ 0x34
1000794e:	f360 0382 	bfi	r3, r0, #2, #1
10007952:	f88a 3034 	strb.w	r3, [sl, #52]	@ 0x34
10007956:	f89a 3035 	ldrb.w	r3, [sl, #53]	@ 0x35
1000795a:	f360 0300 	bfi	r3, r0, #0, #1
1000795e:	f88a 3035 	strb.w	r3, [sl, #53]	@ 0x35
10007962:	f89a 3035 	ldrb.w	r3, [sl, #53]	@ 0x35
10007966:	f360 0382 	bfi	r3, r0, #2, #1
1000796a:	f88a 3035 	strb.w	r3, [sl, #53]	@ 0x35
1000796e:	f000 fca7 	bl	100082c0 <usbd_control_set_complete_callback>
10007972:	f89d 3020 	ldrb.w	r3, [sp, #32]
10007976:	f003 0260 	and.w	r2, r3, #96	@ 0x60
1000797a:	2a60      	cmp	r2, #96	@ 0x60
1000797c:	d06c      	beq.n	10007a58 <tud_task_ext+0x218>
1000797e:	2a40      	cmp	r2, #64	@ 0x40
10007980:	d07d      	beq.n	10007a7e <tud_task_ext+0x23e>
10007982:	f003 031f 	and.w	r3, r3, #31
10007986:	2b01      	cmp	r3, #1
10007988:	f000 80c3 	beq.w	10007b12 <tud_task_ext+0x2d2>
1000798c:	2b02      	cmp	r3, #2
1000798e:	f000 8093 	beq.w	10007ab8 <tud_task_ext+0x278>
10007992:	2b00      	cmp	r3, #0
10007994:	d160      	bne.n	10007a58 <tud_task_ext+0x218>
10007996:	2a20      	cmp	r2, #32
10007998:	f000 8202 	beq.w	10007da0 <tud_task_ext+0x560>
1000799c:	2a00      	cmp	r2, #0
1000799e:	d15b      	bne.n	10007a58 <tud_task_ext+0x218>
100079a0:	f89d 3021 	ldrb.w	r3, [sp, #33]	@ 0x21
100079a4:	2b09      	cmp	r3, #9
100079a6:	d857      	bhi.n	10007a58 <tud_task_ext+0x218>
100079a8:	e8df f013 	tbh	[pc, r3, lsl #1]
100079ac:	01af01bf 	.word	0x01af01bf
100079b0:	01d10056 	.word	0x01d10056
100079b4:	01a00056 	.word	0x01a00056
100079b8:	00560176 	.word	0x00560176
100079bc:	00f9016a 	.word	0x00f9016a
100079c0:	782b      	ldrb	r3, [r5, #0]
100079c2:	07d9      	lsls	r1, r3, #31
100079c4:	f57f af49 	bpl.w	1000785a <tud_task_ext+0x1a>
100079c8:	f7ff feb0 	bl	1000772c <tud_resume_cb>
100079cc:	e745      	b.n	1000785a <tud_task_ext+0x1a>
100079ce:	78eb      	ldrb	r3, [r5, #3]
100079d0:	07da      	lsls	r2, r3, #31
100079d2:	f57f af42 	bpl.w	1000785a <tud_task_ext+0x1a>
100079d6:	9808      	ldr	r0, [sp, #32]
100079d8:	f7ff fe9c 	bl	10007714 <tud_sof_cb>
100079dc:	e73d      	b.n	1000785a <tud_task_ext+0x1a>
100079de:	782b      	ldrb	r3, [r5, #0]
100079e0:	07d8      	lsls	r0, r3, #31
100079e2:	f57f af3a 	bpl.w	1000785a <tud_task_ext+0x1a>
100079e6:	7828      	ldrb	r0, [r5, #0]
100079e8:	f3c0 00c0 	ubfx	r0, r0, #3, #1
100079ec:	f7ff fe9c 	bl	10007728 <tud_suspend_cb>
100079f0:	e733      	b.n	1000785a <tud_task_ext+0x1a>
100079f2:	f89d 001c 	ldrb.w	r0, [sp, #28]
100079f6:	f7ff fe45 	bl	10007684 <configuration_reset>
100079fa:	f000 fc57 	bl	100082ac <usbd_control_reset>
100079fe:	f89d 3020 	ldrb.w	r3, [sp, #32]
10007a02:	70ab      	strb	r3, [r5, #2]
10007a04:	e729      	b.n	1000785a <tud_task_ext+0x1a>
10007a06:	f89d 001c 	ldrb.w	r0, [sp, #28]
10007a0a:	f7ff fe3b 	bl	10007684 <configuration_reset>
10007a0e:	f000 fc4d 	bl	100082ac <usbd_control_reset>
10007a12:	f7ff fe87 	bl	10007724 <tud_umount_cb>
10007a16:	e720      	b.n	1000785a <tud_task_ext+0x1a>
10007a18:	1c50      	adds	r0, r2, #1
10007a1a:	4298      	cmp	r0, r3
10007a1c:	da11      	bge.n	10007a42 <tud_task_ext+0x202>
10007a1e:	f04f 23e0 	mov.w	r3, #3758153728	@ 0xe000e000
10007a22:	f8d3 3df0 	ldr.w	r3, [r3, #3568]	@ 0xdf0
10007a26:	07dc      	lsls	r4, r3, #31
10007a28:	d500      	bpl.n	10007a2c <tud_task_ext+0x1ec>
10007a2a:	be00      	bkpt	0x0000
10007a2c:	b00b      	add	sp, #44	@ 0x2c
10007a2e:	e8bd 8ff0 	ldmia.w	sp!, {r4, r5, r6, r7, r8, r9, sl, fp, pc}
10007a32:	9b09      	ldr	r3, [sp, #36]	@ 0x24
10007a34:	f89d 2021 	ldrb.w	r2, [sp, #33]	@ 0x21
10007a38:	f89d 001c 	ldrb.w	r0, [sp, #28]
10007a3c:	f000 fc54 	bl	100082e8 <usbd_control_xfer_cb>
10007a40:	e70b      	b.n	1000785a <tud_task_ext+0x1a>
10007a42:	1a9b      	subs	r3, r3, r2
10007a44:	4a19      	ldr	r2, [pc, #100]	@ (10007aac <tud_task_ext+0x26c>)
10007a46:	eb02 1343 	add.w	r3, r2, r3, lsl #5
10007a4a:	e75a      	b.n	10007902 <tud_task_ext+0xc2>
10007a4c:	f7ff fb7c 	bl	10007148 <tud_descriptor_configuration_cb>
10007a50:	4602      	mov	r2, r0
10007a52:	2800      	cmp	r0, #0
10007a54:	f040 8194 	bne.w	10007d80 <tud_task_ext+0x540>
10007a58:	f04f 23e0 	mov.w	r3, #3758153728	@ 0xe000e000
10007a5c:	f8d3 3df0 	ldr.w	r3, [r3, #3568]	@ 0xdf0
10007a60:	07de      	lsls	r6, r3, #31
10007a62:	d500      	bpl.n	10007a66 <tud_task_ext+0x226>
10007a64:	be00      	bkpt	0x0000
10007a66:	f89d 001c 	ldrb.w	r0, [sp, #28]
10007a6a:	2100      	movs	r1, #0
10007a6c:	f7ff fda0 	bl	100075b0 <dcd_edpt_stall>
10007a70:	2180      	movs	r1, #128	@ 0x80
10007a72:	f89d 001c 	ldrb.w	r0, [sp, #28]
10007a76:	f7ff fd9b 	bl	100075b0 <dcd_edpt_stall>
10007a7a:	e6ee      	b.n	1000785a <tud_task_ext+0x1a>
10007a7c:	4770      	bx	lr
10007a7e:	480c      	ldr	r0, [pc, #48]	@ (10007ab0 <tud_task_ext+0x270>)
10007a80:	f000 fc1e 	bl	100082c0 <usbd_control_set_complete_callback>
10007a84:	2101      	movs	r1, #1
10007a86:	4658      	mov	r0, fp
10007a88:	aa08      	add	r2, sp, #32
10007a8a:	f7ff f917 	bl	10006cbc <tud_vendor_control_xfer_cb>
10007a8e:	2800      	cmp	r0, #0
10007a90:	f47f aee3 	bne.w	1000785a <tud_task_ext+0x1a>
10007a94:	e7e7      	b.n	10007a66 <tud_task_ext+0x226>
10007a96:	bf00      	nop
10007a98:	200012b0 	.word	0x200012b0
10007a9c:	200016b8 	.word	0x200016b8
10007aa0:	20001660 	.word	0x20001660
10007aa4:	200222d6 	.word	0x200222d6
10007aa8:	20001558 	.word	0x20001558
10007aac:	10009abc 	.word	0x10009abc
10007ab0:	10006cbd 	.word	0x10006cbd
10007ab4:	200222d4 	.word	0x200222d4
10007ab8:	f89d 1024 	ldrb.w	r1, [sp, #36]	@ 0x24
10007abc:	f011 0f70 	tst.w	r1, #112	@ 0x70
10007ac0:	d1ca      	bne.n	10007a58 <tud_task_ext+0x218>
10007ac2:	48b4      	ldr	r0, [pc, #720]	@ (10007d94 <tud_task_ext+0x554>)
10007ac4:	f001 037f 	and.w	r3, r1, #127	@ 0x7f
10007ac8:	f890 c000 	ldrb.w	ip, [r0]
10007acc:	eb0a 0043 	add.w	r0, sl, r3, lsl #1
10007ad0:	eb00 10d1 	add.w	r0, r0, r1, lsr #7
10007ad4:	7d00      	ldrb	r0, [r0, #20]
10007ad6:	4560      	cmp	r0, ip
10007ad8:	d34d      	bcc.n	10007b76 <tud_task_ext+0x336>
10007ada:	f10c 0e01 	add.w	lr, ip, #1
10007ade:	4586      	cmp	lr, r0
10007ae0:	f2c0 8170 	blt.w	10007dc4 <tud_task_ext+0x584>
10007ae4:	eba0 000c 	sub.w	r0, r0, ip
10007ae8:	f8df c2ac 	ldr.w	ip, [pc, #684]	@ 10007d98 <tud_task_ext+0x558>
10007aec:	eb0c 1040 	add.w	r0, ip, r0, lsl #5
10007af0:	9000      	str	r0, [sp, #0]
10007af2:	2a00      	cmp	r2, #0
10007af4:	f000 816a 	beq.w	10007dcc <tud_task_ext+0x58c>
10007af8:	9e00      	ldr	r6, [sp, #0]
10007afa:	6970      	ldr	r0, [r6, #20]
10007afc:	f000 fbe0 	bl	100082c0 <usbd_control_set_complete_callback>
10007b00:	2101      	movs	r1, #1
10007b02:	4658      	mov	r0, fp
10007b04:	6973      	ldr	r3, [r6, #20]
10007b06:	aa08      	add	r2, sp, #32
10007b08:	4798      	blx	r3
10007b0a:	2800      	cmp	r0, #0
10007b0c:	f47f aea5 	bne.w	1000785a <tud_task_ext+0x1a>
10007b10:	e7a9      	b.n	10007a66 <tud_task_ext+0x226>
10007b12:	f89d 3024 	ldrb.w	r3, [sp, #36]	@ 0x24
10007b16:	2b0f      	cmp	r3, #15
10007b18:	d8a5      	bhi.n	10007a66 <tud_task_ext+0x226>
10007b1a:	4a9e      	ldr	r2, [pc, #632]	@ (10007d94 <tud_task_ext+0x554>)
10007b1c:	4453      	add	r3, sl
10007b1e:	791b      	ldrb	r3, [r3, #4]
10007b20:	7812      	ldrb	r2, [r2, #0]
10007b22:	4293      	cmp	r3, r2
10007b24:	d335      	bcc.n	10007b92 <tud_task_ext+0x352>
10007b26:	1c51      	adds	r1, r2, #1
10007b28:	4299      	cmp	r1, r3
10007b2a:	db9c      	blt.n	10007a66 <tud_task_ext+0x226>
10007b2c:	4e9a      	ldr	r6, [pc, #616]	@ (10007d98 <tud_task_ext+0x558>)
10007b2e:	1a9b      	subs	r3, r3, r2
10007b30:	eb06 1643 	add.w	r6, r6, r3, lsl #5
10007b34:	6970      	ldr	r0, [r6, #20]
10007b36:	f000 fbc3 	bl	100082c0 <usbd_control_set_complete_callback>
10007b3a:	2101      	movs	r1, #1
10007b3c:	4658      	mov	r0, fp
10007b3e:	6973      	ldr	r3, [r6, #20]
10007b40:	aa08      	add	r2, sp, #32
10007b42:	4798      	blx	r3
10007b44:	2800      	cmp	r0, #0
10007b46:	f47f ae88 	bne.w	1000785a <tud_task_ext+0x1a>
10007b4a:	f89d 3020 	ldrb.w	r3, [sp, #32]
10007b4e:	f013 0660 	ands.w	r6, r3, #96	@ 0x60
10007b52:	d188      	bne.n	10007a66 <tud_task_ext+0x226>
10007b54:	f89d 3021 	ldrb.w	r3, [sp, #33]	@ 0x21
10007b58:	3b0a      	subs	r3, #10
10007b5a:	2b01      	cmp	r3, #1
10007b5c:	d883      	bhi.n	10007a66 <tud_task_ext+0x226>
10007b5e:	f000 fbaf 	bl	100082c0 <usbd_control_set_complete_callback>
10007b62:	f89d 3021 	ldrb.w	r3, [sp, #33]	@ 0x21
10007b66:	2b0a      	cmp	r3, #10
10007b68:	f000 8213 	beq.w	10007f92 <tud_task_ext+0x752>
10007b6c:	4658      	mov	r0, fp
10007b6e:	a908      	add	r1, sp, #32
10007b70:	f000 fb26 	bl	100081c0 <tud_control_status>
10007b74:	e671      	b.n	1000785a <tud_task_ext+0x1a>
10007b76:	f8df c224 	ldr.w	ip, [pc, #548]	@ 10007d9c <tud_task_ext+0x55c>
10007b7a:	f8dc c000 	ldr.w	ip, [ip]
10007b7e:	eb0c 1040 	add.w	r0, ip, r0, lsl #5
10007b82:	9000      	str	r0, [sp, #0]
10007b84:	2a00      	cmp	r2, #0
10007b86:	f000 8121 	beq.w	10007dcc <tud_task_ext+0x58c>
10007b8a:	2800      	cmp	r0, #0
10007b8c:	f43f af6b 	beq.w	10007a66 <tud_task_ext+0x226>
10007b90:	e7b2      	b.n	10007af8 <tud_task_ext+0x2b8>
10007b92:	4a82      	ldr	r2, [pc, #520]	@ (10007d9c <tud_task_ext+0x55c>)
10007b94:	6816      	ldr	r6, [r2, #0]
10007b96:	eb16 1643 	adds.w	r6, r6, r3, lsl #5
10007b9a:	d1cb      	bne.n	10007b34 <tud_task_ext+0x2f4>
10007b9c:	e763      	b.n	10007a66 <tud_task_ext+0x226>
10007b9e:	f89a 2001 	ldrb.w	r2, [sl, #1]
10007ba2:	f89d 3022 	ldrb.w	r3, [sp, #34]	@ 0x22
10007ba6:	4293      	cmp	r3, r2
10007ba8:	f000 8164 	beq.w	10007e74 <tud_task_ext+0x634>
10007bac:	f89a 2001 	ldrb.w	r2, [sl, #1]
10007bb0:	2a00      	cmp	r2, #0
10007bb2:	f040 81d8 	bne.w	10007f66 <tud_task_ext+0x726>
10007bb6:	f88a 3001 	strb.w	r3, [sl, #1]
10007bba:	2b00      	cmp	r3, #0
10007bbc:	f000 8158 	beq.w	10007e70 <tud_task_ext+0x630>
10007bc0:	3b01      	subs	r3, #1
10007bc2:	b2d8      	uxtb	r0, r3
10007bc4:	f7ff fac0 	bl	10007148 <tud_descriptor_configuration_cb>
10007bc8:	2800      	cmp	r0, #0
10007bca:	f000 8174 	beq.w	10007eb6 <tud_task_ext+0x676>
10007bce:	7843      	ldrb	r3, [r0, #1]
10007bd0:	2b02      	cmp	r3, #2
10007bd2:	f040 8170 	bne.w	10007eb6 <tud_task_ext+0x676>
10007bd6:	79c2      	ldrb	r2, [r0, #7]
10007bd8:	f89a 1000 	ldrb.w	r1, [sl]
10007bdc:	f3c2 1340 	ubfx	r3, r2, #5, #1
10007be0:	011b      	lsls	r3, r3, #4
10007be2:	f3c2 1280 	ubfx	r2, r2, #6, #1
10007be6:	f021 0130 	bic.w	r1, r1, #48	@ 0x30
10007bea:	ea43 1342 	orr.w	r3, r3, r2, lsl #5
10007bee:	430b      	orrs	r3, r1
10007bf0:	f88a 3000 	strb.w	r3, [sl]
10007bf4:	8843      	ldrh	r3, [r0, #2]
10007bf6:	f100 0109 	add.w	r1, r0, #9
10007bfa:	18c3      	adds	r3, r0, r3
10007bfc:	9302      	str	r3, [sp, #8]
10007bfe:	9b02      	ldr	r3, [sp, #8]
10007c00:	428b      	cmp	r3, r1
10007c02:	f240 81c3 	bls.w	10007f8c <tud_task_ext+0x74c>
10007c06:	784b      	ldrb	r3, [r1, #1]
10007c08:	2b0b      	cmp	r3, #11
10007c0a:	f000 81cc 	beq.w	10007fa6 <tud_task_ext+0x766>
10007c0e:	2001      	movs	r0, #1
10007c10:	2b04      	cmp	r3, #4
10007c12:	f040 8150 	bne.w	10007eb6 <tud_task_ext+0x676>
10007c16:	2200      	movs	r2, #0
10007c18:	9b02      	ldr	r3, [sp, #8]
10007c1a:	9200      	str	r2, [sp, #0]
10007c1c:	1a5b      	subs	r3, r3, r1
10007c1e:	fa1f f983 	uxth.w	r9, r3
10007c22:	4b5c      	ldr	r3, [pc, #368]	@ (10007d94 <tud_task_ext+0x554>)
10007c24:	9201      	str	r2, [sp, #4]
10007c26:	781b      	ldrb	r3, [r3, #0]
10007c28:	9003      	str	r0, [sp, #12]
10007c2a:	e01f      	b.n	10007c6c <tud_task_ext+0x42c>
10007c2c:	4b5b      	ldr	r3, [pc, #364]	@ (10007d9c <tud_task_ext+0x55c>)
10007c2e:	681b      	ldr	r3, [r3, #0]
10007c30:	eb13 1342 	adds.w	r3, r3, r2, lsl #5
10007c34:	f000 813f 	beq.w	10007eb6 <tud_task_ext+0x676>
10007c38:	464a      	mov	r2, r9
10007c3a:	691e      	ldr	r6, [r3, #16]
10007c3c:	4658      	mov	r0, fp
10007c3e:	9105      	str	r1, [sp, #20]
10007c40:	9304      	str	r3, [sp, #16]
10007c42:	47b0      	blx	r6
10007c44:	4602      	mov	r2, r0
10007c46:	9b00      	ldr	r3, [sp, #0]
10007c48:	2a08      	cmp	r2, #8
10007c4a:	9905      	ldr	r1, [sp, #20]
10007c4c:	f103 0001 	add.w	r0, r3, #1
10007c50:	d903      	bls.n	10007c5a <tud_task_ext+0x41a>
10007c52:	4591      	cmp	r9, r2
10007c54:	9b04      	ldr	r3, [sp, #16]
10007c56:	f080 8112 	bcs.w	10007e7e <tud_task_ext+0x63e>
10007c5a:	4b4e      	ldr	r3, [pc, #312]	@ (10007d94 <tud_task_ext+0x554>)
10007c5c:	b2c0      	uxtb	r0, r0
10007c5e:	781b      	ldrb	r3, [r3, #0]
10007c60:	9000      	str	r0, [sp, #0]
10007c62:	1c5a      	adds	r2, r3, #1
10007c64:	4290      	cmp	r0, r2
10007c66:	9001      	str	r0, [sp, #4]
10007c68:	f300 8125 	bgt.w	10007eb6 <tud_task_ext+0x676>
10007c6c:	9a00      	ldr	r2, [sp, #0]
10007c6e:	9801      	ldr	r0, [sp, #4]
10007c70:	4293      	cmp	r3, r2
10007c72:	eba0 0303 	sub.w	r3, r0, r3
10007c76:	d8d9      	bhi.n	10007c2c <tud_task_ext+0x3ec>
10007c78:	4a47      	ldr	r2, [pc, #284]	@ (10007d98 <tud_task_ext+0x558>)
10007c7a:	eb02 1343 	add.w	r3, r2, r3, lsl #5
10007c7e:	e7db      	b.n	10007c38 <tud_task_ext+0x3f8>
10007c80:	f89a 3001 	ldrb.w	r3, [sl, #1]
10007c84:	4658      	mov	r0, fp
10007c86:	f88d 301a 	strb.w	r3, [sp, #26]
10007c8a:	f10d 021a 	add.w	r2, sp, #26
10007c8e:	2301      	movs	r3, #1
10007c90:	a908      	add	r1, sp, #32
10007c92:	f000 fab1 	bl	100081f8 <tud_control_xfer>
10007c96:	e5e0      	b.n	1000785a <tud_task_ext+0x1a>
10007c98:	f8bd 0022 	ldrh.w	r0, [sp, #34]	@ 0x22
10007c9c:	0a03      	lsrs	r3, r0, #8
10007c9e:	1e5a      	subs	r2, r3, #1
10007ca0:	b2c0      	uxtb	r0, r0
10007ca2:	2a0e      	cmp	r2, #14
10007ca4:	f63f aedf 	bhi.w	10007a66 <tud_task_ext+0x226>
10007ca8:	a101      	add	r1, pc, #4	@ (adr r1, 10007cb0 <tud_task_ext+0x470>)
10007caa:	f851 f022 	ldr.w	pc, [r1, r2, lsl #2]
10007cae:	bf00      	nop
10007cb0:	10007ee9 	.word	0x10007ee9
10007cb4:	10007d6f 	.word	0x10007d6f
10007cb8:	10007f25 	.word	0x10007f25
10007cbc:	10007a67 	.word	0x10007a67
10007cc0:	10007a67 	.word	0x10007a67
10007cc4:	10007f07 	.word	0x10007f07
10007cc8:	10007d6f 	.word	0x10007d6f
10007ccc:	10007a67 	.word	0x10007a67
10007cd0:	10007a67 	.word	0x10007a67
10007cd4:	10007a67 	.word	0x10007a67
10007cd8:	10007a67 	.word	0x10007a67
10007cdc:	10007a67 	.word	0x10007a67
10007ce0:	10007a67 	.word	0x10007a67
10007ce4:	10007a67 	.word	0x10007a67
10007ce8:	10007edb 	.word	0x10007edb
10007cec:	a808      	add	r0, sp, #32
10007cee:	f000 faed 	bl	100082cc <usbd_control_set_request>
10007cf2:	4658      	mov	r0, fp
10007cf4:	f89d 1022 	ldrb.w	r1, [sp, #34]	@ 0x22
10007cf8:	f7ff fb9a 	bl	10007430 <dcd_set_address>
10007cfc:	f89a 3000 	ldrb.w	r3, [sl]
10007d00:	f043 0302 	orr.w	r3, r3, #2
10007d04:	f88a 3000 	strb.w	r3, [sl]
10007d08:	e5a7      	b.n	1000785a <tud_task_ext+0x1a>
10007d0a:	f8bd 3022 	ldrh.w	r3, [sp, #34]	@ 0x22
10007d0e:	2b01      	cmp	r3, #1
10007d10:	f47f aea9 	bne.w	10007a66 <tud_task_ext+0x226>
10007d14:	f89a 3000 	ldrb.w	r3, [sl]
10007d18:	4658      	mov	r0, fp
10007d1a:	f023 0308 	bic.w	r3, r3, #8
10007d1e:	a908      	add	r1, sp, #32
10007d20:	f88a 3000 	strb.w	r3, [sl]
10007d24:	f000 fa4c 	bl	100081c0 <tud_control_status>
10007d28:	e597      	b.n	1000785a <tud_task_ext+0x1a>
10007d2a:	4658      	mov	r0, fp
10007d2c:	f89a 3000 	ldrb.w	r3, [sl]
10007d30:	089a      	lsrs	r2, r3, #2
10007d32:	f002 0202 	and.w	r2, r2, #2
10007d36:	f3c3 1340 	ubfx	r3, r3, #5, #1
10007d3a:	4313      	orrs	r3, r2
10007d3c:	f8ad 301a 	strh.w	r3, [sp, #26]
10007d40:	f10d 021a 	add.w	r2, sp, #26
10007d44:	2302      	movs	r3, #2
10007d46:	a908      	add	r1, sp, #32
10007d48:	f000 fa56 	bl	100081f8 <tud_control_xfer>
10007d4c:	e585      	b.n	1000785a <tud_task_ext+0x1a>
10007d4e:	f8bd 3022 	ldrh.w	r3, [sp, #34]	@ 0x22
10007d52:	2b01      	cmp	r3, #1
10007d54:	f47f ae87 	bne.w	10007a66 <tud_task_ext+0x226>
10007d58:	f89a 3000 	ldrb.w	r3, [sl]
10007d5c:	4658      	mov	r0, fp
10007d5e:	f043 0308 	orr.w	r3, r3, #8
10007d62:	a908      	add	r1, sp, #32
10007d64:	f88a 3000 	strb.w	r3, [sl]
10007d68:	f000 fa2a 	bl	100081c0 <tud_control_status>
10007d6c:	e575      	b.n	1000785a <tud_task_ext+0x1a>
10007d6e:	2b02      	cmp	r3, #2
10007d70:	f43f ae6c 	beq.w	10007a4c <tud_task_ext+0x20c>
10007d74:	f7ff fcd2 	bl	1000771c <tud_descriptor_other_speed_configuration_cb>
10007d78:	4602      	mov	r2, r0
10007d7a:	2800      	cmp	r0, #0
10007d7c:	f43f ae73 	beq.w	10007a66 <tud_task_ext+0x226>
10007d80:	4658      	mov	r0, fp
10007d82:	8853      	ldrh	r3, [r2, #2]
10007d84:	a908      	add	r1, sp, #32
10007d86:	f000 fa37 	bl	100081f8 <tud_control_xfer>
10007d8a:	2800      	cmp	r0, #0
10007d8c:	f47f ad65 	bne.w	1000785a <tud_task_ext+0x1a>
10007d90:	e669      	b.n	10007a66 <tud_task_ext+0x226>
10007d92:	bf00      	nop
10007d94:	200222d4 	.word	0x200222d4
10007d98:	10009abc 	.word	0x10009abc
10007d9c:	20001558 	.word	0x20001558
10007da0:	f89d 3024 	ldrb.w	r3, [sp, #36]	@ 0x24
10007da4:	2b0f      	cmp	r3, #15
10007da6:	f63f ae5e 	bhi.w	10007a66 <tud_task_ext+0x226>
10007daa:	4a92      	ldr	r2, [pc, #584]	@ (10007ff4 <tud_task_ext+0x7b4>)
10007dac:	4453      	add	r3, sl
10007dae:	791b      	ldrb	r3, [r3, #4]
10007db0:	7812      	ldrb	r2, [r2, #0]
10007db2:	4293      	cmp	r3, r2
10007db4:	d21e      	bcs.n	10007df4 <tud_task_ext+0x5b4>
10007db6:	4a90      	ldr	r2, [pc, #576]	@ (10007ff8 <tud_task_ext+0x7b8>)
10007db8:	6816      	ldr	r6, [r2, #0]
10007dba:	eb16 1643 	adds.w	r6, r6, r3, lsl #5
10007dbe:	f47f ae9c 	bne.w	10007afa <tud_task_ext+0x2ba>
10007dc2:	e650      	b.n	10007a66 <tud_task_ext+0x226>
10007dc4:	2a00      	cmp	r2, #0
10007dc6:	f47f ae4e 	bne.w	10007a66 <tud_task_ext+0x226>
10007dca:	9200      	str	r2, [sp, #0]
10007dcc:	f89d c021 	ldrb.w	ip, [sp, #33]	@ 0x21
10007dd0:	f00c 02fd 	and.w	r2, ip, #253	@ 0xfd
10007dd4:	2a01      	cmp	r2, #1
10007dd6:	d016      	beq.n	10007e06 <tud_task_ext+0x5c6>
10007dd8:	f1bc 0f00 	cmp.w	ip, #0
10007ddc:	f47f ae3c 	bne.w	10007a58 <tud_task_ext+0x218>
10007de0:	eb0a 0343 	add.w	r3, sl, r3, lsl #1
10007de4:	eb03 13d1 	add.w	r3, r3, r1, lsr #7
10007de8:	f893 3034 	ldrb.w	r3, [r3, #52]	@ 0x34
10007dec:	4658      	mov	r0, fp
10007dee:	f3c3 0340 	ubfx	r3, r3, #1, #1
10007df2:	e7a3      	b.n	10007d3c <tud_task_ext+0x4fc>
10007df4:	1c51      	adds	r1, r2, #1
10007df6:	4299      	cmp	r1, r3
10007df8:	f6ff ae35 	blt.w	10007a66 <tud_task_ext+0x226>
10007dfc:	4e7f      	ldr	r6, [pc, #508]	@ (10007ffc <tud_task_ext+0x7bc>)
10007dfe:	1a9b      	subs	r3, r3, r2
10007e00:	eb06 1643 	add.w	r6, r6, r3, lsl #5
10007e04:	e679      	b.n	10007afa <tud_task_ext+0x2ba>
10007e06:	f8bd 2022 	ldrh.w	r2, [sp, #34]	@ 0x22
10007e0a:	b9da      	cbnz	r2, 10007e44 <tud_task_ext+0x604>
10007e0c:	487c      	ldr	r0, [pc, #496]	@ (10008000 <tud_task_ext+0x7c0>)
10007e0e:	f1bc 0f01 	cmp.w	ip, #1
10007e12:	7800      	ldrb	r0, [r0, #0]
10007e14:	f000 808e 	beq.w	10007f34 <tud_task_ext+0x6f4>
10007e18:	e9cd 1301 	strd	r1, r3, [sp, #4]
10007e1c:	f7ff fbc8 	bl	100075b0 <dcd_edpt_stall>
10007e20:	9b02      	ldr	r3, [sp, #8]
10007e22:	9901      	ldr	r1, [sp, #4]
10007e24:	eb0a 0343 	add.w	r3, sl, r3, lsl #1
10007e28:	eb03 13d1 	add.w	r3, r3, r1, lsr #7
10007e2c:	f893 2034 	ldrb.w	r2, [r3, #52]	@ 0x34
10007e30:	f042 0202 	orr.w	r2, r2, #2
10007e34:	f883 2034 	strb.w	r2, [r3, #52]	@ 0x34
10007e38:	f893 2034 	ldrb.w	r2, [r3, #52]	@ 0x34
10007e3c:	f042 0201 	orr.w	r2, r2, #1
10007e40:	f883 2034 	strb.w	r2, [r3, #52]	@ 0x34
10007e44:	9b00      	ldr	r3, [sp, #0]
10007e46:	2b00      	cmp	r3, #0
10007e48:	f43f ad07 	beq.w	1000785a <tud_task_ext+0x1a>
10007e4c:	461e      	mov	r6, r3
10007e4e:	6958      	ldr	r0, [r3, #20]
10007e50:	f000 fa36 	bl	100082c0 <usbd_control_set_complete_callback>
10007e54:	6973      	ldr	r3, [r6, #20]
10007e56:	2101      	movs	r1, #1
10007e58:	aa08      	add	r2, sp, #32
10007e5a:	4658      	mov	r0, fp
10007e5c:	4798      	blx	r3
10007e5e:	2000      	movs	r0, #0
10007e60:	f000 fa2e 	bl	100082c0 <usbd_control_set_complete_callback>
10007e64:	f89a 3035 	ldrb.w	r3, [sl, #53]	@ 0x35
10007e68:	07db      	lsls	r3, r3, #31
10007e6a:	f53f acf6 	bmi.w	1000785a <tud_task_ext+0x1a>
10007e6e:	e67d      	b.n	10007b6c <tud_task_ext+0x32c>
10007e70:	f7ff fc58 	bl	10007724 <tud_umount_cb>
10007e74:	4658      	mov	r0, fp
10007e76:	a908      	add	r1, sp, #32
10007e78:	f000 f9a2 	bl	100081c0 <tud_control_status>
10007e7c:	e4ed      	b.n	1000785a <tud_task_ext+0x1a>
10007e7e:	9803      	ldr	r0, [sp, #12]
10007e80:	2801      	cmp	r0, #1
10007e82:	f000 80a6 	beq.w	10007fd2 <tud_task_ext+0x792>
10007e86:	2800      	cmp	r0, #0
10007e88:	f000 8092 	beq.w	10007fb0 <tud_task_ext+0x770>
10007e8c:	2300      	movs	r3, #0
10007e8e:	f891 e002 	ldrb.w	lr, [r1, #2]
10007e92:	e007      	b.n	10007ea4 <tud_task_ext+0x664>
10007e94:	9e00      	ldr	r6, [sp, #0]
10007e96:	f88c 6004 	strb.w	r6, [ip, #4]
10007e9a:	fa5f fc83 	uxtb.w	ip, r3
10007e9e:	4560      	cmp	r0, ip
10007ea0:	f240 8086 	bls.w	10007fb0 <tud_task_ext+0x770>
10007ea4:	eb0e 0c03 	add.w	ip, lr, r3
10007ea8:	fa5a fc8c 	uxtab	ip, sl, ip
10007eac:	f89c 6004 	ldrb.w	r6, [ip, #4]
10007eb0:	3301      	adds	r3, #1
10007eb2:	2eff      	cmp	r6, #255	@ 0xff
10007eb4:	d0ee      	beq.n	10007e94 <tud_task_ext+0x654>
10007eb6:	f04f 23e0 	mov.w	r3, #3758153728	@ 0xe000e000
10007eba:	f8d3 3df0 	ldr.w	r3, [r3, #3568]	@ 0xdf0
10007ebe:	07d9      	lsls	r1, r3, #31
10007ec0:	d500      	bpl.n	10007ec4 <tud_task_ext+0x684>
10007ec2:	be00      	bkpt	0x0000
10007ec4:	f04f 23e0 	mov.w	r3, #3758153728	@ 0xe000e000
10007ec8:	f8d3 3df0 	ldr.w	r3, [r3, #3568]	@ 0xdf0
10007ecc:	07da      	lsls	r2, r3, #31
10007ece:	d500      	bpl.n	10007ed2 <tud_task_ext+0x692>
10007ed0:	be00      	bkpt	0x0000
10007ed2:	2300      	movs	r3, #0
10007ed4:	f88a 3001 	strb.w	r3, [sl, #1]
10007ed8:	e5c5      	b.n	10007a66 <tud_task_ext+0x226>
10007eda:	f7fe feeb 	bl	10006cb4 <tud_descriptor_bos_cb>
10007ede:	4602      	mov	r2, r0
10007ee0:	2800      	cmp	r0, #0
10007ee2:	f47f af4d 	bne.w	10007d80 <tud_task_ext+0x540>
10007ee6:	e5be      	b.n	10007a66 <tud_task_ext+0x226>
10007ee8:	f7ff f92a 	bl	10007140 <tud_descriptor_device_cb>
10007eec:	4602      	mov	r2, r0
10007eee:	2800      	cmp	r0, #0
10007ef0:	f43f adb2 	beq.w	10007a58 <tud_task_ext+0x218>
10007ef4:	4658      	mov	r0, fp
10007ef6:	2312      	movs	r3, #18
10007ef8:	a908      	add	r1, sp, #32
10007efa:	f000 f97d 	bl	100081f8 <tud_control_xfer>
10007efe:	2800      	cmp	r0, #0
10007f00:	f47f acab 	bne.w	1000785a <tud_task_ext+0x1a>
10007f04:	e5af      	b.n	10007a66 <tud_task_ext+0x226>
10007f06:	f7ff fc07 	bl	10007718 <tud_descriptor_device_qualifier_cb>
10007f0a:	4602      	mov	r2, r0
10007f0c:	2800      	cmp	r0, #0
10007f0e:	f43f adaa 	beq.w	10007a66 <tud_task_ext+0x226>
10007f12:	4658      	mov	r0, fp
10007f14:	7813      	ldrb	r3, [r2, #0]
10007f16:	a908      	add	r1, sp, #32
10007f18:	f000 f96e 	bl	100081f8 <tud_control_xfer>
10007f1c:	2800      	cmp	r0, #0
10007f1e:	f47f ac9c 	bne.w	1000785a <tud_task_ext+0x1a>
10007f22:	e5a0      	b.n	10007a66 <tud_task_ext+0x226>
10007f24:	f8bd 1024 	ldrh.w	r1, [sp, #36]	@ 0x24
10007f28:	f7ff f912 	bl	10007150 <tud_descriptor_string_cb>
10007f2c:	4602      	mov	r2, r0
10007f2e:	2800      	cmp	r0, #0
10007f30:	d1ef      	bne.n	10007f12 <tud_task_ext+0x6d2>
10007f32:	e598      	b.n	10007a66 <tud_task_ext+0x226>
10007f34:	e9cd 3202 	strd	r3, r2, [sp, #8]
10007f38:	9101      	str	r1, [sp, #4]
10007f3a:	f7ff fb51 	bl	100075e0 <dcd_edpt_clear_stall>
10007f3e:	9b02      	ldr	r3, [sp, #8]
10007f40:	9901      	ldr	r1, [sp, #4]
10007f42:	eb0a 0343 	add.w	r3, sl, r3, lsl #1
10007f46:	eb03 13d1 	add.w	r3, r3, r1, lsr #7
10007f4a:	f893 1034 	ldrb.w	r1, [r3, #52]	@ 0x34
10007f4e:	9a03      	ldr	r2, [sp, #12]
10007f50:	f362 0141 	bfi	r1, r2, #1, #1
10007f54:	f883 1034 	strb.w	r1, [r3, #52]	@ 0x34
10007f58:	f893 1034 	ldrb.w	r1, [r3, #52]	@ 0x34
10007f5c:	f362 0100 	bfi	r1, r2, #0, #1
10007f60:	f883 1034 	strb.w	r1, [r3, #52]	@ 0x34
10007f64:	e76e      	b.n	10007e44 <tud_task_ext+0x604>
10007f66:	2100      	movs	r1, #0
10007f68:	4658      	mov	r0, fp
10007f6a:	9301      	str	r3, [sp, #4]
10007f6c:	f7ff fa68 	bl	10007440 <dcd_sof_enable>
10007f70:	4658      	mov	r0, fp
10007f72:	f7ff fb07 	bl	10007584 <dcd_edpt_close_all>
10007f76:	f89a 2002 	ldrb.w	r2, [sl, #2]
10007f7a:	4658      	mov	r0, fp
10007f7c:	9200      	str	r2, [sp, #0]
10007f7e:	f7ff fb81 	bl	10007684 <configuration_reset>
10007f82:	9a00      	ldr	r2, [sp, #0]
10007f84:	9b01      	ldr	r3, [sp, #4]
10007f86:	f88a 2002 	strb.w	r2, [sl, #2]
10007f8a:	e614      	b.n	10007bb6 <tud_task_ext+0x376>
10007f8c:	f7ff fbc8 	bl	10007720 <tud_mount_cb>
10007f90:	e770      	b.n	10007e74 <tud_task_ext+0x634>
10007f92:	4658      	mov	r0, fp
10007f94:	2301      	movs	r3, #1
10007f96:	a908      	add	r1, sp, #32
10007f98:	f10d 021a 	add.w	r2, sp, #26
10007f9c:	f88d 601a 	strb.w	r6, [sp, #26]
10007fa0:	f000 f92a 	bl	100081f8 <tud_control_xfer>
10007fa4:	e459      	b.n	1000785a <tud_task_ext+0x1a>
10007fa6:	780b      	ldrb	r3, [r1, #0]
10007fa8:	78c8      	ldrb	r0, [r1, #3]
10007faa:	4419      	add	r1, r3
10007fac:	784b      	ldrb	r3, [r1, #1]
10007fae:	e62f      	b.n	10007c10 <tud_task_ext+0x3d0>
10007fb0:	9b00      	ldr	r3, [sp, #0]
10007fb2:	4814      	ldr	r0, [pc, #80]	@ (10008004 <tud_task_ext+0x7c4>)
10007fb4:	9203      	str	r2, [sp, #12]
10007fb6:	9100      	str	r1, [sp, #0]
10007fb8:	f000 febc 	bl	10008d34 <tu_edpt_bind_driver>
10007fbc:	4b0d      	ldr	r3, [pc, #52]	@ (10007ff4 <tud_task_ext+0x7b4>)
10007fbe:	9a03      	ldr	r2, [sp, #12]
10007fc0:	9900      	ldr	r1, [sp, #0]
10007fc2:	781b      	ldrb	r3, [r3, #0]
10007fc4:	4411      	add	r1, r2
10007fc6:	9a01      	ldr	r2, [sp, #4]
10007fc8:	3301      	adds	r3, #1
10007fca:	4293      	cmp	r3, r2
10007fcc:	f6bf ae17 	bge.w	10007bfe <tud_task_ext+0x3be>
10007fd0:	e771      	b.n	10007eb6 <tud_task_ext+0x676>
10007fd2:	f8d3 c010 	ldr.w	ip, [r3, #16]
10007fd6:	4b0c      	ldr	r3, [pc, #48]	@ (10008008 <tud_task_ext+0x7c8>)
10007fd8:	459c      	cmp	ip, r3
10007fda:	bf08      	it	eq
10007fdc:	2002      	moveq	r0, #2
10007fde:	e755      	b.n	10007e8c <tud_task_ext+0x64c>
10007fe0:	f04f 23e0 	mov.w	r3, #3758153728	@ 0xe000e000
10007fe4:	f8d3 3df0 	ldr.w	r3, [r3, #3568]	@ 0xdf0
10007fe8:	07db      	lsls	r3, r3, #31
10007fea:	f57f ac36 	bpl.w	1000785a <tud_task_ext+0x1a>
10007fee:	be00      	bkpt	0x0000
10007ff0:	e433      	b.n	1000785a <tud_task_ext+0x1a>
10007ff2:	bf00      	nop
10007ff4:	200222d4 	.word	0x200222d4
10007ff8:	20001558 	.word	0x20001558
10007ffc:	10009abc 	.word	0x10009abc
10008000:	200012b0 	.word	0x200012b0
10008004:	20001674 	.word	0x20001674
10008008:	10008711 	.word	0x10008711

1000800c <usbd_open_edpt_pair>:
1000800c:	e92d 4ff8 	stmdb	sp!, {r3, r4, r5, r6, r7, r8, r9, sl, fp, lr}
10008010:	9f0a      	ldr	r7, [sp, #40]	@ 0x28
10008012:	2a00      	cmp	r2, #0
10008014:	d040      	beq.n	10008098 <usbd_open_edpt_pair+0x8c>
10008016:	460c      	mov	r4, r1
10008018:	461e      	mov	r6, r3
1000801a:	4615      	mov	r5, r2
1000801c:	f04f 0b00 	mov.w	fp, #0
10008020:	f8df 9080 	ldr.w	r9, [pc, #128]	@ 100080a4 <usbd_open_edpt_pair+0x98>
10008024:	f8df 8080 	ldr.w	r8, [pc, #128]	@ 100080a8 <usbd_open_edpt_pair+0x9c>
10008028:	e016      	b.n	10008058 <usbd_open_edpt_pair+0x4c>
1000802a:	4620      	mov	r0, r4
1000802c:	f898 1002 	ldrb.w	r1, [r8, #2]
10008030:	f899 a000 	ldrb.w	sl, [r9]
10008034:	f000 fe4e 	bl	10008cd4 <tu_edpt_validate>
10008038:	b1d0      	cbz	r0, 10008070 <usbd_open_edpt_pair+0x64>
1000803a:	4621      	mov	r1, r4
1000803c:	4650      	mov	r0, sl
1000803e:	f7ff fa1b 	bl	10007478 <dcd_edpt_open>
10008042:	b1e0      	cbz	r0, 1000807e <usbd_open_edpt_pair+0x72>
10008044:	78a3      	ldrb	r3, [r4, #2]
10008046:	f10b 0b01 	add.w	fp, fp, #1
1000804a:	09da      	lsrs	r2, r3, #7
1000804c:	d120      	bne.n	10008090 <usbd_open_edpt_pair+0x84>
1000804e:	45ab      	cmp	fp, r5
10008050:	703b      	strb	r3, [r7, #0]
10008052:	d021      	beq.n	10008098 <usbd_open_edpt_pair+0x8c>
10008054:	7823      	ldrb	r3, [r4, #0]
10008056:	441c      	add	r4, r3
10008058:	7863      	ldrb	r3, [r4, #1]
1000805a:	2b05      	cmp	r3, #5
1000805c:	d10f      	bne.n	1000807e <usbd_open_edpt_pair+0x72>
1000805e:	78e1      	ldrb	r1, [r4, #3]
10008060:	f001 0103 	and.w	r1, r1, #3
10008064:	42b1      	cmp	r1, r6
10008066:	d10a      	bne.n	1000807e <usbd_open_edpt_pair+0x72>
10008068:	78a3      	ldrb	r3, [r4, #2]
1000806a:	f013 0f70 	tst.w	r3, #112	@ 0x70
1000806e:	d0dc      	beq.n	1000802a <usbd_open_edpt_pair+0x1e>
10008070:	f04f 23e0 	mov.w	r3, #3758153728	@ 0xe000e000
10008074:	f8d3 3df0 	ldr.w	r3, [r3, #3568]	@ 0xdf0
10008078:	07da      	lsls	r2, r3, #31
1000807a:	d500      	bpl.n	1000807e <usbd_open_edpt_pair+0x72>
1000807c:	be00      	bkpt	0x0000
1000807e:	f04f 23e0 	mov.w	r3, #3758153728	@ 0xe000e000
10008082:	f8d3 3df0 	ldr.w	r3, [r3, #3568]	@ 0xdf0
10008086:	07db      	lsls	r3, r3, #31
10008088:	d409      	bmi.n	1000809e <usbd_open_edpt_pair+0x92>
1000808a:	2000      	movs	r0, #0
1000808c:	e8bd 8ff8 	ldmia.w	sp!, {r3, r4, r5, r6, r7, r8, r9, sl, fp, pc}
10008090:	9a0b      	ldr	r2, [sp, #44]	@ 0x2c
10008092:	45ab      	cmp	fp, r5
10008094:	7013      	strb	r3, [r2, #0]
10008096:	d1dd      	bne.n	10008054 <usbd_open_edpt_pair+0x48>
10008098:	2001      	movs	r0, #1
1000809a:	e8bd 8ff8 	ldmia.w	sp!, {r3, r4, r5, r6, r7, r8, r9, sl, fp, pc}
1000809e:	be00      	bkpt	0x0000
100080a0:	e7f3      	b.n	1000808a <usbd_open_edpt_pair+0x7e>
100080a2:	bf00      	nop
100080a4:	200012b0 	.word	0x200012b0
100080a8:	20001660 	.word	0x20001660

100080ac <usbd_edpt_open>:
100080ac:	788b      	ldrb	r3, [r1, #2]
100080ae:	f013 0f70 	tst.w	r3, #112	@ 0x70
100080b2:	d008      	beq.n	100080c6 <usbd_edpt_open+0x1a>
100080b4:	f04f 23e0 	mov.w	r3, #3758153728	@ 0xe000e000
100080b8:	f8d3 3df0 	ldr.w	r3, [r3, #3568]	@ 0xdf0
100080bc:	07da      	lsls	r2, r3, #31
100080be:	d500      	bpl.n	100080c2 <usbd_edpt_open+0x16>
100080c0:	be00      	bkpt	0x0000
100080c2:	2000      	movs	r0, #0
100080c4:	4770      	bx	lr
100080c6:	b510      	push	{r4, lr}
100080c8:	b082      	sub	sp, #8
100080ca:	4608      	mov	r0, r1
100080cc:	9101      	str	r1, [sp, #4]
100080ce:	490c      	ldr	r1, [pc, #48]	@ (10008100 <usbd_edpt_open+0x54>)
100080d0:	4a0c      	ldr	r2, [pc, #48]	@ (10008104 <usbd_edpt_open+0x58>)
100080d2:	7889      	ldrb	r1, [r1, #2]
100080d4:	7814      	ldrb	r4, [r2, #0]
100080d6:	f000 fdfd 	bl	10008cd4 <tu_edpt_validate>
100080da:	b948      	cbnz	r0, 100080f0 <usbd_edpt_open+0x44>
100080dc:	f04f 23e0 	mov.w	r3, #3758153728	@ 0xe000e000
100080e0:	f8d3 3df0 	ldr.w	r3, [r3, #3568]	@ 0xdf0
100080e4:	07db      	lsls	r3, r3, #31
100080e6:	d500      	bpl.n	100080ea <usbd_edpt_open+0x3e>
100080e8:	be00      	bkpt	0x0000
100080ea:	2000      	movs	r0, #0
100080ec:	b002      	add	sp, #8
100080ee:	bd10      	pop	{r4, pc}
100080f0:	4620      	mov	r0, r4
100080f2:	9901      	ldr	r1, [sp, #4]
100080f4:	b002      	add	sp, #8
100080f6:	e8bd 4010 	ldmia.w	sp!, {r4, lr}
100080fa:	f7ff b9bd 	b.w	10007478 <dcd_edpt_open>
100080fe:	bf00      	nop
10008100:	20001660 	.word	0x20001660
10008104:	200012b0 	.word	0x200012b0

10008108 <usbd_edpt_claim>:
10008108:	460a      	mov	r2, r1
1000810a:	4b06      	ldr	r3, [pc, #24]	@ (10008124 <usbd_edpt_claim+0x1c>)
1000810c:	4806      	ldr	r0, [pc, #24]	@ (10008128 <usbd_edpt_claim+0x20>)
1000810e:	6819      	ldr	r1, [r3, #0]
10008110:	09d3      	lsrs	r3, r2, #7
10008112:	3334      	adds	r3, #52	@ 0x34
10008114:	f002 027f 	and.w	r2, r2, #127	@ 0x7f
10008118:	eb03 0342 	add.w	r3, r3, r2, lsl #1
1000811c:	4418      	add	r0, r3
1000811e:	f000 bd8d 	b.w	10008c3c <tu_edpt_claim>
10008122:	bf00      	nop
10008124:	200016b4 	.word	0x200016b4
10008128:	20001660 	.word	0x20001660

1000812c <usbd_edpt_release>:
1000812c:	460a      	mov	r2, r1
1000812e:	4b06      	ldr	r3, [pc, #24]	@ (10008148 <usbd_edpt_release+0x1c>)
10008130:	4806      	ldr	r0, [pc, #24]	@ (1000814c <usbd_edpt_release+0x20>)
10008132:	6819      	ldr	r1, [r3, #0]
10008134:	09d3      	lsrs	r3, r2, #7
10008136:	3334      	adds	r3, #52	@ 0x34
10008138:	f002 027f 	and.w	r2, r2, #127	@ 0x7f
1000813c:	eb03 0342 	add.w	r3, r3, r2, lsl #1
10008140:	4418      	add	r0, r3
10008142:	f000 bdab 	b.w	10008c9c <tu_edpt_release>
10008146:	bf00      	nop
10008148:	200016b4 	.word	0x200016b4
1000814c:	20001660 	.word	0x20001660

10008150 <usbd_edpt_xfer>:
10008150:	b510      	push	{r4, lr}
10008152:	4819      	ldr	r0, [pc, #100]	@ (100081b8 <usbd_edpt_xfer+0x68>)
10008154:	f001 047f 	and.w	r4, r1, #127	@ 0x7f
10008158:	eb00 0044 	add.w	r0, r0, r4, lsl #1
1000815c:	eb00 10d1 	add.w	r0, r0, r1, lsr #7
10008160:	f890 c034 	ldrb.w	ip, [r0, #52]	@ 0x34
10008164:	f01c 0f01 	tst.w	ip, #1
10008168:	d008      	beq.n	1000817c <usbd_edpt_xfer+0x2c>
1000816a:	f04f 23e0 	mov.w	r3, #3758153728	@ 0xe000e000
1000816e:	f8d3 3df0 	ldr.w	r3, [r3, #3568]	@ 0xdf0
10008172:	07da      	lsls	r2, r3, #31
10008174:	d500      	bpl.n	10008178 <usbd_edpt_xfer+0x28>
10008176:	be00      	bkpt	0x0000
10008178:	2000      	movs	r0, #0
1000817a:	bd10      	pop	{r4, pc}
1000817c:	f100 0430 	add.w	r4, r0, #48	@ 0x30
10008180:	f894 c004 	ldrb.w	ip, [r4, #4]
10008184:	480d      	ldr	r0, [pc, #52]	@ (100081bc <usbd_edpt_xfer+0x6c>)
10008186:	f04c 0c01 	orr.w	ip, ip, #1
1000818a:	7800      	ldrb	r0, [r0, #0]
1000818c:	f884 c004 	strb.w	ip, [r4, #4]
10008190:	f7ff f9fa 	bl	10007588 <dcd_edpt_xfer>
10008194:	2800      	cmp	r0, #0
10008196:	d1f0      	bne.n	1000817a <usbd_edpt_xfer+0x2a>
10008198:	f04f 21e0 	mov.w	r1, #3758153728	@ 0xe000e000
1000819c:	7922      	ldrb	r2, [r4, #4]
1000819e:	f360 0200 	bfi	r2, r0, #0, #1
100081a2:	7122      	strb	r2, [r4, #4]
100081a4:	7922      	ldrb	r2, [r4, #4]
100081a6:	f360 0282 	bfi	r2, r0, #2, #1
100081aa:	7122      	strb	r2, [r4, #4]
100081ac:	f8d1 3df0 	ldr.w	r3, [r1, #3568]	@ 0xdf0
100081b0:	07db      	lsls	r3, r3, #31
100081b2:	d5e1      	bpl.n	10008178 <usbd_edpt_xfer+0x28>
100081b4:	be00      	bkpt	0x0000
100081b6:	e7df      	b.n	10008178 <usbd_edpt_xfer+0x28>
100081b8:	20001660 	.word	0x20001660
100081bc:	200012b0 	.word	0x200012b0

100081c0 <tud_control_status>:
100081c0:	f8df c030 	ldr.w	ip, [pc, #48]	@ 100081f4 <tud_control_status+0x34>
100081c4:	2300      	movs	r3, #0
100081c6:	4662      	mov	r2, ip
100081c8:	b510      	push	{r4, lr}
100081ca:	468e      	mov	lr, r1
100081cc:	4604      	mov	r4, r0
100081ce:	6808      	ldr	r0, [r1, #0]
100081d0:	6849      	ldr	r1, [r1, #4]
100081d2:	f8cc 300c 	str.w	r3, [ip, #12]
100081d6:	c203      	stmia	r2!, {r0, r1}
100081d8:	f89e 1000 	ldrb.w	r1, [lr]
100081dc:	4620      	mov	r0, r4
100081de:	e8bd 4010 	ldmia.w	sp!, {r4, lr}
100081e2:	f081 01ff 	eor.w	r1, r1, #255	@ 0xff
100081e6:	461a      	mov	r2, r3
100081e8:	f001 0180 	and.w	r1, r1, #128	@ 0x80
100081ec:	f8cc 3008 	str.w	r3, [ip, #8]
100081f0:	f7ff bfae 	b.w	10008150 <usbd_edpt_xfer>
100081f4:	20001620 	.word	0x20001620

100081f8 <tud_control_xfer>:
100081f8:	f8df c0ac 	ldr.w	ip, [pc, #172]	@ 100082a8 <tud_control_xfer+0xb0>
100081fc:	b570      	push	{r4, r5, r6, lr}
100081fe:	4615      	mov	r5, r2
10008200:	4662      	mov	r2, ip
10008202:	2400      	movs	r4, #0
10008204:	468e      	mov	lr, r1
10008206:	4606      	mov	r6, r0
10008208:	6808      	ldr	r0, [r1, #0]
1000820a:	6849      	ldr	r1, [r1, #4]
1000820c:	b082      	sub	sp, #8
1000820e:	c203      	stmia	r2!, {r0, r1}
10008210:	f8cc 5008 	str.w	r5, [ip, #8]
10008214:	f8ac 400e 	strh.w	r4, [ip, #14]
10008218:	f8be 2006 	ldrh.w	r2, [lr, #6]
1000821c:	4293      	cmp	r3, r2
1000821e:	bf28      	it	cs
10008220:	4613      	movcs	r3, r2
10008222:	f8ac 300c 	strh.w	r3, [ip, #12]
10008226:	b18a      	cbz	r2, 1000824c <tud_control_xfer+0x54>
10008228:	b333      	cbz	r3, 10008278 <tud_control_xfer+0x80>
1000822a:	b1dd      	cbz	r5, 10008264 <tud_control_xfer+0x6c>
1000822c:	f99c 2000 	ldrsb.w	r2, [ip]
10008230:	2b40      	cmp	r3, #64	@ 0x40
10008232:	bf28      	it	cs
10008234:	2340      	movcs	r3, #64	@ 0x40
10008236:	2a00      	cmp	r2, #0
10008238:	db29      	blt.n	1000828e <tud_control_xfer+0x96>
1000823a:	4621      	mov	r1, r4
1000823c:	4630      	mov	r0, r6
1000823e:	4a19      	ldr	r2, [pc, #100]	@ (100082a4 <tud_control_xfer+0xac>)
10008240:	f7ff ff86 	bl	10008150 <usbd_edpt_xfer>
10008244:	b170      	cbz	r0, 10008264 <tud_control_xfer+0x6c>
10008246:	2001      	movs	r0, #1
10008248:	b002      	add	sp, #8
1000824a:	bd70      	pop	{r4, r5, r6, pc}
1000824c:	f89e 1000 	ldrb.w	r1, [lr]
10008250:	4613      	mov	r3, r2
10008252:	f081 01ff 	eor.w	r1, r1, #255	@ 0xff
10008256:	4630      	mov	r0, r6
10008258:	f001 0180 	and.w	r1, r1, #128	@ 0x80
1000825c:	f7ff ff78 	bl	10008150 <usbd_edpt_xfer>
10008260:	2800      	cmp	r0, #0
10008262:	d1f0      	bne.n	10008246 <tud_control_xfer+0x4e>
10008264:	f04f 23e0 	mov.w	r3, #3758153728	@ 0xe000e000
10008268:	f8d3 3df0 	ldr.w	r3, [r3, #3568]	@ 0xdf0
1000826c:	07db      	lsls	r3, r3, #31
1000826e:	d500      	bpl.n	10008272 <tud_control_xfer+0x7a>
10008270:	be00      	bkpt	0x0000
10008272:	2000      	movs	r0, #0
10008274:	b002      	add	sp, #8
10008276:	bd70      	pop	{r4, r5, r6, pc}
10008278:	461a      	mov	r2, r3
1000827a:	f89c 1000 	ldrb.w	r1, [ip]
1000827e:	f001 0180 	and.w	r1, r1, #128	@ 0x80
10008282:	4630      	mov	r0, r6
10008284:	f7ff ff64 	bl	10008150 <usbd_edpt_xfer>
10008288:	2800      	cmp	r0, #0
1000828a:	d1dc      	bne.n	10008246 <tud_control_xfer+0x4e>
1000828c:	e7ea      	b.n	10008264 <tud_control_xfer+0x6c>
1000828e:	461a      	mov	r2, r3
10008290:	4629      	mov	r1, r5
10008292:	4804      	ldr	r0, [pc, #16]	@ (100082a4 <tud_control_xfer+0xac>)
10008294:	9301      	str	r3, [sp, #4]
10008296:	f001 f911 	bl	100094bc <memcpy>
1000829a:	2180      	movs	r1, #128	@ 0x80
1000829c:	4a01      	ldr	r2, [pc, #4]	@ (100082a4 <tud_control_xfer+0xac>)
1000829e:	9b01      	ldr	r3, [sp, #4]
100082a0:	e7ef      	b.n	10008282 <tud_control_xfer+0x8a>
100082a2:	bf00      	nop
100082a4:	200015e0 	.word	0x200015e0
100082a8:	20001620 	.word	0x20001620

100082ac <usbd_control_reset>:
100082ac:	2200      	movs	r2, #0
100082ae:	4b03      	ldr	r3, [pc, #12]	@ (100082bc <usbd_control_reset+0x10>)
100082b0:	e9c3 2200 	strd	r2, r2, [r3]
100082b4:	e9c3 2202 	strd	r2, r2, [r3, #8]
100082b8:	611a      	str	r2, [r3, #16]
100082ba:	4770      	bx	lr
100082bc:	20001620 	.word	0x20001620

100082c0 <usbd_control_set_complete_callback>:
100082c0:	4b01      	ldr	r3, [pc, #4]	@ (100082c8 <usbd_control_set_complete_callback+0x8>)
100082c2:	6118      	str	r0, [r3, #16]
100082c4:	4770      	bx	lr
100082c6:	bf00      	nop
100082c8:	20001620 	.word	0x20001620

100082cc <usbd_control_set_request>:
100082cc:	4601      	mov	r1, r0
100082ce:	4a05      	ldr	r2, [pc, #20]	@ (100082e4 <usbd_control_set_request+0x18>)
100082d0:	f04f 0c00 	mov.w	ip, #0
100082d4:	4613      	mov	r3, r2
100082d6:	6800      	ldr	r0, [r0, #0]
100082d8:	6849      	ldr	r1, [r1, #4]
100082da:	e9c2 cc02 	strd	ip, ip, [r2, #8]
100082de:	c303      	stmia	r3!, {r0, r1}
100082e0:	4770      	bx	lr
100082e2:	bf00      	nop
100082e4:	20001620 	.word	0x20001620

100082e8 <usbd_control_xfer_cb>:
100082e8:	b530      	push	{r4, r5, lr}
100082ea:	4c3e      	ldr	r4, [pc, #248]	@ (100083e4 <usbd_control_xfer_cb+0xfc>)
100082ec:	09c9      	lsrs	r1, r1, #7
100082ee:	7822      	ldrb	r2, [r4, #0]
100082f0:	4605      	mov	r5, r0
100082f2:	ebb1 1fd2 	cmp.w	r1, r2, lsr #7
100082f6:	b083      	sub	sp, #12
100082f8:	d017      	beq.n	1000832a <usbd_control_xfer_cb+0x42>
100082fa:	b153      	cbz	r3, 10008312 <usbd_control_xfer_cb+0x2a>
100082fc:	f04f 23e0 	mov.w	r3, #3758153728	@ 0xe000e000
10008300:	f8d3 3df0 	ldr.w	r3, [r3, #3568]	@ 0xdf0
10008304:	07db      	lsls	r3, r3, #31
10008306:	d402      	bmi.n	1000830e <usbd_control_xfer_cb+0x26>
10008308:	2000      	movs	r0, #0
1000830a:	b003      	add	sp, #12
1000830c:	bd30      	pop	{r4, r5, pc}
1000830e:	be00      	bkpt	0x0000
10008310:	e7fa      	b.n	10008308 <usbd_control_xfer_cb+0x20>
10008312:	4621      	mov	r1, r4
10008314:	f7ff f8a2 	bl	1000745c <dcd_edpt0_status_complete>
10008318:	6923      	ldr	r3, [r4, #16]
1000831a:	b11b      	cbz	r3, 10008324 <usbd_control_xfer_cb+0x3c>
1000831c:	4622      	mov	r2, r4
1000831e:	2103      	movs	r1, #3
10008320:	4628      	mov	r0, r5
10008322:	4798      	blx	r3
10008324:	2001      	movs	r0, #1
10008326:	b003      	add	sp, #12
10008328:	bd30      	pop	{r4, r5, pc}
1000832a:	f994 2000 	ldrsb.w	r2, [r4]
1000832e:	2a00      	cmp	r2, #0
10008330:	db08      	blt.n	10008344 <usbd_control_xfer_cb+0x5c>
10008332:	68a0      	ldr	r0, [r4, #8]
10008334:	2800      	cmp	r0, #0
10008336:	d0e7      	beq.n	10008308 <usbd_control_xfer_cb+0x20>
10008338:	461a      	mov	r2, r3
1000833a:	492b      	ldr	r1, [pc, #172]	@ (100083e8 <usbd_control_xfer_cb+0x100>)
1000833c:	9301      	str	r3, [sp, #4]
1000833e:	f001 f8bd 	bl	100094bc <memcpy>
10008342:	9b01      	ldr	r3, [sp, #4]
10008344:	89e0      	ldrh	r0, [r4, #14]
10008346:	68a1      	ldr	r1, [r4, #8]
10008348:	88e2      	ldrh	r2, [r4, #6]
1000834a:	4418      	add	r0, r3
1000834c:	b280      	uxth	r0, r0
1000834e:	4419      	add	r1, r3
10008350:	4282      	cmp	r2, r0
10008352:	81e0      	strh	r0, [r4, #14]
10008354:	60a1      	str	r1, [r4, #8]
10008356:	d016      	beq.n	10008386 <usbd_control_xfer_cb+0x9e>
10008358:	2b3f      	cmp	r3, #63	@ 0x3f
1000835a:	d914      	bls.n	10008386 <usbd_control_xfer_cb+0x9e>
1000835c:	89a2      	ldrh	r2, [r4, #12]
1000835e:	f994 4000 	ldrsb.w	r4, [r4]
10008362:	1a13      	subs	r3, r2, r0
10008364:	b29b      	uxth	r3, r3
10008366:	2b40      	cmp	r3, #64	@ 0x40
10008368:	bf28      	it	cs
1000836a:	2340      	movcs	r3, #64	@ 0x40
1000836c:	2c00      	cmp	r4, #0
1000836e:	db28      	blt.n	100083c2 <usbd_control_xfer_cb+0xda>
10008370:	4290      	cmp	r0, r2
10008372:	f04f 0100 	mov.w	r1, #0
10008376:	d032      	beq.n	100083de <usbd_control_xfer_cb+0xf6>
10008378:	4a1b      	ldr	r2, [pc, #108]	@ (100083e8 <usbd_control_xfer_cb+0x100>)
1000837a:	4628      	mov	r0, r5
1000837c:	f7ff fee8 	bl	10008150 <usbd_edpt_xfer>
10008380:	2800      	cmp	r0, #0
10008382:	d1cf      	bne.n	10008324 <usbd_control_xfer_cb+0x3c>
10008384:	e7ba      	b.n	100082fc <usbd_control_xfer_cb+0x14>
10008386:	6923      	ldr	r3, [r4, #16]
10008388:	b123      	cbz	r3, 10008394 <usbd_control_xfer_cb+0xac>
1000838a:	2102      	movs	r1, #2
1000838c:	4628      	mov	r0, r5
1000838e:	4a15      	ldr	r2, [pc, #84]	@ (100083e4 <usbd_control_xfer_cb+0xfc>)
10008390:	4798      	blx	r3
10008392:	b168      	cbz	r0, 100083b0 <usbd_control_xfer_cb+0xc8>
10008394:	2300      	movs	r3, #0
10008396:	7821      	ldrb	r1, [r4, #0]
10008398:	4628      	mov	r0, r5
1000839a:	f081 01ff 	eor.w	r1, r1, #255	@ 0xff
1000839e:	461a      	mov	r2, r3
100083a0:	f001 0180 	and.w	r1, r1, #128	@ 0x80
100083a4:	f7ff fed4 	bl	10008150 <usbd_edpt_xfer>
100083a8:	2800      	cmp	r0, #0
100083aa:	d0a7      	beq.n	100082fc <usbd_control_xfer_cb+0x14>
100083ac:	2001      	movs	r0, #1
100083ae:	e7ba      	b.n	10008326 <usbd_control_xfer_cb+0x3e>
100083b0:	4601      	mov	r1, r0
100083b2:	4628      	mov	r0, r5
100083b4:	f7ff f8fc 	bl	100075b0 <dcd_edpt_stall>
100083b8:	2180      	movs	r1, #128	@ 0x80
100083ba:	4628      	mov	r0, r5
100083bc:	f7ff f8f8 	bl	100075b0 <dcd_edpt_stall>
100083c0:	e7b0      	b.n	10008324 <usbd_control_xfer_cb+0x3c>
100083c2:	4290      	cmp	r0, r2
100083c4:	d008      	beq.n	100083d8 <usbd_control_xfer_cb+0xf0>
100083c6:	461a      	mov	r2, r3
100083c8:	4807      	ldr	r0, [pc, #28]	@ (100083e8 <usbd_control_xfer_cb+0x100>)
100083ca:	9301      	str	r3, [sp, #4]
100083cc:	f001 f876 	bl	100094bc <memcpy>
100083d0:	2180      	movs	r1, #128	@ 0x80
100083d2:	4a05      	ldr	r2, [pc, #20]	@ (100083e8 <usbd_control_xfer_cb+0x100>)
100083d4:	9b01      	ldr	r3, [sp, #4]
100083d6:	e7d0      	b.n	1000837a <usbd_control_xfer_cb+0x92>
100083d8:	2180      	movs	r1, #128	@ 0x80
100083da:	2200      	movs	r2, #0
100083dc:	e7cd      	b.n	1000837a <usbd_control_xfer_cb+0x92>
100083de:	460a      	mov	r2, r1
100083e0:	e7cb      	b.n	1000837a <usbd_control_xfer_cb+0x92>
100083e2:	bf00      	nop
100083e4:	20001620 	.word	0x20001620
100083e8:	200015e0 	.word	0x200015e0

100083ec <_prep_out_transaction.isra.0>:
100083ec:	b570      	push	{r4, r5, r6, lr}
100083ee:	b082      	sub	sp, #8
100083f0:	4604      	mov	r4, r0
100083f2:	f7ff f99d 	bl	10007730 <tud_mounted>
100083f6:	b908      	cbnz	r0, 100083fc <_prep_out_transaction.isra.0+0x10>
100083f8:	b002      	add	sp, #8
100083fa:	bd70      	pop	{r4, r5, r6, pc}
100083fc:	f7ff f9a0 	bl	10007740 <tud_suspended>
10008400:	4602      	mov	r2, r0
10008402:	2800      	cmp	r0, #0
10008404:	d1f8      	bne.n	100083f8 <_prep_out_transaction.isra.0+0xc>
10008406:	23c8      	movs	r3, #200	@ 0xc8
10008408:	fb04 f303 	mul.w	r3, r4, r3
1000840c:	4915      	ldr	r1, [pc, #84]	@ (10008464 <_prep_out_transaction.isra.0+0x78>)
1000840e:	4625      	mov	r5, r4
10008410:	18cc      	adds	r4, r1, r3
10008412:	78e0      	ldrb	r0, [r4, #3]
10008414:	2800      	cmp	r0, #0
10008416:	d0ef      	beq.n	100083f8 <_prep_out_transaction.isra.0+0xc>
10008418:	3310      	adds	r3, #16
1000841a:	185e      	adds	r6, r3, r1
1000841c:	4630      	mov	r0, r6
1000841e:	9201      	str	r2, [sp, #4]
10008420:	f000 fe02 	bl	10009028 <tu_fifo_remaining>
10008424:	283f      	cmp	r0, #63	@ 0x3f
10008426:	d9e7      	bls.n	100083f8 <_prep_out_transaction.isra.0+0xc>
10008428:	78e1      	ldrb	r1, [r4, #3]
1000842a:	9801      	ldr	r0, [sp, #4]
1000842c:	f7ff fe6c 	bl	10008108 <usbd_edpt_claim>
10008430:	2800      	cmp	r0, #0
10008432:	d0e1      	beq.n	100083f8 <_prep_out_transaction.isra.0+0xc>
10008434:	4630      	mov	r0, r6
10008436:	f000 fdf7 	bl	10009028 <tu_fifo_remaining>
1000843a:	283f      	cmp	r0, #63	@ 0x3f
1000843c:	78e1      	ldrb	r1, [r4, #3]
1000843e:	d90a      	bls.n	10008456 <_prep_out_transaction.isra.0+0x6a>
10008440:	2340      	movs	r3, #64	@ 0x40
10008442:	f8df c024 	ldr.w	ip, [pc, #36]	@ 10008468 <_prep_out_transaction.isra.0+0x7c>
10008446:	9801      	ldr	r0, [sp, #4]
10008448:	eb0c 12c5 	add.w	r2, ip, r5, lsl #7
1000844c:	b002      	add	sp, #8
1000844e:	e8bd 4070 	ldmia.w	sp!, {r4, r5, r6, lr}
10008452:	f7ff be7d 	b.w	10008150 <usbd_edpt_xfer>
10008456:	9801      	ldr	r0, [sp, #4]
10008458:	b002      	add	sp, #8
1000845a:	e8bd 4070 	ldmia.w	sp!, {r4, r5, r6, lr}
1000845e:	f7ff be65 	b.w	1000812c <usbd_edpt_release>
10008462:	bf00      	nop
10008464:	200012c8 	.word	0x200012c8
10008468:	2000155c 	.word	0x2000155c

1000846c <tud_cdc_n_connected>:
1000846c:	b510      	push	{r4, lr}
1000846e:	4604      	mov	r4, r0
10008470:	f7ff f95e 	bl	10007730 <tud_mounted>
10008474:	b908      	cbnz	r0, 1000847a <tud_cdc_n_connected+0xe>
10008476:	2000      	movs	r0, #0
10008478:	bd10      	pop	{r4, pc}
1000847a:	f7ff f961 	bl	10007740 <tud_suspended>
1000847e:	2800      	cmp	r0, #0
10008480:	d1f9      	bne.n	10008476 <tud_cdc_n_connected+0xa>
10008482:	22c8      	movs	r2, #200	@ 0xc8
10008484:	4b03      	ldr	r3, [pc, #12]	@ (10008494 <tud_cdc_n_connected+0x28>)
10008486:	fb02 3304 	mla	r3, r2, r4, r3
1000848a:	7918      	ldrb	r0, [r3, #4]
1000848c:	f000 0001 	and.w	r0, r0, #1
10008490:	bd10      	pop	{r4, pc}
10008492:	bf00      	nop
10008494:	200012c8 	.word	0x200012c8

10008498 <tud_cdc_n_available>:
10008498:	22c8      	movs	r2, #200	@ 0xc8
1000849a:	b508      	push	{r3, lr}
1000849c:	4b02      	ldr	r3, [pc, #8]	@ (100084a8 <tud_cdc_n_available+0x10>)
1000849e:	fb02 3000 	mla	r0, r2, r0, r3
100084a2:	f000 fda7 	bl	10008ff4 <tu_fifo_count>
100084a6:	bd08      	pop	{r3, pc}
100084a8:	200012d8 	.word	0x200012d8

100084ac <tud_cdc_n_read>:
100084ac:	f64f 73ff 	movw	r3, #65535	@ 0xffff
100084b0:	e92d 41f0 	stmdb	sp!, {r4, r5, r6, r7, r8, lr}
100084b4:	24c8      	movs	r4, #200	@ 0xc8
100084b6:	429a      	cmp	r2, r3
100084b8:	bf28      	it	cs
100084ba:	461a      	movcs	r2, r3
100084bc:	fb00 f404 	mul.w	r4, r0, r4
100084c0:	4d1b      	ldr	r5, [pc, #108]	@ (10008530 <tud_cdc_n_read+0x84>)
100084c2:	f104 0310 	add.w	r3, r4, #16
100084c6:	b082      	sub	sp, #8
100084c8:	4680      	mov	r8, r0
100084ca:	b292      	uxth	r2, r2
100084cc:	1958      	adds	r0, r3, r5
100084ce:	195f      	adds	r7, r3, r5
100084d0:	f000 fe0a 	bl	100090e8 <tu_fifo_read_n>
100084d4:	4606      	mov	r6, r0
100084d6:	f7ff f92b 	bl	10007730 <tud_mounted>
100084da:	b918      	cbnz	r0, 100084e4 <tud_cdc_n_read+0x38>
100084dc:	4630      	mov	r0, r6
100084de:	b002      	add	sp, #8
100084e0:	e8bd 81f0 	ldmia.w	sp!, {r4, r5, r6, r7, r8, pc}
100084e4:	f7ff f92c 	bl	10007740 <tud_suspended>
100084e8:	2800      	cmp	r0, #0
100084ea:	d1f7      	bne.n	100084dc <tud_cdc_n_read+0x30>
100084ec:	4425      	add	r5, r4
100084ee:	78ea      	ldrb	r2, [r5, #3]
100084f0:	2a00      	cmp	r2, #0
100084f2:	d0f3      	beq.n	100084dc <tud_cdc_n_read+0x30>
100084f4:	9001      	str	r0, [sp, #4]
100084f6:	4638      	mov	r0, r7
100084f8:	f000 fd96 	bl	10009028 <tu_fifo_remaining>
100084fc:	283f      	cmp	r0, #63	@ 0x3f
100084fe:	d9ed      	bls.n	100084dc <tud_cdc_n_read+0x30>
10008500:	9801      	ldr	r0, [sp, #4]
10008502:	78e9      	ldrb	r1, [r5, #3]
10008504:	f7ff fe00 	bl	10008108 <usbd_edpt_claim>
10008508:	2800      	cmp	r0, #0
1000850a:	d0e7      	beq.n	100084dc <tud_cdc_n_read+0x30>
1000850c:	4638      	mov	r0, r7
1000850e:	f000 fd8b 	bl	10009028 <tu_fifo_remaining>
10008512:	283f      	cmp	r0, #63	@ 0x3f
10008514:	78e9      	ldrb	r1, [r5, #3]
10008516:	d907      	bls.n	10008528 <tud_cdc_n_read+0x7c>
10008518:	4a06      	ldr	r2, [pc, #24]	@ (10008534 <tud_cdc_n_read+0x88>)
1000851a:	2340      	movs	r3, #64	@ 0x40
1000851c:	9801      	ldr	r0, [sp, #4]
1000851e:	eb02 12c8 	add.w	r2, r2, r8, lsl #7
10008522:	f7ff fe15 	bl	10008150 <usbd_edpt_xfer>
10008526:	e7d9      	b.n	100084dc <tud_cdc_n_read+0x30>
10008528:	9801      	ldr	r0, [sp, #4]
1000852a:	f7ff fdff 	bl	1000812c <usbd_edpt_release>
1000852e:	e7d5      	b.n	100084dc <tud_cdc_n_read+0x30>
10008530:	200012c8 	.word	0x200012c8
10008534:	2000155c 	.word	0x2000155c

10008538 <tud_cdc_n_write_flush>:
10008538:	b5f0      	push	{r4, r5, r6, r7, lr}
1000853a:	b083      	sub	sp, #12
1000853c:	4605      	mov	r5, r0
1000853e:	f7ff f8f7 	bl	10007730 <tud_mounted>
10008542:	b910      	cbnz	r0, 1000854a <tud_cdc_n_write_flush+0x12>
10008544:	2000      	movs	r0, #0
10008546:	b003      	add	sp, #12
10008548:	bdf0      	pop	{r4, r5, r6, r7, pc}
1000854a:	f7ff f8f9 	bl	10007740 <tud_suspended>
1000854e:	4604      	mov	r4, r0
10008550:	2800      	cmp	r0, #0
10008552:	d1f7      	bne.n	10008544 <tud_cdc_n_write_flush+0xc>
10008554:	23c8      	movs	r3, #200	@ 0xc8
10008556:	fb05 f303 	mul.w	r3, r5, r3
1000855a:	4a1a      	ldr	r2, [pc, #104]	@ (100085c4 <tud_cdc_n_write_flush+0x8c>)
1000855c:	f103 0124 	add.w	r1, r3, #36	@ 0x24
10008560:	188f      	adds	r7, r1, r2
10008562:	4638      	mov	r0, r7
10008564:	9300      	str	r3, [sp, #0]
10008566:	f000 fd45 	bl	10008ff4 <tu_fifo_count>
1000856a:	2800      	cmp	r0, #0
1000856c:	d0ea      	beq.n	10008544 <tud_cdc_n_write_flush+0xc>
1000856e:	4a15      	ldr	r2, [pc, #84]	@ (100085c4 <tud_cdc_n_write_flush+0x8c>)
10008570:	9b00      	ldr	r3, [sp, #0]
10008572:	4620      	mov	r0, r4
10008574:	18d6      	adds	r6, r2, r3
10008576:	78b1      	ldrb	r1, [r6, #2]
10008578:	f7ff fdc6 	bl	10008108 <usbd_edpt_claim>
1000857c:	2800      	cmp	r0, #0
1000857e:	d0e1      	beq.n	10008544 <tud_cdc_n_write_flush+0xc>
10008580:	4911      	ldr	r1, [pc, #68]	@ (100085c8 <tud_cdc_n_write_flush+0x90>)
10008582:	4638      	mov	r0, r7
10008584:	eb01 11c5 	add.w	r1, r1, r5, lsl #7
10008588:	2240      	movs	r2, #64	@ 0x40
1000858a:	9100      	str	r1, [sp, #0]
1000858c:	f000 fdac 	bl	100090e8 <tu_fifo_read_n>
10008590:	f896 c002 	ldrb.w	ip, [r6, #2]
10008594:	4603      	mov	r3, r0
10008596:	b170      	cbz	r0, 100085b6 <tud_cdc_n_write_flush+0x7e>
10008598:	9001      	str	r0, [sp, #4]
1000859a:	4661      	mov	r1, ip
1000859c:	4620      	mov	r0, r4
1000859e:	9a00      	ldr	r2, [sp, #0]
100085a0:	f7ff fdd6 	bl	10008150 <usbd_edpt_xfer>
100085a4:	b958      	cbnz	r0, 100085be <tud_cdc_n_write_flush+0x86>
100085a6:	f04f 23e0 	mov.w	r3, #3758153728	@ 0xe000e000
100085aa:	f8d3 3df0 	ldr.w	r3, [r3, #3568]	@ 0xdf0
100085ae:	07db      	lsls	r3, r3, #31
100085b0:	d5c8      	bpl.n	10008544 <tud_cdc_n_write_flush+0xc>
100085b2:	be00      	bkpt	0x0000
100085b4:	e7c6      	b.n	10008544 <tud_cdc_n_write_flush+0xc>
100085b6:	4661      	mov	r1, ip
100085b8:	f7ff fdb8 	bl	1000812c <usbd_edpt_release>
100085bc:	e7c2      	b.n	10008544 <tud_cdc_n_write_flush+0xc>
100085be:	9801      	ldr	r0, [sp, #4]
100085c0:	e7c1      	b.n	10008546 <tud_cdc_n_write_flush+0xe>
100085c2:	bf00      	nop
100085c4:	200012c8 	.word	0x200012c8
100085c8:	2000159c 	.word	0x2000159c

100085cc <tud_cdc_n_write>:
100085cc:	b570      	push	{r4, r5, r6, lr}
100085ce:	4605      	mov	r5, r0
100085d0:	f64f 70ff 	movw	r0, #65535	@ 0xffff
100085d4:	23c8      	movs	r3, #200	@ 0xc8
100085d6:	4282      	cmp	r2, r0
100085d8:	bf28      	it	cs
100085da:	4602      	movcs	r2, r0
100085dc:	4c09      	ldr	r4, [pc, #36]	@ (10008604 <tud_cdc_n_write+0x38>)
100085de:	b292      	uxth	r2, r2
100085e0:	fb03 4405 	mla	r4, r3, r5, r4
100085e4:	4620      	mov	r0, r4
100085e6:	f000 fe43 	bl	10009270 <tu_fifo_write_n>
100085ea:	4606      	mov	r6, r0
100085ec:	4620      	mov	r0, r4
100085ee:	f000 fd01 	bl	10008ff4 <tu_fifo_count>
100085f2:	283f      	cmp	r0, #63	@ 0x3f
100085f4:	d801      	bhi.n	100085fa <tud_cdc_n_write+0x2e>
100085f6:	4630      	mov	r0, r6
100085f8:	bd70      	pop	{r4, r5, r6, pc}
100085fa:	4628      	mov	r0, r5
100085fc:	f7ff ff9c 	bl	10008538 <tud_cdc_n_write_flush>
10008600:	4630      	mov	r0, r6
10008602:	bd70      	pop	{r4, r5, r6, pc}
10008604:	200012ec 	.word	0x200012ec

10008608 <tud_cdc_n_write_available>:
10008608:	22c8      	movs	r2, #200	@ 0xc8
1000860a:	b508      	push	{r3, lr}
1000860c:	4b02      	ldr	r3, [pc, #8]	@ (10008618 <tud_cdc_n_write_available+0x10>)
1000860e:	fb02 3000 	mla	r0, r2, r0, r3
10008612:	f000 fd09 	bl	10009028 <tu_fifo_remaining>
10008616:	bd08      	pop	{r3, pc}
10008618:	200012ec 	.word	0x200012ec

1000861c <cdcd_init>:
1000861c:	b570      	push	{r4, r5, r6, lr}
1000861e:	2400      	movs	r4, #0
10008620:	b082      	sub	sp, #8
10008622:	22c8      	movs	r2, #200	@ 0xc8
10008624:	2100      	movs	r1, #0
10008626:	4818      	ldr	r0, [pc, #96]	@ (10008688 <cdcd_init+0x6c>)
10008628:	f000 ff04 	bl	10009434 <memset>
1000862c:	23ff      	movs	r3, #255	@ 0xff
1000862e:	f44f 31e1 	mov.w	r1, #115200	@ 0x1c200
10008632:	2208      	movs	r2, #8
10008634:	4815      	ldr	r0, [pc, #84]	@ (1000868c <cdcd_init+0x70>)
10008636:	7004      	strb	r4, [r0, #0]
10008638:	4813      	ldr	r0, [pc, #76]	@ (10008688 <cdcd_init+0x6c>)
1000863a:	9400      	str	r4, [sp, #0]
1000863c:	4606      	mov	r6, r0
1000863e:	7143      	strb	r3, [r0, #5]
10008640:	6081      	str	r1, [r0, #8]
10008642:	7382      	strb	r2, [r0, #14]
10008644:	f100 0138 	add.w	r1, r0, #56	@ 0x38
10008648:	2301      	movs	r3, #1
1000864a:	2240      	movs	r2, #64	@ 0x40
1000864c:	3010      	adds	r0, #16
1000864e:	f000 fca1 	bl	10008f94 <tu_fifo_config>
10008652:	2301      	movs	r3, #1
10008654:	2240      	movs	r2, #64	@ 0x40
10008656:	f106 0178 	add.w	r1, r6, #120	@ 0x78
1000865a:	9300      	str	r3, [sp, #0]
1000865c:	f106 05b8 	add.w	r5, r6, #184	@ 0xb8
10008660:	f106 0024 	add.w	r0, r6, #36	@ 0x24
10008664:	f000 fc96 	bl	10008f94 <tu_fifo_config>
10008668:	4628      	mov	r0, r5
1000866a:	f7fb fcbd 	bl	10003fe8 <mutex_init>
1000866e:	f106 00c0 	add.w	r0, r6, #192	@ 0xc0
10008672:	f7fb fcb9 	bl	10003fe8 <mutex_init>
10008676:	f106 00c0 	add.w	r0, r6, #192	@ 0xc0
1000867a:	e9c6 4507 	strd	r4, r5, [r6, #28]
1000867e:	e9c6 040c 	strd	r0, r4, [r6, #48]	@ 0x30
10008682:	b002      	add	sp, #8
10008684:	bd70      	pop	{r4, r5, r6, pc}
10008686:	bf00      	nop
10008688:	200012c8 	.word	0x200012c8
1000868c:	200015dc 	.word	0x200015dc

10008690 <cdcd_deinit>:
10008690:	4b0a      	ldr	r3, [pc, #40]	@ (100086bc <cdcd_deinit+0x2c>)
10008692:	6b19      	ldr	r1, [r3, #48]	@ 0x30
10008694:	6a1a      	ldr	r2, [r3, #32]
10008696:	b161      	cbz	r1, 100086b2 <cdcd_deinit+0x22>
10008698:	b13a      	cbz	r2, 100086aa <cdcd_deinit+0x1a>
1000869a:	2200      	movs	r2, #0
1000869c:	e9c3 220c 	strd	r2, r2, [r3, #48]	@ 0x30
100086a0:	61da      	str	r2, [r3, #28]
100086a2:	2200      	movs	r2, #0
100086a4:	621a      	str	r2, [r3, #32]
100086a6:	2001      	movs	r0, #1
100086a8:	4770      	bx	lr
100086aa:	2001      	movs	r0, #1
100086ac:	e9c3 220c 	strd	r2, r2, [r3, #48]	@ 0x30
100086b0:	4770      	bx	lr
100086b2:	2a00      	cmp	r2, #0
100086b4:	d0f7      	beq.n	100086a6 <cdcd_deinit+0x16>
100086b6:	61d9      	str	r1, [r3, #28]
100086b8:	e7f3      	b.n	100086a2 <cdcd_deinit+0x12>
100086ba:	bf00      	nop
100086bc:	200012c8 	.word	0x200012c8

100086c0 <cdcd_reset>:
100086c0:	2200      	movs	r2, #0
100086c2:	4910      	ldr	r1, [pc, #64]	@ (10008704 <cdcd_reset+0x44>)
100086c4:	b508      	push	{r3, lr}
100086c6:	4810      	ldr	r0, [pc, #64]	@ (10008708 <cdcd_reset+0x48>)
100086c8:	780b      	ldrb	r3, [r1, #0]
100086ca:	6002      	str	r2, [r0, #0]
100086cc:	7102      	strb	r2, [r0, #4]
100086ce:	07da      	lsls	r2, r3, #31
100086d0:	d507      	bpl.n	100086e2 <cdcd_reset+0x22>
100086d2:	079b      	lsls	r3, r3, #30
100086d4:	d50c      	bpl.n	100086f0 <cdcd_reset+0x30>
100086d6:	e8bd 4008 	ldmia.w	sp!, {r3, lr}
100086da:	2101      	movs	r1, #1
100086dc:	480b      	ldr	r0, [pc, #44]	@ (1000870c <cdcd_reset+0x4c>)
100086de:	f000 be8b 	b.w	100093f8 <tu_fifo_set_overwritable>
100086e2:	3010      	adds	r0, #16
100086e4:	f000 fe6c 	bl	100093c0 <tu_fifo_clear>
100086e8:	4906      	ldr	r1, [pc, #24]	@ (10008704 <cdcd_reset+0x44>)
100086ea:	780b      	ldrb	r3, [r1, #0]
100086ec:	079b      	lsls	r3, r3, #30
100086ee:	d4f2      	bmi.n	100086d6 <cdcd_reset+0x16>
100086f0:	4806      	ldr	r0, [pc, #24]	@ (1000870c <cdcd_reset+0x4c>)
100086f2:	f000 fe65 	bl	100093c0 <tu_fifo_clear>
100086f6:	e8bd 4008 	ldmia.w	sp!, {r3, lr}
100086fa:	2101      	movs	r1, #1
100086fc:	4803      	ldr	r0, [pc, #12]	@ (1000870c <cdcd_reset+0x4c>)
100086fe:	f000 be7b 	b.w	100093f8 <tu_fifo_set_overwritable>
10008702:	bf00      	nop
10008704:	200015dc 	.word	0x200015dc
10008708:	200012c8 	.word	0x200012c8
1000870c:	200012ec 	.word	0x200012ec

10008710 <cdcd_open>:
10008710:	b570      	push	{r4, r5, r6, lr}
10008712:	794b      	ldrb	r3, [r1, #5]
10008714:	b084      	sub	sp, #16
10008716:	2b02      	cmp	r3, #2
10008718:	d102      	bne.n	10008720 <cdcd_open+0x10>
1000871a:	798b      	ldrb	r3, [r1, #6]
1000871c:	2b02      	cmp	r3, #2
1000871e:	d003      	beq.n	10008728 <cdcd_open+0x18>
10008720:	2400      	movs	r4, #0
10008722:	4620      	mov	r0, r4
10008724:	b004      	add	sp, #16
10008726:	bd70      	pop	{r4, r5, r6, pc}
10008728:	4b2b      	ldr	r3, [pc, #172]	@ (100087d8 <cdcd_open+0xc8>)
1000872a:	789b      	ldrb	r3, [r3, #2]
1000872c:	b13b      	cbz	r3, 1000873e <cdcd_open+0x2e>
1000872e:	f04f 23e0 	mov.w	r3, #3758153728	@ 0xe000e000
10008732:	f8d3 3df0 	ldr.w	r3, [r3, #3568]	@ 0xdf0
10008736:	07db      	lsls	r3, r3, #31
10008738:	d5f2      	bpl.n	10008720 <cdcd_open+0x10>
1000873a:	be00      	bkpt	0x0000
1000873c:	e7f0      	b.n	10008720 <cdcd_open+0x10>
1000873e:	788b      	ldrb	r3, [r1, #2]
10008740:	4605      	mov	r5, r0
10008742:	4825      	ldr	r0, [pc, #148]	@ (100087d8 <cdcd_open+0xc8>)
10008744:	7003      	strb	r3, [r0, #0]
10008746:	780b      	ldrb	r3, [r1, #0]
10008748:	4419      	add	r1, r3
1000874a:	f891 c001 	ldrb.w	ip, [r1, #1]
1000874e:	f1bc 0f24 	cmp.w	ip, #36	@ 0x24
10008752:	bf08      	it	eq
10008754:	2409      	moveq	r4, #9
10008756:	d009      	beq.n	1000876c <cdcd_open+0x5c>
10008758:	e03b      	b.n	100087d2 <cdcd_open+0xc2>
1000875a:	780b      	ldrb	r3, [r1, #0]
1000875c:	4419      	add	r1, r3
1000875e:	f891 c001 	ldrb.w	ip, [r1, #1]
10008762:	4423      	add	r3, r4
10008764:	f1bc 0f24 	cmp.w	ip, #36	@ 0x24
10008768:	b29c      	uxth	r4, r3
1000876a:	d107      	bne.n	1000877c <cdcd_open+0x6c>
1000876c:	4294      	cmp	r4, r2
1000876e:	d9f4      	bls.n	1000875a <cdcd_open+0x4a>
10008770:	2000      	movs	r0, #0
10008772:	f7ff fe3b 	bl	100083ec <_prep_out_transaction.isra.0>
10008776:	4620      	mov	r0, r4
10008778:	b004      	add	sp, #16
1000877a:	bd70      	pop	{r4, r5, r6, pc}
1000877c:	4663      	mov	r3, ip
1000877e:	f1bc 0f05 	cmp.w	ip, #5
10008782:	d016      	beq.n	100087b2 <cdcd_open+0xa2>
10008784:	2b04      	cmp	r3, #4
10008786:	d1f3      	bne.n	10008770 <cdcd_open+0x60>
10008788:	794b      	ldrb	r3, [r1, #5]
1000878a:	2b0a      	cmp	r3, #10
1000878c:	d1f0      	bne.n	10008770 <cdcd_open+0x60>
1000878e:	4b13      	ldr	r3, [pc, #76]	@ (100087dc <cdcd_open+0xcc>)
10008790:	780a      	ldrb	r2, [r1, #0]
10008792:	9301      	str	r3, [sp, #4]
10008794:	3301      	adds	r3, #1
10008796:	9300      	str	r3, [sp, #0]
10008798:	2302      	movs	r3, #2
1000879a:	4616      	mov	r6, r2
1000879c:	4411      	add	r1, r2
1000879e:	4628      	mov	r0, r5
100087a0:	461a      	mov	r2, r3
100087a2:	f7ff fc33 	bl	1000800c <usbd_open_edpt_pair>
100087a6:	2800      	cmp	r0, #0
100087a8:	d0c1      	beq.n	1000872e <cdcd_open+0x1e>
100087aa:	340e      	adds	r4, #14
100087ac:	1933      	adds	r3, r6, r4
100087ae:	b29c      	uxth	r4, r3
100087b0:	e7de      	b.n	10008770 <cdcd_open+0x60>
100087b2:	4628      	mov	r0, r5
100087b4:	9103      	str	r1, [sp, #12]
100087b6:	f7ff fc79 	bl	100080ac <usbd_edpt_open>
100087ba:	9903      	ldr	r1, [sp, #12]
100087bc:	2800      	cmp	r0, #0
100087be:	d0b6      	beq.n	1000872e <cdcd_open+0x1e>
100087c0:	788b      	ldrb	r3, [r1, #2]
100087c2:	4a05      	ldr	r2, [pc, #20]	@ (100087d8 <cdcd_open+0xc8>)
100087c4:	7053      	strb	r3, [r2, #1]
100087c6:	780b      	ldrb	r3, [r1, #0]
100087c8:	191a      	adds	r2, r3, r4
100087ca:	4419      	add	r1, r3
100087cc:	784b      	ldrb	r3, [r1, #1]
100087ce:	b294      	uxth	r4, r2
100087d0:	e7d8      	b.n	10008784 <cdcd_open+0x74>
100087d2:	4663      	mov	r3, ip
100087d4:	2409      	movs	r4, #9
100087d6:	e7d2      	b.n	1000877e <cdcd_open+0x6e>
100087d8:	200012c8 	.word	0x200012c8
100087dc:	200012ca 	.word	0x200012ca

100087e0 <cdcd_control_xfer_cb>:
100087e0:	7813      	ldrb	r3, [r2, #0]
100087e2:	f003 0360 	and.w	r3, r3, #96	@ 0x60
100087e6:	2b20      	cmp	r3, #32
100087e8:	d10b      	bne.n	10008802 <cdcd_control_xfer_cb+0x22>
100087ea:	b500      	push	{lr}
100087ec:	f8df c0bc 	ldr.w	ip, [pc, #188]	@ 100088ac <cdcd_control_xfer_cb+0xcc>
100087f0:	8893      	ldrh	r3, [r2, #4]
100087f2:	f89c e000 	ldrb.w	lr, [ip]
100087f6:	b083      	sub	sp, #12
100087f8:	459e      	cmp	lr, r3
100087fa:	d004      	beq.n	10008806 <cdcd_control_xfer_cb+0x26>
100087fc:	2000      	movs	r0, #0
100087fe:	b003      	add	sp, #12
10008800:	bd00      	pop	{pc}
10008802:	2000      	movs	r0, #0
10008804:	4770      	bx	lr
10008806:	7853      	ldrb	r3, [r2, #1]
10008808:	3b20      	subs	r3, #32
1000880a:	2b03      	cmp	r3, #3
1000880c:	d8f6      	bhi.n	100087fc <cdcd_control_xfer_cb+0x1c>
1000880e:	e8df f003 	tbb	[pc, r3]
10008812:	272c      	.short	0x272c
10008814:	020d      	.short	0x020d
10008816:	2901      	cmp	r1, #1
10008818:	d033      	beq.n	10008882 <cdcd_control_xfer_cb+0xa2>
1000881a:	2903      	cmp	r1, #3
1000881c:	d122      	bne.n	10008864 <cdcd_control_xfer_cb+0x84>
1000881e:	4b1e      	ldr	r3, [pc, #120]	@ (10008898 <cdcd_control_xfer_cb+0xb8>)
10008820:	b303      	cbz	r3, 10008864 <cdcd_control_xfer_cb+0x84>
10008822:	2000      	movs	r0, #0
10008824:	8851      	ldrh	r1, [r2, #2]
10008826:	f3af 8000 	nop.w
1000882a:	e01b      	b.n	10008864 <cdcd_control_xfer_cb+0x84>
1000882c:	2901      	cmp	r1, #1
1000882e:	d028      	beq.n	10008882 <cdcd_control_xfer_cb+0xa2>
10008830:	2903      	cmp	r1, #3
10008832:	d117      	bne.n	10008864 <cdcd_control_xfer_cb+0x84>
10008834:	8852      	ldrh	r2, [r2, #2]
10008836:	4819      	ldr	r0, [pc, #100]	@ (1000889c <cdcd_control_xfer_cb+0xbc>)
10008838:	f002 0301 	and.w	r3, r2, #1
1000883c:	f083 0101 	eor.w	r1, r3, #1
10008840:	9301      	str	r3, [sp, #4]
10008842:	f88c 2004 	strb.w	r2, [ip, #4]
10008846:	9200      	str	r2, [sp, #0]
10008848:	f000 fdd6 	bl	100093f8 <tu_fifo_set_overwritable>
1000884c:	4914      	ldr	r1, [pc, #80]	@ (100088a0 <cdcd_control_xfer_cb+0xc0>)
1000884e:	b149      	cbz	r1, 10008864 <cdcd_control_xfer_cb+0x84>
10008850:	9a00      	ldr	r2, [sp, #0]
10008852:	2000      	movs	r0, #0
10008854:	9901      	ldr	r1, [sp, #4]
10008856:	f3c2 0240 	ubfx	r2, r2, #1, #1
1000885a:	f3af 8000 	nop.w
1000885e:	e001      	b.n	10008864 <cdcd_control_xfer_cb+0x84>
10008860:	2901      	cmp	r1, #1
10008862:	d012      	beq.n	1000888a <cdcd_control_xfer_cb+0xaa>
10008864:	2001      	movs	r0, #1
10008866:	b003      	add	sp, #12
10008868:	bd00      	pop	{pc}
1000886a:	2901      	cmp	r1, #1
1000886c:	d00d      	beq.n	1000888a <cdcd_control_xfer_cb+0xaa>
1000886e:	2903      	cmp	r1, #3
10008870:	d1f8      	bne.n	10008864 <cdcd_control_xfer_cb+0x84>
10008872:	4b0c      	ldr	r3, [pc, #48]	@ (100088a4 <cdcd_control_xfer_cb+0xc4>)
10008874:	2b00      	cmp	r3, #0
10008876:	d0f5      	beq.n	10008864 <cdcd_control_xfer_cb+0x84>
10008878:	2000      	movs	r0, #0
1000887a:	490b      	ldr	r1, [pc, #44]	@ (100088a8 <cdcd_control_xfer_cb+0xc8>)
1000887c:	f7fe fa3a 	bl	10006cf4 <tud_cdc_line_coding_cb>
10008880:	e7f0      	b.n	10008864 <cdcd_control_xfer_cb+0x84>
10008882:	4611      	mov	r1, r2
10008884:	f7ff fc9c 	bl	100081c0 <tud_control_status>
10008888:	e7ec      	b.n	10008864 <cdcd_control_xfer_cb+0x84>
1000888a:	4611      	mov	r1, r2
1000888c:	2307      	movs	r3, #7
1000888e:	4a06      	ldr	r2, [pc, #24]	@ (100088a8 <cdcd_control_xfer_cb+0xc8>)
10008890:	f7ff fcb2 	bl	100081f8 <tud_control_xfer>
10008894:	e7e6      	b.n	10008864 <cdcd_control_xfer_cb+0x84>
10008896:	bf00      	nop
10008898:	00000000 	.word	0x00000000
1000889c:	200012ec 	.word	0x200012ec
100088a0:	00000000 	.word	0x00000000
100088a4:	10006cf5 	.word	0x10006cf5
100088a8:	200012d0 	.word	0x200012d0
100088ac:	200012c8 	.word	0x200012c8

100088b0 <cdcd_xfer_cb>:
100088b0:	e92d 41f0 	stmdb	sp!, {r4, r5, r6, r7, r8, lr}
100088b4:	4c35      	ldr	r4, [pc, #212]	@ (1000898c <cdcd_xfer_cb+0xdc>)
100088b6:	460d      	mov	r5, r1
100088b8:	78e2      	ldrb	r2, [r4, #3]
100088ba:	4607      	mov	r7, r0
100088bc:	428a      	cmp	r2, r1
100088be:	461e      	mov	r6, r3
100088c0:	b082      	sub	sp, #8
100088c2:	d02f      	beq.n	10008924 <cdcd_xfer_cb+0x74>
100088c4:	78a3      	ldrb	r3, [r4, #2]
100088c6:	428b      	cmp	r3, r1
100088c8:	d009      	beq.n	100088de <cdcd_xfer_cb+0x2e>
100088ca:	f04f 23e0 	mov.w	r3, #3758153728	@ 0xe000e000
100088ce:	f8d3 3df0 	ldr.w	r3, [r3, #3568]	@ 0xdf0
100088d2:	07db      	lsls	r3, r3, #31
100088d4:	d424      	bmi.n	10008920 <cdcd_xfer_cb+0x70>
100088d6:	2000      	movs	r0, #0
100088d8:	b002      	add	sp, #8
100088da:	e8bd 81f0 	ldmia.w	sp!, {r4, r5, r6, r7, r8, pc}
100088de:	4b2c      	ldr	r3, [pc, #176]	@ (10008990 <cdcd_xfer_cb+0xe0>)
100088e0:	b113      	cbz	r3, 100088e8 <cdcd_xfer_cb+0x38>
100088e2:	2000      	movs	r0, #0
100088e4:	f3af 8000 	nop.w
100088e8:	2000      	movs	r0, #0
100088ea:	f7ff fe25 	bl	10008538 <tud_cdc_n_write_flush>
100088ee:	2800      	cmp	r0, #0
100088f0:	d147      	bne.n	10008982 <cdcd_xfer_cb+0xd2>
100088f2:	4828      	ldr	r0, [pc, #160]	@ (10008994 <cdcd_xfer_cb+0xe4>)
100088f4:	f000 fb7e 	bl	10008ff4 <tu_fifo_count>
100088f8:	2800      	cmp	r0, #0
100088fa:	d142      	bne.n	10008982 <cdcd_xfer_cb+0xd2>
100088fc:	2e00      	cmp	r6, #0
100088fe:	d040      	beq.n	10008982 <cdcd_xfer_cb+0xd2>
10008900:	f016 053f 	ands.w	r5, r6, #63	@ 0x3f
10008904:	d13d      	bne.n	10008982 <cdcd_xfer_cb+0xd2>
10008906:	4638      	mov	r0, r7
10008908:	78a1      	ldrb	r1, [r4, #2]
1000890a:	f7ff fbfd 	bl	10008108 <usbd_edpt_claim>
1000890e:	2800      	cmp	r0, #0
10008910:	d037      	beq.n	10008982 <cdcd_xfer_cb+0xd2>
10008912:	462b      	mov	r3, r5
10008914:	462a      	mov	r2, r5
10008916:	4638      	mov	r0, r7
10008918:	78a1      	ldrb	r1, [r4, #2]
1000891a:	f7ff fc19 	bl	10008150 <usbd_edpt_xfer>
1000891e:	e030      	b.n	10008982 <cdcd_xfer_cb+0xd2>
10008920:	be00      	bkpt	0x0000
10008922:	e7d8      	b.n	100088d6 <cdcd_xfer_cb+0x26>
10008924:	b29a      	uxth	r2, r3
10008926:	491c      	ldr	r1, [pc, #112]	@ (10008998 <cdcd_xfer_cb+0xe8>)
10008928:	f104 0010 	add.w	r0, r4, #16
1000892c:	f000 fca0 	bl	10009270 <tu_fifo_write_n>
10008930:	4b1a      	ldr	r3, [pc, #104]	@ (1000899c <cdcd_xfer_cb+0xec>)
10008932:	b1d3      	cbz	r3, 1000896a <cdcd_xfer_cb+0xba>
10008934:	7962      	ldrb	r2, [r4, #5]
10008936:	2aff      	cmp	r2, #255	@ 0xff
10008938:	d017      	beq.n	1000896a <cdcd_xfer_cb+0xba>
1000893a:	b1b6      	cbz	r6, 1000896a <cdcd_xfer_cb+0xba>
1000893c:	4b16      	ldr	r3, [pc, #88]	@ (10008998 <cdcd_xfer_cb+0xe8>)
1000893e:	eb03 0806 	add.w	r8, r3, r6
10008942:	e002      	b.n	1000894a <cdcd_xfer_cb+0x9a>
10008944:	4543      	cmp	r3, r8
10008946:	d010      	beq.n	1000896a <cdcd_xfer_cb+0xba>
10008948:	7962      	ldrb	r2, [r4, #5]
1000894a:	f813 1b01 	ldrb.w	r1, [r3], #1
1000894e:	4291      	cmp	r1, r2
10008950:	d1f8      	bne.n	10008944 <cdcd_xfer_cb+0x94>
10008952:	4813      	ldr	r0, [pc, #76]	@ (100089a0 <cdcd_xfer_cb+0xf0>)
10008954:	9301      	str	r3, [sp, #4]
10008956:	f000 fb5d 	bl	10009014 <tu_fifo_empty>
1000895a:	9b01      	ldr	r3, [sp, #4]
1000895c:	2800      	cmp	r0, #0
1000895e:	d1f1      	bne.n	10008944 <cdcd_xfer_cb+0x94>
10008960:	7961      	ldrb	r1, [r4, #5]
10008962:	f3af 8000 	nop.w
10008966:	9b01      	ldr	r3, [sp, #4]
10008968:	e7ec      	b.n	10008944 <cdcd_xfer_cb+0x94>
1000896a:	4b0e      	ldr	r3, [pc, #56]	@ (100089a4 <cdcd_xfer_cb+0xf4>)
1000896c:	b11b      	cbz	r3, 10008976 <cdcd_xfer_cb+0xc6>
1000896e:	480c      	ldr	r0, [pc, #48]	@ (100089a0 <cdcd_xfer_cb+0xf0>)
10008970:	f000 fb50 	bl	10009014 <tu_fifo_empty>
10008974:	b138      	cbz	r0, 10008986 <cdcd_xfer_cb+0xd6>
10008976:	2000      	movs	r0, #0
10008978:	f7ff fd38 	bl	100083ec <_prep_out_transaction.isra.0>
1000897c:	78a3      	ldrb	r3, [r4, #2]
1000897e:	42ab      	cmp	r3, r5
10008980:	d0ad      	beq.n	100088de <cdcd_xfer_cb+0x2e>
10008982:	2001      	movs	r0, #1
10008984:	e7a8      	b.n	100088d8 <cdcd_xfer_cb+0x28>
10008986:	f3af 8000 	nop.w
1000898a:	e7f4      	b.n	10008976 <cdcd_xfer_cb+0xc6>
1000898c:	200012c8 	.word	0x200012c8
10008990:	00000000 	.word	0x00000000
10008994:	200012ec 	.word	0x200012ec
10008998:	2000155c 	.word	0x2000155c
1000899c:	00000000 	.word	0x00000000
100089a0:	200012d8 	.word	0x200012d8
100089a4:	00000000 	.word	0x00000000

100089a8 <vendord_init>:
100089a8:	b5f0      	push	{r4, r5, r6, r7, lr}
100089aa:	f44f 7213 	mov.w	r2, #588	@ 0x24c
100089ae:	b085      	sub	sp, #20
100089b0:	2100      	movs	r1, #0
100089b2:	4812      	ldr	r0, [pc, #72]	@ (100089fc <vendord_init+0x54>)
100089b4:	f000 fd3e 	bl	10009434 <memset>
100089b8:	2640      	movs	r6, #64	@ 0x40
100089ba:	2300      	movs	r3, #0
100089bc:	f44f 7580 	mov.w	r5, #256	@ 0x100
100089c0:	4f0e      	ldr	r7, [pc, #56]	@ (100089fc <vendord_init+0x54>)
100089c2:	4c0f      	ldr	r4, [pc, #60]	@ (10008a00 <vendord_init+0x58>)
100089c4:	f507 72a6 	add.w	r2, r7, #332	@ 0x14c
100089c8:	4619      	mov	r1, r3
100089ca:	e9cd 4602 	strd	r4, r6, [sp, #8]
100089ce:	9200      	str	r2, [sp, #0]
100089d0:	9501      	str	r5, [sp, #4]
100089d2:	461a      	mov	r2, r3
100089d4:	f507 7094 	add.w	r0, r7, #296	@ 0x128
100089d8:	f000 f9d6 	bl	10008d88 <tu_edpt_stream_init>
100089dc:	2300      	movs	r3, #0
100089de:	f107 0128 	add.w	r1, r7, #40	@ 0x28
100089e2:	4434      	add	r4, r6
100089e4:	9100      	str	r1, [sp, #0]
100089e6:	2201      	movs	r2, #1
100089e8:	4619      	mov	r1, r3
100089ea:	e9cd 4602 	strd	r4, r6, [sp, #8]
100089ee:	9501      	str	r5, [sp, #4]
100089f0:	1d38      	adds	r0, r7, #4
100089f2:	f000 f9c9 	bl	10008d88 <tu_edpt_stream_init>
100089f6:	b005      	add	sp, #20
100089f8:	bdf0      	pop	{r4, r5, r6, r7, pc}
100089fa:	bf00      	nop
100089fc:	200017fc 	.word	0x200017fc
10008a00:	2000177c 	.word	0x2000177c

10008a04 <vendord_deinit>:
10008a04:	b508      	push	{r3, lr}
10008a06:	4804      	ldr	r0, [pc, #16]	@ (10008a18 <vendord_deinit+0x14>)
10008a08:	f000 f9ea 	bl	10008de0 <tu_edpt_stream_deinit>
10008a0c:	4803      	ldr	r0, [pc, #12]	@ (10008a1c <vendord_deinit+0x18>)
10008a0e:	f000 f9e7 	bl	10008de0 <tu_edpt_stream_deinit>
10008a12:	2001      	movs	r0, #1
10008a14:	bd08      	pop	{r3, pc}
10008a16:	bf00      	nop
10008a18:	20001924 	.word	0x20001924
10008a1c:	20001800 	.word	0x20001800

10008a20 <vendord_reset>:
10008a20:	b538      	push	{r3, r4, r5, lr}
10008a22:	2500      	movs	r5, #0
10008a24:	4c06      	ldr	r4, [pc, #24]	@ (10008a40 <vendord_reset+0x20>)
10008a26:	f504 7098 	add.w	r0, r4, #304	@ 0x130
10008a2a:	7025      	strb	r5, [r4, #0]
10008a2c:	f000 fcc8 	bl	100093c0 <tu_fifo_clear>
10008a30:	f104 000c 	add.w	r0, r4, #12
10008a34:	f000 fcc4 	bl	100093c0 <tu_fifo_clear>
10008a38:	f884 5129 	strb.w	r5, [r4, #297]	@ 0x129
10008a3c:	7165      	strb	r5, [r4, #5]
10008a3e:	bd38      	pop	{r3, r4, r5, pc}
10008a40:	200017fc 	.word	0x200017fc

10008a44 <vendord_open>:
10008a44:	e92d 43f8 	stmdb	sp!, {r3, r4, r5, r6, r7, r8, r9, lr}
10008a48:	794b      	ldrb	r3, [r1, #5]
10008a4a:	2bff      	cmp	r3, #255	@ 0xff
10008a4c:	d105      	bne.n	10008a5a <vendord_open+0x16>
10008a4e:	4f35      	ldr	r7, [pc, #212]	@ (10008b24 <vendord_open+0xe0>)
10008a50:	797e      	ldrb	r6, [r7, #5]
10008a52:	f897 3129 	ldrb.w	r3, [r7, #297]	@ 0x129
10008a56:	431e      	orrs	r6, r3
10008a58:	d002      	beq.n	10008a60 <vendord_open+0x1c>
10008a5a:	2000      	movs	r0, #0
10008a5c:	e8bd 83f8 	ldmia.w	sp!, {r3, r4, r5, r6, r7, r8, r9, pc}
10008a60:	788b      	ldrb	r3, [r1, #2]
10008a62:	780c      	ldrb	r4, [r1, #0]
10008a64:	703b      	strb	r3, [r7, #0]
10008a66:	790b      	ldrb	r3, [r1, #4]
10008a68:	4681      	mov	r9, r0
10008a6a:	4688      	mov	r8, r1
10008a6c:	440c      	add	r4, r1
10008a6e:	2b00      	cmp	r3, #0
10008a70:	d034      	beq.n	10008adc <vendord_open+0x98>
10008a72:	18a5      	adds	r5, r4, r2
10008a74:	e003      	b.n	10008a7e <vendord_open+0x3a>
10008a76:	42ac      	cmp	r4, r5
10008a78:	d230      	bcs.n	10008adc <vendord_open+0x98>
10008a7a:	7823      	ldrb	r3, [r4, #0]
10008a7c:	441c      	add	r4, r3
10008a7e:	7863      	ldrb	r3, [r4, #1]
10008a80:	2b05      	cmp	r3, #5
10008a82:	d1f8      	bne.n	10008a76 <vendord_open+0x32>
10008a84:	42ac      	cmp	r4, r5
10008a86:	d229      	bcs.n	10008adc <vendord_open+0x98>
10008a88:	4621      	mov	r1, r4
10008a8a:	4648      	mov	r0, r9
10008a8c:	f7ff fb0e 	bl	100080ac <usbd_edpt_open>
10008a90:	2800      	cmp	r0, #0
10008a92:	d03e      	beq.n	10008b12 <vendord_open+0xce>
10008a94:	78a3      	ldrb	r3, [r4, #2]
10008a96:	09db      	lsrs	r3, r3, #7
10008a98:	d125      	bne.n	10008ae6 <vendord_open+0xa2>
10008a9a:	4823      	ldr	r0, [pc, #140]	@ (10008b28 <vendord_open+0xe4>)
10008a9c:	f000 fc90 	bl	100093c0 <tu_fifo_clear>
10008aa0:	78a3      	ldrb	r3, [r4, #2]
10008aa2:	f897 2128 	ldrb.w	r2, [r7, #296]	@ 0x128
10008aa6:	f887 3129 	strb.w	r3, [r7, #297]	@ 0x129
10008aaa:	88a3      	ldrh	r3, [r4, #4]
10008aac:	4648      	mov	r0, r9
10008aae:	f3c3 030a 	ubfx	r3, r3, #0, #11
10008ab2:	f5a3 7300 	sub.w	r3, r3, #512	@ 0x200
10008ab6:	fab3 f383 	clz	r3, r3
10008aba:	095b      	lsrs	r3, r3, #5
10008abc:	f363 0241 	bfi	r2, r3, #1, #1
10008ac0:	491a      	ldr	r1, [pc, #104]	@ (10008b2c <vendord_open+0xe8>)
10008ac2:	f887 2128 	strb.w	r2, [r7, #296]	@ 0x128
10008ac6:	f000 f9fd 	bl	10008ec4 <tu_edpt_stream_read_xfer>
10008aca:	b310      	cbz	r0, 10008b12 <vendord_open+0xce>
10008acc:	7823      	ldrb	r3, [r4, #0]
10008ace:	f898 2004 	ldrb.w	r2, [r8, #4]
10008ad2:	3601      	adds	r6, #1
10008ad4:	441c      	add	r4, r3
10008ad6:	b2f3      	uxtb	r3, r6
10008ad8:	429a      	cmp	r2, r3
10008ada:	d8d0      	bhi.n	10008a7e <vendord_open+0x3a>
10008adc:	eba4 0008 	sub.w	r0, r4, r8
10008ae0:	b280      	uxth	r0, r0
10008ae2:	e8bd 83f8 	ldmia.w	sp!, {r3, r4, r5, r6, r7, r8, r9, pc}
10008ae6:	4812      	ldr	r0, [pc, #72]	@ (10008b30 <vendord_open+0xec>)
10008ae8:	f000 fc6a 	bl	100093c0 <tu_fifo_clear>
10008aec:	78a3      	ldrb	r3, [r4, #2]
10008aee:	793a      	ldrb	r2, [r7, #4]
10008af0:	717b      	strb	r3, [r7, #5]
10008af2:	88a3      	ldrh	r3, [r4, #4]
10008af4:	490f      	ldr	r1, [pc, #60]	@ (10008b34 <vendord_open+0xf0>)
10008af6:	f3c3 030a 	ubfx	r3, r3, #0, #11
10008afa:	f5a3 7300 	sub.w	r3, r3, #512	@ 0x200
10008afe:	fab3 f383 	clz	r3, r3
10008b02:	095b      	lsrs	r3, r3, #5
10008b04:	f363 0241 	bfi	r2, r3, #1, #1
10008b08:	2000      	movs	r0, #0
10008b0a:	713a      	strb	r2, [r7, #4]
10008b0c:	f000 f9a0 	bl	10008e50 <tu_edpt_stream_write_xfer>
10008b10:	e7dc      	b.n	10008acc <vendord_open+0x88>
10008b12:	f04f 23e0 	mov.w	r3, #3758153728	@ 0xe000e000
10008b16:	f8d3 3df0 	ldr.w	r3, [r3, #3568]	@ 0xdf0
10008b1a:	07db      	lsls	r3, r3, #31
10008b1c:	d59d      	bpl.n	10008a5a <vendord_open+0x16>
10008b1e:	be00      	bkpt	0x0000
10008b20:	e79b      	b.n	10008a5a <vendord_open+0x16>
10008b22:	bf00      	nop
10008b24:	200017fc 	.word	0x200017fc
10008b28:	2000192c 	.word	0x2000192c
10008b2c:	20001924 	.word	0x20001924
10008b30:	20001808 	.word	0x20001808
10008b34:	20001800 	.word	0x20001800

10008b38 <vendord_xfer_cb>:
10008b38:	b510      	push	{r4, lr}
10008b3a:	f8df c090 	ldr.w	ip, [pc, #144]	@ 10008bcc <vendord_xfer_cb+0x94>
10008b3e:	4604      	mov	r4, r0
10008b40:	f89c 2129 	ldrb.w	r2, [ip, #297]	@ 0x129
10008b44:	b082      	sub	sp, #8
10008b46:	428a      	cmp	r2, r1
10008b48:	d01a      	beq.n	10008b80 <vendord_xfer_cb+0x48>
10008b4a:	f89c 2005 	ldrb.w	r2, [ip, #5]
10008b4e:	428a      	cmp	r2, r1
10008b50:	d002      	beq.n	10008b58 <vendord_xfer_cb+0x20>
10008b52:	2000      	movs	r0, #0
10008b54:	b002      	add	sp, #8
10008b56:	bd10      	pop	{r4, pc}
10008b58:	4a17      	ldr	r2, [pc, #92]	@ (10008bb8 <vendord_xfer_cb+0x80>)
10008b5a:	b12a      	cbz	r2, 10008b68 <vendord_xfer_cb+0x30>
10008b5c:	b299      	uxth	r1, r3
10008b5e:	2000      	movs	r0, #0
10008b60:	9301      	str	r3, [sp, #4]
10008b62:	f3af 8000 	nop.w
10008b66:	9b01      	ldr	r3, [sp, #4]
10008b68:	4620      	mov	r0, r4
10008b6a:	4914      	ldr	r1, [pc, #80]	@ (10008bbc <vendord_xfer_cb+0x84>)
10008b6c:	9301      	str	r3, [sp, #4]
10008b6e:	f000 f96f 	bl	10008e50 <tu_edpt_stream_write_xfer>
10008b72:	b998      	cbnz	r0, 10008b9c <vendord_xfer_cb+0x64>
10008b74:	4620      	mov	r0, r4
10008b76:	9a01      	ldr	r2, [sp, #4]
10008b78:	4910      	ldr	r1, [pc, #64]	@ (10008bbc <vendord_xfer_cb+0x84>)
10008b7a:	f000 f933 	bl	10008de4 <tu_edpt_stream_write_zlp_if_needed>
10008b7e:	e00d      	b.n	10008b9c <vendord_xfer_cb+0x64>
10008b80:	f8bc 2134 	ldrh.w	r2, [ip, #308]	@ 0x134
10008b84:	b96a      	cbnz	r2, 10008ba2 <vendord_xfer_cb+0x6a>
10008b86:	4a0e      	ldr	r2, [pc, #56]	@ (10008bc0 <vendord_xfer_cb+0x88>)
10008b88:	b122      	cbz	r2, 10008b94 <vendord_xfer_cb+0x5c>
10008b8a:	2000      	movs	r0, #0
10008b8c:	490d      	ldr	r1, [pc, #52]	@ (10008bc4 <vendord_xfer_cb+0x8c>)
10008b8e:	b29a      	uxth	r2, r3
10008b90:	f3af 8000 	nop.w
10008b94:	4620      	mov	r0, r4
10008b96:	490c      	ldr	r1, [pc, #48]	@ (10008bc8 <vendord_xfer_cb+0x90>)
10008b98:	f000 f994 	bl	10008ec4 <tu_edpt_stream_read_xfer>
10008b9c:	2001      	movs	r0, #1
10008b9e:	b002      	add	sp, #8
10008ba0:	bd10      	pop	{r4, pc}
10008ba2:	b29a      	uxth	r2, r3
10008ba4:	f8dc 112c 	ldr.w	r1, [ip, #300]	@ 0x12c
10008ba8:	f50c 7098 	add.w	r0, ip, #304	@ 0x130
10008bac:	9301      	str	r3, [sp, #4]
10008bae:	f000 fb5f 	bl	10009270 <tu_fifo_write_n>
10008bb2:	9b01      	ldr	r3, [sp, #4]
10008bb4:	e7e7      	b.n	10008b86 <vendord_xfer_cb+0x4e>
10008bb6:	bf00      	nop
10008bb8:	00000000 	.word	0x00000000
10008bbc:	20001800 	.word	0x20001800
10008bc0:	00000000 	.word	0x00000000
10008bc4:	2000177c 	.word	0x2000177c
10008bc8:	20001924 	.word	0x20001924
10008bcc:	200017fc 	.word	0x200017fc

10008bd0 <tusb_rhport_init>:
10008bd0:	b500      	push	{lr}
10008bd2:	b083      	sub	sp, #12
10008bd4:	b1d9      	cbz	r1, 10008c0e <tusb_rhport_init+0x3e>
10008bd6:	2801      	cmp	r0, #1
10008bd8:	d80e      	bhi.n	10008bf8 <tusb_rhport_init+0x28>
10008bda:	780b      	ldrb	r3, [r1, #0]
10008bdc:	b163      	cbz	r3, 10008bf8 <tusb_rhport_init+0x28>
10008bde:	f8df c058 	ldr.w	ip, [pc, #88]	@ 10008c38 <tusb_rhport_init+0x68>
10008be2:	2b01      	cmp	r3, #1
10008be4:	f80c 3000 	strb.w	r3, [ip, r0]
10008be8:	d002      	beq.n	10008bf0 <tusb_rhport_init+0x20>
10008bea:	2001      	movs	r0, #1
10008bec:	b003      	add	sp, #12
10008bee:	bd00      	pop	{pc}
10008bf0:	f7fe fdae 	bl	10007750 <tud_rhport_init>
10008bf4:	2800      	cmp	r0, #0
10008bf6:	d1f8      	bne.n	10008bea <tusb_rhport_init+0x1a>
10008bf8:	f04f 23e0 	mov.w	r3, #3758153728	@ 0xe000e000
10008bfc:	f8d3 3df0 	ldr.w	r3, [r3, #3568]	@ 0xdf0
10008c00:	07db      	lsls	r3, r3, #31
10008c02:	d402      	bmi.n	10008c0a <tusb_rhport_init+0x3a>
10008c04:	2000      	movs	r0, #0
10008c06:	b003      	add	sp, #12
10008c08:	bd00      	pop	{pc}
10008c0a:	be00      	bkpt	0x0000
10008c0c:	e7fa      	b.n	10008c04 <tusb_rhport_init+0x34>
10008c0e:	2201      	movs	r2, #1
10008c10:	4608      	mov	r0, r1
10008c12:	a901      	add	r1, sp, #4
10008c14:	f8ad 2004 	strh.w	r2, [sp, #4]
10008c18:	f7fe fd9a 	bl	10007750 <tud_rhport_init>
10008c1c:	2201      	movs	r2, #1
10008c1e:	b938      	cbnz	r0, 10008c30 <tusb_rhport_init+0x60>
10008c20:	f04f 23e0 	mov.w	r3, #3758153728	@ 0xe000e000
10008c24:	f8d3 3df0 	ldr.w	r3, [r3, #3568]	@ 0xdf0
10008c28:	07da      	lsls	r2, r3, #31
10008c2a:	d5ec      	bpl.n	10008c06 <tusb_rhport_init+0x36>
10008c2c:	be00      	bkpt	0x0000
10008c2e:	e7ea      	b.n	10008c06 <tusb_rhport_init+0x36>
10008c30:	4b01      	ldr	r3, [pc, #4]	@ (10008c38 <tusb_rhport_init+0x68>)
10008c32:	701a      	strb	r2, [r3, #0]
10008c34:	e7e7      	b.n	10008c06 <tusb_rhport_init+0x36>
10008c36:	bf00      	nop
10008c38:	20001654 	.word	0x20001654

10008c3c <tu_edpt_claim>:
10008c3c:	7803      	ldrb	r3, [r0, #0]
10008c3e:	f013 0301 	ands.w	r3, r3, #1
10008c42:	d11e      	bne.n	10008c82 <tu_edpt_claim+0x46>
10008c44:	b530      	push	{r4, r5, lr}
10008c46:	4602      	mov	r2, r0
10008c48:	7800      	ldrb	r0, [r0, #0]
10008c4a:	b083      	sub	sp, #12
10008c4c:	4604      	mov	r4, r0
10008c4e:	0740      	lsls	r0, r0, #29
10008c50:	d502      	bpl.n	10008c58 <tu_edpt_claim+0x1c>
10008c52:	4618      	mov	r0, r3
10008c54:	b003      	add	sp, #12
10008c56:	bd30      	pop	{r4, r5, pc}
10008c58:	4608      	mov	r0, r1
10008c5a:	460d      	mov	r5, r1
10008c5c:	f04f 31ff 	mov.w	r1, #4294967295
10008c60:	9201      	str	r2, [sp, #4]
10008c62:	f000 fcd5 	bl	10009610 <__mutex_enter_timeout_ms_veneer>
10008c66:	9a01      	ldr	r2, [sp, #4]
10008c68:	7813      	ldrb	r3, [r2, #0]
10008c6a:	f013 0301 	ands.w	r3, r3, #1
10008c6e:	d10b      	bne.n	10008c88 <tu_edpt_claim+0x4c>
10008c70:	7811      	ldrb	r1, [r2, #0]
10008c72:	0749      	lsls	r1, r1, #29
10008c74:	d40a      	bmi.n	10008c8c <tu_edpt_claim+0x50>
10008c76:	7811      	ldrb	r1, [r2, #0]
10008c78:	2301      	movs	r3, #1
10008c7a:	f041 0104 	orr.w	r1, r1, #4
10008c7e:	7011      	strb	r1, [r2, #0]
10008c80:	e004      	b.n	10008c8c <tu_edpt_claim+0x50>
10008c82:	2300      	movs	r3, #0
10008c84:	4618      	mov	r0, r3
10008c86:	4770      	bx	lr
10008c88:	f3c4 0380 	ubfx	r3, r4, #2, #1
10008c8c:	4628      	mov	r0, r5
10008c8e:	9301      	str	r3, [sp, #4]
10008c90:	f000 fcce 	bl	10009630 <__mutex_exit_veneer>
10008c94:	9b01      	ldr	r3, [sp, #4]
10008c96:	4618      	mov	r0, r3
10008c98:	b003      	add	sp, #12
10008c9a:	bd30      	pop	{r4, r5, pc}

10008c9c <tu_edpt_release>:
10008c9c:	b570      	push	{r4, r5, r6, lr}
10008c9e:	460d      	mov	r5, r1
10008ca0:	4604      	mov	r4, r0
10008ca2:	f04f 31ff 	mov.w	r1, #4294967295
10008ca6:	4628      	mov	r0, r5
10008ca8:	f000 fcb2 	bl	10009610 <__mutex_enter_timeout_ms_veneer>
10008cac:	7823      	ldrb	r3, [r4, #0]
10008cae:	f3c3 0680 	ubfx	r6, r3, #2, #1
10008cb2:	075b      	lsls	r3, r3, #29
10008cb4:	d508      	bpl.n	10008cc8 <tu_edpt_release+0x2c>
10008cb6:	7823      	ldrb	r3, [r4, #0]
10008cb8:	f013 0301 	ands.w	r3, r3, #1
10008cbc:	bf11      	iteee	ne
10008cbe:	2600      	movne	r6, #0
10008cc0:	7822      	ldrbeq	r2, [r4, #0]
10008cc2:	f363 0282 	bfieq	r2, r3, #2, #1
10008cc6:	7022      	strbeq	r2, [r4, #0]
10008cc8:	4628      	mov	r0, r5
10008cca:	f000 fcb1 	bl	10009630 <__mutex_exit_veneer>
10008cce:	4630      	mov	r0, r6
10008cd0:	bd70      	pop	{r4, r5, r6, pc}
10008cd2:	bf00      	nop

10008cd4 <tu_edpt_validate>:
10008cd4:	78c3      	ldrb	r3, [r0, #3]
10008cd6:	8882      	ldrh	r2, [r0, #4]
10008cd8:	f003 0003 	and.w	r0, r3, #3
10008cdc:	2802      	cmp	r0, #2
10008cde:	f3c2 020a 	ubfx	r2, r2, #0, #11
10008ce2:	d015      	beq.n	10008d10 <tu_edpt_validate+0x3c>
10008ce4:	2803      	cmp	r0, #3
10008ce6:	d00a      	beq.n	10008cfe <tu_edpt_validate+0x2a>
10008ce8:	2801      	cmp	r0, #1
10008cea:	d11c      	bne.n	10008d26 <tu_edpt_validate+0x52>
10008cec:	2902      	cmp	r1, #2
10008cee:	f240 33ff 	movw	r3, #1023	@ 0x3ff
10008cf2:	bf08      	it	eq
10008cf4:	f44f 6380 	moveq.w	r3, #1024	@ 0x400
10008cf8:	4293      	cmp	r3, r2
10008cfa:	d30d      	bcc.n	10008d18 <tu_edpt_validate+0x44>
10008cfc:	4770      	bx	lr
10008cfe:	2902      	cmp	r1, #2
10008d00:	bf14      	ite	ne
10008d02:	2340      	movne	r3, #64	@ 0x40
10008d04:	f44f 6380 	moveq.w	r3, #1024	@ 0x400
10008d08:	4293      	cmp	r3, r2
10008d0a:	d305      	bcc.n	10008d18 <tu_edpt_validate+0x44>
10008d0c:	2001      	movs	r0, #1
10008d0e:	4770      	bx	lr
10008d10:	2902      	cmp	r1, #2
10008d12:	d00a      	beq.n	10008d2a <tu_edpt_validate+0x56>
10008d14:	2a40      	cmp	r2, #64	@ 0x40
10008d16:	d9f9      	bls.n	10008d0c <tu_edpt_validate+0x38>
10008d18:	f04f 23e0 	mov.w	r3, #3758153728	@ 0xe000e000
10008d1c:	f8d3 3df0 	ldr.w	r3, [r3, #3568]	@ 0xdf0
10008d20:	07db      	lsls	r3, r3, #31
10008d22:	d500      	bpl.n	10008d26 <tu_edpt_validate+0x52>
10008d24:	be00      	bkpt	0x0000
10008d26:	2000      	movs	r0, #0
10008d28:	4770      	bx	lr
10008d2a:	f5b2 7f00 	cmp.w	r2, #512	@ 0x200
10008d2e:	d0ed      	beq.n	10008d0c <tu_edpt_validate+0x38>
10008d30:	e7f2      	b.n	10008d18 <tu_edpt_validate+0x44>
10008d32:	bf00      	nop

10008d34 <tu_edpt_bind_driver>:
10008d34:	440a      	add	r2, r1
10008d36:	4291      	cmp	r1, r2
10008d38:	d225      	bcs.n	10008d86 <tu_edpt_bind_driver+0x52>
10008d3a:	f891 c001 	ldrb.w	ip, [r1, #1]
10008d3e:	f1bc 0f05 	cmp.w	ip, #5
10008d42:	d005      	beq.n	10008d50 <tu_edpt_bind_driver+0x1c>
10008d44:	f891 c000 	ldrb.w	ip, [r1]
10008d48:	4461      	add	r1, ip
10008d4a:	428a      	cmp	r2, r1
10008d4c:	d8f5      	bhi.n	10008d3a <tu_edpt_bind_driver+0x6>
10008d4e:	4770      	bx	lr
10008d50:	b500      	push	{lr}
10008d52:	f891 c002 	ldrb.w	ip, [r1, #2]
10008d56:	f00c 0e7f 	and.w	lr, ip, #127	@ 0x7f
10008d5a:	eb00 0e4e 	add.w	lr, r0, lr, lsl #1
10008d5e:	ea4f 1cdc 	mov.w	ip, ip, lsr #7
10008d62:	f80e 300c 	strb.w	r3, [lr, ip]
10008d66:	f891 c000 	ldrb.w	ip, [r1]
10008d6a:	4461      	add	r1, ip
10008d6c:	428a      	cmp	r2, r1
10008d6e:	d909      	bls.n	10008d84 <tu_edpt_bind_driver+0x50>
10008d70:	f891 c001 	ldrb.w	ip, [r1, #1]
10008d74:	f1bc 0f05 	cmp.w	ip, #5
10008d78:	d0eb      	beq.n	10008d52 <tu_edpt_bind_driver+0x1e>
10008d7a:	f891 c000 	ldrb.w	ip, [r1]
10008d7e:	4461      	add	r1, ip
10008d80:	428a      	cmp	r2, r1
10008d82:	d8f5      	bhi.n	10008d70 <tu_edpt_bind_driver+0x3c>
10008d84:	bd00      	pop	{pc}
10008d86:	4770      	bx	lr

10008d88 <tu_edpt_stream_init>:
10008d88:	b570      	push	{r4, r5, r6, lr}
10008d8a:	b084      	sub	sp, #16
10008d8c:	9300      	str	r3, [sp, #0]
10008d8e:	f890 c000 	ldrb.w	ip, [r0]
10008d92:	4616      	mov	r6, r2
10008d94:	f361 0c00 	bfi	ip, r1, #0, #1
10008d98:	f8bd 2024 	ldrh.w	r2, [sp, #36]	@ 0x24
10008d9c:	4604      	mov	r4, r0
10008d9e:	2301      	movs	r3, #1
10008da0:	9908      	ldr	r1, [sp, #32]
10008da2:	f800 cb08 	strb.w	ip, [r0], #8
10008da6:	f8bd 502c 	ldrh.w	r5, [sp, #44]	@ 0x2c
10008daa:	9203      	str	r2, [sp, #12]
10008dac:	f000 f8f2 	bl	10008f94 <tu_fifo_config>
10008db0:	9b08      	ldr	r3, [sp, #32]
10008db2:	b10b      	cbz	r3, 10008db8 <tu_edpt_stream_init+0x30>
10008db4:	9a03      	ldr	r2, [sp, #12]
10008db6:	b92a      	cbnz	r2, 10008dc4 <tu_edpt_stream_init+0x3c>
10008db8:	2001      	movs	r0, #1
10008dba:	9b0a      	ldr	r3, [sp, #40]	@ 0x28
10008dbc:	8065      	strh	r5, [r4, #2]
10008dbe:	6063      	str	r3, [r4, #4]
10008dc0:	b004      	add	sp, #16
10008dc2:	bd70      	pop	{r4, r5, r6, pc}
10008dc4:	f104 001c 	add.w	r0, r4, #28
10008dc8:	9003      	str	r0, [sp, #12]
10008dca:	f7fb f90d 	bl	10003fe8 <mutex_init>
10008dce:	9803      	ldr	r0, [sp, #12]
10008dd0:	b91e      	cbnz	r6, 10008dda <tu_edpt_stream_init+0x52>
10008dd2:	4633      	mov	r3, r6
10008dd4:	e9c4 3005 	strd	r3, r0, [r4, #20]
10008dd8:	e7ee      	b.n	10008db8 <tu_edpt_stream_init+0x30>
10008dda:	4603      	mov	r3, r0
10008ddc:	2000      	movs	r0, #0
10008dde:	e7f9      	b.n	10008dd4 <tu_edpt_stream_init+0x4c>

10008de0 <tu_edpt_stream_deinit>:
10008de0:	2001      	movs	r0, #1
10008de2:	4770      	bx	lr

10008de4 <tu_edpt_stream_write_zlp_if_needed>:
10008de4:	b570      	push	{r4, r5, r6, lr}
10008de6:	4606      	mov	r6, r0
10008de8:	4608      	mov	r0, r1
10008dea:	f240 13ff 	movw	r3, #511	@ 0x1ff
10008dee:	460c      	mov	r4, r1
10008df0:	f810 1b08 	ldrb.w	r1, [r0], #8
10008df4:	b082      	sub	sp, #8
10008df6:	f011 0f02 	tst.w	r1, #2
10008dfa:	9201      	str	r2, [sp, #4]
10008dfc:	bf0c      	ite	eq
10008dfe:	253f      	moveq	r5, #63	@ 0x3f
10008e00:	461d      	movne	r5, r3
10008e02:	f000 f8f7 	bl	10008ff4 <tu_fifo_count>
10008e06:	9a01      	ldr	r2, [sp, #4]
10008e08:	b928      	cbnz	r0, 10008e16 <tu_edpt_stream_write_zlp_if_needed+0x32>
10008e0a:	b122      	cbz	r2, 10008e16 <tu_edpt_stream_write_zlp_if_needed+0x32>
10008e0c:	4215      	tst	r5, r2
10008e0e:	d102      	bne.n	10008e16 <tu_edpt_stream_write_zlp_if_needed+0x32>
10008e10:	7823      	ldrb	r3, [r4, #0]
10008e12:	07da      	lsls	r2, r3, #31
10008e14:	d502      	bpl.n	10008e1c <tu_edpt_stream_write_zlp_if_needed+0x38>
10008e16:	2000      	movs	r0, #0
10008e18:	b002      	add	sp, #8
10008e1a:	bd70      	pop	{r4, r5, r6, pc}
10008e1c:	4630      	mov	r0, r6
10008e1e:	7861      	ldrb	r1, [r4, #1]
10008e20:	f7ff f972 	bl	10008108 <usbd_edpt_claim>
10008e24:	2800      	cmp	r0, #0
10008e26:	d0f6      	beq.n	10008e16 <tu_edpt_stream_write_zlp_if_needed+0x32>
10008e28:	7823      	ldrb	r3, [r4, #0]
10008e2a:	f013 0301 	ands.w	r3, r3, #1
10008e2e:	d007      	beq.n	10008e40 <tu_edpt_stream_write_zlp_if_needed+0x5c>
10008e30:	f04f 23e0 	mov.w	r3, #3758153728	@ 0xe000e000
10008e34:	f8d3 3df0 	ldr.w	r3, [r3, #3568]	@ 0xdf0
10008e38:	07db      	lsls	r3, r3, #31
10008e3a:	d5ec      	bpl.n	10008e16 <tu_edpt_stream_write_zlp_if_needed+0x32>
10008e3c:	be00      	bkpt	0x0000
10008e3e:	e7ea      	b.n	10008e16 <tu_edpt_stream_write_zlp_if_needed+0x32>
10008e40:	461a      	mov	r2, r3
10008e42:	4630      	mov	r0, r6
10008e44:	7861      	ldrb	r1, [r4, #1]
10008e46:	f7ff f983 	bl	10008150 <usbd_edpt_xfer>
10008e4a:	2800      	cmp	r0, #0
10008e4c:	d1e4      	bne.n	10008e18 <tu_edpt_stream_write_zlp_if_needed+0x34>
10008e4e:	e7ef      	b.n	10008e30 <tu_edpt_stream_write_zlp_if_needed+0x4c>

10008e50 <tu_edpt_stream_write_xfer>:
10008e50:	b570      	push	{r4, r5, r6, lr}
10008e52:	4605      	mov	r5, r0
10008e54:	b082      	sub	sp, #8
10008e56:	f101 0008 	add.w	r0, r1, #8
10008e5a:	460c      	mov	r4, r1
10008e5c:	f000 f8ca 	bl	10008ff4 <tu_fifo_count>
10008e60:	b110      	cbz	r0, 10008e68 <tu_edpt_stream_write_xfer+0x18>
10008e62:	7823      	ldrb	r3, [r4, #0]
10008e64:	07da      	lsls	r2, r3, #31
10008e66:	d502      	bpl.n	10008e6e <tu_edpt_stream_write_xfer+0x1e>
10008e68:	2000      	movs	r0, #0
10008e6a:	b002      	add	sp, #8
10008e6c:	bd70      	pop	{r4, r5, r6, pc}
10008e6e:	4628      	mov	r0, r5
10008e70:	7861      	ldrb	r1, [r4, #1]
10008e72:	f7ff f949 	bl	10008108 <usbd_edpt_claim>
10008e76:	2800      	cmp	r0, #0
10008e78:	d0f6      	beq.n	10008e68 <tu_edpt_stream_write_xfer+0x18>
10008e7a:	8862      	ldrh	r2, [r4, #2]
10008e7c:	6861      	ldr	r1, [r4, #4]
10008e7e:	f104 0008 	add.w	r0, r4, #8
10008e82:	f000 f931 	bl	100090e8 <tu_fifo_read_n>
10008e86:	7822      	ldrb	r2, [r4, #0]
10008e88:	4603      	mov	r3, r0
10008e8a:	f002 0201 	and.w	r2, r2, #1
10008e8e:	b140      	cbz	r0, 10008ea2 <tu_edpt_stream_write_xfer+0x52>
10008e90:	b172      	cbz	r2, 10008eb0 <tu_edpt_stream_write_xfer+0x60>
10008e92:	f04f 23e0 	mov.w	r3, #3758153728	@ 0xe000e000
10008e96:	f8d3 3df0 	ldr.w	r3, [r3, #3568]	@ 0xdf0
10008e9a:	07db      	lsls	r3, r3, #31
10008e9c:	d5e4      	bpl.n	10008e68 <tu_edpt_stream_write_xfer+0x18>
10008e9e:	be00      	bkpt	0x0000
10008ea0:	e7e2      	b.n	10008e68 <tu_edpt_stream_write_xfer+0x18>
10008ea2:	2a00      	cmp	r2, #0
10008ea4:	d1e0      	bne.n	10008e68 <tu_edpt_stream_write_xfer+0x18>
10008ea6:	4628      	mov	r0, r5
10008ea8:	7861      	ldrb	r1, [r4, #1]
10008eaa:	f7ff f93f 	bl	1000812c <usbd_edpt_release>
10008eae:	e7db      	b.n	10008e68 <tu_edpt_stream_write_xfer+0x18>
10008eb0:	9001      	str	r0, [sp, #4]
10008eb2:	6862      	ldr	r2, [r4, #4]
10008eb4:	4628      	mov	r0, r5
10008eb6:	7861      	ldrb	r1, [r4, #1]
10008eb8:	f7ff f94a 	bl	10008150 <usbd_edpt_xfer>
10008ebc:	2800      	cmp	r0, #0
10008ebe:	d0e8      	beq.n	10008e92 <tu_edpt_stream_write_xfer+0x42>
10008ec0:	9801      	ldr	r0, [sp, #4]
10008ec2:	e7d2      	b.n	10008e6a <tu_edpt_stream_write_xfer+0x1a>

10008ec4 <tu_edpt_stream_read_xfer>:
10008ec4:	e92d 41f0 	stmdb	sp!, {r4, r5, r6, r7, r8, lr}
10008ec8:	898a      	ldrh	r2, [r1, #12]
10008eca:	460c      	mov	r4, r1
10008ecc:	4605      	mov	r5, r0
10008ece:	780b      	ldrb	r3, [r1, #0]
10008ed0:	b082      	sub	sp, #8
10008ed2:	b92a      	cbnz	r2, 10008ee0 <tu_edpt_stream_read_xfer+0x1c>
10008ed4:	07de      	lsls	r6, r3, #31
10008ed6:	d537      	bpl.n	10008f48 <tu_edpt_stream_read_xfer+0x84>
10008ed8:	2000      	movs	r0, #0
10008eda:	b002      	add	sp, #8
10008edc:	e8bd 81f0 	ldmia.w	sp!, {r4, r5, r6, r7, r8, pc}
10008ee0:	0799      	lsls	r1, r3, #30
10008ee2:	f104 0008 	add.w	r0, r4, #8
10008ee6:	bf47      	ittee	mi
10008ee8:	f44f 487e 	movmi.w	r8, #65024	@ 0xfe00
10008eec:	f44f 7600 	movmi.w	r6, #512	@ 0x200
10008ef0:	f64f 78c0 	movwpl	r8, #65472	@ 0xffc0
10008ef4:	2640      	movpl	r6, #64	@ 0x40
10008ef6:	f000 f897 	bl	10009028 <tu_fifo_remaining>
10008efa:	4286      	cmp	r6, r0
10008efc:	f104 0708 	add.w	r7, r4, #8
10008f00:	d8ea      	bhi.n	10008ed8 <tu_edpt_stream_read_xfer+0x14>
10008f02:	7823      	ldrb	r3, [r4, #0]
10008f04:	07da      	lsls	r2, r3, #31
10008f06:	d4e7      	bmi.n	10008ed8 <tu_edpt_stream_read_xfer+0x14>
10008f08:	4628      	mov	r0, r5
10008f0a:	7861      	ldrb	r1, [r4, #1]
10008f0c:	f7ff f8fc 	bl	10008108 <usbd_edpt_claim>
10008f10:	2800      	cmp	r0, #0
10008f12:	d0e1      	beq.n	10008ed8 <tu_edpt_stream_read_xfer+0x14>
10008f14:	4638      	mov	r0, r7
10008f16:	f000 f887 	bl	10009028 <tu_fifo_remaining>
10008f1a:	7823      	ldrb	r3, [r4, #0]
10008f1c:	4286      	cmp	r6, r0
10008f1e:	f003 0301 	and.w	r3, r3, #1
10008f22:	d82e      	bhi.n	10008f82 <tu_edpt_stream_read_xfer+0xbe>
10008f24:	b9c3      	cbnz	r3, 10008f58 <tu_edpt_stream_read_xfer+0x94>
10008f26:	8863      	ldrh	r3, [r4, #2]
10008f28:	ea08 0200 	and.w	r2, r8, r0
10008f2c:	4293      	cmp	r3, r2
10008f2e:	bf28      	it	cs
10008f30:	4613      	movcs	r3, r2
10008f32:	7861      	ldrb	r1, [r4, #1]
10008f34:	2b00      	cmp	r3, #0
10008f36:	d02b      	beq.n	10008f90 <tu_edpt_stream_read_xfer+0xcc>
10008f38:	6862      	ldr	r2, [r4, #4]
10008f3a:	4628      	mov	r0, r5
10008f3c:	9301      	str	r3, [sp, #4]
10008f3e:	f7ff f907 	bl	10008150 <usbd_edpt_xfer>
10008f42:	b148      	cbz	r0, 10008f58 <tu_edpt_stream_read_xfer+0x94>
10008f44:	9801      	ldr	r0, [sp, #4]
10008f46:	e7c8      	b.n	10008eda <tu_edpt_stream_read_xfer+0x16>
10008f48:	7849      	ldrb	r1, [r1, #1]
10008f4a:	f7ff f8dd 	bl	10008108 <usbd_edpt_claim>
10008f4e:	2800      	cmp	r0, #0
10008f50:	d0c2      	beq.n	10008ed8 <tu_edpt_stream_read_xfer+0x14>
10008f52:	7823      	ldrb	r3, [r4, #0]
10008f54:	07d8      	lsls	r0, r3, #31
10008f56:	d507      	bpl.n	10008f68 <tu_edpt_stream_read_xfer+0xa4>
10008f58:	f04f 23e0 	mov.w	r3, #3758153728	@ 0xe000e000
10008f5c:	f8d3 3df0 	ldr.w	r3, [r3, #3568]	@ 0xdf0
10008f60:	07db      	lsls	r3, r3, #31
10008f62:	d5b9      	bpl.n	10008ed8 <tu_edpt_stream_read_xfer+0x14>
10008f64:	be00      	bkpt	0x0000
10008f66:	e7b7      	b.n	10008ed8 <tu_edpt_stream_read_xfer+0x14>
10008f68:	8863      	ldrh	r3, [r4, #2]
10008f6a:	7861      	ldrb	r1, [r4, #1]
10008f6c:	b13b      	cbz	r3, 10008f7e <tu_edpt_stream_read_xfer+0xba>
10008f6e:	6862      	ldr	r2, [r4, #4]
10008f70:	4628      	mov	r0, r5
10008f72:	f7ff f8ed 	bl	10008150 <usbd_edpt_xfer>
10008f76:	2800      	cmp	r0, #0
10008f78:	d0ee      	beq.n	10008f58 <tu_edpt_stream_read_xfer+0x94>
10008f7a:	8860      	ldrh	r0, [r4, #2]
10008f7c:	e7ad      	b.n	10008eda <tu_edpt_stream_read_xfer+0x16>
10008f7e:	461a      	mov	r2, r3
10008f80:	e7f6      	b.n	10008f70 <tu_edpt_stream_read_xfer+0xac>
10008f82:	2b00      	cmp	r3, #0
10008f84:	d1a8      	bne.n	10008ed8 <tu_edpt_stream_read_xfer+0x14>
10008f86:	4628      	mov	r0, r5
10008f88:	7861      	ldrb	r1, [r4, #1]
10008f8a:	f7ff f8cf 	bl	1000812c <usbd_edpt_release>
10008f8e:	e7a3      	b.n	10008ed8 <tu_edpt_stream_read_xfer+0x14>
10008f90:	461a      	mov	r2, r3
10008f92:	e7d2      	b.n	10008f3a <tu_edpt_stream_read_xfer+0x76>

10008f94 <tu_fifo_config>:
10008f94:	e92d 41f0 	stmdb	sp!, {r4, r5, r6, r7, r8, lr}
10008f98:	f5b2 4f00 	cmp.w	r2, #32768	@ 0x8000
10008f9c:	f89d 5018 	ldrb.w	r5, [sp, #24]
10008fa0:	d824      	bhi.n	10008fec <tu_fifo_config+0x58>
10008fa2:	4604      	mov	r4, r0
10008fa4:	68c0      	ldr	r0, [r0, #12]
10008fa6:	4698      	mov	r8, r3
10008fa8:	460f      	mov	r7, r1
10008faa:	4616      	mov	r6, r2
10008fac:	b118      	cbz	r0, 10008fb6 <tu_fifo_config+0x22>
10008fae:	f04f 31ff 	mov.w	r1, #4294967295
10008fb2:	f000 fb2d 	bl	10009610 <__mutex_enter_timeout_ms_veneer>
10008fb6:	6920      	ldr	r0, [r4, #16]
10008fb8:	b118      	cbz	r0, 10008fc2 <tu_fifo_config+0x2e>
10008fba:	f04f 31ff 	mov.w	r1, #4294967295
10008fbe:	f000 fb27 	bl	10009610 <__mutex_enter_timeout_ms_veneer>
10008fc2:	2200      	movs	r2, #0
10008fc4:	f3c8 030e 	ubfx	r3, r8, #0, #15
10008fc8:	68e0      	ldr	r0, [r4, #12]
10008fca:	ea43 33c5 	orr.w	r3, r3, r5, lsl #15
10008fce:	8162      	strh	r2, [r4, #10]
10008fd0:	6027      	str	r7, [r4, #0]
10008fd2:	80a6      	strh	r6, [r4, #4]
10008fd4:	80e3      	strh	r3, [r4, #6]
10008fd6:	8122      	strh	r2, [r4, #8]
10008fd8:	b108      	cbz	r0, 10008fde <tu_fifo_config+0x4a>
10008fda:	f000 fb29 	bl	10009630 <__mutex_exit_veneer>
10008fde:	6920      	ldr	r0, [r4, #16]
10008fe0:	b108      	cbz	r0, 10008fe6 <tu_fifo_config+0x52>
10008fe2:	f000 fb25 	bl	10009630 <__mutex_exit_veneer>
10008fe6:	2001      	movs	r0, #1
10008fe8:	e8bd 81f0 	ldmia.w	sp!, {r4, r5, r6, r7, r8, pc}
10008fec:	2000      	movs	r0, #0
10008fee:	e8bd 81f0 	ldmia.w	sp!, {r4, r5, r6, r7, r8, pc}
10008ff2:	bf00      	nop

10008ff4 <tu_fifo_count>:
10008ff4:	8903      	ldrh	r3, [r0, #8]
10008ff6:	8942      	ldrh	r2, [r0, #10]
10008ff8:	b29b      	uxth	r3, r3
10008ffa:	b292      	uxth	r2, r2
10008ffc:	8880      	ldrh	r0, [r0, #4]
10008ffe:	4293      	cmp	r3, r2
10009000:	bf36      	itet	cc
10009002:	ebc2 0240 	rsbcc	r2, r2, r0, lsl #1
10009006:	1a9b      	subcs	r3, r3, r2
10009008:	189b      	addcc	r3, r3, r2
1000900a:	b29b      	uxth	r3, r3
1000900c:	4298      	cmp	r0, r3
1000900e:	bf28      	it	cs
10009010:	4618      	movcs	r0, r3
10009012:	4770      	bx	lr

10009014 <tu_fifo_empty>:
10009014:	8902      	ldrh	r2, [r0, #8]
10009016:	8943      	ldrh	r3, [r0, #10]
10009018:	b290      	uxth	r0, r2
1000901a:	b29b      	uxth	r3, r3
1000901c:	1ac0      	subs	r0, r0, r3
1000901e:	fab0 f080 	clz	r0, r0
10009022:	0940      	lsrs	r0, r0, #5
10009024:	4770      	bx	lr
10009026:	bf00      	nop

10009028 <tu_fifo_remaining>:
10009028:	8903      	ldrh	r3, [r0, #8]
1000902a:	8942      	ldrh	r2, [r0, #10]
1000902c:	b29b      	uxth	r3, r3
1000902e:	8880      	ldrh	r0, [r0, #4]
10009030:	b292      	uxth	r2, r2
10009032:	4293      	cmp	r3, r2
10009034:	bf36      	itet	cc
10009036:	ebc2 0240 	rsbcc	r2, r2, r0, lsl #1
1000903a:	1a9b      	subcs	r3, r3, r2
1000903c:	189b      	addcc	r3, r3, r2
1000903e:	b29b      	uxth	r3, r3
10009040:	4298      	cmp	r0, r3
10009042:	bf86      	itte	hi
10009044:	1ac0      	subhi	r0, r0, r3
10009046:	b280      	uxthhi	r0, r0
10009048:	2000      	movls	r0, #0
1000904a:	4770      	bx	lr

1000904c <tu_fifo_read>:
1000904c:	b530      	push	{r4, r5, lr}
1000904e:	4604      	mov	r4, r0
10009050:	6900      	ldr	r0, [r0, #16]
10009052:	460d      	mov	r5, r1
10009054:	b083      	sub	sp, #12
10009056:	b118      	cbz	r0, 10009060 <tu_fifo_read+0x14>
10009058:	f04f 31ff 	mov.w	r1, #4294967295
1000905c:	f000 fad8 	bl	10009610 <__mutex_enter_timeout_ms_veneer>
10009060:	8922      	ldrh	r2, [r4, #8]
10009062:	8961      	ldrh	r1, [r4, #10]
10009064:	b292      	uxth	r2, r2
10009066:	b289      	uxth	r1, r1
10009068:	88a3      	ldrh	r3, [r4, #4]
1000906a:	428a      	cmp	r2, r1
1000906c:	bf36      	itet	cc
1000906e:	ebc1 0043 	rsbcc	r0, r1, r3, lsl #1
10009072:	1a50      	subcs	r0, r2, r1
10009074:	1880      	addcc	r0, r0, r2
10009076:	b280      	uxth	r0, r0
10009078:	b368      	cbz	r0, 100090d6 <tu_fifo_read+0x8a>
1000907a:	4283      	cmp	r3, r0
1000907c:	d209      	bcs.n	10009092 <tu_fifo_read+0x46>
1000907e:	429a      	cmp	r2, r3
10009080:	bf2c      	ite	cs
10009082:	1ad2      	subcs	r2, r2, r3
10009084:	18d2      	addcc	r2, r2, r3
10009086:	b291      	uxth	r1, r2
10009088:	428b      	cmp	r3, r1
1000908a:	8161      	strh	r1, [r4, #10]
1000908c:	d803      	bhi.n	10009096 <tu_fifo_read+0x4a>
1000908e:	1ac9      	subs	r1, r1, r3
10009090:	b289      	uxth	r1, r1
10009092:	428b      	cmp	r3, r1
10009094:	d9fb      	bls.n	1000908e <tu_fifo_read+0x42>
10009096:	88e2      	ldrh	r2, [r4, #6]
10009098:	6823      	ldr	r3, [r4, #0]
1000909a:	f3c2 020e 	ubfx	r2, r2, #0, #15
1000909e:	fb02 3101 	mla	r1, r2, r1, r3
100090a2:	4628      	mov	r0, r5
100090a4:	f000 fa0a 	bl	100094bc <memcpy>
100090a8:	8962      	ldrh	r2, [r4, #10]
100090aa:	88a3      	ldrh	r3, [r4, #4]
100090ac:	b292      	uxth	r2, r2
100090ae:	1c51      	adds	r1, r2, #1
100090b0:	b289      	uxth	r1, r1
100090b2:	428a      	cmp	r2, r1
100090b4:	f04f 0201 	mov.w	r2, #1
100090b8:	d910      	bls.n	100090dc <tu_fifo_read+0x90>
100090ba:	2100      	movs	r1, #0
100090bc:	fa03 f002 	lsl.w	r0, r3, r2
100090c0:	1a09      	subs	r1, r1, r0
100090c2:	6920      	ldr	r0, [r4, #16]
100090c4:	8161      	strh	r1, [r4, #10]
100090c6:	b118      	cbz	r0, 100090d0 <tu_fifo_read+0x84>
100090c8:	9201      	str	r2, [sp, #4]
100090ca:	f000 fab1 	bl	10009630 <__mutex_exit_veneer>
100090ce:	9a01      	ldr	r2, [sp, #4]
100090d0:	4610      	mov	r0, r2
100090d2:	b003      	add	sp, #12
100090d4:	bd30      	pop	{r4, r5, pc}
100090d6:	4602      	mov	r2, r0
100090d8:	8961      	ldrh	r1, [r4, #10]
100090da:	b289      	uxth	r1, r1
100090dc:	ebb1 0f43 	cmp.w	r1, r3, lsl #1
100090e0:	ea4f 0043 	mov.w	r0, r3, lsl #1
100090e4:	dbed      	blt.n	100090c2 <tu_fifo_read+0x76>
100090e6:	e7eb      	b.n	100090c0 <tu_fifo_read+0x74>

100090e8 <tu_fifo_read_n>:
100090e8:	e92d 41f0 	stmdb	sp!, {r4, r5, r6, r7, r8, lr}
100090ec:	4605      	mov	r5, r0
100090ee:	6900      	ldr	r0, [r0, #16]
100090f0:	4688      	mov	r8, r1
100090f2:	b082      	sub	sp, #8
100090f4:	b128      	cbz	r0, 10009102 <tu_fifo_read_n+0x1a>
100090f6:	f04f 31ff 	mov.w	r1, #4294967295
100090fa:	9200      	str	r2, [sp, #0]
100090fc:	f000 fa88 	bl	10009610 <__mutex_enter_timeout_ms_veneer>
10009100:	9a00      	ldr	r2, [sp, #0]
10009102:	8929      	ldrh	r1, [r5, #8]
10009104:	896b      	ldrh	r3, [r5, #10]
10009106:	b289      	uxth	r1, r1
10009108:	b29b      	uxth	r3, r3
1000910a:	88ac      	ldrh	r4, [r5, #4]
1000910c:	4299      	cmp	r1, r3
1000910e:	bf36      	itet	cc
10009110:	ebc3 0644 	rsbcc	r6, r3, r4, lsl #1
10009114:	1ace      	subcs	r6, r1, r3
10009116:	1876      	addcc	r6, r6, r1
10009118:	b2b6      	uxth	r6, r6
1000911a:	2e00      	cmp	r6, #0
1000911c:	d04b      	beq.n	100091b6 <tu_fifo_read_n+0xce>
1000911e:	42b4      	cmp	r4, r6
10009120:	d341      	bcc.n	100091a6 <tu_fifo_read_n+0xbe>
10009122:	42b2      	cmp	r2, r6
10009124:	bf28      	it	cs
10009126:	4632      	movcs	r2, r6
10009128:	429c      	cmp	r4, r3
1000912a:	b296      	uxth	r6, r2
1000912c:	d803      	bhi.n	10009136 <tu_fifo_read_n+0x4e>
1000912e:	1b1b      	subs	r3, r3, r4
10009130:	b29b      	uxth	r3, r3
10009132:	429c      	cmp	r4, r3
10009134:	d9fb      	bls.n	1000912e <tu_fifo_read_n+0x46>
10009136:	f8b5 c006 	ldrh.w	ip, [r5, #6]
1000913a:	1ae0      	subs	r0, r4, r3
1000913c:	6829      	ldr	r1, [r5, #0]
1000913e:	b280      	uxth	r0, r0
10009140:	f3cc 020e 	ubfx	r2, ip, #0, #15
10009144:	4286      	cmp	r6, r0
10009146:	4617      	mov	r7, r2
10009148:	fb02 1103 	mla	r1, r2, r3, r1
1000914c:	d925      	bls.n	1000919a <tu_fifo_read_n+0xb2>
1000914e:	fb10 f202 	smulbb	r2, r0, r2
10009152:	4640      	mov	r0, r8
10009154:	b292      	uxth	r2, r2
10009156:	9301      	str	r3, [sp, #4]
10009158:	9200      	str	r2, [sp, #0]
1000915a:	f000 f9af 	bl	100094bc <memcpy>
1000915e:	9b01      	ldr	r3, [sp, #4]
10009160:	9a00      	ldr	r2, [sp, #0]
10009162:	1b34      	subs	r4, r6, r4
10009164:	4423      	add	r3, r4
10009166:	eb08 0002 	add.w	r0, r8, r2
1000916a:	fb13 f207 	smulbb	r2, r3, r7
1000916e:	6829      	ldr	r1, [r5, #0]
10009170:	b292      	uxth	r2, r2
10009172:	f000 f9a3 	bl	100094bc <memcpy>
10009176:	896a      	ldrh	r2, [r5, #10]
10009178:	88ac      	ldrh	r4, [r5, #4]
1000917a:	b292      	uxth	r2, r2
1000917c:	1993      	adds	r3, r2, r6
1000917e:	b29b      	uxth	r3, r3
10009180:	429a      	cmp	r2, r3
10009182:	d91a      	bls.n	100091ba <tu_fifo_read_n+0xd2>
10009184:	0062      	lsls	r2, r4, #1
10009186:	1a9b      	subs	r3, r3, r2
10009188:	6928      	ldr	r0, [r5, #16]
1000918a:	816b      	strh	r3, [r5, #10]
1000918c:	b108      	cbz	r0, 10009192 <tu_fifo_read_n+0xaa>
1000918e:	f000 fa4f 	bl	10009630 <__mutex_exit_veneer>
10009192:	4630      	mov	r0, r6
10009194:	b002      	add	sp, #8
10009196:	e8bd 81f0 	ldmia.w	sp!, {r4, r5, r6, r7, r8, pc}
1000919a:	4640      	mov	r0, r8
1000919c:	fb06 f202 	mul.w	r2, r6, r2
100091a0:	f000 f98c 	bl	100094bc <memcpy>
100091a4:	e7e7      	b.n	10009176 <tu_fifo_read_n+0x8e>
100091a6:	42a1      	cmp	r1, r4
100091a8:	bf2c      	ite	cs
100091aa:	1b09      	subcs	r1, r1, r4
100091ac:	1909      	addcc	r1, r1, r4
100091ae:	b28b      	uxth	r3, r1
100091b0:	4626      	mov	r6, r4
100091b2:	816b      	strh	r3, [r5, #10]
100091b4:	e7b5      	b.n	10009122 <tu_fifo_read_n+0x3a>
100091b6:	896b      	ldrh	r3, [r5, #10]
100091b8:	b29b      	uxth	r3, r3
100091ba:	ebb3 0f44 	cmp.w	r3, r4, lsl #1
100091be:	ea4f 0244 	mov.w	r2, r4, lsl #1
100091c2:	dbe1      	blt.n	10009188 <tu_fifo_read_n+0xa0>
100091c4:	e7df      	b.n	10009186 <tu_fifo_read_n+0x9e>
100091c6:	bf00      	nop

100091c8 <tu_fifo_write>:
100091c8:	b570      	push	{r4, r5, r6, lr}
100091ca:	4604      	mov	r4, r0
100091cc:	68c0      	ldr	r0, [r0, #12]
100091ce:	460e      	mov	r6, r1
100091d0:	b082      	sub	sp, #8
100091d2:	b118      	cbz	r0, 100091dc <tu_fifo_write+0x14>
100091d4:	f04f 31ff 	mov.w	r1, #4294967295
100091d8:	f000 fa1a 	bl	10009610 <__mutex_enter_timeout_ms_veneer>
100091dc:	8925      	ldrh	r5, [r4, #8]
100091de:	8923      	ldrh	r3, [r4, #8]
100091e0:	8961      	ldrh	r1, [r4, #10]
100091e2:	b29b      	uxth	r3, r3
100091e4:	b289      	uxth	r1, r1
100091e6:	88a2      	ldrh	r2, [r4, #4]
100091e8:	428b      	cmp	r3, r1
100091ea:	bf36      	itet	cc
100091ec:	ebc1 0142 	rsbcc	r1, r1, r2, lsl #1
100091f0:	1a5b      	subcs	r3, r3, r1
100091f2:	185b      	addcc	r3, r3, r1
100091f4:	b29b      	uxth	r3, r3
100091f6:	429a      	cmp	r2, r3
100091f8:	b2ad      	uxth	r5, r5
100091fa:	d80b      	bhi.n	10009214 <tu_fifo_write+0x4c>
100091fc:	79e1      	ldrb	r1, [r4, #7]
100091fe:	09c9      	lsrs	r1, r1, #7
10009200:	d108      	bne.n	10009214 <tu_fifo_write+0x4c>
10009202:	68e0      	ldr	r0, [r4, #12]
10009204:	b118      	cbz	r0, 1000920e <tu_fifo_write+0x46>
10009206:	9101      	str	r1, [sp, #4]
10009208:	f000 fa12 	bl	10009630 <__mutex_exit_veneer>
1000920c:	9901      	ldr	r1, [sp, #4]
1000920e:	4608      	mov	r0, r1
10009210:	b002      	add	sp, #8
10009212:	bd70      	pop	{r4, r5, r6, pc}
10009214:	4295      	cmp	r5, r2
10009216:	bf28      	it	cs
10009218:	462b      	movcs	r3, r5
1000921a:	d317      	bcc.n	1000924c <tu_fifo_write+0x84>
1000921c:	1a9b      	subs	r3, r3, r2
1000921e:	b29b      	uxth	r3, r3
10009220:	4293      	cmp	r3, r2
10009222:	d2fb      	bcs.n	1000921c <tu_fifo_write+0x54>
10009224:	88e2      	ldrh	r2, [r4, #6]
10009226:	6820      	ldr	r0, [r4, #0]
10009228:	f3c2 020e 	ubfx	r2, r2, #0, #15
1000922c:	fb02 0003 	mla	r0, r2, r3, r0
10009230:	4631      	mov	r1, r6
10009232:	f000 f943 	bl	100094bc <memcpy>
10009236:	1c6b      	adds	r3, r5, #1
10009238:	b29b      	uxth	r3, r3
1000923a:	429d      	cmp	r5, r3
1000923c:	88a2      	ldrh	r2, [r4, #4]
1000923e:	d911      	bls.n	10009264 <tu_fifo_write+0x9c>
10009240:	2300      	movs	r3, #0
10009242:	0051      	lsls	r1, r2, #1
10009244:	1a5b      	subs	r3, r3, r1
10009246:	2101      	movs	r1, #1
10009248:	8123      	strh	r3, [r4, #8]
1000924a:	e7da      	b.n	10009202 <tu_fifo_write+0x3a>
1000924c:	88e2      	ldrh	r2, [r4, #6]
1000924e:	6820      	ldr	r0, [r4, #0]
10009250:	f3c2 020e 	ubfx	r2, r2, #0, #15
10009254:	fb05 0002 	mla	r0, r5, r2, r0
10009258:	4631      	mov	r1, r6
1000925a:	f000 f92f 	bl	100094bc <memcpy>
1000925e:	3501      	adds	r5, #1
10009260:	88a2      	ldrh	r2, [r4, #4]
10009262:	b2ab      	uxth	r3, r5
10009264:	ebb3 0f42 	cmp.w	r3, r2, lsl #1
10009268:	ea4f 0142 	mov.w	r1, r2, lsl #1
1000926c:	dbeb      	blt.n	10009246 <tu_fifo_write+0x7e>
1000926e:	e7e9      	b.n	10009244 <tu_fifo_write+0x7c>

10009270 <tu_fifo_write_n>:
10009270:	e92d 47f0 	stmdb	sp!, {r4, r5, r6, r7, r8, r9, sl, lr}
10009274:	4615      	mov	r5, r2
10009276:	b082      	sub	sp, #8
10009278:	2a00      	cmp	r2, #0
1000927a:	d04a      	beq.n	10009312 <tu_fifo_write_n+0xa2>
1000927c:	4604      	mov	r4, r0
1000927e:	68c0      	ldr	r0, [r0, #12]
10009280:	4688      	mov	r8, r1
10009282:	b118      	cbz	r0, 1000928c <tu_fifo_write_n+0x1c>
10009284:	f04f 31ff 	mov.w	r1, #4294967295
10009288:	f000 f9c2 	bl	10009610 <__mutex_enter_timeout_ms_veneer>
1000928c:	79e1      	ldrb	r1, [r4, #7]
1000928e:	8926      	ldrh	r6, [r4, #8]
10009290:	8963      	ldrh	r3, [r4, #10]
10009292:	09c9      	lsrs	r1, r1, #7
10009294:	88a2      	ldrh	r2, [r4, #4]
10009296:	b2b6      	uxth	r6, r6
10009298:	b29b      	uxth	r3, r3
1000929a:	d13e      	bne.n	1000931a <tu_fifo_write_n+0xaa>
1000929c:	429e      	cmp	r6, r3
1000929e:	bf36      	itet	cc
100092a0:	ebc3 0342 	rsbcc	r3, r3, r2, lsl #1
100092a4:	1af3      	subcs	r3, r6, r3
100092a6:	199b      	addcc	r3, r3, r6
100092a8:	b29b      	uxth	r3, r3
100092aa:	4293      	cmp	r3, r2
100092ac:	d253      	bcs.n	10009356 <tu_fifo_write_n+0xe6>
100092ae:	1ad3      	subs	r3, r2, r3
100092b0:	b29b      	uxth	r3, r3
100092b2:	42ab      	cmp	r3, r5
100092b4:	bf28      	it	cs
100092b6:	462b      	movcs	r3, r5
100092b8:	b29d      	uxth	r5, r3
100092ba:	1973      	adds	r3, r6, r5
100092bc:	f8b4 c006 	ldrh.w	ip, [r4, #6]
100092c0:	fa1f f983 	uxth.w	r9, r3
100092c4:	eba5 0a02 	sub.w	sl, r5, r2
100092c8:	4296      	cmp	r6, r2
100092ca:	4633      	mov	r3, r6
100092cc:	d303      	bcc.n	100092d6 <tu_fifo_write_n+0x66>
100092ce:	1a9b      	subs	r3, r3, r2
100092d0:	b29b      	uxth	r3, r3
100092d2:	4293      	cmp	r3, r2
100092d4:	d2fb      	bcs.n	100092ce <tu_fifo_write_n+0x5e>
100092d6:	1ad2      	subs	r2, r2, r3
100092d8:	b291      	uxth	r1, r2
100092da:	6820      	ldr	r0, [r4, #0]
100092dc:	f3cc 020e 	ubfx	r2, ip, #0, #15
100092e0:	42a9      	cmp	r1, r5
100092e2:	4617      	mov	r7, r2
100092e4:	fb02 0003 	mla	r0, r2, r3, r0
100092e8:	d352      	bcc.n	10009390 <tu_fifo_write_n+0x120>
100092ea:	4641      	mov	r1, r8
100092ec:	fb05 f202 	mul.w	r2, r5, r2
100092f0:	f000 f8e4 	bl	100094bc <memcpy>
100092f4:	88a3      	ldrh	r3, [r4, #4]
100092f6:	454e      	cmp	r6, r9
100092f8:	ea4f 0243 	mov.w	r2, r3, lsl #1
100092fc:	d802      	bhi.n	10009304 <tu_fifo_write_n+0x94>
100092fe:	ebb9 0f43 	cmp.w	r9, r3, lsl #1
10009302:	db01      	blt.n	10009308 <tu_fifo_write_n+0x98>
10009304:	eba9 0902 	sub.w	r9, r9, r2
10009308:	68e0      	ldr	r0, [r4, #12]
1000930a:	462a      	mov	r2, r5
1000930c:	f8a4 9008 	strh.w	r9, [r4, #8]
10009310:	bb28      	cbnz	r0, 1000935e <tu_fifo_write_n+0xee>
10009312:	4610      	mov	r0, r2
10009314:	b002      	add	sp, #8
10009316:	e8bd 87f0 	ldmia.w	sp!, {r4, r5, r6, r7, r8, r9, sl, pc}
1000931a:	4295      	cmp	r5, r2
1000931c:	d227      	bcs.n	1000936e <tu_fifo_write_n+0xfe>
1000931e:	429e      	cmp	r6, r3
10009320:	bf36      	itet	cc
10009322:	ebc3 0142 	rsbcc	r1, r3, r2, lsl #1
10009326:	1af1      	subcs	r1, r6, r3
10009328:	1989      	addcc	r1, r1, r6
1000932a:	b289      	uxth	r1, r1
1000932c:	0050      	lsls	r0, r2, #1
1000932e:	4429      	add	r1, r5
10009330:	1aaf      	subs	r7, r5, r2
10009332:	4281      	cmp	r1, r0
10009334:	46ba      	mov	sl, r7
10009336:	db08      	blt.n	1000934a <tu_fifo_write_n+0xda>
10009338:	1899      	adds	r1, r3, r2
1000933a:	b289      	uxth	r1, r1
1000933c:	1b4e      	subs	r6, r1, r5
1000933e:	b2b6      	uxth	r6, r6
10009340:	42b3      	cmp	r3, r6
10009342:	4689      	mov	r9, r1
10009344:	d938      	bls.n	100093b8 <tu_fifo_write_n+0x148>
10009346:	1a30      	subs	r0, r6, r0
10009348:	b286      	uxth	r6, r0
1000934a:	19ab      	adds	r3, r5, r6
1000934c:	fa1f f983 	uxth.w	r9, r3
10009350:	f8b4 c006 	ldrh.w	ip, [r4, #6]
10009354:	e7b8      	b.n	100092c8 <tu_fifo_write_n+0x58>
10009356:	2200      	movs	r2, #0
10009358:	68e0      	ldr	r0, [r4, #12]
1000935a:	2800      	cmp	r0, #0
1000935c:	d0d9      	beq.n	10009312 <tu_fifo_write_n+0xa2>
1000935e:	9200      	str	r2, [sp, #0]
10009360:	f000 f966 	bl	10009630 <__mutex_exit_veneer>
10009364:	9a00      	ldr	r2, [sp, #0]
10009366:	4610      	mov	r0, r2
10009368:	b002      	add	sp, #8
1000936a:	e8bd 87f0 	ldmia.w	sp!, {r4, r5, r6, r7, r8, r9, sl, pc}
1000936e:	2a00      	cmp	r2, #0
10009370:	d0f2      	beq.n	10009358 <tu_fifo_write_n+0xe8>
10009372:	f8b4 c006 	ldrh.w	ip, [r4, #6]
10009376:	1aad      	subs	r5, r5, r2
10009378:	1899      	adds	r1, r3, r2
1000937a:	461e      	mov	r6, r3
1000937c:	f3cc 030e 	ubfx	r3, ip, #0, #15
10009380:	fb03 8805 	mla	r8, r3, r5, r8
10009384:	f04f 0a00 	mov.w	sl, #0
10009388:	4615      	mov	r5, r2
1000938a:	fa1f f981 	uxth.w	r9, r1
1000938e:	e79b      	b.n	100092c8 <tu_fifo_write_n+0x58>
10009390:	fb11 f202 	smulbb	r2, r1, r2
10009394:	4641      	mov	r1, r8
10009396:	b292      	uxth	r2, r2
10009398:	9301      	str	r3, [sp, #4]
1000939a:	9200      	str	r2, [sp, #0]
1000939c:	f000 f88e 	bl	100094bc <memcpy>
100093a0:	9b01      	ldr	r3, [sp, #4]
100093a2:	9a00      	ldr	r2, [sp, #0]
100093a4:	4453      	add	r3, sl
100093a6:	fb13 f307 	smulbb	r3, r3, r7
100093aa:	eb08 0102 	add.w	r1, r8, r2
100093ae:	6820      	ldr	r0, [r4, #0]
100093b0:	b29a      	uxth	r2, r3
100093b2:	f000 f883 	bl	100094bc <memcpy>
100093b6:	e79d      	b.n	100092f4 <tu_fifo_write_n+0x84>
100093b8:	42b0      	cmp	r0, r6
100093ba:	ddc4      	ble.n	10009346 <tu_fifo_write_n+0xd6>
100093bc:	e7c8      	b.n	10009350 <tu_fifo_write_n+0xe0>
100093be:	bf00      	nop

100093c0 <tu_fifo_clear>:
100093c0:	b510      	push	{r4, lr}
100093c2:	4604      	mov	r4, r0
100093c4:	68c0      	ldr	r0, [r0, #12]
100093c6:	b118      	cbz	r0, 100093d0 <tu_fifo_clear+0x10>
100093c8:	f04f 31ff 	mov.w	r1, #4294967295
100093cc:	f000 f920 	bl	10009610 <__mutex_enter_timeout_ms_veneer>
100093d0:	6920      	ldr	r0, [r4, #16]
100093d2:	b118      	cbz	r0, 100093dc <tu_fifo_clear+0x1c>
100093d4:	f04f 31ff 	mov.w	r1, #4294967295
100093d8:	f000 f91a 	bl	10009610 <__mutex_enter_timeout_ms_veneer>
100093dc:	2300      	movs	r3, #0
100093de:	68e0      	ldr	r0, [r4, #12]
100093e0:	8163      	strh	r3, [r4, #10]
100093e2:	8123      	strh	r3, [r4, #8]
100093e4:	b108      	cbz	r0, 100093ea <tu_fifo_clear+0x2a>
100093e6:	f000 f923 	bl	10009630 <__mutex_exit_veneer>
100093ea:	6920      	ldr	r0, [r4, #16]
100093ec:	b108      	cbz	r0, 100093f2 <tu_fifo_clear+0x32>
100093ee:	f000 f91f 	bl	10009630 <__mutex_exit_veneer>
100093f2:	2001      	movs	r0, #1
100093f4:	bd10      	pop	{r4, pc}
100093f6:	bf00      	nop

100093f8 <tu_fifo_set_overwritable>:
100093f8:	b538      	push	{r3, r4, r5, lr}
100093fa:	4604      	mov	r4, r0
100093fc:	68c0      	ldr	r0, [r0, #12]
100093fe:	460d      	mov	r5, r1
10009400:	b118      	cbz	r0, 1000940a <tu_fifo_set_overwritable+0x12>
10009402:	f04f 31ff 	mov.w	r1, #4294967295
10009406:	f000 f903 	bl	10009610 <__mutex_enter_timeout_ms_veneer>
1000940a:	6920      	ldr	r0, [r4, #16]
1000940c:	b118      	cbz	r0, 10009416 <tu_fifo_set_overwritable+0x1e>
1000940e:	f04f 31ff 	mov.w	r1, #4294967295
10009412:	f000 f8fd 	bl	10009610 <__mutex_enter_timeout_ms_veneer>
10009416:	79e3      	ldrb	r3, [r4, #7]
10009418:	68e0      	ldr	r0, [r4, #12]
1000941a:	f365 13c7 	bfi	r3, r5, #7, #1
1000941e:	71e3      	strb	r3, [r4, #7]
10009420:	b108      	cbz	r0, 10009426 <tu_fifo_set_overwritable+0x2e>
10009422:	f000 f905 	bl	10009630 <__mutex_exit_veneer>
10009426:	6920      	ldr	r0, [r4, #16]
10009428:	b108      	cbz	r0, 1000942e <tu_fifo_set_overwritable+0x36>
1000942a:	f000 f901 	bl	10009630 <__mutex_exit_veneer>
1000942e:	2001      	movs	r0, #1
10009430:	bd38      	pop	{r3, r4, r5, pc}
10009432:	bf00      	nop

10009434 <memset>:
10009434:	b530      	push	{r4, r5, lr}
10009436:	0784      	lsls	r4, r0, #30
10009438:	4686      	mov	lr, r0
1000943a:	4603      	mov	r3, r0
1000943c:	d006      	beq.n	1000944c <memset+0x18>
1000943e:	b3a2      	cbz	r2, 100094aa <memset+0x76>
10009440:	f803 1b01 	strb.w	r1, [r3], #1
10009444:	0798      	lsls	r0, r3, #30
10009446:	f102 32ff 	add.w	r2, r2, #4294967295
1000944a:	d1f8      	bne.n	1000943e <memset+0xa>
1000944c:	2a03      	cmp	r2, #3
1000944e:	d926      	bls.n	1000949e <memset+0x6a>
10009450:	fa5f fc81 	uxtb.w	ip, r1
10009454:	2a0f      	cmp	r2, #15
10009456:	eb0c 2c0c 	add.w	ip, ip, ip, lsl #8
1000945a:	eb0c 400c 	add.w	r0, ip, ip, lsl #16
1000945e:	d92a      	bls.n	100094b6 <memset+0x82>
10009460:	f022 0c0f 	bic.w	ip, r2, #15
10009464:	449c      	add	ip, r3
10009466:	e9c3 0000 	strd	r0, r0, [r3]
1000946a:	e9c3 0002 	strd	r0, r0, [r3, #8]
1000946e:	3310      	adds	r3, #16
10009470:	4563      	cmp	r3, ip
10009472:	d1f8      	bne.n	10009466 <memset+0x32>
10009474:	f012 0f0c 	tst.w	r2, #12
10009478:	f002 050f 	and.w	r5, r2, #15
1000947c:	d017      	beq.n	100094ae <memset+0x7a>
1000947e:	ea4f 0c95 	mov.w	ip, r5, lsr #2
10009482:	461a      	mov	r2, r3
10009484:	f10c 34ff 	add.w	r4, ip, #4294967295
10009488:	eb03 0c8c 	add.w	ip, r3, ip, lsl #2
1000948c:	f842 0b04 	str.w	r0, [r2], #4
10009490:	4562      	cmp	r2, ip
10009492:	d1fb      	bne.n	1000948c <memset+0x58>
10009494:	3304      	adds	r3, #4
10009496:	f005 0203 	and.w	r2, r5, #3
1000949a:	eb03 0384 	add.w	r3, r3, r4, lsl #2
1000949e:	b122      	cbz	r2, 100094aa <memset+0x76>
100094a0:	441a      	add	r2, r3
100094a2:	f803 1b01 	strb.w	r1, [r3], #1
100094a6:	429a      	cmp	r2, r3
100094a8:	d1fb      	bne.n	100094a2 <memset+0x6e>
100094aa:	4670      	mov	r0, lr
100094ac:	bd30      	pop	{r4, r5, pc}
100094ae:	462a      	mov	r2, r5
100094b0:	2a00      	cmp	r2, #0
100094b2:	d1f5      	bne.n	100094a0 <memset+0x6c>
100094b4:	e7f9      	b.n	100094aa <memset+0x76>
100094b6:	4615      	mov	r5, r2
100094b8:	e7e1      	b.n	1000947e <memset+0x4a>
100094ba:	bf00      	nop

100094bc <memcpy>:
100094bc:	4684      	mov	ip, r0
100094be:	ea41 0300 	orr.w	r3, r1, r0
100094c2:	f013 0303 	ands.w	r3, r3, #3
100094c6:	d149      	bne.n	1000955c <memcpy+0xa0>
100094c8:	3a40      	subs	r2, #64	@ 0x40
100094ca:	d323      	bcc.n	10009514 <memcpy+0x58>
100094cc:	680b      	ldr	r3, [r1, #0]
100094ce:	6003      	str	r3, [r0, #0]
100094d0:	684b      	ldr	r3, [r1, #4]
100094d2:	6043      	str	r3, [r0, #4]
100094d4:	688b      	ldr	r3, [r1, #8]
100094d6:	6083      	str	r3, [r0, #8]
100094d8:	68cb      	ldr	r3, [r1, #12]
100094da:	60c3      	str	r3, [r0, #12]
100094dc:	690b      	ldr	r3, [r1, #16]
100094de:	6103      	str	r3, [r0, #16]
100094e0:	694b      	ldr	r3, [r1, #20]
100094e2:	6143      	str	r3, [r0, #20]
100094e4:	698b      	ldr	r3, [r1, #24]
100094e6:	6183      	str	r3, [r0, #24]
100094e8:	69cb      	ldr	r3, [r1, #28]
100094ea:	61c3      	str	r3, [r0, #28]
100094ec:	6a0b      	ldr	r3, [r1, #32]
100094ee:	6203      	str	r3, [r0, #32]
100094f0:	6a4b      	ldr	r3, [r1, #36]	@ 0x24
100094f2:	6243      	str	r3, [r0, #36]	@ 0x24
100094f4:	6a8b      	ldr	r3, [r1, #40]	@ 0x28
100094f6:	6283      	str	r3, [r0, #40]	@ 0x28
100094f8:	6acb      	ldr	r3, [r1, #44]	@ 0x2c
100094fa:	62c3      	str	r3, [r0, #44]	@ 0x2c
100094fc:	6b0b      	ldr	r3, [r1, #48]	@ 0x30
100094fe:	6303      	str	r3, [r0, #48]	@ 0x30
10009500:	6b4b      	ldr	r3, [r1, #52]	@ 0x34
10009502:	6343      	str	r3, [r0, #52]	@ 0x34
10009504:	6b8b      	ldr	r3, [r1, #56]	@ 0x38
10009506:	6383      	str	r3, [r0, #56]	@ 0x38
10009508:	6bcb      	ldr	r3, [r1, #60]	@ 0x3c
1000950a:	63c3      	str	r3, [r0, #60]	@ 0x3c
1000950c:	3040      	adds	r0, #64	@ 0x40
1000950e:	3140      	adds	r1, #64	@ 0x40
10009510:	3a40      	subs	r2, #64	@ 0x40
10009512:	d2db      	bcs.n	100094cc <memcpy+0x10>
10009514:	3230      	adds	r2, #48	@ 0x30
10009516:	d30b      	bcc.n	10009530 <memcpy+0x74>
10009518:	680b      	ldr	r3, [r1, #0]
1000951a:	6003      	str	r3, [r0, #0]
1000951c:	684b      	ldr	r3, [r1, #4]
1000951e:	6043      	str	r3, [r0, #4]
10009520:	688b      	ldr	r3, [r1, #8]
10009522:	6083      	str	r3, [r0, #8]
10009524:	68cb      	ldr	r3, [r1, #12]
10009526:	60c3      	str	r3, [r0, #12]
10009528:	3010      	adds	r0, #16
1000952a:	3110      	adds	r1, #16
1000952c:	3a10      	subs	r2, #16
1000952e:	d2f3      	bcs.n	10009518 <memcpy+0x5c>
10009530:	320c      	adds	r2, #12
10009532:	d305      	bcc.n	10009540 <memcpy+0x84>
10009534:	f851 3b04 	ldr.w	r3, [r1], #4
10009538:	f840 3b04 	str.w	r3, [r0], #4
1000953c:	3a04      	subs	r2, #4
1000953e:	d2f9      	bcs.n	10009534 <memcpy+0x78>
10009540:	3204      	adds	r2, #4
10009542:	d008      	beq.n	10009556 <memcpy+0x9a>
10009544:	07d2      	lsls	r2, r2, #31
10009546:	bf1c      	itt	ne
10009548:	f811 3b01 	ldrbne.w	r3, [r1], #1
1000954c:	f800 3b01 	strbne.w	r3, [r0], #1
10009550:	d301      	bcc.n	10009556 <memcpy+0x9a>
10009552:	880b      	ldrh	r3, [r1, #0]
10009554:	8003      	strh	r3, [r0, #0]
10009556:	4660      	mov	r0, ip
10009558:	4770      	bx	lr
1000955a:	bf00      	nop
1000955c:	2a08      	cmp	r2, #8
1000955e:	d313      	bcc.n	10009588 <memcpy+0xcc>
10009560:	078b      	lsls	r3, r1, #30
10009562:	d0b1      	beq.n	100094c8 <memcpy+0xc>
10009564:	f010 0303 	ands.w	r3, r0, #3
10009568:	d0ae      	beq.n	100094c8 <memcpy+0xc>
1000956a:	f1c3 0304 	rsb	r3, r3, #4
1000956e:	1ad2      	subs	r2, r2, r3
10009570:	07db      	lsls	r3, r3, #31
10009572:	bf1c      	itt	ne
10009574:	f811 3b01 	ldrbne.w	r3, [r1], #1
10009578:	f800 3b01 	strbne.w	r3, [r0], #1
1000957c:	d3a4      	bcc.n	100094c8 <memcpy+0xc>
1000957e:	f831 3b02 	ldrh.w	r3, [r1], #2
10009582:	f820 3b02 	strh.w	r3, [r0], #2
10009586:	e79f      	b.n	100094c8 <memcpy+0xc>
10009588:	3a04      	subs	r2, #4
1000958a:	d3d9      	bcc.n	10009540 <memcpy+0x84>
1000958c:	3a01      	subs	r2, #1
1000958e:	f811 3b01 	ldrb.w	r3, [r1], #1
10009592:	f800 3b01 	strb.w	r3, [r0], #1
10009596:	d2f9      	bcs.n	1000958c <memcpy+0xd0>
10009598:	780b      	ldrb	r3, [r1, #0]
1000959a:	7003      	strb	r3, [r0, #0]
1000959c:	784b      	ldrb	r3, [r1, #1]
1000959e:	7043      	strb	r3, [r0, #1]
100095a0:	788b      	ldrb	r3, [r1, #2]
100095a2:	7083      	strb	r3, [r0, #2]
100095a4:	4660      	mov	r0, ip
100095a6:	4770      	bx	lr

100095a8 <strlen>:
100095a8:	f020 0103 	bic.w	r1, r0, #3
100095ac:	f010 0003 	ands.w	r0, r0, #3
100095b0:	f1c0 0000 	rsb	r0, r0, #0
100095b4:	f851 3b04 	ldr.w	r3, [r1], #4
100095b8:	f100 0c04 	add.w	ip, r0, #4
100095bc:	ea4f 0ccc 	mov.w	ip, ip, lsl #3
100095c0:	f06f 0200 	mvn.w	r2, #0
100095c4:	bf1c      	itt	ne
100095c6:	fa22 f20c 	lsrne.w	r2, r2, ip
100095ca:	4313      	orrne	r3, r2
100095cc:	f04f 0c01 	mov.w	ip, #1
100095d0:	ea4c 2c0c 	orr.w	ip, ip, ip, lsl #8
100095d4:	ea4c 4c0c 	orr.w	ip, ip, ip, lsl #16
100095d8:	eba3 020c 	sub.w	r2, r3, ip
100095dc:	ea22 0203 	bic.w	r2, r2, r3
100095e0:	ea12 12cc 	ands.w	r2, r2, ip, lsl #7
100095e4:	bf04      	itt	eq
100095e6:	f851 3b04 	ldreq.w	r3, [r1], #4
100095ea:	3004      	addeq	r0, #4
100095ec:	d0f4      	beq.n	100095d8 <strlen+0x30>
100095ee:	f1c2 0100 	rsb	r1, r2, #0
100095f2:	ea02 0201 	and.w	r2, r2, r1
100095f6:	fab2 f282 	clz	r2, r2
100095fa:	f1c2 021f 	rsb	r2, r2, #31
100095fe:	eb00 00d2 	add.w	r0, r0, r2, lsr #3
10009602:	4770      	bx	lr

10009604 <_fini>:
10009604:	b5f8      	push	{r3, r4, r5, r6, r7, lr}
10009606:	bf00      	nop

10009608 <__e15_is_critical_frame_period_veneer>:
10009608:	f85f f000 	ldr.w	pc, [pc]	@ 1000960c <__e15_is_critical_frame_period_veneer+0x4>
1000960c:	20000a91 	.word	0x20000a91

10009610 <__mutex_enter_timeout_ms_veneer>:
10009610:	f85f f000 	ldr.w	pc, [pc]	@ 10009614 <__mutex_enter_timeout_ms_veneer+0x4>
10009614:	20000219 	.word	0x20000219

10009618 <__reset_non_control_endpoints_veneer>:
10009618:	f85f f000 	ldr.w	pc, [pc]	@ 1000961c <__reset_non_control_endpoints_veneer+0x4>
1000961c:	200002bd 	.word	0x200002bd

10009620 <__hw_endpoint_start_next_buffer_veneer>:
10009620:	f85f f000 	ldr.w	pc, [pc]	@ 10009624 <__hw_endpoint_start_next_buffer_veneer+0x4>
10009624:	20000b0d 	.word	0x20000b0d

10009628 <____aeabi_uldivmod_veneer>:
10009628:	f85f f000 	ldr.w	pc, [pc]	@ 1000962c <____aeabi_uldivmod_veneer+0x4>
1000962c:	20000e65 	.word	0x20000e65

10009630 <__mutex_exit_veneer>:
10009630:	f85f f000 	ldr.w	pc, [pc]	@ 10009634 <__mutex_exit_veneer+0x4>
10009634:	20000291 	.word	0x20000291

10009638 <____aeabi_ldivmod_veneer>:
10009638:	f85f f000 	ldr.w	pc, [pc]	@ 1000963c <____aeabi_ldivmod_veneer+0x4>
1000963c:	20000dc5 	.word	0x20000dc5

10009640 <___hw_endpoint_buffer_control_update32_veneer>:
10009640:	f85f f000 	ldr.w	pc, [pc]	@ 10009644 <___hw_endpoint_buffer_control_update32_veneer+0x4>
10009644:	20000ac5 	.word	0x20000ac5

10009648 <__mutex_try_enter_block_until_veneer>:
10009648:	f85f f000 	ldr.w	pc, [pc]	@ 1000964c <__mutex_try_enter_block_until_veneer+0x4>
1000964c:	20000165 	.word	0x20000165

10009650 <__e15_is_bulkin_ep_veneer>:
10009650:	f85f f000 	ldr.w	pc, [pc]	@ 10009654 <__e15_is_bulkin_ep_veneer+0x4>
10009654:	20000a69 	.word	0x20000a69

10009658 <__mutex_try_enter_veneer>:
10009658:	f85f f000 	ldr.w	pc, [pc]	@ 1000965c <__mutex_try_enter_veneer+0x4>
1000965c:	20000111 	.word	0x20000111

10009660 <__pre_init_runtime_init_bootrom_reset>:
10009660:	10004d05                                .M..

10009664 <__pre_init_runtime_init_early_resets>:
10009664:	10004c7d                                }L..

10009668 <__pre_init_runtime_init_usb_power_down>:
10009668:	10004cad                                .L..

1000966c <__pre_init_runtime_init_clocks>:
1000966c:	10004d99                                .M..

10009670 <__pre_init_runtime_init_post_clock_resets>:
10009670:	10004ce5                                .L..

10009674 <__pre_init_runtime_init_boot_locks_reset>:
10009674:	100049a9                                .I..

10009678 <__pre_init_runtime_init_spin_locks_reset>:
10009678:	10004d2d                                -M..

1000967c <__pre_init_runtime_init_bootrom_locking_enable>:
1000967c:	10004995                                .I..

10009680 <__pre_init_runtime_init_mutex>:
10009680:	10003f95                                .?..

10009684 <__pre_init_runtime_init_install_ram_vector_table>:
10009684:	10004d31                                1M..

10009688 <__pre_init_runtime_init_default_alarm_pool>:
10009688:	10004351                                QC..

1000968c <__pre_init_first_per_core_initializer>:
1000968c:	10004c2d                                -L..

10009690 <__pre_init_runtime_init_per_core_bootrom_reset>:
10009690:	10004d19                                .M..

10009694 <__pre_init_runtime_init_per_core_enable_coprocessors>:
10009694:	10004cc9                                .L..

10009698 <__pre_init_spinlock_set_extexclall>:
10009698:	10003b19                                .;..

1000969c <__pre_init_runtime_init_per_core_irq_priorities>:
1000969c:	10003b41                                A;..

100096a0 <__init_array_start>:
100096a0:	100071d1 	.word	0x100071d1

100096a4 <__frame_dummy_init_array_entry>:
100096a4:	10000211 100009b5                       ........

Disassembly of section .data:

20000110 <mutex_try_enter>:
20000110:	b510      	push	{r4, lr}
20000112:	4603      	mov	r3, r0
20000114:	6802      	ldr	r2, [r0, #0]
20000116:	b082      	sub	sp, #8
20000118:	f3ef 8410 	mrs	r4, PRIMASK
2000011c:	b672      	cpsid	i
2000011e:	e8d2 cfcf 	ldaexb	ip, [r2]
20000122:	2001      	movs	r0, #1
20000124:	f1bc 0f00 	cmp.w	ip, #0
20000128:	d1f9      	bne.n	2000011e <mutex_try_enter+0xe>
2000012a:	e8c2 0f4c 	strexb	ip, r0, [r2]
2000012e:	f1bc 0f00 	cmp.w	ip, #0
20000132:	d1f4      	bne.n	2000011e <mutex_try_enter+0xe>
20000134:	f3bf 8f5f 	dmb	sy
20000138:	685a      	ldr	r2, [r3, #4]
2000013a:	1c50      	adds	r0, r2, #1
2000013c:	d00a      	beq.n	20000154 <mutex_try_enter+0x44>
2000013e:	b101      	cbz	r1, 20000142 <mutex_try_enter+0x32>
20000140:	600a      	str	r2, [r1, #0]
20000142:	2000      	movs	r0, #0
20000144:	2200      	movs	r2, #0
20000146:	681b      	ldr	r3, [r3, #0]
20000148:	e8c3 2f8f 	stlb	r2, [r3]
2000014c:	f384 8810 	msr	PRIMASK, r4
20000150:	b002      	add	sp, #8
20000152:	bd10      	pop	{r4, pc}
20000154:	9301      	str	r3, [sp, #4]
20000156:	f001 f853 	bl	20001200 <__ulPortLockGetCurrentOwnerId_veneer>
2000015a:	4602      	mov	r2, r0
2000015c:	9b01      	ldr	r3, [sp, #4]
2000015e:	2001      	movs	r0, #1
20000160:	605a      	str	r2, [r3, #4]
20000162:	e7ef      	b.n	20000144 <mutex_try_enter+0x34>

20000164 <mutex_try_enter_block_until>:
20000164:	b5f0      	push	{r4, r5, r6, r7, lr}
20000166:	461f      	mov	r7, r3
20000168:	4604      	mov	r4, r0
2000016a:	4616      	mov	r6, r2
2000016c:	6803      	ldr	r3, [r0, #0]
2000016e:	b083      	sub	sp, #12
20000170:	f3ef 8210 	mrs	r2, PRIMASK
20000174:	b672      	cpsid	i
20000176:	e8d3 0fcf 	ldaexb	r0, [r3]
2000017a:	2101      	movs	r1, #1
2000017c:	2800      	cmp	r0, #0
2000017e:	d1fa      	bne.n	20000176 <mutex_try_enter_block_until+0x12>
20000180:	e8c3 1f40 	strexb	r0, r1, [r3]
20000184:	2800      	cmp	r0, #0
20000186:	d1f6      	bne.n	20000176 <mutex_try_enter_block_until+0x12>
20000188:	f3bf 8f5f 	dmb	sy
2000018c:	6863      	ldr	r3, [r4, #4]
2000018e:	1c59      	adds	r1, r3, #1
20000190:	d00e      	beq.n	200001b0 <mutex_try_enter_block_until+0x4c>
20000192:	2100      	movs	r1, #0
20000194:	6820      	ldr	r0, [r4, #0]
20000196:	9301      	str	r3, [sp, #4]
20000198:	e8c0 1f8f 	stlb	r1, [r0]
2000019c:	f382 8810 	msr	PRIMASK, r2
200001a0:	f001 f82e 	bl	20001200 <__ulPortLockGetCurrentOwnerId_veneer>
200001a4:	9b01      	ldr	r3, [sp, #4]
200001a6:	4298      	cmp	r0, r3
200001a8:	d110      	bne.n	200001cc <mutex_try_enter_block_until+0x68>
200001aa:	2000      	movs	r0, #0
200001ac:	b003      	add	sp, #12
200001ae:	bdf0      	pop	{r4, r5, r6, r7, pc}
200001b0:	9201      	str	r2, [sp, #4]
200001b2:	f001 f825 	bl	20001200 <__ulPortLockGetCurrentOwnerId_veneer>
200001b6:	2300      	movs	r3, #0
200001b8:	6821      	ldr	r1, [r4, #0]
200001ba:	6060      	str	r0, [r4, #4]
200001bc:	e8c1 3f8f 	stlb	r3, [r1]
200001c0:	9a01      	ldr	r2, [sp, #4]
200001c2:	f382 8810 	msr	PRIMASK, r2
200001c6:	2001      	movs	r0, #1
200001c8:	b003      	add	sp, #12
200001ca:	bdf0      	pop	{r4, r5, r6, r7, pc}
200001cc:	f001 f818 	bl	20001200 <__ulPortLockGetCurrentOwnerId_veneer>
200001d0:	4605      	mov	r5, r0
200001d2:	e006      	b.n	200001e2 <mutex_try_enter_block_until+0x7e>
200001d4:	4632      	mov	r2, r6
200001d6:	463b      	mov	r3, r7
200001d8:	4620      	mov	r0, r4
200001da:	f001 f805 	bl	200011e8 <__xPortLockInternalSpinUnlockWithBestEffortWaitOrTimeout_veneer>
200001de:	2800      	cmp	r0, #0
200001e0:	d1e3      	bne.n	200001aa <mutex_try_enter_block_until+0x46>
200001e2:	6823      	ldr	r3, [r4, #0]
200001e4:	f3ef 8110 	mrs	r1, PRIMASK
200001e8:	b672      	cpsid	i
200001ea:	e8d3 0fcf 	ldaexb	r0, [r3]
200001ee:	2201      	movs	r2, #1
200001f0:	2800      	cmp	r0, #0
200001f2:	d1fa      	bne.n	200001ea <mutex_try_enter_block_until+0x86>
200001f4:	e8c3 2f40 	strexb	r0, r2, [r3]
200001f8:	2800      	cmp	r0, #0
200001fa:	d1f6      	bne.n	200001ea <mutex_try_enter_block_until+0x86>
200001fc:	f3bf 8f5f 	dmb	sy
20000200:	6863      	ldr	r3, [r4, #4]
20000202:	3301      	adds	r3, #1
20000204:	d1e6      	bne.n	200001d4 <mutex_try_enter_block_until+0x70>
20000206:	2300      	movs	r3, #0
20000208:	6822      	ldr	r2, [r4, #0]
2000020a:	6065      	str	r5, [r4, #4]
2000020c:	e8c2 3f8f 	stlb	r3, [r2]
20000210:	f381 8810 	msr	PRIMASK, r1
20000214:	e7d7      	b.n	200001c6 <mutex_try_enter_block_until+0x62>
20000216:	bf00      	nop

20000218 <mutex_enter_timeout_ms>:
20000218:	b5f8      	push	{r3, r4, r5, r6, r7, lr}
2000021a:	460f      	mov	r7, r1
2000021c:	4604      	mov	r4, r0
2000021e:	f000 ffdb 	bl	200011d8 <__time_us_64_veneer>
20000222:	f44f 737a 	mov.w	r3, #1000	@ 0x3e8
20000226:	4605      	mov	r5, r0
20000228:	f04f 3cff 	mov.w	ip, #4294967295
2000022c:	f06f 4200 	mvn.w	r2, #2147483648	@ 0x80000000
20000230:	fbe7 5103 	umlal	r5, r1, r7, r3
20000234:	45ac      	cmp	ip, r5
20000236:	eb72 0301 	sbcs.w	r3, r2, r1
2000023a:	bf3a      	itte	cc
2000023c:	4665      	movcc	r5, ip
2000023e:	4616      	movcc	r6, r2
20000240:	460e      	movcs	r6, r1
20000242:	f000 ffdd 	bl	20001200 <__ulPortLockGetCurrentOwnerId_veneer>
20000246:	4607      	mov	r7, r0
20000248:	e005      	b.n	20000256 <mutex_enter_timeout_ms+0x3e>
2000024a:	462a      	mov	r2, r5
2000024c:	4633      	mov	r3, r6
2000024e:	4620      	mov	r0, r4
20000250:	f000 ffca 	bl	200011e8 <__xPortLockInternalSpinUnlockWithBestEffortWaitOrTimeout_veneer>
20000254:	b9d0      	cbnz	r0, 2000028c <mutex_enter_timeout_ms+0x74>
20000256:	6823      	ldr	r3, [r4, #0]
20000258:	f3ef 8110 	mrs	r1, PRIMASK
2000025c:	b672      	cpsid	i
2000025e:	e8d3 0fcf 	ldaexb	r0, [r3]
20000262:	2201      	movs	r2, #1
20000264:	2800      	cmp	r0, #0
20000266:	d1fa      	bne.n	2000025e <mutex_enter_timeout_ms+0x46>
20000268:	e8c3 2f40 	strexb	r0, r2, [r3]
2000026c:	2800      	cmp	r0, #0
2000026e:	d1f6      	bne.n	2000025e <mutex_enter_timeout_ms+0x46>
20000270:	f3bf 8f5f 	dmb	sy
20000274:	6863      	ldr	r3, [r4, #4]
20000276:	3301      	adds	r3, #1
20000278:	d1e7      	bne.n	2000024a <mutex_enter_timeout_ms+0x32>
2000027a:	2300      	movs	r3, #0
2000027c:	6822      	ldr	r2, [r4, #0]
2000027e:	6067      	str	r7, [r4, #4]
20000280:	e8c2 3f8f 	stlb	r3, [r2]
20000284:	f381 8810 	msr	PRIMASK, r1
20000288:	2001      	movs	r0, #1
2000028a:	bdf8      	pop	{r3, r4, r5, r6, r7, pc}
2000028c:	2000      	movs	r0, #0
2000028e:	bdf8      	pop	{r3, r4, r5, r6, r7, pc}

20000290 <mutex_exit>:
20000290:	6803      	ldr	r3, [r0, #0]
20000292:	f3ef 8110 	mrs	r1, PRIMASK
20000296:	b672      	cpsid	i
20000298:	e8d3 cfcf 	ldaexb	ip, [r3]
2000029c:	2201      	movs	r2, #1
2000029e:	f1bc 0f00 	cmp.w	ip, #0
200002a2:	d1f9      	bne.n	20000298 <mutex_exit+0x8>
200002a4:	e8c3 2f4c 	strexb	ip, r2, [r3]
200002a8:	f1bc 0f00 	cmp.w	ip, #0
200002ac:	d1f4      	bne.n	20000298 <mutex_exit+0x8>
200002ae:	f3bf 8f5f 	dmb	sy
200002b2:	f04f 33ff 	mov.w	r3, #4294967295
200002b6:	6043      	str	r3, [r0, #4]
200002b8:	f000 bfa6 	b.w	20001208 <__vPortLockInternalSpinUnlockWithNotify_veneer>

200002bc <reset_non_control_endpoints>:
200002bc:	2100      	movs	r1, #0
200002be:	b508      	push	{r3, lr}
200002c0:	4b13      	ldr	r3, [pc, #76]	@ (20000310 <reset_non_control_endpoints+0x54>)
200002c2:	f44f 7270 	mov.w	r2, #960	@ 0x3c0
200002c6:	6099      	str	r1, [r3, #8]
200002c8:	4812      	ldr	r0, [pc, #72]	@ (20000314 <reset_non_control_endpoints+0x58>)
200002ca:	60d9      	str	r1, [r3, #12]
200002cc:	6119      	str	r1, [r3, #16]
200002ce:	6159      	str	r1, [r3, #20]
200002d0:	6199      	str	r1, [r3, #24]
200002d2:	61d9      	str	r1, [r3, #28]
200002d4:	6219      	str	r1, [r3, #32]
200002d6:	6259      	str	r1, [r3, #36]	@ 0x24
200002d8:	6299      	str	r1, [r3, #40]	@ 0x28
200002da:	62d9      	str	r1, [r3, #44]	@ 0x2c
200002dc:	6319      	str	r1, [r3, #48]	@ 0x30
200002de:	6359      	str	r1, [r3, #52]	@ 0x34
200002e0:	6399      	str	r1, [r3, #56]	@ 0x38
200002e2:	63d9      	str	r1, [r3, #60]	@ 0x3c
200002e4:	6419      	str	r1, [r3, #64]	@ 0x40
200002e6:	6459      	str	r1, [r3, #68]	@ 0x44
200002e8:	6499      	str	r1, [r3, #72]	@ 0x48
200002ea:	64d9      	str	r1, [r3, #76]	@ 0x4c
200002ec:	6519      	str	r1, [r3, #80]	@ 0x50
200002ee:	6559      	str	r1, [r3, #84]	@ 0x54
200002f0:	6599      	str	r1, [r3, #88]	@ 0x58
200002f2:	65d9      	str	r1, [r3, #92]	@ 0x5c
200002f4:	6619      	str	r1, [r3, #96]	@ 0x60
200002f6:	6659      	str	r1, [r3, #100]	@ 0x64
200002f8:	6699      	str	r1, [r3, #104]	@ 0x68
200002fa:	66d9      	str	r1, [r3, #108]	@ 0x6c
200002fc:	6719      	str	r1, [r3, #112]	@ 0x70
200002fe:	6759      	str	r1, [r3, #116]	@ 0x74
20000300:	6799      	str	r1, [r3, #120]	@ 0x78
20000302:	67d9      	str	r1, [r3, #124]	@ 0x7c
20000304:	f000 ff74 	bl	200011f0 <__memset_veneer>
20000308:	4b03      	ldr	r3, [pc, #12]	@ (20000318 <reset_non_control_endpoints+0x5c>)
2000030a:	4a04      	ldr	r2, [pc, #16]	@ (2000031c <reset_non_control_endpoints+0x60>)
2000030c:	601a      	str	r2, [r3, #0]
2000030e:	bd08      	pop	{r3, pc}
20000310:	50100000 	.word	0x50100000
20000314:	20001af8 	.word	0x20001af8
20000318:	20001ec4 	.word	0x20001ec4
2000031c:	50100180 	.word	0x50100180

20000320 <hw_handle_buff_status>:
20000320:	e92d 47f0 	stmdb	sp!, {r4, r5, r6, r7, r8, r9, sl, lr}
20000324:	4b1e      	ldr	r3, [pc, #120]	@ (200003a0 <hw_handle_buff_status+0x80>)
20000326:	b084      	sub	sp, #16
20000328:	f8d3 a058 	ldr.w	sl, [r3, #88]	@ 0x58
2000032c:	f1ba 0f00 	cmp.w	sl, #0
20000330:	d021      	beq.n	20000376 <hw_handle_buff_status+0x56>
20000332:	2400      	movs	r4, #0
20000334:	2501      	movs	r5, #1
20000336:	f44f 69e0 	mov.w	r9, #1792	@ 0x700
2000033a:	f8df 806c 	ldr.w	r8, [pc, #108]	@ 200003a8 <hw_handle_buff_status+0x88>
2000033e:	4f19      	ldr	r7, [pc, #100]	@ (200003a4 <hw_handle_buff_status+0x84>)
20000340:	e005      	b.n	2000034e <hw_handle_buff_status+0x2e>
20000342:	3401      	adds	r4, #1
20000344:	b2e4      	uxtb	r4, r4
20000346:	2c20      	cmp	r4, #32
20000348:	ea4f 0545 	mov.w	r5, r5, lsl #1
2000034c:	d013      	beq.n	20000376 <hw_handle_buff_status+0x56>
2000034e:	ea1a 0f05 	tst.w	sl, r5
20000352:	d0f6      	beq.n	20000342 <hw_handle_buff_status+0x22>
20000354:	43e3      	mvns	r3, r4
20000356:	f004 06fe 	and.w	r6, r4, #254	@ 0xfe
2000035a:	f003 0301 	and.w	r3, r3, #1
2000035e:	441e      	add	r6, r3
20000360:	eb07 1646 	add.w	r6, r7, r6, lsl #5
20000364:	4630      	mov	r0, r6
20000366:	f8c8 5058 	str.w	r5, [r8, #88]	@ 0x58
2000036a:	f000 fc01 	bl	20000b70 <hw_endpoint_xfer_continue>
2000036e:	b928      	cbnz	r0, 2000037c <hw_handle_buff_status+0x5c>
20000370:	ea3a 0a05 	bics.w	sl, sl, r5
20000374:	d1e5      	bne.n	20000342 <hw_handle_buff_status+0x22>
20000376:	b004      	add	sp, #16
20000378:	e8bd 87f0 	ldmia.w	sp!, {r4, r5, r6, r7, r8, r9, sl, pc}
2000037c:	78b3      	ldrb	r3, [r6, #2]
2000037e:	8af2      	ldrh	r2, [r6, #22]
20000380:	f88d 3008 	strb.w	r3, [sp, #8]
20000384:	2300      	movs	r3, #0
20000386:	a801      	add	r0, sp, #4
20000388:	2101      	movs	r1, #1
2000038a:	f8ad 9004 	strh.w	r9, [sp, #4]
2000038e:	9203      	str	r2, [sp, #12]
20000390:	f88d 3009 	strb.w	r3, [sp, #9]
20000394:	f000 fc0a 	bl	20000bac <dcd_event_handler>
20000398:	4630      	mov	r0, r6
2000039a:	f000 fb8d 	bl	20000ab8 <hw_endpoint_reset_transfer>
2000039e:	e7e7      	b.n	20000370 <hw_handle_buff_status+0x50>
200003a0:	50110000 	.word	0x50110000
200003a4:	20001ab8 	.word	0x20001ab8
200003a8:	50113000 	.word	0x50113000

200003ac <dcd_rp2040_irq>:
200003ac:	b570      	push	{r4, r5, r6, lr}
200003ae:	4bb2      	ldr	r3, [pc, #712]	@ (20000678 <dcd_rp2040_irq+0x2cc>)
200003b0:	b086      	sub	sp, #24
200003b2:	f8d3 4098 	ldr.w	r4, [r3, #152]	@ 0x98
200003b6:	f414 3500 	ands.w	r5, r4, #131072	@ 0x20000
200003ba:	d074      	beq.n	200004a6 <dcd_rp2040_irq+0xfa>
200003bc:	4aaf      	ldr	r2, [pc, #700]	@ (2000067c <dcd_rp2040_irq+0x2d0>)
200003be:	4bb0      	ldr	r3, [pc, #704]	@ (20000680 <dcd_rp2040_irq+0x2d4>)
200003c0:	6a90      	ldr	r0, [r2, #40]	@ 0x28
200003c2:	f893 203b 	ldrb.w	r2, [r3, #59]	@ 0x3b
200003c6:	49af      	ldr	r1, [pc, #700]	@ (20000684 <dcd_rp2040_irq+0x2d8>)
200003c8:	2a02      	cmp	r2, #2
200003ca:	6008      	str	r0, [r1, #0]
200003cc:	f000 80e6 	beq.w	2000059c <dcd_rp2040_irq+0x1f0>
200003d0:	2500      	movs	r5, #0
200003d2:	f893 207b 	ldrb.w	r2, [r3, #123]	@ 0x7b
200003d6:	2a02      	cmp	r2, #2
200003d8:	f000 81b2 	beq.w	20000740 <dcd_rp2040_irq+0x394>
200003dc:	f893 20bb 	ldrb.w	r2, [r3, #187]	@ 0xbb
200003e0:	2a02      	cmp	r2, #2
200003e2:	f000 81a2 	beq.w	2000072a <dcd_rp2040_irq+0x37e>
200003e6:	f893 20fb 	ldrb.w	r2, [r3, #251]	@ 0xfb
200003ea:	2a02      	cmp	r2, #2
200003ec:	f000 8192 	beq.w	20000714 <dcd_rp2040_irq+0x368>
200003f0:	f893 213b 	ldrb.w	r2, [r3, #315]	@ 0x13b
200003f4:	2a02      	cmp	r2, #2
200003f6:	f000 8181 	beq.w	200006fc <dcd_rp2040_irq+0x350>
200003fa:	f893 217b 	ldrb.w	r2, [r3, #379]	@ 0x17b
200003fe:	2a02      	cmp	r2, #2
20000400:	f000 8171 	beq.w	200006e6 <dcd_rp2040_irq+0x33a>
20000404:	f893 21bb 	ldrb.w	r2, [r3, #443]	@ 0x1bb
20000408:	2a02      	cmp	r2, #2
2000040a:	f000 8161 	beq.w	200006d0 <dcd_rp2040_irq+0x324>
2000040e:	f893 21fb 	ldrb.w	r2, [r3, #507]	@ 0x1fb
20000412:	2a02      	cmp	r2, #2
20000414:	f000 8150 	beq.w	200006b8 <dcd_rp2040_irq+0x30c>
20000418:	f893 223b 	ldrb.w	r2, [r3, #571]	@ 0x23b
2000041c:	2a02      	cmp	r2, #2
2000041e:	f000 813f 	beq.w	200006a0 <dcd_rp2040_irq+0x2f4>
20000422:	f893 227b 	ldrb.w	r2, [r3, #635]	@ 0x27b
20000426:	2a02      	cmp	r2, #2
20000428:	f000 811a 	beq.w	20000660 <dcd_rp2040_irq+0x2b4>
2000042c:	f893 22bb 	ldrb.w	r2, [r3, #699]	@ 0x2bb
20000430:	2a02      	cmp	r2, #2
20000432:	f000 8109 	beq.w	20000648 <dcd_rp2040_irq+0x29c>
20000436:	f893 22fb 	ldrb.w	r2, [r3, #763]	@ 0x2fb
2000043a:	2a02      	cmp	r2, #2
2000043c:	f000 80f8 	beq.w	20000630 <dcd_rp2040_irq+0x284>
20000440:	f893 233b 	ldrb.w	r2, [r3, #827]	@ 0x33b
20000444:	2a02      	cmp	r2, #2
20000446:	f000 80e7 	beq.w	20000618 <dcd_rp2040_irq+0x26c>
2000044a:	f893 237b 	ldrb.w	r2, [r3, #891]	@ 0x37b
2000044e:	2a02      	cmp	r2, #2
20000450:	f000 80b7 	beq.w	200005c2 <dcd_rp2040_irq+0x216>
20000454:	f893 23bb 	ldrb.w	r2, [r3, #955]	@ 0x3bb
20000458:	2a02      	cmp	r2, #2
2000045a:	f000 817c 	beq.w	20000756 <dcd_rp2040_irq+0x3aa>
2000045e:	f893 23fb 	ldrb.w	r2, [r3, #1019]	@ 0x3fb
20000462:	2a02      	cmp	r2, #2
20000464:	f000 80c7 	beq.w	200005f6 <dcd_rp2040_irq+0x24a>
20000468:	b93d      	cbnz	r5, 2000047a <dcd_rp2040_irq+0xce>
2000046a:	4b87      	ldr	r3, [pc, #540]	@ (20000688 <dcd_rp2040_irq+0x2dc>)
2000046c:	781b      	ldrb	r3, [r3, #0]
2000046e:	b923      	cbnz	r3, 2000047a <dcd_rp2040_irq+0xce>
20000470:	f44f 3200 	mov.w	r2, #131072	@ 0x20000
20000474:	4b85      	ldr	r3, [pc, #532]	@ (2000068c <dcd_rp2040_irq+0x2e0>)
20000476:	f8c3 2090 	str.w	r2, [r3, #144]	@ 0x90
2000047a:	f44f 7240 	mov.w	r2, #768	@ 0x300
2000047e:	4b7e      	ldr	r3, [pc, #504]	@ (20000678 <dcd_rp2040_irq+0x2cc>)
20000480:	2101      	movs	r1, #1
20000482:	6c9b      	ldr	r3, [r3, #72]	@ 0x48
20000484:	a803      	add	r0, sp, #12
20000486:	f3c3 030a 	ubfx	r3, r3, #0, #11
2000048a:	9304      	str	r3, [sp, #16]
2000048c:	f8ad 200c 	strh.w	r2, [sp, #12]
20000490:	f000 fb8c 	bl	20000bac <dcd_event_handler>
20000494:	06e3      	lsls	r3, r4, #27
20000496:	f44f 3500 	mov.w	r5, #131072	@ 0x20000
2000049a:	4e7d      	ldr	r6, [pc, #500]	@ (20000690 <dcd_rp2040_irq+0x2e4>)
2000049c:	d507      	bpl.n	200004ae <dcd_rp2040_irq+0x102>
2000049e:	f7ff ff3f 	bl	20000320 <hw_handle_buff_status>
200004a2:	4635      	mov	r5, r6
200004a4:	e003      	b.n	200004ae <dcd_rp2040_irq+0x102>
200004a6:	06e3      	lsls	r3, r4, #27
200004a8:	f04f 0610 	mov.w	r6, #16
200004ac:	d4f7      	bmi.n	2000049e <dcd_rp2040_irq+0xf2>
200004ae:	03e0      	lsls	r0, r4, #15
200004b0:	d51d      	bpl.n	200004ee <dcd_rp2040_irq+0x142>
200004b2:	4873      	ldr	r0, [pc, #460]	@ (20000680 <dcd_rp2040_irq+0x2d4>)
200004b4:	2602      	movs	r6, #2
200004b6:	7e83      	ldrb	r3, [r0, #26]
200004b8:	f445 3580 	orr.w	r5, r5, #65536	@ 0x10000
200004bc:	bb33      	cbnz	r3, 2000050c <dcd_rp2040_irq+0x160>
200004be:	f04f 0301 	mov.w	r3, #1
200004c2:	2e01      	cmp	r6, #1
200004c4:	70c3      	strb	r3, [r0, #3]
200004c6:	f100 0020 	add.w	r0, r0, #32
200004ca:	d11b      	bne.n	20000504 <dcd_rp2040_irq+0x158>
200004cc:	f44f 62c0 	mov.w	r2, #1536	@ 0x600
200004d0:	4b70      	ldr	r3, [pc, #448]	@ (20000694 <dcd_rp2040_irq+0x2e8>)
200004d2:	f8ad 200c 	strh.w	r2, [sp, #12]
200004d6:	e893 0003 	ldmia.w	r3, {r0, r1}
200004da:	e9cd 0104 	strd	r0, r1, [sp, #16]
200004de:	4631      	mov	r1, r6
200004e0:	a803      	add	r0, sp, #12
200004e2:	f000 fb63 	bl	20000bac <dcd_event_handler>
200004e6:	f44f 3200 	mov.w	r2, #131072	@ 0x20000
200004ea:	4b68      	ldr	r3, [pc, #416]	@ (2000068c <dcd_rp2040_irq+0x2e0>)
200004ec:	651a      	str	r2, [r3, #80]	@ 0x50
200004ee:	04e1      	lsls	r1, r4, #19
200004f0:	d43e      	bmi.n	20000570 <dcd_rp2040_irq+0x1c4>
200004f2:	0462      	lsls	r2, r4, #17
200004f4:	d42e      	bmi.n	20000554 <dcd_rp2040_irq+0x1a8>
200004f6:	0423      	lsls	r3, r4, #16
200004f8:	d41d      	bmi.n	20000536 <dcd_rp2040_irq+0x18a>
200004fa:	42a5      	cmp	r5, r4
200004fc:	f040 81bb 	bne.w	20000876 <dcd_rp2040_irq+0x4ca>
20000500:	b006      	add	sp, #24
20000502:	bd70      	pop	{r4, r5, r6, pc}
20000504:	7e83      	ldrb	r3, [r0, #26]
20000506:	2601      	movs	r6, #1
20000508:	2b00      	cmp	r3, #0
2000050a:	d0d8      	beq.n	200004be <dcd_rp2040_irq+0x112>
2000050c:	4b62      	ldr	r3, [pc, #392]	@ (20000698 <dcd_rp2040_irq+0x2ec>)
2000050e:	4a5a      	ldr	r2, [pc, #360]	@ (20000678 <dcd_rp2040_irq+0x2cc>)
20000510:	661e      	str	r6, [r3, #96]	@ 0x60
20000512:	6e53      	ldr	r3, [r2, #100]	@ 0x64
20000514:	ea36 0303 	bics.w	r3, r6, r3
20000518:	d1fb      	bne.n	20000512 <dcd_rp2040_irq+0x166>
2000051a:	f44f 5240 	mov.w	r2, #12288	@ 0x3000
2000051e:	2100      	movs	r1, #0
20000520:	9001      	str	r0, [sp, #4]
20000522:	f000 facf 	bl	20000ac4 <_hw_endpoint_buffer_control_update32>
20000526:	9801      	ldr	r0, [sp, #4]
20000528:	f000 fac6 	bl	20000ab8 <hw_endpoint_reset_transfer>
2000052c:	4b57      	ldr	r3, [pc, #348]	@ (2000068c <dcd_rp2040_irq+0x2e0>)
2000052e:	9801      	ldr	r0, [sp, #4]
20000530:	665e      	str	r6, [r3, #100]	@ 0x64
20000532:	661e      	str	r6, [r3, #96]	@ 0x60
20000534:	e7c3      	b.n	200004be <dcd_rp2040_irq+0x112>
20000536:	f44f 63a0 	mov.w	r3, #1280	@ 0x500
2000053a:	2101      	movs	r1, #1
2000053c:	a803      	add	r0, sp, #12
2000053e:	f8ad 300c 	strh.w	r3, [sp, #12]
20000542:	f000 fb33 	bl	20000bac <dcd_event_handler>
20000546:	f44f 6200 	mov.w	r2, #2048	@ 0x800
2000054a:	4b50      	ldr	r3, [pc, #320]	@ (2000068c <dcd_rp2040_irq+0x2e0>)
2000054c:	f445 4500 	orr.w	r5, r5, #32768	@ 0x8000
20000550:	651a      	str	r2, [r3, #80]	@ 0x50
20000552:	e7d2      	b.n	200004fa <dcd_rp2040_irq+0x14e>
20000554:	f44f 6380 	mov.w	r3, #1024	@ 0x400
20000558:	2101      	movs	r1, #1
2000055a:	a803      	add	r0, sp, #12
2000055c:	f8ad 300c 	strh.w	r3, [sp, #12]
20000560:	f000 fb24 	bl	20000bac <dcd_event_handler>
20000564:	2210      	movs	r2, #16
20000566:	4b49      	ldr	r3, [pc, #292]	@ (2000068c <dcd_rp2040_irq+0x2e0>)
20000568:	f445 4580 	orr.w	r5, r5, #16384	@ 0x4000
2000056c:	651a      	str	r2, [r3, #80]	@ 0x50
2000056e:	e7c2      	b.n	200004f6 <dcd_rp2040_irq+0x14a>
20000570:	2600      	movs	r6, #0
20000572:	4b41      	ldr	r3, [pc, #260]	@ (20000678 <dcd_rp2040_irq+0x2cc>)
20000574:	f445 5580 	orr.w	r5, r5, #4096	@ 0x1000
20000578:	601e      	str	r6, [r3, #0]
2000057a:	f7ff fe9f 	bl	200002bc <reset_non_control_endpoints>
2000057e:	f44f 7380 	mov.w	r3, #256	@ 0x100
20000582:	2101      	movs	r1, #1
20000584:	a803      	add	r0, sp, #12
20000586:	f8ad 300c 	strh.w	r3, [sp, #12]
2000058a:	f88d 6010 	strb.w	r6, [sp, #16]
2000058e:	f000 fb0d 	bl	20000bac <dcd_event_handler>
20000592:	f44f 2200 	mov.w	r2, #524288	@ 0x80000
20000596:	4b3d      	ldr	r3, [pc, #244]	@ (2000068c <dcd_rp2040_irq+0x2e0>)
20000598:	651a      	str	r2, [r3, #80]	@ 0x50
2000059a:	e7aa      	b.n	200004f2 <dcd_rp2040_irq+0x146>
2000059c:	f893 503a 	ldrb.w	r5, [r3, #58]	@ 0x3a
200005a0:	2d00      	cmp	r5, #0
200005a2:	f43f af16 	beq.w	200003d2 <dcd_rp2040_irq+0x26>
200005a6:	f893 203c 	ldrb.w	r2, [r3, #60]	@ 0x3c
200005aa:	2a00      	cmp	r2, #0
200005ac:	f43f af11 	beq.w	200003d2 <dcd_rp2040_irq+0x26>
200005b0:	2200      	movs	r2, #0
200005b2:	f103 0020 	add.w	r0, r3, #32
200005b6:	f883 203c 	strb.w	r2, [r3, #60]	@ 0x3c
200005ba:	f000 faa7 	bl	20000b0c <hw_endpoint_start_next_buffer>
200005be:	4b30      	ldr	r3, [pc, #192]	@ (20000680 <dcd_rp2040_irq+0x2d4>)
200005c0:	e707      	b.n	200003d2 <dcd_rp2040_irq+0x26>
200005c2:	f893 637a 	ldrb.w	r6, [r3, #890]	@ 0x37a
200005c6:	2e00      	cmp	r6, #0
200005c8:	f43f af44 	beq.w	20000454 <dcd_rp2040_irq+0xa8>
200005cc:	f893 237c 	ldrb.w	r2, [r3, #892]	@ 0x37c
200005d0:	2a00      	cmp	r2, #0
200005d2:	f040 8140 	bne.w	20000856 <dcd_rp2040_irq+0x4aa>
200005d6:	f893 23bb 	ldrb.w	r2, [r3, #955]	@ 0x3bb
200005da:	2a02      	cmp	r2, #2
200005dc:	f040 80c4 	bne.w	20000768 <dcd_rp2040_irq+0x3bc>
200005e0:	f893 23ba 	ldrb.w	r2, [r3, #954]	@ 0x3ba
200005e4:	2a00      	cmp	r2, #0
200005e6:	f040 80bb 	bne.w	20000760 <dcd_rp2040_irq+0x3b4>
200005ea:	f893 23fb 	ldrb.w	r2, [r3, #1019]	@ 0x3fb
200005ee:	2a02      	cmp	r2, #2
200005f0:	f47f af43 	bne.w	2000047a <dcd_rp2040_irq+0xce>
200005f4:	4635      	mov	r5, r6
200005f6:	f893 23fa 	ldrb.w	r2, [r3, #1018]	@ 0x3fa
200005fa:	2a00      	cmp	r2, #0
200005fc:	f43f af34 	beq.w	20000468 <dcd_rp2040_irq+0xbc>
20000600:	f893 23fc 	ldrb.w	r2, [r3, #1020]	@ 0x3fc
20000604:	2a00      	cmp	r2, #0
20000606:	f43f af38 	beq.w	2000047a <dcd_rp2040_irq+0xce>
2000060a:	2200      	movs	r2, #0
2000060c:	4823      	ldr	r0, [pc, #140]	@ (2000069c <dcd_rp2040_irq+0x2f0>)
2000060e:	f883 23fc 	strb.w	r2, [r3, #1020]	@ 0x3fc
20000612:	f000 fa7b 	bl	20000b0c <hw_endpoint_start_next_buffer>
20000616:	e730      	b.n	2000047a <dcd_rp2040_irq+0xce>
20000618:	f893 633a 	ldrb.w	r6, [r3, #826]	@ 0x33a
2000061c:	2e00      	cmp	r6, #0
2000061e:	f43f af14 	beq.w	2000044a <dcd_rp2040_irq+0x9e>
20000622:	f893 233c 	ldrb.w	r2, [r3, #828]	@ 0x33c
20000626:	2a00      	cmp	r2, #0
20000628:	f040 80a9 	bne.w	2000077e <dcd_rp2040_irq+0x3d2>
2000062c:	4635      	mov	r5, r6
2000062e:	e70c      	b.n	2000044a <dcd_rp2040_irq+0x9e>
20000630:	f893 62fa 	ldrb.w	r6, [r3, #762]	@ 0x2fa
20000634:	2e00      	cmp	r6, #0
20000636:	f43f af03 	beq.w	20000440 <dcd_rp2040_irq+0x94>
2000063a:	f893 22fc 	ldrb.w	r2, [r3, #764]	@ 0x2fc
2000063e:	2a00      	cmp	r2, #0
20000640:	f040 80af 	bne.w	200007a2 <dcd_rp2040_irq+0x3f6>
20000644:	4635      	mov	r5, r6
20000646:	e6fb      	b.n	20000440 <dcd_rp2040_irq+0x94>
20000648:	f893 62ba 	ldrb.w	r6, [r3, #698]	@ 0x2ba
2000064c:	2e00      	cmp	r6, #0
2000064e:	f43f aef2 	beq.w	20000436 <dcd_rp2040_irq+0x8a>
20000652:	f893 22bc 	ldrb.w	r2, [r3, #700]	@ 0x2bc
20000656:	2a00      	cmp	r2, #0
20000658:	f040 809a 	bne.w	20000790 <dcd_rp2040_irq+0x3e4>
2000065c:	4635      	mov	r5, r6
2000065e:	e6ea      	b.n	20000436 <dcd_rp2040_irq+0x8a>
20000660:	f893 627a 	ldrb.w	r6, [r3, #634]	@ 0x27a
20000664:	2e00      	cmp	r6, #0
20000666:	f43f aee1 	beq.w	2000042c <dcd_rp2040_irq+0x80>
2000066a:	f893 227c 	ldrb.w	r2, [r3, #636]	@ 0x27c
2000066e:	2a00      	cmp	r2, #0
20000670:	f040 80cd 	bne.w	2000080e <dcd_rp2040_irq+0x462>
20000674:	4635      	mov	r5, r6
20000676:	e6d9      	b.n	2000042c <dcd_rp2040_irq+0x80>
20000678:	50110000 	.word	0x50110000
2000067c:	400b0000 	.word	0x400b0000
20000680:	20001ab8 	.word	0x20001ab8
20000684:	20001ab0 	.word	0x20001ab0
20000688:	200222d5 	.word	0x200222d5
2000068c:	50113000 	.word	0x50113000
20000690:	00020010 	.word	0x00020010
20000694:	50100000 	.word	0x50100000
20000698:	50112000 	.word	0x50112000
2000069c:	20001e98 	.word	0x20001e98
200006a0:	f893 623a 	ldrb.w	r6, [r3, #570]	@ 0x23a
200006a4:	2e00      	cmp	r6, #0
200006a6:	f43f aebc 	beq.w	20000422 <dcd_rp2040_irq+0x76>
200006aa:	f893 223c 	ldrb.w	r2, [r3, #572]	@ 0x23c
200006ae:	2a00      	cmp	r2, #0
200006b0:	f040 80a4 	bne.w	200007fc <dcd_rp2040_irq+0x450>
200006b4:	4635      	mov	r5, r6
200006b6:	e6b4      	b.n	20000422 <dcd_rp2040_irq+0x76>
200006b8:	f893 61fa 	ldrb.w	r6, [r3, #506]	@ 0x1fa
200006bc:	2e00      	cmp	r6, #0
200006be:	f43f aeab 	beq.w	20000418 <dcd_rp2040_irq+0x6c>
200006c2:	f893 21fc 	ldrb.w	r2, [r3, #508]	@ 0x1fc
200006c6:	2a00      	cmp	r2, #0
200006c8:	f040 808f 	bne.w	200007ea <dcd_rp2040_irq+0x43e>
200006cc:	4635      	mov	r5, r6
200006ce:	e6a3      	b.n	20000418 <dcd_rp2040_irq+0x6c>
200006d0:	f893 61ba 	ldrb.w	r6, [r3, #442]	@ 0x1ba
200006d4:	2e00      	cmp	r6, #0
200006d6:	f43f ae9a 	beq.w	2000040e <dcd_rp2040_irq+0x62>
200006da:	f893 21bc 	ldrb.w	r2, [r3, #444]	@ 0x1bc
200006de:	2a00      	cmp	r2, #0
200006e0:	d17a      	bne.n	200007d8 <dcd_rp2040_irq+0x42c>
200006e2:	4635      	mov	r5, r6
200006e4:	e693      	b.n	2000040e <dcd_rp2040_irq+0x62>
200006e6:	f893 617a 	ldrb.w	r6, [r3, #378]	@ 0x17a
200006ea:	2e00      	cmp	r6, #0
200006ec:	f43f ae8a 	beq.w	20000404 <dcd_rp2040_irq+0x58>
200006f0:	f893 217c 	ldrb.w	r2, [r3, #380]	@ 0x17c
200006f4:	2a00      	cmp	r2, #0
200006f6:	d166      	bne.n	200007c6 <dcd_rp2040_irq+0x41a>
200006f8:	4635      	mov	r5, r6
200006fa:	e683      	b.n	20000404 <dcd_rp2040_irq+0x58>
200006fc:	f893 613a 	ldrb.w	r6, [r3, #314]	@ 0x13a
20000700:	2e00      	cmp	r6, #0
20000702:	f43f ae7a 	beq.w	200003fa <dcd_rp2040_irq+0x4e>
20000706:	f893 213c 	ldrb.w	r2, [r3, #316]	@ 0x13c
2000070a:	2a00      	cmp	r2, #0
2000070c:	f040 8091 	bne.w	20000832 <dcd_rp2040_irq+0x486>
20000710:	4635      	mov	r5, r6
20000712:	e672      	b.n	200003fa <dcd_rp2040_irq+0x4e>
20000714:	f893 60fa 	ldrb.w	r6, [r3, #250]	@ 0xfa
20000718:	2e00      	cmp	r6, #0
2000071a:	f43f ae69 	beq.w	200003f0 <dcd_rp2040_irq+0x44>
2000071e:	f893 20fc 	ldrb.w	r2, [r3, #252]	@ 0xfc
20000722:	2a00      	cmp	r2, #0
20000724:	d17c      	bne.n	20000820 <dcd_rp2040_irq+0x474>
20000726:	4635      	mov	r5, r6
20000728:	e662      	b.n	200003f0 <dcd_rp2040_irq+0x44>
2000072a:	f893 60ba 	ldrb.w	r6, [r3, #186]	@ 0xba
2000072e:	2e00      	cmp	r6, #0
20000730:	f43f ae59 	beq.w	200003e6 <dcd_rp2040_irq+0x3a>
20000734:	f893 20bc 	ldrb.w	r2, [r3, #188]	@ 0xbc
20000738:	2a00      	cmp	r2, #0
2000073a:	d13b      	bne.n	200007b4 <dcd_rp2040_irq+0x408>
2000073c:	4635      	mov	r5, r6
2000073e:	e652      	b.n	200003e6 <dcd_rp2040_irq+0x3a>
20000740:	f893 607a 	ldrb.w	r6, [r3, #122]	@ 0x7a
20000744:	2e00      	cmp	r6, #0
20000746:	f43f ae49 	beq.w	200003dc <dcd_rp2040_irq+0x30>
2000074a:	f893 207c 	ldrb.w	r2, [r3, #124]	@ 0x7c
2000074e:	2a00      	cmp	r2, #0
20000750:	d178      	bne.n	20000844 <dcd_rp2040_irq+0x498>
20000752:	4635      	mov	r5, r6
20000754:	e642      	b.n	200003dc <dcd_rp2040_irq+0x30>
20000756:	f893 23ba 	ldrb.w	r2, [r3, #954]	@ 0x3ba
2000075a:	2a00      	cmp	r2, #0
2000075c:	f43f ae7f 	beq.w	2000045e <dcd_rp2040_irq+0xb2>
20000760:	f893 23bc 	ldrb.w	r2, [r3, #956]	@ 0x3bc
20000764:	2a00      	cmp	r2, #0
20000766:	d17e      	bne.n	20000866 <dcd_rp2040_irq+0x4ba>
20000768:	f893 23fb 	ldrb.w	r2, [r3, #1019]	@ 0x3fb
2000076c:	2a02      	cmp	r2, #2
2000076e:	f47f ae84 	bne.w	2000047a <dcd_rp2040_irq+0xce>
20000772:	f893 23fa 	ldrb.w	r2, [r3, #1018]	@ 0x3fa
20000776:	2a00      	cmp	r2, #0
20000778:	f43f ae7f 	beq.w	2000047a <dcd_rp2040_irq+0xce>
2000077c:	e740      	b.n	20000600 <dcd_rp2040_irq+0x254>
2000077e:	2200      	movs	r2, #0
20000780:	483f      	ldr	r0, [pc, #252]	@ (20000880 <dcd_rp2040_irq+0x4d4>)
20000782:	f883 233c 	strb.w	r2, [r3, #828]	@ 0x33c
20000786:	4635      	mov	r5, r6
20000788:	f000 f9c0 	bl	20000b0c <hw_endpoint_start_next_buffer>
2000078c:	4b3d      	ldr	r3, [pc, #244]	@ (20000884 <dcd_rp2040_irq+0x4d8>)
2000078e:	e65c      	b.n	2000044a <dcd_rp2040_irq+0x9e>
20000790:	2200      	movs	r2, #0
20000792:	483d      	ldr	r0, [pc, #244]	@ (20000888 <dcd_rp2040_irq+0x4dc>)
20000794:	f883 22bc 	strb.w	r2, [r3, #700]	@ 0x2bc
20000798:	4635      	mov	r5, r6
2000079a:	f000 f9b7 	bl	20000b0c <hw_endpoint_start_next_buffer>
2000079e:	4b39      	ldr	r3, [pc, #228]	@ (20000884 <dcd_rp2040_irq+0x4d8>)
200007a0:	e649      	b.n	20000436 <dcd_rp2040_irq+0x8a>
200007a2:	2200      	movs	r2, #0
200007a4:	4839      	ldr	r0, [pc, #228]	@ (2000088c <dcd_rp2040_irq+0x4e0>)
200007a6:	f883 22fc 	strb.w	r2, [r3, #764]	@ 0x2fc
200007aa:	4635      	mov	r5, r6
200007ac:	f000 f9ae 	bl	20000b0c <hw_endpoint_start_next_buffer>
200007b0:	4b34      	ldr	r3, [pc, #208]	@ (20000884 <dcd_rp2040_irq+0x4d8>)
200007b2:	e645      	b.n	20000440 <dcd_rp2040_irq+0x94>
200007b4:	2200      	movs	r2, #0
200007b6:	4836      	ldr	r0, [pc, #216]	@ (20000890 <dcd_rp2040_irq+0x4e4>)
200007b8:	f883 20bc 	strb.w	r2, [r3, #188]	@ 0xbc
200007bc:	4635      	mov	r5, r6
200007be:	f000 f9a5 	bl	20000b0c <hw_endpoint_start_next_buffer>
200007c2:	4b30      	ldr	r3, [pc, #192]	@ (20000884 <dcd_rp2040_irq+0x4d8>)
200007c4:	e60f      	b.n	200003e6 <dcd_rp2040_irq+0x3a>
200007c6:	2200      	movs	r2, #0
200007c8:	4832      	ldr	r0, [pc, #200]	@ (20000894 <dcd_rp2040_irq+0x4e8>)
200007ca:	f883 217c 	strb.w	r2, [r3, #380]	@ 0x17c
200007ce:	4635      	mov	r5, r6
200007d0:	f000 f99c 	bl	20000b0c <hw_endpoint_start_next_buffer>
200007d4:	4b2b      	ldr	r3, [pc, #172]	@ (20000884 <dcd_rp2040_irq+0x4d8>)
200007d6:	e615      	b.n	20000404 <dcd_rp2040_irq+0x58>
200007d8:	2200      	movs	r2, #0
200007da:	482f      	ldr	r0, [pc, #188]	@ (20000898 <dcd_rp2040_irq+0x4ec>)
200007dc:	f883 21bc 	strb.w	r2, [r3, #444]	@ 0x1bc
200007e0:	4635      	mov	r5, r6
200007e2:	f000 f993 	bl	20000b0c <hw_endpoint_start_next_buffer>
200007e6:	4b27      	ldr	r3, [pc, #156]	@ (20000884 <dcd_rp2040_irq+0x4d8>)
200007e8:	e611      	b.n	2000040e <dcd_rp2040_irq+0x62>
200007ea:	2200      	movs	r2, #0
200007ec:	482b      	ldr	r0, [pc, #172]	@ (2000089c <dcd_rp2040_irq+0x4f0>)
200007ee:	f883 21fc 	strb.w	r2, [r3, #508]	@ 0x1fc
200007f2:	4635      	mov	r5, r6
200007f4:	f000 f98a 	bl	20000b0c <hw_endpoint_start_next_buffer>
200007f8:	4b22      	ldr	r3, [pc, #136]	@ (20000884 <dcd_rp2040_irq+0x4d8>)
200007fa:	e60d      	b.n	20000418 <dcd_rp2040_irq+0x6c>
200007fc:	2200      	movs	r2, #0
200007fe:	4828      	ldr	r0, [pc, #160]	@ (200008a0 <dcd_rp2040_irq+0x4f4>)
20000800:	f883 223c 	strb.w	r2, [r3, #572]	@ 0x23c
20000804:	4635      	mov	r5, r6
20000806:	f000 f981 	bl	20000b0c <hw_endpoint_start_next_buffer>
2000080a:	4b1e      	ldr	r3, [pc, #120]	@ (20000884 <dcd_rp2040_irq+0x4d8>)
2000080c:	e609      	b.n	20000422 <dcd_rp2040_irq+0x76>
2000080e:	2200      	movs	r2, #0
20000810:	4824      	ldr	r0, [pc, #144]	@ (200008a4 <dcd_rp2040_irq+0x4f8>)
20000812:	f883 227c 	strb.w	r2, [r3, #636]	@ 0x27c
20000816:	4635      	mov	r5, r6
20000818:	f000 f978 	bl	20000b0c <hw_endpoint_start_next_buffer>
2000081c:	4b19      	ldr	r3, [pc, #100]	@ (20000884 <dcd_rp2040_irq+0x4d8>)
2000081e:	e605      	b.n	2000042c <dcd_rp2040_irq+0x80>
20000820:	2200      	movs	r2, #0
20000822:	4821      	ldr	r0, [pc, #132]	@ (200008a8 <dcd_rp2040_irq+0x4fc>)
20000824:	f883 20fc 	strb.w	r2, [r3, #252]	@ 0xfc
20000828:	4635      	mov	r5, r6
2000082a:	f000 f96f 	bl	20000b0c <hw_endpoint_start_next_buffer>
2000082e:	4b15      	ldr	r3, [pc, #84]	@ (20000884 <dcd_rp2040_irq+0x4d8>)
20000830:	e5de      	b.n	200003f0 <dcd_rp2040_irq+0x44>
20000832:	2200      	movs	r2, #0
20000834:	481d      	ldr	r0, [pc, #116]	@ (200008ac <dcd_rp2040_irq+0x500>)
20000836:	f883 213c 	strb.w	r2, [r3, #316]	@ 0x13c
2000083a:	4635      	mov	r5, r6
2000083c:	f000 f966 	bl	20000b0c <hw_endpoint_start_next_buffer>
20000840:	4b10      	ldr	r3, [pc, #64]	@ (20000884 <dcd_rp2040_irq+0x4d8>)
20000842:	e5da      	b.n	200003fa <dcd_rp2040_irq+0x4e>
20000844:	2200      	movs	r2, #0
20000846:	481a      	ldr	r0, [pc, #104]	@ (200008b0 <dcd_rp2040_irq+0x504>)
20000848:	f883 207c 	strb.w	r2, [r3, #124]	@ 0x7c
2000084c:	4635      	mov	r5, r6
2000084e:	f000 f95d 	bl	20000b0c <hw_endpoint_start_next_buffer>
20000852:	4b0c      	ldr	r3, [pc, #48]	@ (20000884 <dcd_rp2040_irq+0x4d8>)
20000854:	e5c2      	b.n	200003dc <dcd_rp2040_irq+0x30>
20000856:	2200      	movs	r2, #0
20000858:	4816      	ldr	r0, [pc, #88]	@ (200008b4 <dcd_rp2040_irq+0x508>)
2000085a:	f883 237c 	strb.w	r2, [r3, #892]	@ 0x37c
2000085e:	f000 f955 	bl	20000b0c <hw_endpoint_start_next_buffer>
20000862:	4b08      	ldr	r3, [pc, #32]	@ (20000884 <dcd_rp2040_irq+0x4d8>)
20000864:	e6b7      	b.n	200005d6 <dcd_rp2040_irq+0x22a>
20000866:	2200      	movs	r2, #0
20000868:	4813      	ldr	r0, [pc, #76]	@ (200008b8 <dcd_rp2040_irq+0x50c>)
2000086a:	f883 23bc 	strb.w	r2, [r3, #956]	@ 0x3bc
2000086e:	f000 f94d 	bl	20000b0c <hw_endpoint_start_next_buffer>
20000872:	4b04      	ldr	r3, [pc, #16]	@ (20000884 <dcd_rp2040_irq+0x4d8>)
20000874:	e778      	b.n	20000768 <dcd_rp2040_irq+0x3bc>
20000876:	4811      	ldr	r0, [pc, #68]	@ (200008bc <dcd_rp2040_irq+0x510>)
20000878:	ea85 0104 	eor.w	r1, r5, r4
2000087c:	f000 fcb0 	bl	200011e0 <__panic_veneer>
20000880:	20001dd8 	.word	0x20001dd8
20000884:	20001ab8 	.word	0x20001ab8
20000888:	20001d58 	.word	0x20001d58
2000088c:	20001d98 	.word	0x20001d98
20000890:	20001b58 	.word	0x20001b58
20000894:	20001c18 	.word	0x20001c18
20000898:	20001c58 	.word	0x20001c58
2000089c:	20001c98 	.word	0x20001c98
200008a0:	20001cd8 	.word	0x20001cd8
200008a4:	20001d18 	.word	0x20001d18
200008a8:	20001b98 	.word	0x20001b98
200008ac:	20001bd8 	.word	0x20001bd8
200008b0:	20001b18 	.word	0x20001b18
200008b4:	20001e18 	.word	0x20001e18
200008b8:	20001e58 	.word	0x20001e58
200008bc:	1000983c 	.word	0x1000983c

200008c0 <prepare_ep_buffer>:
200008c0:	e92d 43f0 	stmdb	sp!, {r4, r5, r6, r7, r8, r9, lr}
200008c4:	8a82      	ldrh	r2, [r0, #20]
200008c6:	f8b0 e018 	ldrh.w	lr, [r0, #24]
200008ca:	4603      	mov	r3, r0
200008cc:	4596      	cmp	lr, r2
200008ce:	78c0      	ldrb	r0, [r0, #3]
200008d0:	bf28      	it	cs
200008d2:	4696      	movcs	lr, r2
200008d4:	1e04      	subs	r4, r0, #0
200008d6:	bf18      	it	ne
200008d8:	2401      	movne	r4, #1
200008da:	f080 0001 	eor.w	r0, r0, #1
200008de:	460d      	mov	r5, r1
200008e0:	eba2 020e 	sub.w	r2, r2, lr
200008e4:	7859      	ldrb	r1, [r3, #1]
200008e6:	70d8      	strb	r0, [r3, #3]
200008e8:	b292      	uxth	r2, r2
200008ea:	f44e 6080 	orr.w	r0, lr, #1024	@ 0x400
200008ee:	829a      	strh	r2, [r3, #20]
200008f0:	ea40 3044 	orr.w	r0, r0, r4, lsl #13
200008f4:	bba1      	cbnz	r1, 20000960 <prepare_ep_buffer+0xa0>
200008f6:	6919      	ldr	r1, [r3, #16]
200008f8:	f1be 0f00 	cmp.w	lr, #0
200008fc:	d02c      	beq.n	20000958 <prepare_ep_buffer+0x98>
200008fe:	f10e 34ff 	add.w	r4, lr, #4294967295
20000902:	68da      	ldr	r2, [r3, #12]
20000904:	2c05      	cmp	r4, #5
20000906:	46a1      	mov	r9, r4
20000908:	eb02 1885 	add.w	r8, r2, r5, lsl #6
2000090c:	d92f      	bls.n	2000096e <prepare_ep_buffer+0xae>
2000090e:	eba8 0401 	sub.w	r4, r8, r1
20000912:	3c01      	subs	r4, #1
20000914:	2c02      	cmp	r4, #2
20000916:	46c4      	mov	ip, r8
20000918:	460a      	mov	r2, r1
2000091a:	d928      	bls.n	2000096e <prepare_ep_buffer+0xae>
2000091c:	ea4f 079e 	mov.w	r7, lr, lsr #2
20000920:	eb01 0687 	add.w	r6, r1, r7, lsl #2
20000924:	f852 4b04 	ldr.w	r4, [r2], #4
20000928:	4296      	cmp	r6, r2
2000092a:	f84c 4b04 	str.w	r4, [ip], #4
2000092e:	d1f9      	bne.n	20000924 <prepare_ep_buffer+0x64>
20000930:	ebbe 0f87 	cmp.w	lr, r7, lsl #2
20000934:	d00e      	beq.n	20000954 <prepare_ep_buffer+0x94>
20000936:	f811 2027 	ldrb.w	r2, [r1, r7, lsl #2]
2000093a:	ebb9 0187 	subs.w	r1, r9, r7, lsl #2
2000093e:	f808 2027 	strb.w	r2, [r8, r7, lsl #2]
20000942:	eb08 0287 	add.w	r2, r8, r7, lsl #2
20000946:	d005      	beq.n	20000954 <prepare_ep_buffer+0x94>
20000948:	7874      	ldrb	r4, [r6, #1]
2000094a:	2901      	cmp	r1, #1
2000094c:	7054      	strb	r4, [r2, #1]
2000094e:	d001      	beq.n	20000954 <prepare_ep_buffer+0x94>
20000950:	78b1      	ldrb	r1, [r6, #2]
20000952:	7091      	strb	r1, [r2, #2]
20000954:	6919      	ldr	r1, [r3, #16]
20000956:	8a9a      	ldrh	r2, [r3, #20]
20000958:	4471      	add	r1, lr
2000095a:	6119      	str	r1, [r3, #16]
2000095c:	f440 4000 	orr.w	r0, r0, #32768	@ 0x8000
20000960:	b90a      	cbnz	r2, 20000966 <prepare_ep_buffer+0xa6>
20000962:	f440 4080 	orr.w	r0, r0, #16384	@ 0x4000
20000966:	b105      	cbz	r5, 2000096a <prepare_ep_buffer+0xaa>
20000968:	0400      	lsls	r0, r0, #16
2000096a:	e8bd 83f0 	ldmia.w	sp!, {r4, r5, r6, r7, r8, r9, pc}
2000096e:	f108 32ff 	add.w	r2, r8, #4294967295
20000972:	eb01 060e 	add.w	r6, r1, lr
20000976:	f811 4b01 	ldrb.w	r4, [r1], #1
2000097a:	42b1      	cmp	r1, r6
2000097c:	f802 4f01 	strb.w	r4, [r2, #1]!
20000980:	d1f9      	bne.n	20000976 <prepare_ep_buffer+0xb6>
20000982:	e7e7      	b.n	20000954 <prepare_ep_buffer+0x94>

20000984 <sync_ep_buffer>:
20000984:	6883      	ldr	r3, [r0, #8]
20000986:	e92d 41f0 	stmdb	sp!, {r4, r5, r6, r7, r8, lr}
2000098a:	4605      	mov	r5, r0
2000098c:	6818      	ldr	r0, [r3, #0]
2000098e:	b101      	cbz	r1, 20000992 <sync_ep_buffer+0xe>
20000990:	0c00      	lsrs	r0, r0, #16
20000992:	786a      	ldrb	r2, [r5, #1]
20000994:	f3c0 0009 	ubfx	r0, r0, #0, #10
20000998:	b94a      	cbnz	r2, 200009ae <sync_ep_buffer+0x2a>
2000099a:	8aeb      	ldrh	r3, [r5, #22]
2000099c:	4403      	add	r3, r0
2000099e:	82eb      	strh	r3, [r5, #22]
200009a0:	8b2b      	ldrh	r3, [r5, #24]
200009a2:	4283      	cmp	r3, r0
200009a4:	bf84      	itt	hi
200009a6:	2300      	movhi	r3, #0
200009a8:	82ab      	strhhi	r3, [r5, #20]
200009aa:	e8bd 81f0 	ldmia.w	sp!, {r4, r5, r6, r7, r8, pc}
200009ae:	f8d5 c010 	ldr.w	ip, [r5, #16]
200009b2:	b388      	cbz	r0, 20000a18 <sync_ep_buffer+0x94>
200009b4:	1e42      	subs	r2, r0, #1
200009b6:	68eb      	ldr	r3, [r5, #12]
200009b8:	2a05      	cmp	r2, #5
200009ba:	4616      	mov	r6, r2
200009bc:	eb03 1e81 	add.w	lr, r3, r1, lsl #6
200009c0:	d931      	bls.n	20000a26 <sync_ep_buffer+0xa2>
200009c2:	0189      	lsls	r1, r1, #6
200009c4:	1c4c      	adds	r4, r1, #1
200009c6:	441c      	add	r4, r3
200009c8:	ebac 0404 	sub.w	r4, ip, r4
200009cc:	2c02      	cmp	r4, #2
200009ce:	4662      	mov	r2, ip
200009d0:	d929      	bls.n	20000a26 <sync_ep_buffer+0xa2>
200009d2:	f400 717f 	and.w	r1, r0, #1020	@ 0x3fc
200009d6:	4673      	mov	r3, lr
200009d8:	460f      	mov	r7, r1
200009da:	ea4f 0890 	mov.w	r8, r0, lsr #2
200009de:	185c      	adds	r4, r3, r1
200009e0:	f853 1b04 	ldr.w	r1, [r3], #4
200009e4:	42a3      	cmp	r3, r4
200009e6:	f842 1b04 	str.w	r1, [r2], #4
200009ea:	d1f9      	bne.n	200009e0 <sync_ep_buffer+0x5c>
200009ec:	42b8      	cmp	r0, r7
200009ee:	d011      	beq.n	20000a14 <sync_ep_buffer+0x90>
200009f0:	f81e 3028 	ldrb.w	r3, [lr, r8, lsl #2]
200009f4:	44be      	add	lr, r7
200009f6:	f80c 3028 	strb.w	r3, [ip, r8, lsl #2]
200009fa:	1bf3      	subs	r3, r6, r7
200009fc:	44bc      	add	ip, r7
200009fe:	d009      	beq.n	20000a14 <sync_ep_buffer+0x90>
20000a00:	f89e 2001 	ldrb.w	r2, [lr, #1]
20000a04:	2b01      	cmp	r3, #1
20000a06:	f88c 2001 	strb.w	r2, [ip, #1]
20000a0a:	d003      	beq.n	20000a14 <sync_ep_buffer+0x90>
20000a0c:	f89e 3002 	ldrb.w	r3, [lr, #2]
20000a10:	f88c 3002 	strb.w	r3, [ip, #2]
20000a14:	f8d5 c010 	ldr.w	ip, [r5, #16]
20000a18:	8aea      	ldrh	r2, [r5, #22]
20000a1a:	eb0c 0300 	add.w	r3, ip, r0
20000a1e:	4402      	add	r2, r0
20000a20:	82ea      	strh	r2, [r5, #22]
20000a22:	612b      	str	r3, [r5, #16]
20000a24:	e7bc      	b.n	200009a0 <sync_ep_buffer+0x1c>
20000a26:	f10c 3cff 	add.w	ip, ip, #4294967295
20000a2a:	eb0e 0200 	add.w	r2, lr, r0
20000a2e:	f81e 3b01 	ldrb.w	r3, [lr], #1
20000a32:	4572      	cmp	r2, lr
20000a34:	f80c 3f01 	strb.w	r3, [ip, #1]!
20000a38:	d1f9      	bne.n	20000a2e <sync_ep_buffer+0xaa>
20000a3a:	e7eb      	b.n	20000a14 <sync_ep_buffer+0x90>

20000a3c <_hw_endpoint_xfer_sync>:
20000a3c:	b510      	push	{r4, lr}
20000a3e:	4604      	mov	r4, r0
20000a40:	6883      	ldr	r3, [r0, #8]
20000a42:	2100      	movs	r1, #0
20000a44:	681b      	ldr	r3, [r3, #0]
20000a46:	f7ff ff9d 	bl	20000984 <sync_ep_buffer>
20000a4a:	6863      	ldr	r3, [r4, #4]
20000a4c:	681b      	ldr	r3, [r3, #0]
20000a4e:	005b      	lsls	r3, r3, #1
20000a50:	d502      	bpl.n	20000a58 <_hw_endpoint_xfer_sync+0x1c>
20000a52:	8b23      	ldrh	r3, [r4, #24]
20000a54:	4283      	cmp	r3, r0
20000a56:	d000      	beq.n	20000a5a <_hw_endpoint_xfer_sync+0x1e>
20000a58:	bd10      	pop	{r4, pc}
20000a5a:	4620      	mov	r0, r4
20000a5c:	e8bd 4010 	ldmia.w	sp!, {r4, lr}
20000a60:	2101      	movs	r1, #1
20000a62:	f7ff bf8f 	b.w	20000984 <sync_ep_buffer>
20000a66:	bf00      	nop

20000a68 <e15_is_bulkin_ep>:
20000a68:	4b08      	ldr	r3, [pc, #32]	@ (20000a8c <e15_is_bulkin_ep+0x24>)
20000a6a:	6c1b      	ldr	r3, [r3, #64]	@ 0x40
20000a6c:	f013 0302 	ands.w	r3, r3, #2
20000a70:	d102      	bne.n	20000a78 <e15_is_bulkin_ep+0x10>
20000a72:	7882      	ldrb	r2, [r0, #2]
20000a74:	09d2      	lsrs	r2, r2, #7
20000a76:	d101      	bne.n	20000a7c <e15_is_bulkin_ep+0x14>
20000a78:	2000      	movs	r0, #0
20000a7a:	4770      	bx	lr
20000a7c:	7ec0      	ldrb	r0, [r0, #27]
20000a7e:	f1a0 0002 	sub.w	r0, r0, #2
20000a82:	fab0 f080 	clz	r0, r0
20000a86:	0940      	lsrs	r0, r0, #5
20000a88:	4770      	bx	lr
20000a8a:	bf00      	nop
20000a8c:	50110000 	.word	0x50110000

20000a90 <e15_is_critical_frame_period>:
20000a90:	b508      	push	{r3, lr}
20000a92:	f7ff ffe9 	bl	20000a68 <e15_is_bulkin_ep>
20000a96:	b150      	cbz	r0, 20000aae <e15_is_critical_frame_period+0x1e>
20000a98:	4a05      	ldr	r2, [pc, #20]	@ (20000ab0 <e15_is_critical_frame_period+0x20>)
20000a9a:	4b06      	ldr	r3, [pc, #24]	@ (20000ab4 <e15_is_critical_frame_period+0x24>)
20000a9c:	6a90      	ldr	r0, [r2, #40]	@ 0x28
20000a9e:	681b      	ldr	r3, [r3, #0]
20000aa0:	f5a0 7048 	sub.w	r0, r0, #800	@ 0x320
20000aa4:	1ac0      	subs	r0, r0, r3
20000aa6:	28c6      	cmp	r0, #198	@ 0xc6
20000aa8:	bf8c      	ite	hi
20000aaa:	2000      	movhi	r0, #0
20000aac:	2001      	movls	r0, #1
20000aae:	bd08      	pop	{r3, pc}
20000ab0:	400b0000 	.word	0x400b0000
20000ab4:	20001ab0 	.word	0x20001ab0

20000ab8 <hw_endpoint_reset_transfer>:
20000ab8:	2300      	movs	r3, #0
20000aba:	e9c0 3304 	strd	r3, r3, [r0, #16]
20000abe:	7683      	strb	r3, [r0, #26]
20000ac0:	4770      	bx	lr
20000ac2:	bf00      	nop

20000ac4 <_hw_endpoint_buffer_control_update32>:
20000ac4:	b508      	push	{r3, lr}
20000ac6:	6883      	ldr	r3, [r0, #8]
20000ac8:	b119      	cbz	r1, 20000ad2 <_hw_endpoint_buffer_control_update32+0xe>
20000aca:	f8d3 c000 	ldr.w	ip, [r3]
20000ace:	ea01 010c 	and.w	r1, r1, ip
20000ad2:	b18a      	cbz	r2, 20000af8 <_hw_endpoint_buffer_control_update32+0x34>
20000ad4:	4311      	orrs	r1, r2
20000ad6:	0552      	lsls	r2, r2, #21
20000ad8:	d50e      	bpl.n	20000af8 <_hw_endpoint_buffer_control_update32+0x34>
20000ada:	681a      	ldr	r2, [r3, #0]
20000adc:	0552      	lsls	r2, r2, #21
20000ade:	d40d      	bmi.n	20000afc <_hw_endpoint_buffer_control_update32+0x38>
20000ae0:	4a08      	ldr	r2, [pc, #32]	@ (20000b04 <_hw_endpoint_buffer_control_update32+0x40>)
20000ae2:	f421 6c80 	bic.w	ip, r1, #1024	@ 0x400
20000ae6:	f8c3 c000 	str.w	ip, [r3]
20000aea:	6c12      	ldr	r2, [r2, #64]	@ 0x40
20000aec:	0792      	lsls	r2, r2, #30
20000aee:	d403      	bmi.n	20000af8 <_hw_endpoint_buffer_control_update32+0x34>
20000af0:	230c      	movs	r3, #12
20000af2:	3b03      	subs	r3, #3
20000af4:	d2fd      	bcs.n	20000af2 <_hw_endpoint_buffer_control_update32+0x2e>
20000af6:	6883      	ldr	r3, [r0, #8]
20000af8:	6019      	str	r1, [r3, #0]
20000afa:	bd08      	pop	{r3, pc}
20000afc:	7881      	ldrb	r1, [r0, #2]
20000afe:	4802      	ldr	r0, [pc, #8]	@ (20000b08 <_hw_endpoint_buffer_control_update32+0x44>)
20000b00:	f000 fb6e 	bl	200011e0 <__panic_veneer>
20000b04:	50110000 	.word	0x50110000
20000b08:	10009850 	.word	0x10009850

20000b0c <hw_endpoint_start_next_buffer>:
20000b0c:	b530      	push	{r4, r5, lr}
20000b0e:	6843      	ldr	r3, [r0, #4]
20000b10:	2100      	movs	r1, #0
20000b12:	b083      	sub	sp, #12
20000b14:	4605      	mov	r5, r0
20000b16:	681c      	ldr	r4, [r3, #0]
20000b18:	f7ff fed2 	bl	200008c0 <prepare_ep_buffer>
20000b1c:	4b13      	ldr	r3, [pc, #76]	@ (20000b6c <hw_endpoint_start_next_buffer+0x60>)
20000b1e:	f440 5280 	orr.w	r2, r0, #4096	@ 0x1000
20000b22:	6c19      	ldr	r1, [r3, #64]	@ 0x40
20000b24:	78ab      	ldrb	r3, [r5, #2]
20000b26:	0789      	lsls	r1, r1, #30
20000b28:	d50e      	bpl.n	20000b48 <hw_endpoint_start_next_buffer+0x3c>
20000b2a:	065b      	lsls	r3, r3, #25
20000b2c:	d00e      	beq.n	20000b4c <hw_endpoint_start_next_buffer+0x40>
20000b2e:	f024 44a0 	bic.w	r4, r4, #1342177280	@ 0x50000000
20000b32:	f044 5400 	orr.w	r4, r4, #536870912	@ 0x20000000
20000b36:	2100      	movs	r1, #0
20000b38:	4628      	mov	r0, r5
20000b3a:	686b      	ldr	r3, [r5, #4]
20000b3c:	601c      	str	r4, [r3, #0]
20000b3e:	b003      	add	sp, #12
20000b40:	e8bd 4030 	ldmia.w	sp!, {r4, r5, lr}
20000b44:	f7ff bfbe 	b.w	20000ac4 <_hw_endpoint_buffer_control_update32>
20000b48:	09db      	lsrs	r3, r3, #7
20000b4a:	d0f0      	beq.n	20000b2e <hw_endpoint_start_next_buffer+0x22>
20000b4c:	8aab      	ldrh	r3, [r5, #20]
20000b4e:	2b00      	cmp	r3, #0
20000b50:	d0ed      	beq.n	20000b2e <hw_endpoint_start_next_buffer+0x22>
20000b52:	2101      	movs	r1, #1
20000b54:	4628      	mov	r0, r5
20000b56:	9201      	str	r2, [sp, #4]
20000b58:	f7ff feb2 	bl	200008c0 <prepare_ep_buffer>
20000b5c:	9a01      	ldr	r2, [sp, #4]
20000b5e:	f024 5400 	bic.w	r4, r4, #536870912	@ 0x20000000
20000b62:	4302      	orrs	r2, r0
20000b64:	f044 44a0 	orr.w	r4, r4, #1342177280	@ 0x50000000
20000b68:	e7e5      	b.n	20000b36 <hw_endpoint_start_next_buffer+0x2a>
20000b6a:	bf00      	nop
20000b6c:	50110000 	.word	0x50110000

20000b70 <hw_endpoint_xfer_continue>:
20000b70:	b538      	push	{r3, r4, r5, lr}
20000b72:	7e85      	ldrb	r5, [r0, #26]
20000b74:	4604      	mov	r4, r0
20000b76:	b195      	cbz	r5, 20000b9e <hw_endpoint_xfer_continue+0x2e>
20000b78:	f7ff ff60 	bl	20000a3c <_hw_endpoint_xfer_sync>
20000b7c:	8aa3      	ldrh	r3, [r4, #20]
20000b7e:	b90b      	cbnz	r3, 20000b84 <hw_endpoint_xfer_continue+0x14>
20000b80:	4628      	mov	r0, r5
20000b82:	bd38      	pop	{r3, r4, r5, pc}
20000b84:	4620      	mov	r0, r4
20000b86:	f7ff ff83 	bl	20000a90 <e15_is_critical_frame_period>
20000b8a:	b120      	cbz	r0, 20000b96 <hw_endpoint_xfer_continue+0x26>
20000b8c:	2301      	movs	r3, #1
20000b8e:	7723      	strb	r3, [r4, #28]
20000b90:	2500      	movs	r5, #0
20000b92:	4628      	mov	r0, r5
20000b94:	bd38      	pop	{r3, r4, r5, pc}
20000b96:	4620      	mov	r0, r4
20000b98:	f7ff ffb8 	bl	20000b0c <hw_endpoint_start_next_buffer>
20000b9c:	e7f8      	b.n	20000b90 <hw_endpoint_xfer_continue+0x20>
20000b9e:	7881      	ldrb	r1, [r0, #2]
20000ba0:	4801      	ldr	r0, [pc, #4]	@ (20000ba8 <hw_endpoint_xfer_continue+0x38>)
20000ba2:	f000 fb1d 	bl	200011e0 <__panic_veneer>
20000ba6:	bf00      	nop
20000ba8:	10009870 	.word	0x10009870

20000bac <dcd_event_handler>:
20000bac:	b570      	push	{r4, r5, r6, lr}
20000bae:	7843      	ldrb	r3, [r0, #1]
20000bb0:	4604      	mov	r4, r0
20000bb2:	3b02      	subs	r3, #2
20000bb4:	460e      	mov	r6, r1
20000bb6:	b086      	sub	sp, #24
20000bb8:	2b04      	cmp	r3, #4
20000bba:	d813      	bhi.n	20000be4 <dcd_event_handler+0x38>
20000bbc:	e8df f003 	tbb	[pc, r3]
20000bc0:	72694903 	.word	0x72694903
20000bc4:	44          	.byte	0x44
20000bc5:	00          	.byte	0x00
20000bc6:	2100      	movs	r1, #0
20000bc8:	4b78      	ldr	r3, [pc, #480]	@ (20000dac <dcd_event_handler+0x200>)
20000bca:	781a      	ldrb	r2, [r3, #0]
20000bcc:	f022 0201 	bic.w	r2, r2, #1
20000bd0:	701a      	strb	r2, [r3, #0]
20000bd2:	781a      	ldrb	r2, [r3, #0]
20000bd4:	f022 0202 	bic.w	r2, r2, #2
20000bd8:	701a      	strb	r2, [r3, #0]
20000bda:	7059      	strb	r1, [r3, #1]
20000bdc:	781a      	ldrb	r2, [r3, #0]
20000bde:	f361 0282 	bfi	r2, r1, #2, #1
20000be2:	701a      	strb	r2, [r3, #0]
20000be4:	4b72      	ldr	r3, [pc, #456]	@ (20000db0 <dcd_event_handler+0x204>)
20000be6:	681b      	ldr	r3, [r3, #0]
20000be8:	695a      	ldr	r2, [r3, #20]
20000bea:	f3ef 8010 	mrs	r0, PRIMASK
20000bee:	b672      	cpsid	i
20000bf0:	e8d2 cfcf 	ldaexb	ip, [r2]
20000bf4:	2101      	movs	r1, #1
20000bf6:	f1bc 0f00 	cmp.w	ip, #0
20000bfa:	d1f9      	bne.n	20000bf0 <dcd_event_handler+0x44>
20000bfc:	e8c2 1f4c 	strexb	ip, r1, [r2]
20000c00:	f1bc 0f00 	cmp.w	ip, #0
20000c04:	d1f4      	bne.n	20000bf0 <dcd_event_handler+0x44>
20000c06:	f3bf 8f5f 	dmb	sy
20000c0a:	4621      	mov	r1, r4
20000c0c:	6198      	str	r0, [r3, #24]
20000c0e:	4618      	mov	r0, r3
20000c10:	9301      	str	r3, [sp, #4]
20000c12:	f000 faf1 	bl	200011f8 <__tu_fifo_write_veneer>
20000c16:	9b01      	ldr	r3, [sp, #4]
20000c18:	2200      	movs	r2, #0
20000c1a:	6959      	ldr	r1, [r3, #20]
20000c1c:	e8c1 2f8f 	stlb	r2, [r1]
20000c20:	699b      	ldr	r3, [r3, #24]
20000c22:	f383 8810 	msr	PRIMASK, r3
20000c26:	b940      	cbnz	r0, 20000c3a <dcd_event_handler+0x8e>
20000c28:	f04f 23e0 	mov.w	r3, #3758153728	@ 0xe000e000
20000c2c:	f8d3 3df0 	ldr.w	r3, [r3, #3568]	@ 0xdf0
20000c30:	07db      	lsls	r3, r3, #31
20000c32:	d507      	bpl.n	20000c44 <dcd_event_handler+0x98>
20000c34:	be00      	bkpt	0x0000
20000c36:	b006      	add	sp, #24
20000c38:	bd70      	pop	{r4, r5, r6, pc}
20000c3a:	4632      	mov	r2, r6
20000c3c:	7861      	ldrb	r1, [r4, #1]
20000c3e:	7820      	ldrb	r0, [r4, #0]
20000c40:	f000 fae6 	bl	20001210 <__tud_event_hook_cb_veneer>
20000c44:	b006      	add	sp, #24
20000c46:	bd70      	pop	{r4, r5, r6, pc}
20000c48:	4a5a      	ldr	r2, [pc, #360]	@ (20000db4 <dcd_event_handler+0x208>)
20000c4a:	7813      	ldrb	r3, [r2, #0]
20000c4c:	3301      	adds	r3, #1
20000c4e:	7013      	strb	r3, [r2, #0]
20000c50:	e7c8      	b.n	20000be4 <dcd_event_handler+0x38>
20000c52:	2300      	movs	r3, #0
20000c54:	4a58      	ldr	r2, [pc, #352]	@ (20000db8 <dcd_event_handler+0x20c>)
20000c56:	7810      	ldrb	r0, [r2, #0]
20000c58:	461a      	mov	r2, r3
20000c5a:	e013      	b.n	20000c84 <dcd_event_handler+0xd8>
20000c5c:	4a57      	ldr	r2, [pc, #348]	@ (20000dbc <dcd_event_handler+0x210>)
20000c5e:	6812      	ldr	r2, [r2, #0]
20000c60:	eb12 1243 	adds.w	r2, r2, r3, lsl #5
20000c64:	d008      	beq.n	20000c78 <dcd_event_handler+0xcc>
20000c66:	69d2      	ldr	r2, [r2, #28]
20000c68:	b132      	cbz	r2, 20000c78 <dcd_event_handler+0xcc>
20000c6a:	7820      	ldrb	r0, [r4, #0]
20000c6c:	6861      	ldr	r1, [r4, #4]
20000c6e:	9301      	str	r3, [sp, #4]
20000c70:	4790      	blx	r2
20000c72:	4b51      	ldr	r3, [pc, #324]	@ (20000db8 <dcd_event_handler+0x20c>)
20000c74:	7818      	ldrb	r0, [r3, #0]
20000c76:	9b01      	ldr	r3, [sp, #4]
20000c78:	3301      	adds	r3, #1
20000c7a:	b2db      	uxtb	r3, r3
20000c7c:	1c41      	adds	r1, r0, #1
20000c7e:	4299      	cmp	r1, r3
20000c80:	461a      	mov	r2, r3
20000c82:	db18      	blt.n	20000cb6 <dcd_event_handler+0x10a>
20000c84:	4298      	cmp	r0, r3
20000c86:	d8e9      	bhi.n	20000c5c <dcd_event_handler+0xb0>
20000c88:	494d      	ldr	r1, [pc, #308]	@ (20000dc0 <dcd_event_handler+0x214>)
20000c8a:	1a12      	subs	r2, r2, r0
20000c8c:	eb01 1242 	add.w	r2, r1, r2, lsl #5
20000c90:	e7e9      	b.n	20000c66 <dcd_event_handler+0xba>
20000c92:	4b46      	ldr	r3, [pc, #280]	@ (20000dac <dcd_event_handler+0x200>)
20000c94:	781a      	ldrb	r2, [r3, #0]
20000c96:	07d2      	lsls	r2, r2, #31
20000c98:	d5d4      	bpl.n	20000c44 <dcd_event_handler+0x98>
20000c9a:	781a      	ldrb	r2, [r3, #0]
20000c9c:	f042 0204 	orr.w	r2, r2, #4
20000ca0:	701a      	strb	r2, [r3, #0]
20000ca2:	e79f      	b.n	20000be4 <dcd_event_handler+0x38>
20000ca4:	4b41      	ldr	r3, [pc, #260]	@ (20000dac <dcd_event_handler+0x200>)
20000ca6:	781a      	ldrb	r2, [r3, #0]
20000ca8:	07d5      	lsls	r5, r2, #31
20000caa:	d5cb      	bpl.n	20000c44 <dcd_event_handler+0x98>
20000cac:	781a      	ldrb	r2, [r3, #0]
20000cae:	f022 0204 	bic.w	r2, r2, #4
20000cb2:	701a      	strb	r2, [r3, #0]
20000cb4:	e796      	b.n	20000be4 <dcd_event_handler+0x38>
20000cb6:	4b3d      	ldr	r3, [pc, #244]	@ (20000dac <dcd_event_handler+0x200>)
20000cb8:	781a      	ldrb	r2, [r3, #0]
20000cba:	0750      	lsls	r0, r2, #29
20000cbc:	d433      	bmi.n	20000d26 <dcd_event_handler+0x17a>
20000cbe:	78db      	ldrb	r3, [r3, #3]
20000cc0:	07da      	lsls	r2, r3, #31
20000cc2:	d5bf      	bpl.n	20000c44 <dcd_event_handler+0x98>
20000cc4:	2203      	movs	r2, #3
20000cc6:	4b3a      	ldr	r3, [pc, #232]	@ (20000db0 <dcd_event_handler+0x204>)
20000cc8:	7820      	ldrb	r0, [r4, #0]
20000cca:	6861      	ldr	r1, [r4, #4]
20000ccc:	681b      	ldr	r3, [r3, #0]
20000cce:	f88d 000c 	strb.w	r0, [sp, #12]
20000cd2:	f88d 200d 	strb.w	r2, [sp, #13]
20000cd6:	695a      	ldr	r2, [r3, #20]
20000cd8:	9104      	str	r1, [sp, #16]
20000cda:	f3ef 8110 	mrs	r1, PRIMASK
20000cde:	b672      	cpsid	i
20000ce0:	e8d2 4fcf 	ldaexb	r4, [r2]
20000ce4:	2001      	movs	r0, #1
20000ce6:	2c00      	cmp	r4, #0
20000ce8:	d1fa      	bne.n	20000ce0 <dcd_event_handler+0x134>
20000cea:	e8c2 0f44 	strexb	r4, r0, [r2]
20000cee:	2c00      	cmp	r4, #0
20000cf0:	d1f6      	bne.n	20000ce0 <dcd_event_handler+0x134>
20000cf2:	f3bf 8f5f 	dmb	sy
20000cf6:	6199      	str	r1, [r3, #24]
20000cf8:	4618      	mov	r0, r3
20000cfa:	a903      	add	r1, sp, #12
20000cfc:	9301      	str	r3, [sp, #4]
20000cfe:	f000 fa7b 	bl	200011f8 <__tu_fifo_write_veneer>
20000d02:	9b01      	ldr	r3, [sp, #4]
20000d04:	2200      	movs	r2, #0
20000d06:	6959      	ldr	r1, [r3, #20]
20000d08:	e8c1 2f8f 	stlb	r2, [r1]
20000d0c:	699b      	ldr	r3, [r3, #24]
20000d0e:	f383 8810 	msr	PRIMASK, r3
20000d12:	2800      	cmp	r0, #0
20000d14:	d088      	beq.n	20000c28 <dcd_event_handler+0x7c>
20000d16:	4632      	mov	r2, r6
20000d18:	f89d 100d 	ldrb.w	r1, [sp, #13]
20000d1c:	f89d 000c 	ldrb.w	r0, [sp, #12]
20000d20:	f000 fa76 	bl	20001210 <__tud_event_hook_cb_veneer>
20000d24:	e78e      	b.n	20000c44 <dcd_event_handler+0x98>
20000d26:	2500      	movs	r5, #0
20000d28:	2005      	movs	r0, #5
20000d2a:	7819      	ldrb	r1, [r3, #0]
20000d2c:	e9cd 5504 	strd	r5, r5, [sp, #16]
20000d30:	f021 0104 	bic.w	r1, r1, #4
20000d34:	9503      	str	r5, [sp, #12]
20000d36:	7019      	strb	r1, [r3, #0]
20000d38:	f88d 000d 	strb.w	r0, [sp, #13]
20000d3c:	4a1c      	ldr	r2, [pc, #112]	@ (20000db0 <dcd_event_handler+0x204>)
20000d3e:	7821      	ldrb	r1, [r4, #0]
20000d40:	6812      	ldr	r2, [r2, #0]
20000d42:	f88d 100c 	strb.w	r1, [sp, #12]
20000d46:	6951      	ldr	r1, [r2, #20]
20000d48:	f3ef 8010 	mrs	r0, PRIMASK
20000d4c:	b672      	cpsid	i
20000d4e:	e8d1 efcf 	ldaexb	lr, [r1]
20000d52:	f05f 0c01 	movs.w	ip, #1
20000d56:	f1be 0f00 	cmp.w	lr, #0
20000d5a:	d1f8      	bne.n	20000d4e <dcd_event_handler+0x1a2>
20000d5c:	e8c1 cf4e 	strexb	lr, ip, [r1]
20000d60:	f1be 0f00 	cmp.w	lr, #0
20000d64:	d1f3      	bne.n	20000d4e <dcd_event_handler+0x1a2>
20000d66:	f3bf 8f5f 	dmb	sy
20000d6a:	6190      	str	r0, [r2, #24]
20000d6c:	a903      	add	r1, sp, #12
20000d6e:	4610      	mov	r0, r2
20000d70:	9201      	str	r2, [sp, #4]
20000d72:	f000 fa41 	bl	200011f8 <__tu_fifo_write_veneer>
20000d76:	9a01      	ldr	r2, [sp, #4]
20000d78:	6951      	ldr	r1, [r2, #20]
20000d7a:	e8c1 5f8f 	stlb	r5, [r1]
20000d7e:	6992      	ldr	r2, [r2, #24]
20000d80:	f382 8810 	msr	PRIMASK, r2
20000d84:	4b09      	ldr	r3, [pc, #36]	@ (20000dac <dcd_event_handler+0x200>)
20000d86:	b938      	cbnz	r0, 20000d98 <dcd_event_handler+0x1ec>
20000d88:	f04f 22e0 	mov.w	r2, #3758153728	@ 0xe000e000
20000d8c:	f8d2 2df0 	ldr.w	r2, [r2, #3568]	@ 0xdf0
20000d90:	07d1      	lsls	r1, r2, #31
20000d92:	d594      	bpl.n	20000cbe <dcd_event_handler+0x112>
20000d94:	be00      	bkpt	0x0000
20000d96:	e792      	b.n	20000cbe <dcd_event_handler+0x112>
20000d98:	4632      	mov	r2, r6
20000d9a:	f89d 100d 	ldrb.w	r1, [sp, #13]
20000d9e:	f89d 000c 	ldrb.w	r0, [sp, #12]
20000da2:	f000 fa35 	bl	20001210 <__tud_event_hook_cb_veneer>
20000da6:	4b01      	ldr	r3, [pc, #4]	@ (20000dac <dcd_event_handler+0x200>)
20000da8:	e789      	b.n	20000cbe <dcd_event_handler+0x112>
20000daa:	bf00      	nop
20000dac:	20001660 	.word	0x20001660
20000db0:	200016b8 	.word	0x200016b8
20000db4:	200222d6 	.word	0x200222d6
20000db8:	200222d4 	.word	0x200222d4
20000dbc:	20001558 	.word	0x20001558
20000dc0:	10009abc 	.word	0x10009abc

20000dc4 <__aeabi_ldivmod>:
20000dc4:	b97b      	cbnz	r3, 20000de6 <__aeabi_ldivmod+0x22>
20000dc6:	b972      	cbnz	r2, 20000de6 <__aeabi_ldivmod+0x22>
20000dc8:	2900      	cmp	r1, #0
20000dca:	bfbe      	ittt	lt
20000dcc:	2000      	movlt	r0, #0
20000dce:	f04f 4100 	movlt.w	r1, #2147483648	@ 0x80000000
20000dd2:	e006      	blt.n	20000de2 <__aeabi_ldivmod+0x1e>
20000dd4:	bf08      	it	eq
20000dd6:	2800      	cmpeq	r0, #0
20000dd8:	bf1c      	itt	ne
20000dda:	f06f 4100 	mvnne.w	r1, #2147483648	@ 0x80000000
20000dde:	f04f 30ff 	movne.w	r0, #4294967295
20000de2:	f000 b9f7 	b.w	200011d4 <__aeabi_idiv0>
20000de6:	f1ad 0c08 	sub.w	ip, sp, #8
20000dea:	e96d ce04 	strd	ip, lr, [sp, #-16]!
20000dee:	2900      	cmp	r1, #0
20000df0:	db09      	blt.n	20000e06 <__aeabi_ldivmod+0x42>
20000df2:	2b00      	cmp	r3, #0
20000df4:	db1a      	blt.n	20000e2c <__aeabi_ldivmod+0x68>
20000df6:	f000 f84d 	bl	20000e94 <__udivmoddi4>
20000dfa:	f8dd e004 	ldr.w	lr, [sp, #4]
20000dfe:	e9dd 2302 	ldrd	r2, r3, [sp, #8]
20000e02:	b004      	add	sp, #16
20000e04:	4770      	bx	lr
20000e06:	4240      	negs	r0, r0
20000e08:	eb61 0141 	sbc.w	r1, r1, r1, lsl #1
20000e0c:	2b00      	cmp	r3, #0
20000e0e:	db1b      	blt.n	20000e48 <__aeabi_ldivmod+0x84>
20000e10:	f000 f840 	bl	20000e94 <__udivmoddi4>
20000e14:	f8dd e004 	ldr.w	lr, [sp, #4]
20000e18:	e9dd 2302 	ldrd	r2, r3, [sp, #8]
20000e1c:	b004      	add	sp, #16
20000e1e:	4240      	negs	r0, r0
20000e20:	eb61 0141 	sbc.w	r1, r1, r1, lsl #1
20000e24:	4252      	negs	r2, r2
20000e26:	eb63 0343 	sbc.w	r3, r3, r3, lsl #1
20000e2a:	4770      	bx	lr
20000e2c:	4252      	negs	r2, r2
20000e2e:	eb63 0343 	sbc.w	r3, r3, r3, lsl #1
20000e32:	f000 f82f 	bl	20000e94 <__udivmoddi4>
20000e36:	f8dd e004 	ldr.w	lr, [sp, #4]
20000e3a:	e9dd 2302 	ldrd	r2, r3, [sp, #8]
20000e3e:	b004      	add	sp, #16
20000e40:	4240      	negs	r0, r0
20000e42:	eb61 0141 	sbc.w	r1, r1, r1, lsl #1
20000e46:	4770      	bx	lr
20000e48:	4252      	negs	r2, r2
20000e4a:	eb63 0343 	sbc.w	r3, r3, r3, lsl #1
20000e4e:	f000 f821 	bl	20000e94 <__udivmoddi4>
20000e52:	f8dd e004 	ldr.w	lr, [sp, #4]
20000e56:	e9dd 2302 	ldrd	r2, r3, [sp, #8]
20000e5a:	b004      	add	sp, #16
20000e5c:	4252      	negs	r2, r2
20000e5e:	eb63 0343 	sbc.w	r3, r3, r3, lsl #1
20000e62:	4770      	bx	lr

20000e64 <__aeabi_uldivmod>:
20000e64:	b953      	cbnz	r3, 20000e7c <__aeabi_uldivmod+0x18>
20000e66:	b94a      	cbnz	r2, 20000e7c <__aeabi_uldivmod+0x18>
20000e68:	2900      	cmp	r1, #0
20000e6a:	bf08      	it	eq
20000e6c:	2800      	cmpeq	r0, #0
20000e6e:	bf1c      	itt	ne
20000e70:	f04f 31ff 	movne.w	r1, #4294967295
20000e74:	f04f 30ff 	movne.w	r0, #4294967295
20000e78:	f000 b9ac 	b.w	200011d4 <__aeabi_idiv0>
20000e7c:	f1ad 0c08 	sub.w	ip, sp, #8
20000e80:	e96d ce04 	strd	ip, lr, [sp, #-16]!
20000e84:	f000 f806 	bl	20000e94 <__udivmoddi4>
20000e88:	f8dd e004 	ldr.w	lr, [sp, #4]
20000e8c:	e9dd 2302 	ldrd	r2, r3, [sp, #8]
20000e90:	b004      	add	sp, #16
20000e92:	4770      	bx	lr

20000e94 <__udivmoddi4>:
20000e94:	e92d 47f0 	stmdb	sp!, {r4, r5, r6, r7, r8, r9, sl, lr}
20000e98:	4606      	mov	r6, r0
20000e9a:	b082      	sub	sp, #8
20000e9c:	4617      	mov	r7, r2
20000e9e:	4608      	mov	r0, r1
20000ea0:	9a0a      	ldr	r2, [sp, #40]	@ 0x28
20000ea2:	46b4      	mov	ip, r6
20000ea4:	460d      	mov	r5, r1
20000ea6:	2b00      	cmp	r3, #0
20000ea8:	d14d      	bne.n	20000f46 <__udivmoddi4+0xb2>
20000eaa:	428f      	cmp	r7, r1
20000eac:	46be      	mov	lr, r7
20000eae:	d965      	bls.n	20000f7c <__udivmoddi4+0xe8>
20000eb0:	fab7 f187 	clz	r1, r7
20000eb4:	b149      	cbz	r1, 20000eca <__udivmoddi4+0x36>
20000eb6:	f1c1 0320 	rsb	r3, r1, #32
20000eba:	408d      	lsls	r5, r1
20000ebc:	fa07 fe01 	lsl.w	lr, r7, r1
20000ec0:	fa06 fc01 	lsl.w	ip, r6, r1
20000ec4:	fa26 f303 	lsr.w	r3, r6, r3
20000ec8:	431d      	orrs	r5, r3
20000eca:	ea4f 461e 	mov.w	r6, lr, lsr #16
20000ece:	fa1f f08e 	uxth.w	r0, lr
20000ed2:	ea4f 431c 	mov.w	r3, ip, lsr #16
20000ed6:	fbb5 f4f6 	udiv	r4, r5, r6
20000eda:	fb06 5514 	mls	r5, r6, r4, r5
20000ede:	ea43 4305 	orr.w	r3, r3, r5, lsl #16
20000ee2:	fb04 f500 	mul.w	r5, r4, r0
20000ee6:	429d      	cmp	r5, r3
20000ee8:	d906      	bls.n	20000ef8 <__udivmoddi4+0x64>
20000eea:	eb1e 0303 	adds.w	r3, lr, r3
20000eee:	d202      	bcs.n	20000ef6 <__udivmoddi4+0x62>
20000ef0:	429d      	cmp	r5, r3
20000ef2:	f200 814c 	bhi.w	2000118e <__udivmoddi4+0x2fa>
20000ef6:	3c01      	subs	r4, #1
20000ef8:	1b5b      	subs	r3, r3, r5
20000efa:	fa1f fc8c 	uxth.w	ip, ip
20000efe:	fbb3 f5f6 	udiv	r5, r3, r6
20000f02:	fb06 3315 	mls	r3, r6, r5, r3
20000f06:	fb05 f000 	mul.w	r0, r5, r0
20000f0a:	ea4c 4c03 	orr.w	ip, ip, r3, lsl #16
20000f0e:	4560      	cmp	r0, ip
20000f10:	d90a      	bls.n	20000f28 <__udivmoddi4+0x94>
20000f12:	eb1e 0c0c 	adds.w	ip, lr, ip
20000f16:	bf2c      	ite	cs
20000f18:	2301      	movcs	r3, #1
20000f1a:	2300      	movcc	r3, #0
20000f1c:	4560      	cmp	r0, ip
20000f1e:	d902      	bls.n	20000f26 <__udivmoddi4+0x92>
20000f20:	2b00      	cmp	r3, #0
20000f22:	f000 8137 	beq.w	20001194 <__udivmoddi4+0x300>
20000f26:	3d01      	subs	r5, #1
20000f28:	ebac 0c00 	sub.w	ip, ip, r0
20000f2c:	ea45 4004 	orr.w	r0, r5, r4, lsl #16
20000f30:	2400      	movs	r4, #0
20000f32:	b122      	cbz	r2, 20000f3e <__udivmoddi4+0xaa>
20000f34:	fa2c f301 	lsr.w	r3, ip, r1
20000f38:	2100      	movs	r1, #0
20000f3a:	e9c2 3100 	strd	r3, r1, [r2]
20000f3e:	4621      	mov	r1, r4
20000f40:	b002      	add	sp, #8
20000f42:	e8bd 87f0 	ldmia.w	sp!, {r4, r5, r6, r7, r8, r9, sl, pc}
20000f46:	428b      	cmp	r3, r1
20000f48:	d908      	bls.n	20000f5c <__udivmoddi4+0xc8>
20000f4a:	b10a      	cbz	r2, 20000f50 <__udivmoddi4+0xbc>
20000f4c:	e9c2 6100 	strd	r6, r1, [r2]
20000f50:	2400      	movs	r4, #0
20000f52:	4620      	mov	r0, r4
20000f54:	4621      	mov	r1, r4
20000f56:	b002      	add	sp, #8
20000f58:	e8bd 87f0 	ldmia.w	sp!, {r4, r5, r6, r7, r8, r9, sl, pc}
20000f5c:	fab3 f483 	clz	r4, r3
20000f60:	2c00      	cmp	r4, #0
20000f62:	d14d      	bne.n	20001000 <__udivmoddi4+0x16c>
20000f64:	428b      	cmp	r3, r1
20000f66:	f0c0 8105 	bcc.w	20001174 <__udivmoddi4+0x2e0>
20000f6a:	42b7      	cmp	r7, r6
20000f6c:	f240 8102 	bls.w	20001174 <__udivmoddi4+0x2e0>
20000f70:	4620      	mov	r0, r4
20000f72:	2a00      	cmp	r2, #0
20000f74:	d0e3      	beq.n	20000f3e <__udivmoddi4+0xaa>
20000f76:	e9c2 c500 	strd	ip, r5, [r2]
20000f7a:	e7e0      	b.n	20000f3e <__udivmoddi4+0xaa>
20000f7c:	2f00      	cmp	r7, #0
20000f7e:	f000 80a2 	beq.w	200010c6 <__udivmoddi4+0x232>
20000f82:	4619      	mov	r1, r3
20000f84:	fab7 f387 	clz	r3, r7
20000f88:	2b00      	cmp	r3, #0
20000f8a:	f040 80b4 	bne.w	200010f6 <__udivmoddi4+0x262>
20000f8e:	1bc3      	subs	r3, r0, r7
20000f90:	fa1f f88e 	uxth.w	r8, lr
20000f94:	0c3f      	lsrs	r7, r7, #16
20000f96:	2401      	movs	r4, #1
20000f98:	ea4f 401c 	mov.w	r0, ip, lsr #16
20000f9c:	fbb3 f5f7 	udiv	r5, r3, r7
20000fa0:	fb07 3315 	mls	r3, r7, r5, r3
20000fa4:	ea40 4303 	orr.w	r3, r0, r3, lsl #16
20000fa8:	fb08 f005 	mul.w	r0, r8, r5
20000fac:	4298      	cmp	r0, r3
20000fae:	d90a      	bls.n	20000fc6 <__udivmoddi4+0x132>
20000fb0:	eb1e 0303 	adds.w	r3, lr, r3
20000fb4:	bf2c      	ite	cs
20000fb6:	2601      	movcs	r6, #1
20000fb8:	2600      	movcc	r6, #0
20000fba:	4298      	cmp	r0, r3
20000fbc:	d902      	bls.n	20000fc4 <__udivmoddi4+0x130>
20000fbe:	2e00      	cmp	r6, #0
20000fc0:	f000 80e2 	beq.w	20001188 <__udivmoddi4+0x2f4>
20000fc4:	3d01      	subs	r5, #1
20000fc6:	1a1b      	subs	r3, r3, r0
20000fc8:	fa1f fc8c 	uxth.w	ip, ip
20000fcc:	fbb3 f0f7 	udiv	r0, r3, r7
20000fd0:	fb07 3310 	mls	r3, r7, r0, r3
20000fd4:	ea4c 4c03 	orr.w	ip, ip, r3, lsl #16
20000fd8:	fb08 f300 	mul.w	r3, r8, r0
20000fdc:	4563      	cmp	r3, ip
20000fde:	d90a      	bls.n	20000ff6 <__udivmoddi4+0x162>
20000fe0:	eb1e 0c0c 	adds.w	ip, lr, ip
20000fe4:	bf2c      	ite	cs
20000fe6:	2601      	movcs	r6, #1
20000fe8:	2600      	movcc	r6, #0
20000fea:	4563      	cmp	r3, ip
20000fec:	d902      	bls.n	20000ff4 <__udivmoddi4+0x160>
20000fee:	2e00      	cmp	r6, #0
20000ff0:	f000 80c7 	beq.w	20001182 <__udivmoddi4+0x2ee>
20000ff4:	3801      	subs	r0, #1
20000ff6:	ebac 0c03 	sub.w	ip, ip, r3
20000ffa:	ea40 4005 	orr.w	r0, r0, r5, lsl #16
20000ffe:	e798      	b.n	20000f32 <__udivmoddi4+0x9e>
20001000:	f1c4 0820 	rsb	r8, r4, #32
20001004:	40a3      	lsls	r3, r4
20001006:	fa06 fa04 	lsl.w	sl, r6, r4
2000100a:	40a1      	lsls	r1, r4
2000100c:	fa27 fc08 	lsr.w	ip, r7, r8
20001010:	fa20 f008 	lsr.w	r0, r0, r8
20001014:	fa07 f904 	lsl.w	r9, r7, r4
20001018:	ea4c 0c03 	orr.w	ip, ip, r3
2000101c:	fa26 f308 	lsr.w	r3, r6, r8
20001020:	ea4f 461c 	mov.w	r6, ip, lsr #16
20001024:	430b      	orrs	r3, r1
20001026:	fa1f fe8c 	uxth.w	lr, ip
2000102a:	0c19      	lsrs	r1, r3, #16
2000102c:	fbb0 f7f6 	udiv	r7, r0, r6
20001030:	fb06 0017 	mls	r0, r6, r7, r0
20001034:	ea41 4100 	orr.w	r1, r1, r0, lsl #16
20001038:	fb07 f00e 	mul.w	r0, r7, lr
2000103c:	4288      	cmp	r0, r1
2000103e:	d90a      	bls.n	20001056 <__udivmoddi4+0x1c2>
20001040:	eb1c 0101 	adds.w	r1, ip, r1
20001044:	bf2c      	ite	cs
20001046:	2501      	movcs	r5, #1
20001048:	2500      	movcc	r5, #0
2000104a:	4288      	cmp	r0, r1
2000104c:	d902      	bls.n	20001054 <__udivmoddi4+0x1c0>
2000104e:	2d00      	cmp	r5, #0
20001050:	f000 80b2 	beq.w	200011b8 <__udivmoddi4+0x324>
20001054:	3f01      	subs	r7, #1
20001056:	1a09      	subs	r1, r1, r0
20001058:	b29b      	uxth	r3, r3
2000105a:	fbb1 f0f6 	udiv	r0, r1, r6
2000105e:	fb06 1110 	mls	r1, r6, r0, r1
20001062:	fb00 fe0e 	mul.w	lr, r0, lr
20001066:	ea43 4301 	orr.w	r3, r3, r1, lsl #16
2000106a:	459e      	cmp	lr, r3
2000106c:	d90a      	bls.n	20001084 <__udivmoddi4+0x1f0>
2000106e:	eb1c 0303 	adds.w	r3, ip, r3
20001072:	bf2c      	ite	cs
20001074:	2101      	movcs	r1, #1
20001076:	2100      	movcc	r1, #0
20001078:	459e      	cmp	lr, r3
2000107a:	d902      	bls.n	20001082 <__udivmoddi4+0x1ee>
2000107c:	2900      	cmp	r1, #0
2000107e:	f000 809e 	beq.w	200011be <__udivmoddi4+0x32a>
20001082:	3801      	subs	r0, #1
20001084:	ea40 4007 	orr.w	r0, r0, r7, lsl #16
20001088:	eba3 030e 	sub.w	r3, r3, lr
2000108c:	fba0 e109 	umull	lr, r1, r0, r9
20001090:	428b      	cmp	r3, r1
20001092:	4676      	mov	r6, lr
20001094:	460f      	mov	r7, r1
20001096:	d302      	bcc.n	2000109e <__udivmoddi4+0x20a>
20001098:	d107      	bne.n	200010aa <__udivmoddi4+0x216>
2000109a:	45f2      	cmp	sl, lr
2000109c:	d205      	bcs.n	200010aa <__udivmoddi4+0x216>
2000109e:	ebbe 0609 	subs.w	r6, lr, r9
200010a2:	eb61 010c 	sbc.w	r1, r1, ip
200010a6:	3801      	subs	r0, #1
200010a8:	460f      	mov	r7, r1
200010aa:	b152      	cbz	r2, 200010c2 <__udivmoddi4+0x22e>
200010ac:	ebba 0106 	subs.w	r1, sl, r6
200010b0:	eb63 0307 	sbc.w	r3, r3, r7
200010b4:	fa03 f508 	lsl.w	r5, r3, r8
200010b8:	40e1      	lsrs	r1, r4
200010ba:	40e3      	lsrs	r3, r4
200010bc:	430d      	orrs	r5, r1
200010be:	e9c2 5300 	strd	r5, r3, [r2]
200010c2:	2400      	movs	r4, #0
200010c4:	e73b      	b.n	20000f3e <__udivmoddi4+0xaa>
200010c6:	0873      	lsrs	r3, r6, #1
200010c8:	46b8      	mov	r8, r7
200010ca:	0849      	lsrs	r1, r1, #1
200010cc:	9701      	str	r7, [sp, #4]
200010ce:	ea43 73c0 	orr.w	r3, r3, r0, lsl #31
200010d2:	ea4f 7cc6 	mov.w	ip, r6, lsl #31
200010d6:	0c1c      	lsrs	r4, r3, #16
200010d8:	b29b      	uxth	r3, r3
200010da:	ea44 4401 	orr.w	r4, r4, r1, lsl #16
200010de:	ea43 4304 	orr.w	r3, r3, r4, lsl #16
200010e2:	fbb4 f4f7 	udiv	r4, r4, r7
200010e6:	fbb1 f5f7 	udiv	r5, r1, r7
200010ea:	211f      	movs	r1, #31
200010ec:	9801      	ldr	r0, [sp, #4]
200010ee:	ea44 4405 	orr.w	r4, r4, r5, lsl #16
200010f2:	1a1b      	subs	r3, r3, r0
200010f4:	e750      	b.n	20000f98 <__udivmoddi4+0x104>
200010f6:	4619      	mov	r1, r3
200010f8:	fa07 fe03 	lsl.w	lr, r7, r3
200010fc:	f1c3 0320 	rsb	r3, r3, #32
20001100:	fa00 f401 	lsl.w	r4, r0, r1
20001104:	ea4f 471e 	mov.w	r7, lr, lsr #16
20001108:	40d8      	lsrs	r0, r3
2000110a:	fa26 f303 	lsr.w	r3, r6, r3
2000110e:	fa1f f88e 	uxth.w	r8, lr
20001112:	fa06 fc01 	lsl.w	ip, r6, r1
20001116:	4323      	orrs	r3, r4
20001118:	fbb0 f5f7 	udiv	r5, r0, r7
2000111c:	0c1c      	lsrs	r4, r3, #16
2000111e:	fb07 0015 	mls	r0, r7, r5, r0
20001122:	ea44 4000 	orr.w	r0, r4, r0, lsl #16
20001126:	fb05 f408 	mul.w	r4, r5, r8
2000112a:	4284      	cmp	r4, r0
2000112c:	d94a      	bls.n	200011c4 <__udivmoddi4+0x330>
2000112e:	eb1e 0000 	adds.w	r0, lr, r0
20001132:	bf2c      	ite	cs
20001134:	2601      	movcs	r6, #1
20001136:	2600      	movcc	r6, #0
20001138:	4284      	cmp	r4, r0
2000113a:	d900      	bls.n	2000113e <__udivmoddi4+0x2aa>
2000113c:	b38e      	cbz	r6, 200011a2 <__udivmoddi4+0x30e>
2000113e:	1b00      	subs	r0, r0, r4
20001140:	3d01      	subs	r5, #1
20001142:	fbb0 f4f7 	udiv	r4, r0, r7
20001146:	fb04 f608 	mul.w	r6, r4, r8
2000114a:	46a1      	mov	r9, r4
2000114c:	9601      	str	r6, [sp, #4]
2000114e:	fb07 0019 	mls	r0, r7, r9, r0
20001152:	b29b      	uxth	r3, r3
20001154:	9e01      	ldr	r6, [sp, #4]
20001156:	ea43 4300 	orr.w	r3, r3, r0, lsl #16
2000115a:	42b3      	cmp	r3, r6
2000115c:	d2c6      	bcs.n	200010ec <__udivmoddi4+0x258>
2000115e:	eb1e 0303 	adds.w	r3, lr, r3
20001162:	bf2c      	ite	cs
20001164:	2001      	movcs	r0, #1
20001166:	2000      	movcc	r0, #0
20001168:	42b3      	cmp	r3, r6
2000116a:	d200      	bcs.n	2000116e <__udivmoddi4+0x2da>
2000116c:	b1a8      	cbz	r0, 2000119a <__udivmoddi4+0x306>
2000116e:	f109 34ff 	add.w	r4, r9, #4294967295
20001172:	e7bb      	b.n	200010ec <__udivmoddi4+0x258>
20001174:	ebb6 0c07 	subs.w	ip, r6, r7
20001178:	eb60 0303 	sbc.w	r3, r0, r3
2000117c:	2001      	movs	r0, #1
2000117e:	461d      	mov	r5, r3
20001180:	e6f7      	b.n	20000f72 <__udivmoddi4+0xde>
20001182:	44f4      	add	ip, lr
20001184:	3802      	subs	r0, #2
20001186:	e736      	b.n	20000ff6 <__udivmoddi4+0x162>
20001188:	3d02      	subs	r5, #2
2000118a:	4473      	add	r3, lr
2000118c:	e71b      	b.n	20000fc6 <__udivmoddi4+0x132>
2000118e:	3c02      	subs	r4, #2
20001190:	4473      	add	r3, lr
20001192:	e6b1      	b.n	20000ef8 <__udivmoddi4+0x64>
20001194:	44f4      	add	ip, lr
20001196:	3d02      	subs	r5, #2
20001198:	e6c6      	b.n	20000f28 <__udivmoddi4+0x94>
2000119a:	f1a9 0402 	sub.w	r4, r9, #2
2000119e:	4473      	add	r3, lr
200011a0:	e7a4      	b.n	200010ec <__udivmoddi4+0x258>
200011a2:	ebae 0404 	sub.w	r4, lr, r4
200011a6:	3d02      	subs	r5, #2
200011a8:	4420      	add	r0, r4
200011aa:	fbb0 f4f7 	udiv	r4, r0, r7
200011ae:	fb04 f608 	mul.w	r6, r4, r8
200011b2:	46a1      	mov	r9, r4
200011b4:	9601      	str	r6, [sp, #4]
200011b6:	e7ca      	b.n	2000114e <__udivmoddi4+0x2ba>
200011b8:	3f02      	subs	r7, #2
200011ba:	4461      	add	r1, ip
200011bc:	e74b      	b.n	20001056 <__udivmoddi4+0x1c2>
200011be:	3802      	subs	r0, #2
200011c0:	4463      	add	r3, ip
200011c2:	e75f      	b.n	20001084 <__udivmoddi4+0x1f0>
200011c4:	1b00      	subs	r0, r0, r4
200011c6:	fbb0 f4f7 	udiv	r4, r0, r7
200011ca:	fb04 f608 	mul.w	r6, r4, r8
200011ce:	46a1      	mov	r9, r4
200011d0:	9601      	str	r6, [sp, #4]
200011d2:	e7bc      	b.n	2000114e <__udivmoddi4+0x2ba>

200011d4 <__aeabi_idiv0>:
200011d4:	4770      	bx	lr
200011d6:	bf00      	nop

200011d8 <__time_us_64_veneer>:
200011d8:	f85f f000 	ldr.w	pc, [pc]	@ 200011dc <__time_us_64_veneer+0x4>
200011dc:	100047c1 	.word	0x100047c1

200011e0 <__panic_veneer>:
200011e0:	f85f f000 	ldr.w	pc, [pc]	@ 200011e4 <__panic_veneer+0x4>
200011e4:	10003985 	.word	0x10003985

200011e8 <__xPortLockInternalSpinUnlockWithBestEffortWaitOrTimeout_veneer>:
200011e8:	f85f f000 	ldr.w	pc, [pc]	@ 200011ec <__xPortLockInternalSpinUnlockWithBestEffortWaitOrTimeout_veneer+0x4>
200011ec:	100008bd 	.word	0x100008bd

200011f0 <__memset_veneer>:
200011f0:	f85f f000 	ldr.w	pc, [pc]	@ 200011f4 <__memset_veneer+0x4>
200011f4:	10009435 	.word	0x10009435

200011f8 <__tu_fifo_write_veneer>:
200011f8:	f85f f000 	ldr.w	pc, [pc]	@ 200011fc <__tu_fifo_write_veneer+0x4>
200011fc:	100091c9 	.word	0x100091c9

20001200 <__ulPortLockGetCurrentOwnerId_veneer>:
20001200:	f85f f000 	ldr.w	pc, [pc]	@ 20001204 <__ulPortLockGetCurrentOwnerId_veneer+0x4>
20001204:	10000801 	.word	0x10000801

20001208 <__vPortLockInternalSpinUnlockWithNotify_veneer>:
20001208:	f85f f000 	ldr.w	pc, [pc]	@ 2000120c <__vPortLockInternalSpinUnlockWithNotify_veneer+0x4>
2000120c:	1000082d 	.word	0x1000082d

20001210 <__tud_event_hook_cb_veneer>:
20001210:	f85f f000 	ldr.w	pc, [pc]	@ 20001214 <__tud_event_hook_cb_veneer+0x4>
20001214:	10007711 	.word	0x10007711

20001218 <cDoorbellNum>:
20001218:	                                         .

20001219 <ucPrimaryCoreNum>:
20001219:	                                         .

2000121a <striped_spin_lock_num>:
2000121a:	                                         ..

2000121c <irq_handler_chain_slots>:
2000121c:	00000000 	.word	0x00000000
20001220:	00010000 	.word	0x00010000
	...
2000122c:	00020000 	.word	0x00020000
	...
20001238:	00030000 	.word	0x00030000
	...
20001244:	00ff0000 	.word	0x00ff0000
20001248:	00000000 	.word	0x00000000

2000124c <irq_handler_chain_first_slot>:
2000124c:	b501      	push	{r0, lr}
2000124e:	6848      	ldr	r0, [r1, #4]
20001250:	3101      	adds	r1, #1
20001252:	468e      	mov	lr, r1
20001254:	4700      	bx	r0

20001256 <irq_handler_chain_remove_tail>:
20001256:	4670      	mov	r0, lr
20001258:	3809      	subs	r0, #9
2000125a:	4901      	ldr	r1, [pc, #4]	@ (20001260 <irq_handler_chain_remove_tail+0xa>)
2000125c:	4788      	blx	r1
2000125e:	bd01      	pop	{r0, pc}
20001260:	10003e91 	.word	0x10003e91

20001264 <default_alarm_pool>:
	...
20001278:	20001390                                ... 

2000127c <stdio_usb>:
2000127c:	10006e79 10006e25 10006d9d 10006d0d     yn..%n...m...m..
2000128c:	00000000 00000100                       ........

20001294 <_usbd_qdef>:
20001294:	200016bc 000c0010 00000000 00000000     ... ............
	...

200012b0 <_usbd_rhport>:
200012b0:	000000ff                                ....

200012b4 <malloc_mutex>:
	...

200012bc <print_mutex>:
	...
